ARM GAS  C:\Users\Melody\AppData\Local\Temp\ccJlrtOe.s 			page 1


   1              		.syntax unified
   2              		.cpu cortex-m0
   3              		.fpu softvfp
   4              		.eabi_attribute 20, 1
   5              		.eabi_attribute 21, 1
   6              		.eabi_attribute 23, 3
   7              		.eabi_attribute 24, 1
   8              		.eabi_attribute 25, 1
   9              		.eabi_attribute 26, 1
  10              		.eabi_attribute 30, 4
  11              		.eabi_attribute 34, 0
  12              		.eabi_attribute 18, 4
  13              		.thumb
  14              		.syntax unified
  15              		.file	"CAN_INT.c"
  16              		.text
  17              	.Ltext0:
  18              		.cfi_sections	.debug_frame
  19              		.section	.text.CAN_BusOffIsr,"ax",%progbits
  20              		.align	1
  21              		.global	CAN_BusOffIsr
  22              		.code	16
  23              		.thumb_func
  24              		.type	CAN_BusOffIsr, %function
  25              	CAN_BusOffIsr:
  26              	.LFB1:
  27              		.file 1 "Generated_Source\\PSoC4\\CAN_INT.c"
   1:Generated_Source\PSoC4/CAN_INT.c **** /*******************************************************************************
   2:Generated_Source\PSoC4/CAN_INT.c **** * File Name: CAN_INT.c
   3:Generated_Source\PSoC4/CAN_INT.c **** * Version 3.0
   4:Generated_Source\PSoC4/CAN_INT.c **** *
   5:Generated_Source\PSoC4/CAN_INT.c **** * Description:
   6:Generated_Source\PSoC4/CAN_INT.c **** *  This file contains Interrupt Service Routine (ISR) for CAN Component.
   7:Generated_Source\PSoC4/CAN_INT.c **** *  The Interrupt handlers functions are generated accordingly to the PSoC
   8:Generated_Source\PSoC4/CAN_INT.c **** *  Creator Customizer inputs.
   9:Generated_Source\PSoC4/CAN_INT.c **** *
  10:Generated_Source\PSoC4/CAN_INT.c **** * Note:
  11:Generated_Source\PSoC4/CAN_INT.c **** *  None
  12:Generated_Source\PSoC4/CAN_INT.c **** *
  13:Generated_Source\PSoC4/CAN_INT.c **** ********************************************************************************
  14:Generated_Source\PSoC4/CAN_INT.c **** * Copyright 2008-2015, Cypress Semiconductor Corporation.  All rights reserved.
  15:Generated_Source\PSoC4/CAN_INT.c **** * You may use this file only in accordance with the license, terms, conditions,
  16:Generated_Source\PSoC4/CAN_INT.c **** * disclaimers, and limitations in the end user license agreement accompanying
  17:Generated_Source\PSoC4/CAN_INT.c **** * the software package with which this file was provided.
  18:Generated_Source\PSoC4/CAN_INT.c **** *******************************************************************************/
  19:Generated_Source\PSoC4/CAN_INT.c **** 
  20:Generated_Source\PSoC4/CAN_INT.c **** #include "CAN.h"
  21:Generated_Source\PSoC4/CAN_INT.c **** #include "cyapicallbacks.h"
  22:Generated_Source\PSoC4/CAN_INT.c **** 
  23:Generated_Source\PSoC4/CAN_INT.c **** /* `#START CAN_INT_C_CODE_DEFINITION` */
  24:Generated_Source\PSoC4/CAN_INT.c **** 
  25:Generated_Source\PSoC4/CAN_INT.c **** /* `#END` */
  26:Generated_Source\PSoC4/CAN_INT.c **** 
  27:Generated_Source\PSoC4/CAN_INT.c **** #if (CAN_ARB_LOST)
  28:Generated_Source\PSoC4/CAN_INT.c ****     /*******************************************************************************
  29:Generated_Source\PSoC4/CAN_INT.c ****     * FUNCTION NAME:   CAN_ArbLostIsr
  30:Generated_Source\PSoC4/CAN_INT.c ****     ********************************************************************************
ARM GAS  C:\Users\Melody\AppData\Local\Temp\ccJlrtOe.s 			page 2


  31:Generated_Source\PSoC4/CAN_INT.c ****     *
  32:Generated_Source\PSoC4/CAN_INT.c ****     * Summary:
  33:Generated_Source\PSoC4/CAN_INT.c ****     *  This function is entry point to Arbitration Lost Interrupt. Clears
  34:Generated_Source\PSoC4/CAN_INT.c ****     *  Arbitration Lost interrupt flag. Only generated if Arbitration Lost
  35:Generated_Source\PSoC4/CAN_INT.c ****     *  Interrupt enable in Customizer.
  36:Generated_Source\PSoC4/CAN_INT.c ****     *
  37:Generated_Source\PSoC4/CAN_INT.c ****     * Parameters:
  38:Generated_Source\PSoC4/CAN_INT.c ****     *  None.
  39:Generated_Source\PSoC4/CAN_INT.c ****     *
  40:Generated_Source\PSoC4/CAN_INT.c ****     * Return:
  41:Generated_Source\PSoC4/CAN_INT.c ****     *  None.
  42:Generated_Source\PSoC4/CAN_INT.c ****     *
  43:Generated_Source\PSoC4/CAN_INT.c ****     * Reentrant:
  44:Generated_Source\PSoC4/CAN_INT.c ****     *  Depends on Customer code.
  45:Generated_Source\PSoC4/CAN_INT.c ****     *
  46:Generated_Source\PSoC4/CAN_INT.c ****     *******************************************************************************/
  47:Generated_Source\PSoC4/CAN_INT.c ****     void CAN_ArbLostIsr(void) 
  48:Generated_Source\PSoC4/CAN_INT.c ****     {
  49:Generated_Source\PSoC4/CAN_INT.c ****         /* Clear Arbitration Lost flag */
  50:Generated_Source\PSoC4/CAN_INT.c ****         CAN_INT_SR_REG = CAN_ARBITRATION_LOST_MASK;
  51:Generated_Source\PSoC4/CAN_INT.c **** 
  52:Generated_Source\PSoC4/CAN_INT.c ****         /* `#START ARBITRATION_LOST_ISR` */
  53:Generated_Source\PSoC4/CAN_INT.c **** 
  54:Generated_Source\PSoC4/CAN_INT.c ****         /* `#END` */
  55:Generated_Source\PSoC4/CAN_INT.c **** 
  56:Generated_Source\PSoC4/CAN_INT.c ****         #ifdef CAN_ARB_LOST_ISR_CALLBACK
  57:Generated_Source\PSoC4/CAN_INT.c ****             CAN_ArbLostIsr_Callback();
  58:Generated_Source\PSoC4/CAN_INT.c ****         #endif /* CAN_ARB_LOST_ISR_CALLBACK */
  59:Generated_Source\PSoC4/CAN_INT.c ****     }
  60:Generated_Source\PSoC4/CAN_INT.c **** #endif /* CAN_ARB_LOST */
  61:Generated_Source\PSoC4/CAN_INT.c **** 
  62:Generated_Source\PSoC4/CAN_INT.c **** 
  63:Generated_Source\PSoC4/CAN_INT.c **** #if (CAN_OVERLOAD)
  64:Generated_Source\PSoC4/CAN_INT.c ****     /*******************************************************************************
  65:Generated_Source\PSoC4/CAN_INT.c ****     * FUNCTION NAME:   CAN_OvrLdErrorIsr
  66:Generated_Source\PSoC4/CAN_INT.c ****     ********************************************************************************
  67:Generated_Source\PSoC4/CAN_INT.c ****     *
  68:Generated_Source\PSoC4/CAN_INT.c ****     * Summary:
  69:Generated_Source\PSoC4/CAN_INT.c ****     *  This function is entry point to Overload Error Interrupt. Clears Overload
  70:Generated_Source\PSoC4/CAN_INT.c ****     *  Error interrupt flag. Only generated if Overload Error Interrupt enable
  71:Generated_Source\PSoC4/CAN_INT.c ****     *  in Customizer.
  72:Generated_Source\PSoC4/CAN_INT.c ****     *
  73:Generated_Source\PSoC4/CAN_INT.c ****     * Parameters:
  74:Generated_Source\PSoC4/CAN_INT.c ****     *  None.
  75:Generated_Source\PSoC4/CAN_INT.c ****     *
  76:Generated_Source\PSoC4/CAN_INT.c ****     * Return:
  77:Generated_Source\PSoC4/CAN_INT.c ****     *  None.
  78:Generated_Source\PSoC4/CAN_INT.c ****     *
  79:Generated_Source\PSoC4/CAN_INT.c ****     * Reentrant:
  80:Generated_Source\PSoC4/CAN_INT.c ****     *  Depends on Customer code.
  81:Generated_Source\PSoC4/CAN_INT.c ****     *
  82:Generated_Source\PSoC4/CAN_INT.c ****     *******************************************************************************/
  83:Generated_Source\PSoC4/CAN_INT.c ****     void CAN_OvrLdErrorIsr(void) 
  84:Generated_Source\PSoC4/CAN_INT.c ****     {
  85:Generated_Source\PSoC4/CAN_INT.c ****         /* Clear Overload Error flag */
  86:Generated_Source\PSoC4/CAN_INT.c ****         CAN_INT_SR_REG = CAN_OVERLOAD_ERROR_MASK;
  87:Generated_Source\PSoC4/CAN_INT.c **** 
ARM GAS  C:\Users\Melody\AppData\Local\Temp\ccJlrtOe.s 			page 3


  88:Generated_Source\PSoC4/CAN_INT.c ****         /* `#START OVER_LOAD_ERROR_ISR` */
  89:Generated_Source\PSoC4/CAN_INT.c **** 
  90:Generated_Source\PSoC4/CAN_INT.c ****         /* `#END` */
  91:Generated_Source\PSoC4/CAN_INT.c **** 
  92:Generated_Source\PSoC4/CAN_INT.c ****         #ifdef CAN_OVR_LD_ERROR_ISR_CALLBACK
  93:Generated_Source\PSoC4/CAN_INT.c ****             CAN_OvrLdErrorIsr_Callback();
  94:Generated_Source\PSoC4/CAN_INT.c ****         #endif /* CAN_OVR_LD_ERROR_ISR_CALLBACK */
  95:Generated_Source\PSoC4/CAN_INT.c ****     }
  96:Generated_Source\PSoC4/CAN_INT.c **** #endif /* CAN_OVERLOAD */
  97:Generated_Source\PSoC4/CAN_INT.c **** 
  98:Generated_Source\PSoC4/CAN_INT.c **** 
  99:Generated_Source\PSoC4/CAN_INT.c **** #if (CAN_BIT_ERR)
 100:Generated_Source\PSoC4/CAN_INT.c ****     /*******************************************************************************
 101:Generated_Source\PSoC4/CAN_INT.c ****     * FUNCTION NAME:   CAN_BitErrorIsr
 102:Generated_Source\PSoC4/CAN_INT.c ****     ********************************************************************************
 103:Generated_Source\PSoC4/CAN_INT.c ****     *
 104:Generated_Source\PSoC4/CAN_INT.c ****     * Summary:
 105:Generated_Source\PSoC4/CAN_INT.c ****     *  This function is entry point to Bit Error Interrupt. Clears Bit Error
 106:Generated_Source\PSoC4/CAN_INT.c ****     *  interrupt flag. Only generated if Bit Error Interrupt enable in Customizer.
 107:Generated_Source\PSoC4/CAN_INT.c ****     *
 108:Generated_Source\PSoC4/CAN_INT.c ****     * Parameters:
 109:Generated_Source\PSoC4/CAN_INT.c ****     *  None.
 110:Generated_Source\PSoC4/CAN_INT.c ****     *
 111:Generated_Source\PSoC4/CAN_INT.c ****     * Return:
 112:Generated_Source\PSoC4/CAN_INT.c ****     *  None.
 113:Generated_Source\PSoC4/CAN_INT.c ****     *
 114:Generated_Source\PSoC4/CAN_INT.c ****     * Reentrant:
 115:Generated_Source\PSoC4/CAN_INT.c ****     *  Depends on Customer code.
 116:Generated_Source\PSoC4/CAN_INT.c ****     *
 117:Generated_Source\PSoC4/CAN_INT.c ****     *******************************************************************************/
 118:Generated_Source\PSoC4/CAN_INT.c ****     void CAN_BitErrorIsr(void) 
 119:Generated_Source\PSoC4/CAN_INT.c ****     {
 120:Generated_Source\PSoC4/CAN_INT.c ****         /* Clear Bit Error flag */
 121:Generated_Source\PSoC4/CAN_INT.c ****         CAN_INT_SR_REG = CAN_BIT_ERROR_MASK;
 122:Generated_Source\PSoC4/CAN_INT.c **** 
 123:Generated_Source\PSoC4/CAN_INT.c ****         /* `#START BIT_ERROR_ISR` */
 124:Generated_Source\PSoC4/CAN_INT.c **** 
 125:Generated_Source\PSoC4/CAN_INT.c ****         /* `#END` */
 126:Generated_Source\PSoC4/CAN_INT.c **** 
 127:Generated_Source\PSoC4/CAN_INT.c ****         #ifdef CAN_BIT_ERROR_ISR_CALLBACK
 128:Generated_Source\PSoC4/CAN_INT.c ****             CAN_BitErrorIsr_Callback();
 129:Generated_Source\PSoC4/CAN_INT.c ****         #endif /* CAN_BIT_ERROR_ISR_CALLBACK */
 130:Generated_Source\PSoC4/CAN_INT.c ****     }
 131:Generated_Source\PSoC4/CAN_INT.c **** #endif /* CAN_BIT_ERR */
 132:Generated_Source\PSoC4/CAN_INT.c **** 
 133:Generated_Source\PSoC4/CAN_INT.c **** 
 134:Generated_Source\PSoC4/CAN_INT.c **** #if (CAN_STUFF_ERR)
 135:Generated_Source\PSoC4/CAN_INT.c ****     /*******************************************************************************
 136:Generated_Source\PSoC4/CAN_INT.c ****     * FUNCTION NAME:   CAN_BitStuffErrorIsr
 137:Generated_Source\PSoC4/CAN_INT.c ****     ********************************************************************************
 138:Generated_Source\PSoC4/CAN_INT.c ****     *
 139:Generated_Source\PSoC4/CAN_INT.c ****     * Summary:
 140:Generated_Source\PSoC4/CAN_INT.c ****     *  This function is entry point to Bit Stuff Error Interrupt. Clears Bit Stuff
 141:Generated_Source\PSoC4/CAN_INT.c ****     *  Error interrupt flag. Only generated if Bit Stuff Error Interrupt enable
 142:Generated_Source\PSoC4/CAN_INT.c ****     *  in Customizer.
 143:Generated_Source\PSoC4/CAN_INT.c ****     *
 144:Generated_Source\PSoC4/CAN_INT.c ****     * Parameters:
ARM GAS  C:\Users\Melody\AppData\Local\Temp\ccJlrtOe.s 			page 4


 145:Generated_Source\PSoC4/CAN_INT.c ****     *  None.
 146:Generated_Source\PSoC4/CAN_INT.c ****     *
 147:Generated_Source\PSoC4/CAN_INT.c ****     * Return:
 148:Generated_Source\PSoC4/CAN_INT.c ****     *  None.
 149:Generated_Source\PSoC4/CAN_INT.c ****     *
 150:Generated_Source\PSoC4/CAN_INT.c ****     * Reentrant:
 151:Generated_Source\PSoC4/CAN_INT.c ****     *  Depends on Customer code.
 152:Generated_Source\PSoC4/CAN_INT.c ****     *
 153:Generated_Source\PSoC4/CAN_INT.c ****     *******************************************************************************/
 154:Generated_Source\PSoC4/CAN_INT.c ****     void CAN_BitStuffErrorIsr(void) 
 155:Generated_Source\PSoC4/CAN_INT.c ****     {
 156:Generated_Source\PSoC4/CAN_INT.c ****         /* Clear Stuff Error flag */
 157:Generated_Source\PSoC4/CAN_INT.c ****         CAN_INT_SR_REG = CAN_STUFF_ERROR_MASK;
 158:Generated_Source\PSoC4/CAN_INT.c **** 
 159:Generated_Source\PSoC4/CAN_INT.c ****         /* `#START BIT_STUFF_ERROR_ISR` */
 160:Generated_Source\PSoC4/CAN_INT.c **** 
 161:Generated_Source\PSoC4/CAN_INT.c ****         /* `#END` */
 162:Generated_Source\PSoC4/CAN_INT.c **** 
 163:Generated_Source\PSoC4/CAN_INT.c ****         #ifdef CAN_BIT_STUFF_ERROR_ISR_CALLBACK
 164:Generated_Source\PSoC4/CAN_INT.c ****             CAN_BitStuffErrorIsr_Callback();
 165:Generated_Source\PSoC4/CAN_INT.c ****         #endif /* CAN_BIT_STUFF_ERROR_ISR_CALLBACK */
 166:Generated_Source\PSoC4/CAN_INT.c ****     }
 167:Generated_Source\PSoC4/CAN_INT.c **** #endif /* CAN_STUFF_ERR */
 168:Generated_Source\PSoC4/CAN_INT.c **** 
 169:Generated_Source\PSoC4/CAN_INT.c **** 
 170:Generated_Source\PSoC4/CAN_INT.c **** #if (CAN_ACK_ERR)
 171:Generated_Source\PSoC4/CAN_INT.c ****     /*******************************************************************************
 172:Generated_Source\PSoC4/CAN_INT.c ****     * FUNCTION NAME:   CAN_AckErrorIsr
 173:Generated_Source\PSoC4/CAN_INT.c ****     ********************************************************************************
 174:Generated_Source\PSoC4/CAN_INT.c ****     *
 175:Generated_Source\PSoC4/CAN_INT.c ****     * Summary:
 176:Generated_Source\PSoC4/CAN_INT.c ****     *  This function is entry point to Acknowledge Error Interrupt. Clears
 177:Generated_Source\PSoC4/CAN_INT.c ****     *  Acknowledge Error interrupt flag. Only generated if Acknowledge Error
 178:Generated_Source\PSoC4/CAN_INT.c ****     *  Interrupt enable in Customizer.
 179:Generated_Source\PSoC4/CAN_INT.c ****     *
 180:Generated_Source\PSoC4/CAN_INT.c ****     * Parameters:
 181:Generated_Source\PSoC4/CAN_INT.c ****     *  None.
 182:Generated_Source\PSoC4/CAN_INT.c ****     *
 183:Generated_Source\PSoC4/CAN_INT.c ****     * Return:
 184:Generated_Source\PSoC4/CAN_INT.c ****     *  None.
 185:Generated_Source\PSoC4/CAN_INT.c ****     *
 186:Generated_Source\PSoC4/CAN_INT.c ****     * Reentrant:
 187:Generated_Source\PSoC4/CAN_INT.c ****     *  Depends on Customer code.
 188:Generated_Source\PSoC4/CAN_INT.c ****     *
 189:Generated_Source\PSoC4/CAN_INT.c ****     *******************************************************************************/
 190:Generated_Source\PSoC4/CAN_INT.c ****     void CAN_AckErrorIsr(void) 
 191:Generated_Source\PSoC4/CAN_INT.c ****     {
 192:Generated_Source\PSoC4/CAN_INT.c ****         /* Clear Acknoledge Error flag */
 193:Generated_Source\PSoC4/CAN_INT.c ****         CAN_INT_SR_REG = CAN_ACK_ERROR_MASK;
 194:Generated_Source\PSoC4/CAN_INT.c **** 
 195:Generated_Source\PSoC4/CAN_INT.c ****         /* `#START ACKNOWLEDGE_ERROR_ISR` */
 196:Generated_Source\PSoC4/CAN_INT.c **** 
 197:Generated_Source\PSoC4/CAN_INT.c ****         /* `#END` */
 198:Generated_Source\PSoC4/CAN_INT.c **** 
 199:Generated_Source\PSoC4/CAN_INT.c ****         #ifdef CAN_ACK_ERROR_ISR_CALLBACK
 200:Generated_Source\PSoC4/CAN_INT.c ****             CAN_AckErrorIsr_Callback();
 201:Generated_Source\PSoC4/CAN_INT.c ****         #endif /* CAN_ACK_ERROR_ISR_CALLBACK */
ARM GAS  C:\Users\Melody\AppData\Local\Temp\ccJlrtOe.s 			page 5


 202:Generated_Source\PSoC4/CAN_INT.c ****     }
 203:Generated_Source\PSoC4/CAN_INT.c **** #endif /* CAN_ACK_ERR */
 204:Generated_Source\PSoC4/CAN_INT.c **** 
 205:Generated_Source\PSoC4/CAN_INT.c **** 
 206:Generated_Source\PSoC4/CAN_INT.c **** #if (CAN_FORM_ERR)
 207:Generated_Source\PSoC4/CAN_INT.c ****     /*******************************************************************************
 208:Generated_Source\PSoC4/CAN_INT.c ****     * FUNCTION NAME:   CAN_MsgErrorIsr
 209:Generated_Source\PSoC4/CAN_INT.c ****     ********************************************************************************
 210:Generated_Source\PSoC4/CAN_INT.c ****     *
 211:Generated_Source\PSoC4/CAN_INT.c ****     * Summary:
 212:Generated_Source\PSoC4/CAN_INT.c ****     *  This function is entry point to Form Error Interrupt. Clears Form Error
 213:Generated_Source\PSoC4/CAN_INT.c ****     *  interrupt flag. Only generated if Form Error Interrupt enable in Customizer.
 214:Generated_Source\PSoC4/CAN_INT.c ****     *
 215:Generated_Source\PSoC4/CAN_INT.c ****     * Parameters:
 216:Generated_Source\PSoC4/CAN_INT.c ****     *  None.
 217:Generated_Source\PSoC4/CAN_INT.c ****     *
 218:Generated_Source\PSoC4/CAN_INT.c ****     * Return:
 219:Generated_Source\PSoC4/CAN_INT.c ****     *  None.
 220:Generated_Source\PSoC4/CAN_INT.c ****     *
 221:Generated_Source\PSoC4/CAN_INT.c ****     * Reentrant:
 222:Generated_Source\PSoC4/CAN_INT.c ****     *  Depends on Customer code.
 223:Generated_Source\PSoC4/CAN_INT.c ****     *
 224:Generated_Source\PSoC4/CAN_INT.c ****     *******************************************************************************/
 225:Generated_Source\PSoC4/CAN_INT.c ****     void CAN_MsgErrorIsr(void) 
 226:Generated_Source\PSoC4/CAN_INT.c ****     {
 227:Generated_Source\PSoC4/CAN_INT.c ****         /* Clear Form Error flag */
 228:Generated_Source\PSoC4/CAN_INT.c ****         CAN_INT_SR_REG = CAN_FORM_ERROR_MASK;
 229:Generated_Source\PSoC4/CAN_INT.c **** 
 230:Generated_Source\PSoC4/CAN_INT.c ****         /* `#START MESSAGE_ERROR_ISR` */
 231:Generated_Source\PSoC4/CAN_INT.c **** 
 232:Generated_Source\PSoC4/CAN_INT.c ****         /* `#END` */
 233:Generated_Source\PSoC4/CAN_INT.c **** 
 234:Generated_Source\PSoC4/CAN_INT.c ****         #ifdef CAN_MSG_ERROR_ISR_CALLBACK
 235:Generated_Source\PSoC4/CAN_INT.c ****             CAN_MsgErrorIsr_Callback();
 236:Generated_Source\PSoC4/CAN_INT.c ****         #endif /* CAN_MSG_ERROR_ISR_CALLBACK */
 237:Generated_Source\PSoC4/CAN_INT.c ****     }
 238:Generated_Source\PSoC4/CAN_INT.c **** #endif /* CAN_FORM_ERR */
 239:Generated_Source\PSoC4/CAN_INT.c **** 
 240:Generated_Source\PSoC4/CAN_INT.c **** 
 241:Generated_Source\PSoC4/CAN_INT.c **** #if (CAN_CRC_ERR)
 242:Generated_Source\PSoC4/CAN_INT.c ****     /*******************************************************************************
 243:Generated_Source\PSoC4/CAN_INT.c ****     * FUNCTION NAME:   CAN_CrcErrorIsr
 244:Generated_Source\PSoC4/CAN_INT.c ****     ********************************************************************************
 245:Generated_Source\PSoC4/CAN_INT.c ****     *
 246:Generated_Source\PSoC4/CAN_INT.c ****     * Summary:
 247:Generated_Source\PSoC4/CAN_INT.c ****     *  This function is entry point to CRC Error Interrupt. Clears CRC Error
 248:Generated_Source\PSoC4/CAN_INT.c ****     *  interrupt flag. Only generated if CRC Error Interrupt enable in Customizer.
 249:Generated_Source\PSoC4/CAN_INT.c ****     *
 250:Generated_Source\PSoC4/CAN_INT.c ****     * Parameters:
 251:Generated_Source\PSoC4/CAN_INT.c ****     *  None.
 252:Generated_Source\PSoC4/CAN_INT.c ****     *
 253:Generated_Source\PSoC4/CAN_INT.c ****     * Return:
 254:Generated_Source\PSoC4/CAN_INT.c ****     *  None.
 255:Generated_Source\PSoC4/CAN_INT.c ****     *
 256:Generated_Source\PSoC4/CAN_INT.c ****     * Reentrant:
 257:Generated_Source\PSoC4/CAN_INT.c ****     *  Depends on Customer code.
 258:Generated_Source\PSoC4/CAN_INT.c ****     *
ARM GAS  C:\Users\Melody\AppData\Local\Temp\ccJlrtOe.s 			page 6


 259:Generated_Source\PSoC4/CAN_INT.c ****     *******************************************************************************/
 260:Generated_Source\PSoC4/CAN_INT.c ****     void CAN_CrcErrorIsr(void) 
 261:Generated_Source\PSoC4/CAN_INT.c ****     {
 262:Generated_Source\PSoC4/CAN_INT.c ****         /* Clear CRC Error flag */
 263:Generated_Source\PSoC4/CAN_INT.c ****         CAN_INT_SR_REG = CAN_CRC_ERROR_MASK;
 264:Generated_Source\PSoC4/CAN_INT.c **** 
 265:Generated_Source\PSoC4/CAN_INT.c ****         /* `#START CRC_ERROR_ISR` */
 266:Generated_Source\PSoC4/CAN_INT.c **** 
 267:Generated_Source\PSoC4/CAN_INT.c ****         /* `#END` */
 268:Generated_Source\PSoC4/CAN_INT.c **** 
 269:Generated_Source\PSoC4/CAN_INT.c ****         #ifdef CAN_CRC_ERROR_ISR_CALLBACK
 270:Generated_Source\PSoC4/CAN_INT.c ****             CAN_CrcErrorIsr_Callback();
 271:Generated_Source\PSoC4/CAN_INT.c ****         #endif /* CAN_CRC_ERROR_ISR_CALLBACK */
 272:Generated_Source\PSoC4/CAN_INT.c ****     }
 273:Generated_Source\PSoC4/CAN_INT.c **** #endif /* CAN_CRC_ERR */
 274:Generated_Source\PSoC4/CAN_INT.c **** 
 275:Generated_Source\PSoC4/CAN_INT.c **** 
 276:Generated_Source\PSoC4/CAN_INT.c **** #if (CAN_BUS_OFF)
 277:Generated_Source\PSoC4/CAN_INT.c ****     /*******************************************************************************
 278:Generated_Source\PSoC4/CAN_INT.c ****     * FUNCTION NAME:   CAN_BusOffIsr
 279:Generated_Source\PSoC4/CAN_INT.c ****     ********************************************************************************
 280:Generated_Source\PSoC4/CAN_INT.c ****     *
 281:Generated_Source\PSoC4/CAN_INT.c ****     * Summary:
 282:Generated_Source\PSoC4/CAN_INT.c ****     *  This function is entry point to Bus Off Interrupt. Places CAN Component
 283:Generated_Source\PSoC4/CAN_INT.c ****     *  to Stop mode. Only generated if Bus Off Interrupt enable in Customizer.
 284:Generated_Source\PSoC4/CAN_INT.c ****     *  Recommended setting to enable this interrupt.
 285:Generated_Source\PSoC4/CAN_INT.c ****     *
 286:Generated_Source\PSoC4/CAN_INT.c ****     * Parameters:
 287:Generated_Source\PSoC4/CAN_INT.c ****     *  None.
 288:Generated_Source\PSoC4/CAN_INT.c ****     *
 289:Generated_Source\PSoC4/CAN_INT.c ****     * Return:
 290:Generated_Source\PSoC4/CAN_INT.c ****     *  None.
 291:Generated_Source\PSoC4/CAN_INT.c ****     *
 292:Generated_Source\PSoC4/CAN_INT.c ****     * Side Effects:
 293:Generated_Source\PSoC4/CAN_INT.c ****     *  Stops CAN component operation.
 294:Generated_Source\PSoC4/CAN_INT.c ****     *
 295:Generated_Source\PSoC4/CAN_INT.c ****     *******************************************************************************/
 296:Generated_Source\PSoC4/CAN_INT.c ****     void CAN_BusOffIsr(void) 
 297:Generated_Source\PSoC4/CAN_INT.c ****     {
  28              		.loc 1 297 0
  29              		.cfi_startproc
  30              		@ args = 0, pretend = 0, frame = 0
  31              		@ frame_needed = 0, uses_anonymous_args = 0
 298:Generated_Source\PSoC4/CAN_INT.c ****         /* Clear Bus Off flag */
 299:Generated_Source\PSoC4/CAN_INT.c ****         CAN_INT_SR_REG = CAN_BUS_OFF_MASK;
  32              		.loc 1 299 0
  33 0000 8022     		movs	r2, #128
 297:Generated_Source\PSoC4/CAN_INT.c ****         /* Clear Bus Off flag */
  34              		.loc 1 297 0
  35 0002 10B5     		push	{r4, lr}
  36              		.cfi_def_cfa_offset 8
  37              		.cfi_offset 4, -8
  38              		.cfi_offset 14, -4
  39              		.loc 1 299 0
  40 0004 024B     		ldr	r3, .L2
  41 0006 9200     		lsls	r2, r2, #2
  42 0008 1A60     		str	r2, [r3]
ARM GAS  C:\Users\Melody\AppData\Local\Temp\ccJlrtOe.s 			page 7


 300:Generated_Source\PSoC4/CAN_INT.c **** 
 301:Generated_Source\PSoC4/CAN_INT.c ****         /* `#START BUS_OFF_ISR` */
 302:Generated_Source\PSoC4/CAN_INT.c **** 
 303:Generated_Source\PSoC4/CAN_INT.c ****         /* `#END` */
 304:Generated_Source\PSoC4/CAN_INT.c **** 
 305:Generated_Source\PSoC4/CAN_INT.c ****         #ifdef CAN_BUS_OFF_ISR_CALLBACK
 306:Generated_Source\PSoC4/CAN_INT.c ****             CAN_BusOffIsr_Callback();
 307:Generated_Source\PSoC4/CAN_INT.c ****         #endif /* CAN_BUS_OFF_ISR_CALLBACK */
 308:Generated_Source\PSoC4/CAN_INT.c **** 
 309:Generated_Source\PSoC4/CAN_INT.c ****         (void) CAN_Stop();
  43              		.loc 1 309 0
  44 000a FFF7FEFF 		bl	CAN_Stop
  45              	.LVL0:
 310:Generated_Source\PSoC4/CAN_INT.c ****     }
  46              		.loc 1 310 0
  47              		@ sp needed
  48 000e 10BD     		pop	{r4, pc}
  49              	.L3:
  50              		.align	2
  51              	.L2:
  52 0010 00002F40 		.word	1076822016
  53              		.cfi_endproc
  54              	.LFE1:
  55              		.size	CAN_BusOffIsr, .-CAN_BusOffIsr
  56              		.section	.text.CAN_MsgRXIsr,"ax",%progbits
  57              		.align	1
  58              		.global	CAN_MsgRXIsr
  59              		.code	16
  60              		.thumb_func
  61              		.type	CAN_MsgRXIsr, %function
  62              	CAN_MsgRXIsr:
  63              	.LFB2:
 311:Generated_Source\PSoC4/CAN_INT.c **** #endif /* CAN_BUS_OFF */
 312:Generated_Source\PSoC4/CAN_INT.c **** 
 313:Generated_Source\PSoC4/CAN_INT.c **** 
 314:Generated_Source\PSoC4/CAN_INT.c **** #if (CAN_RX_MSG_LOST)
 315:Generated_Source\PSoC4/CAN_INT.c ****     /*******************************************************************************
 316:Generated_Source\PSoC4/CAN_INT.c ****     * FUNCTION NAME:   CAN_MsgLostIsr
 317:Generated_Source\PSoC4/CAN_INT.c ****     ********************************************************************************
 318:Generated_Source\PSoC4/CAN_INT.c ****     *
 319:Generated_Source\PSoC4/CAN_INT.c ****     * Summary:
 320:Generated_Source\PSoC4/CAN_INT.c ****     *  This function is entry point to Message Lost Interrupt. Clears Message Lost
 321:Generated_Source\PSoC4/CAN_INT.c ****     *  interrupt flag. Only generated if Message Lost Interrupt enable in Customizer
 322:Generated_Source\PSoC4/CAN_INT.c ****     *
 323:Generated_Source\PSoC4/CAN_INT.c ****     * Parameters:
 324:Generated_Source\PSoC4/CAN_INT.c ****     *  None.
 325:Generated_Source\PSoC4/CAN_INT.c ****     *
 326:Generated_Source\PSoC4/CAN_INT.c ****     * Return:
 327:Generated_Source\PSoC4/CAN_INT.c ****     *  None.
 328:Generated_Source\PSoC4/CAN_INT.c ****     *
 329:Generated_Source\PSoC4/CAN_INT.c ****     * Reentrant:
 330:Generated_Source\PSoC4/CAN_INT.c ****     *  Depends on Customer code.
 331:Generated_Source\PSoC4/CAN_INT.c ****     *
 332:Generated_Source\PSoC4/CAN_INT.c ****     *******************************************************************************/
 333:Generated_Source\PSoC4/CAN_INT.c ****     void CAN_MsgLostIsr(void) 
 334:Generated_Source\PSoC4/CAN_INT.c ****     {
 335:Generated_Source\PSoC4/CAN_INT.c ****         /* Clear Receive Message Lost flag */
ARM GAS  C:\Users\Melody\AppData\Local\Temp\ccJlrtOe.s 			page 8


 336:Generated_Source\PSoC4/CAN_INT.c ****         CAN_INT_SR_REG = CAN_RX_MSG_LOST_MASK;
 337:Generated_Source\PSoC4/CAN_INT.c **** 
 338:Generated_Source\PSoC4/CAN_INT.c ****         /* `#START MESSAGE_LOST_ISR` */
 339:Generated_Source\PSoC4/CAN_INT.c **** 
 340:Generated_Source\PSoC4/CAN_INT.c ****         /* `#END` */
 341:Generated_Source\PSoC4/CAN_INT.c **** 
 342:Generated_Source\PSoC4/CAN_INT.c ****         #ifdef CAN_MSG_LOST_ISR_CALLBACK
 343:Generated_Source\PSoC4/CAN_INT.c ****             CAN_MsgLostIsr_Callback();
 344:Generated_Source\PSoC4/CAN_INT.c ****         #endif /* CAN_MSG_LOST_ISR_CALLBACK */
 345:Generated_Source\PSoC4/CAN_INT.c ****     }
 346:Generated_Source\PSoC4/CAN_INT.c **** #endif /* CAN_RX_MSG_LOST */
 347:Generated_Source\PSoC4/CAN_INT.c **** 
 348:Generated_Source\PSoC4/CAN_INT.c **** 
 349:Generated_Source\PSoC4/CAN_INT.c **** #if (CAN_TX_MESSAGE)
 350:Generated_Source\PSoC4/CAN_INT.c ****     /*******************************************************************************
 351:Generated_Source\PSoC4/CAN_INT.c ****     * FUNCTION NAME:   CAN_MsgTXIsr
 352:Generated_Source\PSoC4/CAN_INT.c ****     ********************************************************************************
 353:Generated_Source\PSoC4/CAN_INT.c ****     *
 354:Generated_Source\PSoC4/CAN_INT.c ****     * Summary:
 355:Generated_Source\PSoC4/CAN_INT.c ****     *  This function is entry point to Transmit Message Interrupt. Clears Transmit
 356:Generated_Source\PSoC4/CAN_INT.c ****     *  Message interrupt flag. Only generated if Transmit Message Interrupt enable
 357:Generated_Source\PSoC4/CAN_INT.c ****     *  in Customizer.
 358:Generated_Source\PSoC4/CAN_INT.c ****     *
 359:Generated_Source\PSoC4/CAN_INT.c ****     * Parameters:
 360:Generated_Source\PSoC4/CAN_INT.c ****     *  None.
 361:Generated_Source\PSoC4/CAN_INT.c ****     *
 362:Generated_Source\PSoC4/CAN_INT.c ****     * Return:
 363:Generated_Source\PSoC4/CAN_INT.c ****     *  None.
 364:Generated_Source\PSoC4/CAN_INT.c ****     *
 365:Generated_Source\PSoC4/CAN_INT.c ****     * Reentrant:
 366:Generated_Source\PSoC4/CAN_INT.c ****     *  Depends on Customer code.
 367:Generated_Source\PSoC4/CAN_INT.c ****     *
 368:Generated_Source\PSoC4/CAN_INT.c ****     *******************************************************************************/
 369:Generated_Source\PSoC4/CAN_INT.c ****     void CAN_MsgTXIsr(void) 
 370:Generated_Source\PSoC4/CAN_INT.c ****     {
 371:Generated_Source\PSoC4/CAN_INT.c ****         /* Clear Transmit Message flag */
 372:Generated_Source\PSoC4/CAN_INT.c ****         CAN_INT_SR_REG = CAN_TX_MESSAGE_MASK;
 373:Generated_Source\PSoC4/CAN_INT.c **** 
 374:Generated_Source\PSoC4/CAN_INT.c ****         /* `#START MESSAGE_TRANSMITTED_ISR` */
 375:Generated_Source\PSoC4/CAN_INT.c **** 
 376:Generated_Source\PSoC4/CAN_INT.c ****         /* `#END` */
 377:Generated_Source\PSoC4/CAN_INT.c **** 
 378:Generated_Source\PSoC4/CAN_INT.c ****         #ifdef CAN_MSG_TX_ISR_CALLBACK
 379:Generated_Source\PSoC4/CAN_INT.c ****             CAN_MsgTXIsr_Callback();
 380:Generated_Source\PSoC4/CAN_INT.c ****         #endif /* CAN_MSG_TX_ISR_CALLBACK */
 381:Generated_Source\PSoC4/CAN_INT.c ****     }
 382:Generated_Source\PSoC4/CAN_INT.c **** #endif /* CAN_TX_MESSAGE */
 383:Generated_Source\PSoC4/CAN_INT.c **** 
 384:Generated_Source\PSoC4/CAN_INT.c **** 
 385:Generated_Source\PSoC4/CAN_INT.c **** #if (CAN_RX_MESSAGE)
 386:Generated_Source\PSoC4/CAN_INT.c ****     /*******************************************************************************
 387:Generated_Source\PSoC4/CAN_INT.c ****     * FUNCTION NAME:   CAN_MsgRXIsr
 388:Generated_Source\PSoC4/CAN_INT.c ****     ********************************************************************************
 389:Generated_Source\PSoC4/CAN_INT.c ****     *
 390:Generated_Source\PSoC4/CAN_INT.c ****     * Summary:
 391:Generated_Source\PSoC4/CAN_INT.c ****     *  This function is entry point to Receive Message Interrupt. Clears Receive
 392:Generated_Source\PSoC4/CAN_INT.c ****     *  Message interrupt flag and call appropriate handlers for Basic and Full
ARM GAS  C:\Users\Melody\AppData\Local\Temp\ccJlrtOe.s 			page 9


 393:Generated_Source\PSoC4/CAN_INT.c ****     *  interrupt based mailboxes. Only generated if Receive Message Interrupt
 394:Generated_Source\PSoC4/CAN_INT.c ****     *  enable in Customizer. Recommended setting to enable this interrupt.
 395:Generated_Source\PSoC4/CAN_INT.c ****     *
 396:Generated_Source\PSoC4/CAN_INT.c ****     * Parameters:
 397:Generated_Source\PSoC4/CAN_INT.c ****     *  None.
 398:Generated_Source\PSoC4/CAN_INT.c ****     *
 399:Generated_Source\PSoC4/CAN_INT.c ****     * Return:
 400:Generated_Source\PSoC4/CAN_INT.c ****     *  None.
 401:Generated_Source\PSoC4/CAN_INT.c ****     *
 402:Generated_Source\PSoC4/CAN_INT.c ****     *******************************************************************************/
 403:Generated_Source\PSoC4/CAN_INT.c ****     void CAN_MsgRXIsr(void) 
 404:Generated_Source\PSoC4/CAN_INT.c ****     {
  64              		.loc 1 404 0
  65              		.cfi_startproc
  66              		@ args = 0, pretend = 0, frame = 0
  67              		@ frame_needed = 0, uses_anonymous_args = 0
  68              	.LVL1:
 405:Generated_Source\PSoC4/CAN_INT.c ****         uint8 mailboxNumber;
 406:Generated_Source\PSoC4/CAN_INT.c ****         uint16 shift = 0x01u;
 407:Generated_Source\PSoC4/CAN_INT.c **** 
 408:Generated_Source\PSoC4/CAN_INT.c ****         /* Clear Receive Message flag */
 409:Generated_Source\PSoC4/CAN_INT.c ****         CAN_INT_SR_REG = CAN_RX_MESSAGE_MASK;
  69              		.loc 1 409 0
  70 0000 8022     		movs	r2, #128
 404:Generated_Source\PSoC4/CAN_INT.c ****         uint8 mailboxNumber;
  71              		.loc 1 404 0
  72 0002 70B5     		push	{r4, r5, r6, lr}
  73              		.cfi_def_cfa_offset 16
  74              		.cfi_offset 4, -16
  75              		.cfi_offset 5, -12
  76              		.cfi_offset 6, -8
  77              		.cfi_offset 14, -4
  78              		.loc 1 409 0
  79 0004 0025     		movs	r5, #0
 406:Generated_Source\PSoC4/CAN_INT.c **** 
  80              		.loc 1 406 0
  81 0006 0124     		movs	r4, #1
 410:Generated_Source\PSoC4/CAN_INT.c **** 
 411:Generated_Source\PSoC4/CAN_INT.c ****         /* `#START MESSAGE_RECEIVE_ISR` */
 412:Generated_Source\PSoC4/CAN_INT.c **** 
 413:Generated_Source\PSoC4/CAN_INT.c ****         /* `#END` */
 414:Generated_Source\PSoC4/CAN_INT.c **** 
 415:Generated_Source\PSoC4/CAN_INT.c ****         #ifdef CAN_MSG_RX_ISR_CALLBACK
 416:Generated_Source\PSoC4/CAN_INT.c ****             CAN_MsgRXIsr_Callback();
 417:Generated_Source\PSoC4/CAN_INT.c ****         #endif /* CAN_MSG_RX_ISR_CALLBACK */
 418:Generated_Source\PSoC4/CAN_INT.c **** 
 419:Generated_Source\PSoC4/CAN_INT.c ****         for (mailboxNumber = 0u; mailboxNumber < CAN_NUMBER_OF_RX_MAILBOXES; mailboxNumber++)
 420:Generated_Source\PSoC4/CAN_INT.c ****         {
 421:Generated_Source\PSoC4/CAN_INT.c **** 
 422:Generated_Source\PSoC4/CAN_INT.c ****             if ((CAN_BUF_SR_REG & shift) != 0u)
 423:Generated_Source\PSoC4/CAN_INT.c ****             {
 424:Generated_Source\PSoC4/CAN_INT.c ****                 if ((CAN_RX_CMD_REG(mailboxNumber) & CAN_RX_INT_ENABLE_MASK) != 0u)
  82              		.loc 1 424 0
  83 0008 2026     		movs	r6, #32
 409:Generated_Source\PSoC4/CAN_INT.c **** 
  84              		.loc 1 409 0
  85 000a 1E4B     		ldr	r3, .L26
ARM GAS  C:\Users\Melody\AppData\Local\Temp\ccJlrtOe.s 			page 10


  86 000c 5201     		lsls	r2, r2, #5
  87 000e 1A60     		str	r2, [r3]
  88              	.LVL2:
  89              	.L17:
 422:Generated_Source\PSoC4/CAN_INT.c ****             {
  90              		.loc 1 422 0
  91 0010 1D4B     		ldr	r3, .L26+4
  92 0012 E8B2     		uxtb	r0, r5
  93              	.LVL3:
  94 0014 1B68     		ldr	r3, [r3]
  95 0016 2342     		tst	r3, r4
  96 0018 2DD0     		beq	.L5
  97 001a 1C4B     		ldr	r3, .L26+8
  98 001c EB18     		adds	r3, r5, r3
  99 001e 5B01     		lsls	r3, r3, #5
 100              		.loc 1 424 0
 101 0020 1B68     		ldr	r3, [r3]
 102 0022 3342     		tst	r3, r6
 103 0024 27D0     		beq	.L5
 425:Generated_Source\PSoC4/CAN_INT.c ****                 {
 426:Generated_Source\PSoC4/CAN_INT.c ****                     if ((CAN_RX_MAILBOX_TYPE & shift) != 0u)
 104              		.loc 1 426 0
 105 0026 E305     		lsls	r3, r4, #23
 106 0028 23D0     		beq	.L6
 427:Generated_Source\PSoC4/CAN_INT.c ****                     {
 428:Generated_Source\PSoC4/CAN_INT.c ****                         /* RX Full mailboxes handler */
 429:Generated_Source\PSoC4/CAN_INT.c ****                         switch(mailboxNumber)
 107              		.loc 1 429 0
 108 002a 0828     		cmp	r0, #8
 109 002c 23D8     		bhi	.L5
 110 002e FFF7FEFF 		bl	__gnu_thumb1_case_uqi
 111              	.L8:
 112 0032 05       		.byte	(.L7-.L8)/2
 113 0033 08       		.byte	(.L9-.L8)/2
 114 0034 0B       		.byte	(.L10-.L8)/2
 115 0035 0E       		.byte	(.L11-.L8)/2
 116 0036 11       		.byte	(.L12-.L8)/2
 117 0037 14       		.byte	(.L13-.L8)/2
 118 0038 17       		.byte	(.L14-.L8)/2
 119 0039 1A       		.byte	(.L15-.L8)/2
 120 003a 1D       		.byte	(.L16-.L8)/2
 121 003b 00       		.p2align 1
 122              	.L7:
 430:Generated_Source\PSoC4/CAN_INT.c ****                         {
 431:Generated_Source\PSoC4/CAN_INT.c ****                             case 0u : CAN_ReceiveMsgVEHICLE_STATE();
 123              		.loc 1 431 0
 124 003c FFF7FEFF 		bl	CAN_ReceiveMsgVEHICLE_STATE
 125              	.LVL4:
 432:Generated_Source\PSoC4/CAN_INT.c ****                             break;
 126              		.loc 1 432 0
 127 0040 19E0     		b	.L5
 128              	.LVL5:
 129              	.L9:
 433:Generated_Source\PSoC4/CAN_INT.c ****                             case 1u : CAN_ReceiveMsgBSPD_FLAGS();
 130              		.loc 1 433 0
 131 0042 FFF7FEFF 		bl	CAN_ReceiveMsgBSPD_FLAGS
 132              	.LVL6:
ARM GAS  C:\Users\Melody\AppData\Local\Temp\ccJlrtOe.s 			page 11


 434:Generated_Source\PSoC4/CAN_INT.c ****                             break;
 133              		.loc 1 434 0
 134 0046 16E0     		b	.L5
 135              	.LVL7:
 136              	.L10:
 435:Generated_Source\PSoC4/CAN_INT.c ****                             case 2u : CAN_ReceiveMsgBMS_STATUS_MSG();
 137              		.loc 1 435 0
 138 0048 FFF7FEFF 		bl	CAN_ReceiveMsgBMS_STATUS_MSG
 139              	.LVL8:
 436:Generated_Source\PSoC4/CAN_INT.c ****                             break;
 140              		.loc 1 436 0
 141 004c 13E0     		b	.L5
 142              	.LVL9:
 143              	.L11:
 437:Generated_Source\PSoC4/CAN_INT.c ****                             case 3u : CAN_ReceiveMsgBMS_VOLTAGES();
 144              		.loc 1 437 0
 145 004e FFF7FEFF 		bl	CAN_ReceiveMsgBMS_VOLTAGES
 146              	.LVL10:
 438:Generated_Source\PSoC4/CAN_INT.c ****                             break;
 147              		.loc 1 438 0
 148 0052 10E0     		b	.L5
 149              	.LVL11:
 150              	.L12:
 439:Generated_Source\PSoC4/CAN_INT.c ****                             case 4u : CAN_ReceiveMsgBMS_TEMPERATURES();
 151              		.loc 1 439 0
 152 0054 FFF7FEFF 		bl	CAN_ReceiveMsgBMS_TEMPERATURES
 153              	.LVL12:
 440:Generated_Source\PSoC4/CAN_INT.c ****                             break;
 154              		.loc 1 440 0
 155 0058 0DE0     		b	.L5
 156              	.LVL13:
 157              	.L13:
 441:Generated_Source\PSoC4/CAN_INT.c ****                             case 5u : CAN_ReceiveMsgPEI_ESTOP();
 158              		.loc 1 441 0
 159 005a FFF7FEFF 		bl	CAN_ReceiveMsgPEI_ESTOP
 160              	.LVL14:
 442:Generated_Source\PSoC4/CAN_INT.c ****                             break;
 161              		.loc 1 442 0
 162 005e 0AE0     		b	.L5
 163              	.LVL15:
 164              	.L14:
 443:Generated_Source\PSoC4/CAN_INT.c ****                             case 6u : CAN_ReceiveMsgPEI_CURRENT_SHUTDOWN();
 165              		.loc 1 443 0
 166 0060 FFF7FEFF 		bl	CAN_ReceiveMsgPEI_CURRENT_SHUTDOWN
 167              	.LVL16:
 444:Generated_Source\PSoC4/CAN_INT.c ****                             break;
 168              		.loc 1 444 0
 169 0064 07E0     		b	.L5
 170              	.LVL17:
 171              	.L15:
 445:Generated_Source\PSoC4/CAN_INT.c ****                             case 7u : CAN_ReceiveMsgMC_VOLTAGE_INFO();
 172              		.loc 1 445 0
 173 0066 FFF7FEFF 		bl	CAN_ReceiveMsgMC_VOLTAGE_INFO
 174              	.LVL18:
 446:Generated_Source\PSoC4/CAN_INT.c ****                             break;
 175              		.loc 1 446 0
 176 006a 04E0     		b	.L5
ARM GAS  C:\Users\Melody\AppData\Local\Temp\ccJlrtOe.s 			page 12


 177              	.LVL19:
 178              	.L16:
 447:Generated_Source\PSoC4/CAN_INT.c ****                             case 8u : CAN_ReceiveMsgMC_INTERNAL_STATES();
 179              		.loc 1 447 0
 180 006c FFF7FEFF 		bl	CAN_ReceiveMsgMC_INTERNAL_STATES
 181              	.LVL20:
 448:Generated_Source\PSoC4/CAN_INT.c ****                             break;
 182              		.loc 1 448 0
 183 0070 01E0     		b	.L5
 184              	.LVL21:
 185              	.L6:
 449:Generated_Source\PSoC4/CAN_INT.c ****                             default:
 450:Generated_Source\PSoC4/CAN_INT.c ****                             break;
 451:Generated_Source\PSoC4/CAN_INT.c ****                         }
 452:Generated_Source\PSoC4/CAN_INT.c ****                     }
 453:Generated_Source\PSoC4/CAN_INT.c ****                     else
 454:Generated_Source\PSoC4/CAN_INT.c ****                     {
 455:Generated_Source\PSoC4/CAN_INT.c ****                         /* RX Basic mailbox handler */
 456:Generated_Source\PSoC4/CAN_INT.c ****                         CAN_ReceiveMsg(mailboxNumber);
 186              		.loc 1 456 0
 187 0072 FFF7FEFF 		bl	CAN_ReceiveMsg
 188              	.LVL22:
 189              	.L5:
 457:Generated_Source\PSoC4/CAN_INT.c ****                     }
 458:Generated_Source\PSoC4/CAN_INT.c ****                 }
 459:Generated_Source\PSoC4/CAN_INT.c ****             }
 460:Generated_Source\PSoC4/CAN_INT.c ****             shift <<= 1u;
 190              		.loc 1 460 0 discriminator 2
 191 0076 6400     		lsls	r4, r4, #1
 192              	.LVL23:
 193 0078 0135     		adds	r5, r5, #1
 194              	.LVL24:
 195 007a A4B2     		uxth	r4, r4
 196              	.LVL25:
 419:Generated_Source\PSoC4/CAN_INT.c ****         {
 197              		.loc 1 419 0 discriminator 2
 198 007c 102D     		cmp	r5, #16
 199 007e C7D1     		bne	.L17
 461:Generated_Source\PSoC4/CAN_INT.c ****         }
 462:Generated_Source\PSoC4/CAN_INT.c ****     }
 200              		.loc 1 462 0
 201              		@ sp needed
 202              	.LVL26:
 203 0080 70BD     		pop	{r4, r5, r6, pc}
 204              	.L27:
 205 0082 C046     		.align	2
 206              	.L26:
 207 0084 00002F40 		.word	1076822016
 208 0088 08002F40 		.word	1076822024
 209 008c 05780102 		.word	33650693
 210              		.cfi_endproc
 211              	.LFE2:
 212              		.size	CAN_MsgRXIsr, .-CAN_MsgRXIsr
 213              		.section	.text.CAN_ISR,"ax",%progbits
 214              		.align	1
 215              		.global	CAN_ISR
 216              		.code	16
ARM GAS  C:\Users\Melody\AppData\Local\Temp\ccJlrtOe.s 			page 13


 217              		.thumb_func
 218              		.type	CAN_ISR, %function
 219              	CAN_ISR:
 220              	.LFB3:
 463:Generated_Source\PSoC4/CAN_INT.c **** #endif /* CAN_RX_MESSAGE */
 464:Generated_Source\PSoC4/CAN_INT.c **** 
 465:Generated_Source\PSoC4/CAN_INT.c **** 
 466:Generated_Source\PSoC4/CAN_INT.c **** #if (CAN_RTR_AUTO_MSG_SENT)
 467:Generated_Source\PSoC4/CAN_INT.c ****     /*******************************************************************************
 468:Generated_Source\PSoC4/CAN_INT.c ****     * FUNCTION NAME:   CAN_RtrAutoMsgSentIsr
 469:Generated_Source\PSoC4/CAN_INT.c ****     ********************************************************************************
 470:Generated_Source\PSoC4/CAN_INT.c ****     *
 471:Generated_Source\PSoC4/CAN_INT.c ****     * Summary:
 472:Generated_Source\PSoC4/CAN_INT.c ****     *  This function is entry point to the RTR automatic message sent Interrupt.
 473:Generated_Source\PSoC4/CAN_INT.c ****     *  It is only generated if RTR message sent Interrupt is enabled in Customizer.
 474:Generated_Source\PSoC4/CAN_INT.c ****     *
 475:Generated_Source\PSoC4/CAN_INT.c ****     * Parameters:
 476:Generated_Source\PSoC4/CAN_INT.c ****     *  None.
 477:Generated_Source\PSoC4/CAN_INT.c ****     *
 478:Generated_Source\PSoC4/CAN_INT.c ****     * Return:
 479:Generated_Source\PSoC4/CAN_INT.c ****     *  None.
 480:Generated_Source\PSoC4/CAN_INT.c ****     *
 481:Generated_Source\PSoC4/CAN_INT.c ****     *******************************************************************************/
 482:Generated_Source\PSoC4/CAN_INT.c ****     void CAN_RtrAutoMsgSentIsr(void)
 483:Generated_Source\PSoC4/CAN_INT.c ****     {
 484:Generated_Source\PSoC4/CAN_INT.c ****         /* Clear RTR auto-reply message sent flag */
 485:Generated_Source\PSoC4/CAN_INT.c ****         CAN_INT_SR_REG = CAN_RTR_MSG_MASK;
 486:Generated_Source\PSoC4/CAN_INT.c **** 
 487:Generated_Source\PSoC4/CAN_INT.c ****         /* `#START RTR_AUTO_MSG_SENT_ISR` */
 488:Generated_Source\PSoC4/CAN_INT.c **** 
 489:Generated_Source\PSoC4/CAN_INT.c ****         /* `#END` */
 490:Generated_Source\PSoC4/CAN_INT.c **** 
 491:Generated_Source\PSoC4/CAN_INT.c ****         #ifdef CAN_RTR_AUTO_MSG_SENT_ISR_CALLBACK
 492:Generated_Source\PSoC4/CAN_INT.c ****             CAN_RtrAutoMsgSentIsr_Callback();
 493:Generated_Source\PSoC4/CAN_INT.c ****         #endif /* CAN_RTR_AUTO_MSG_SENT_ISR_CALLBACK */
 494:Generated_Source\PSoC4/CAN_INT.c ****     }
 495:Generated_Source\PSoC4/CAN_INT.c **** #endif /* CAN_RTR_AUTO_MSG_SENT */
 496:Generated_Source\PSoC4/CAN_INT.c **** 
 497:Generated_Source\PSoC4/CAN_INT.c **** 
 498:Generated_Source\PSoC4/CAN_INT.c **** #if (CAN_STUCK_AT_ZERO)
 499:Generated_Source\PSoC4/CAN_INT.c ****     /*******************************************************************************
 500:Generated_Source\PSoC4/CAN_INT.c ****     * FUNCTION NAME:   CAN_StuckAtZeroIsr
 501:Generated_Source\PSoC4/CAN_INT.c ****     ********************************************************************************
 502:Generated_Source\PSoC4/CAN_INT.c ****     *
 503:Generated_Source\PSoC4/CAN_INT.c ****     * Summary:
 504:Generated_Source\PSoC4/CAN_INT.c ****     *  This function is the entry point to the stuck at dominant bit Interrupt.
 505:Generated_Source\PSoC4/CAN_INT.c ****     *  It is only generated if stuck at zero Interrupt is enabled in Customizer.
 506:Generated_Source\PSoC4/CAN_INT.c ****     *  Enabling this interrupt is recommended.
 507:Generated_Source\PSoC4/CAN_INT.c ****     *
 508:Generated_Source\PSoC4/CAN_INT.c ****     * Parameters:
 509:Generated_Source\PSoC4/CAN_INT.c ****     *  None.
 510:Generated_Source\PSoC4/CAN_INT.c ****     *
 511:Generated_Source\PSoC4/CAN_INT.c ****     * Return:
 512:Generated_Source\PSoC4/CAN_INT.c ****     *  None.
 513:Generated_Source\PSoC4/CAN_INT.c ****     *
 514:Generated_Source\PSoC4/CAN_INT.c ****     * Side Effects:
 515:Generated_Source\PSoC4/CAN_INT.c ****     *  Stops CAN component operation.
ARM GAS  C:\Users\Melody\AppData\Local\Temp\ccJlrtOe.s 			page 14


 516:Generated_Source\PSoC4/CAN_INT.c ****     *
 517:Generated_Source\PSoC4/CAN_INT.c ****     *******************************************************************************/
 518:Generated_Source\PSoC4/CAN_INT.c ****     void CAN_StuckAtZeroIsr(void)
 519:Generated_Source\PSoC4/CAN_INT.c ****     {
 520:Generated_Source\PSoC4/CAN_INT.c ****         /* Clear Stuck at dominant error flag */
 521:Generated_Source\PSoC4/CAN_INT.c ****         CAN_INT_SR_REG = CAN_STUCK_AT_ZERO_MASK;
 522:Generated_Source\PSoC4/CAN_INT.c **** 
 523:Generated_Source\PSoC4/CAN_INT.c ****         /* `#START STUCK_AT_ZERO_ISR` */
 524:Generated_Source\PSoC4/CAN_INT.c **** 
 525:Generated_Source\PSoC4/CAN_INT.c ****         /* `#END` */
 526:Generated_Source\PSoC4/CAN_INT.c **** 
 527:Generated_Source\PSoC4/CAN_INT.c ****         #ifdef CAN_STUCK_AT_ZERO_ISR_CALLBACK
 528:Generated_Source\PSoC4/CAN_INT.c ****             CAN_StuckAtZeroIsr_Callback();
 529:Generated_Source\PSoC4/CAN_INT.c ****         #endif /* CAN_STUCK_AT_ZERO_ISR_CALLBACK */
 530:Generated_Source\PSoC4/CAN_INT.c **** 
 531:Generated_Source\PSoC4/CAN_INT.c ****         (void) CAN_Stop();
 532:Generated_Source\PSoC4/CAN_INT.c ****     }
 533:Generated_Source\PSoC4/CAN_INT.c **** #endif /* CAN_STUCK_AT_ZERO */
 534:Generated_Source\PSoC4/CAN_INT.c **** 
 535:Generated_Source\PSoC4/CAN_INT.c **** 
 536:Generated_Source\PSoC4/CAN_INT.c **** #if (CAN_SST_FAILURE)
 537:Generated_Source\PSoC4/CAN_INT.c ****     /*******************************************************************************
 538:Generated_Source\PSoC4/CAN_INT.c ****     * FUNCTION NAME:   CAN_SSTErrorIsr
 539:Generated_Source\PSoC4/CAN_INT.c ****     ********************************************************************************
 540:Generated_Source\PSoC4/CAN_INT.c ****     *
 541:Generated_Source\PSoC4/CAN_INT.c ****     * Summary:
 542:Generated_Source\PSoC4/CAN_INT.c ****     *  This function is the entry point to the single shot transmission error
 543:Generated_Source\PSoC4/CAN_INT.c ****     *  Interrupt. It is only generated if the single shot transmission Interrupt
 544:Generated_Source\PSoC4/CAN_INT.c ****     *  is enabled in Customizer. Generated when the mailbox set for single shot
 545:Generated_Source\PSoC4/CAN_INT.c ****     *  transmission experienced an arbitration loss or a bus error during
 546:Generated_Source\PSoC4/CAN_INT.c ****     *  transmission.
 547:Generated_Source\PSoC4/CAN_INT.c ****     *
 548:Generated_Source\PSoC4/CAN_INT.c ****     * Parameters:
 549:Generated_Source\PSoC4/CAN_INT.c ****     *  None.
 550:Generated_Source\PSoC4/CAN_INT.c ****     *
 551:Generated_Source\PSoC4/CAN_INT.c ****     * Return:
 552:Generated_Source\PSoC4/CAN_INT.c ****     *  None.
 553:Generated_Source\PSoC4/CAN_INT.c ****     *
 554:Generated_Source\PSoC4/CAN_INT.c ****     * Side Effects:
 555:Generated_Source\PSoC4/CAN_INT.c ****     *  Removes message that failed SST transmission from the Tx mailbox.
 556:Generated_Source\PSoC4/CAN_INT.c ****     *
 557:Generated_Source\PSoC4/CAN_INT.c ****     *******************************************************************************/
 558:Generated_Source\PSoC4/CAN_INT.c ****     void CAN_SSTErrorIsr(void)
 559:Generated_Source\PSoC4/CAN_INT.c ****     {
 560:Generated_Source\PSoC4/CAN_INT.c ****         uint8 i;
 561:Generated_Source\PSoC4/CAN_INT.c **** 
 562:Generated_Source\PSoC4/CAN_INT.c ****         /* Clear Single shot transmission failure flag */
 563:Generated_Source\PSoC4/CAN_INT.c ****         CAN_INT_SR_REG = CAN_SST_FAILURE_MASK;
 564:Generated_Source\PSoC4/CAN_INT.c **** 
 565:Generated_Source\PSoC4/CAN_INT.c ****         /* `#START SST_FAILURE_ISR_PRE` */
 566:Generated_Source\PSoC4/CAN_INT.c **** 
 567:Generated_Source\PSoC4/CAN_INT.c ****         /* `#END` */
 568:Generated_Source\PSoC4/CAN_INT.c **** 
 569:Generated_Source\PSoC4/CAN_INT.c ****         #ifdef CAN_SST_ERROR_ISR_PRE_CALLBACK
 570:Generated_Source\PSoC4/CAN_INT.c ****             CAN_SSTErrorIsr_Pre_Callback();
 571:Generated_Source\PSoC4/CAN_INT.c ****         #endif /* CAN_SST_ERROR_ISR_PRE_CALLBACK */
 572:Generated_Source\PSoC4/CAN_INT.c **** 
ARM GAS  C:\Users\Melody\AppData\Local\Temp\ccJlrtOe.s 			page 15


 573:Generated_Source\PSoC4/CAN_INT.c ****         /* Removes message that failed SST transmission from the Tx mailbox */
 574:Generated_Source\PSoC4/CAN_INT.c ****         for (i = 0u; i < CAN_NUMBER_OF_TX_MAILBOXES; i++)
 575:Generated_Source\PSoC4/CAN_INT.c ****         {
 576:Generated_Source\PSoC4/CAN_INT.c ****             if ((CAN_TX_CMD_REG(i) & CAN_TX_ABORT_MASK) != 0u)
 577:Generated_Source\PSoC4/CAN_INT.c ****             {
 578:Generated_Source\PSoC4/CAN_INT.c ****                 CAN_TX_CMD_REG(i) = (CAN_TX_CMD_REG(i) & (uint32) (~(uint32) CAN_TX_TRANSMIT_REQUES
 579:Generated_Source\PSoC4/CAN_INT.c ****                                     CAN_TX_ABORT_MASK;
 580:Generated_Source\PSoC4/CAN_INT.c ****             }
 581:Generated_Source\PSoC4/CAN_INT.c ****         }
 582:Generated_Source\PSoC4/CAN_INT.c **** 
 583:Generated_Source\PSoC4/CAN_INT.c ****         /* `#START SST_FAILURE_ISR_POST` */
 584:Generated_Source\PSoC4/CAN_INT.c **** 
 585:Generated_Source\PSoC4/CAN_INT.c ****         /* `#END` */
 586:Generated_Source\PSoC4/CAN_INT.c **** 
 587:Generated_Source\PSoC4/CAN_INT.c ****         #ifdef CAN_SST_ERROR_ISR_POST_CALLBACK
 588:Generated_Source\PSoC4/CAN_INT.c ****             CAN_SSTErrorIsr_Post_Callback();
 589:Generated_Source\PSoC4/CAN_INT.c ****         #endif /* CAN_SST_ERROR_ISR_POST_CALLBACK */
 590:Generated_Source\PSoC4/CAN_INT.c ****     }
 591:Generated_Source\PSoC4/CAN_INT.c **** #endif /* CAN_SST_FAILURE */
 592:Generated_Source\PSoC4/CAN_INT.c **** 
 593:Generated_Source\PSoC4/CAN_INT.c **** 
 594:Generated_Source\PSoC4/CAN_INT.c **** /*******************************************************************************
 595:Generated_Source\PSoC4/CAN_INT.c **** * Function Name: CAN_ISR
 596:Generated_Source\PSoC4/CAN_INT.c **** ********************************************************************************
 597:Generated_Source\PSoC4/CAN_INT.c **** *
 598:Generated_Source\PSoC4/CAN_INT.c **** * Summary:
 599:Generated_Source\PSoC4/CAN_INT.c **** *  This ISR is executed when CAN Core generates and interrupt on one of events:
 600:Generated_Source\PSoC4/CAN_INT.c **** *  Arb_lost, Overload, Bit_err, Stuff_err, Ack_err, Form_err, Crc_err,
 601:Generated_Source\PSoC4/CAN_INT.c **** *  Buss_off, Rx_msg_lost, Tx_msg or Rx_msg. The interrupt sources depends
 602:Generated_Source\PSoC4/CAN_INT.c **** *  on the Customizer inputs.
 603:Generated_Source\PSoC4/CAN_INT.c **** *
 604:Generated_Source\PSoC4/CAN_INT.c **** * Parameters:
 605:Generated_Source\PSoC4/CAN_INT.c **** *  None.
 606:Generated_Source\PSoC4/CAN_INT.c **** *
 607:Generated_Source\PSoC4/CAN_INT.c **** * Return:
 608:Generated_Source\PSoC4/CAN_INT.c **** *  None.
 609:Generated_Source\PSoC4/CAN_INT.c **** *
 610:Generated_Source\PSoC4/CAN_INT.c **** *******************************************************************************/
 611:Generated_Source\PSoC4/CAN_INT.c **** CY_ISR(CAN_ISR)
 612:Generated_Source\PSoC4/CAN_INT.c **** {
 221              		.loc 1 612 0
 222              		.cfi_startproc
 223              		@ args = 0, pretend = 0, frame = 0
 224              		@ frame_needed = 0, uses_anonymous_args = 0
 613:Generated_Source\PSoC4/CAN_INT.c ****     #ifdef CAN_ISR_INTERRUPT_CALLBACK
 614:Generated_Source\PSoC4/CAN_INT.c ****         CAN_ISR_InterruptCallback();
 615:Generated_Source\PSoC4/CAN_INT.c ****     #endif /* CAN_ISR_INTERRUPT_CALLBACK */
 616:Generated_Source\PSoC4/CAN_INT.c ****     
 617:Generated_Source\PSoC4/CAN_INT.c ****     /* Place your Interrupt code here. */
 618:Generated_Source\PSoC4/CAN_INT.c ****     /* `#START CAN_ISR` */
 619:Generated_Source\PSoC4/CAN_INT.c **** 
 620:Generated_Source\PSoC4/CAN_INT.c ****     /* `#END` */
 621:Generated_Source\PSoC4/CAN_INT.c ****     
 622:Generated_Source\PSoC4/CAN_INT.c ****     /* Arbitration */
 623:Generated_Source\PSoC4/CAN_INT.c ****     #if (CAN_ARB_LOST && (CAN_ARB_LOST_USE_HELPER || \
 624:Generated_Source\PSoC4/CAN_INT.c ****         (!CAN_ADVANCED_INTERRUPT_CFG)))
 625:Generated_Source\PSoC4/CAN_INT.c ****         if ((CAN_INT_SR_REG & CAN_ARBITRATION_LOST_MASK) != 0u)
ARM GAS  C:\Users\Melody\AppData\Local\Temp\ccJlrtOe.s 			page 16


 626:Generated_Source\PSoC4/CAN_INT.c ****         {
 627:Generated_Source\PSoC4/CAN_INT.c ****             CAN_ArbLostIsr();
 628:Generated_Source\PSoC4/CAN_INT.c ****         }
 629:Generated_Source\PSoC4/CAN_INT.c ****     #endif /* CAN_ARB_LOST && CAN_ARB_LOST_USE_HELPER */
 630:Generated_Source\PSoC4/CAN_INT.c **** 
 631:Generated_Source\PSoC4/CAN_INT.c ****     /* Overload Error */
 632:Generated_Source\PSoC4/CAN_INT.c ****     #if (CAN_OVERLOAD && (CAN_OVERLOAD_USE_HELPER || \
 633:Generated_Source\PSoC4/CAN_INT.c ****         (!CAN_ADVANCED_INTERRUPT_CFG)))
 634:Generated_Source\PSoC4/CAN_INT.c ****         if ((CAN_INT_SR_REG & CAN_OVERLOAD_ERROR_MASK) != 0u)
 635:Generated_Source\PSoC4/CAN_INT.c ****         {
 636:Generated_Source\PSoC4/CAN_INT.c ****             CAN_OvrLdErrorIsr();
 637:Generated_Source\PSoC4/CAN_INT.c ****         }
 638:Generated_Source\PSoC4/CAN_INT.c ****     #endif /* CAN_OVERLOAD && CAN_OVERLOAD_USE_HELPER */
 639:Generated_Source\PSoC4/CAN_INT.c **** 
 640:Generated_Source\PSoC4/CAN_INT.c ****     /* Bit Error */
 641:Generated_Source\PSoC4/CAN_INT.c ****     #if (CAN_BIT_ERR && (CAN_BIT_ERR_USE_HELPER || \
 642:Generated_Source\PSoC4/CAN_INT.c ****         (!CAN_ADVANCED_INTERRUPT_CFG)))
 643:Generated_Source\PSoC4/CAN_INT.c ****         if ((CAN_INT_SR_REG & CAN_BIT_ERROR_MASK) != 0u)
 644:Generated_Source\PSoC4/CAN_INT.c ****         {
 645:Generated_Source\PSoC4/CAN_INT.c ****             CAN_BitErrorIsr();
 646:Generated_Source\PSoC4/CAN_INT.c ****         }
 647:Generated_Source\PSoC4/CAN_INT.c ****     #endif /* CAN_BIT_ERR && CAN_BIT_ERR_USE_HELPER */
 648:Generated_Source\PSoC4/CAN_INT.c **** 
 649:Generated_Source\PSoC4/CAN_INT.c ****     /* Bit Staff Error */
 650:Generated_Source\PSoC4/CAN_INT.c ****     #if (CAN_STUFF_ERR && (CAN_STUFF_ERR_USE_HELPER || \
 651:Generated_Source\PSoC4/CAN_INT.c ****         (!CAN_ADVANCED_INTERRUPT_CFG)))
 652:Generated_Source\PSoC4/CAN_INT.c ****         if ((CAN_INT_SR_REG & CAN_STUFF_ERROR_MASK) != 0u)
 653:Generated_Source\PSoC4/CAN_INT.c ****         {
 654:Generated_Source\PSoC4/CAN_INT.c ****             CAN_BitStuffErrorIsr();
 655:Generated_Source\PSoC4/CAN_INT.c ****         }
 656:Generated_Source\PSoC4/CAN_INT.c ****     #endif /* CAN_STUFF_ERR && CAN_STUFF_ERR_USE_HELPER */
 657:Generated_Source\PSoC4/CAN_INT.c **** 
 658:Generated_Source\PSoC4/CAN_INT.c ****     /* ACK Error */
 659:Generated_Source\PSoC4/CAN_INT.c ****     #if (CAN_ACK_ERR && (CAN_ACK_ERR_USE_HELPER || \
 660:Generated_Source\PSoC4/CAN_INT.c ****         (!CAN_ADVANCED_INTERRUPT_CFG)))
 661:Generated_Source\PSoC4/CAN_INT.c ****         if ((CAN_INT_SR_REG & CAN_ACK_ERROR_MASK) != 0u)
 662:Generated_Source\PSoC4/CAN_INT.c ****         {
 663:Generated_Source\PSoC4/CAN_INT.c ****             CAN_AckErrorIsr();
 664:Generated_Source\PSoC4/CAN_INT.c ****         }
 665:Generated_Source\PSoC4/CAN_INT.c ****     #endif /* CAN_ACK_ERR && CAN_ACK_ERR_USE_HELPER */
 666:Generated_Source\PSoC4/CAN_INT.c **** 
 667:Generated_Source\PSoC4/CAN_INT.c ****     /* Form(msg) Error */
 668:Generated_Source\PSoC4/CAN_INT.c ****     #if (CAN_FORM_ERR && (CAN_FORM_ERR_USE_HELPER || \
 669:Generated_Source\PSoC4/CAN_INT.c ****         (!CAN_ADVANCED_INTERRUPT_CFG)))
 670:Generated_Source\PSoC4/CAN_INT.c ****         if ((CAN_INT_SR_REG & CAN_FORM_ERROR_MASK) != 0u)
 671:Generated_Source\PSoC4/CAN_INT.c ****         {
 672:Generated_Source\PSoC4/CAN_INT.c ****             CAN_MsgErrorIsr();
 673:Generated_Source\PSoC4/CAN_INT.c ****         }
 674:Generated_Source\PSoC4/CAN_INT.c ****     #endif /* CAN_FORM_ERR && CAN_FORM_ERR_USE_HELPER */
 675:Generated_Source\PSoC4/CAN_INT.c **** 
 676:Generated_Source\PSoC4/CAN_INT.c ****     /* CRC Error */
 677:Generated_Source\PSoC4/CAN_INT.c ****     #if (CAN_CRC_ERR && (CAN_CRC_ERR_USE_HELPER || \
 678:Generated_Source\PSoC4/CAN_INT.c ****         (!CAN_ADVANCED_INTERRUPT_CFG)))
 679:Generated_Source\PSoC4/CAN_INT.c ****         if ((CAN_INT_SR_REG & CAN_CRC_ERROR_MASK) != 0u)
 680:Generated_Source\PSoC4/CAN_INT.c ****         {
 681:Generated_Source\PSoC4/CAN_INT.c ****             CAN_CrcErrorIsr();
 682:Generated_Source\PSoC4/CAN_INT.c ****         }
ARM GAS  C:\Users\Melody\AppData\Local\Temp\ccJlrtOe.s 			page 17


 683:Generated_Source\PSoC4/CAN_INT.c ****     #endif /* CAN_CRC_ERR && CAN_CRC_ERR_USE_HELPER */
 684:Generated_Source\PSoC4/CAN_INT.c **** 
 685:Generated_Source\PSoC4/CAN_INT.c ****     /* Bus Off state */
 686:Generated_Source\PSoC4/CAN_INT.c ****     #if (CAN_BUS_OFF && (CAN_BUS_OFF_USE_HELPER || \
 687:Generated_Source\PSoC4/CAN_INT.c ****         (!CAN_ADVANCED_INTERRUPT_CFG)))
 688:Generated_Source\PSoC4/CAN_INT.c ****         if ((CAN_INT_SR_REG & CAN_BUS_OFF_MASK) != 0u)
 225              		.loc 1 688 0
 226 0000 064B     		ldr	r3, .L37
 612:Generated_Source\PSoC4/CAN_INT.c ****     #ifdef CAN_ISR_INTERRUPT_CALLBACK
 227              		.loc 1 612 0
 228 0002 10B5     		push	{r4, lr}
 229              		.cfi_def_cfa_offset 8
 230              		.cfi_offset 4, -8
 231              		.cfi_offset 14, -4
 232              		.loc 1 688 0
 233 0004 1A68     		ldr	r2, [r3]
 234 0006 1C00     		movs	r4, r3
 235 0008 9305     		lsls	r3, r2, #22
 236 000a 01D5     		bpl	.L29
 689:Generated_Source\PSoC4/CAN_INT.c ****         {
 690:Generated_Source\PSoC4/CAN_INT.c ****             CAN_BusOffIsr();
 237              		.loc 1 690 0
 238 000c FFF7FEFF 		bl	CAN_BusOffIsr
 239              	.LVL27:
 240              	.L29:
 691:Generated_Source\PSoC4/CAN_INT.c ****         }
 692:Generated_Source\PSoC4/CAN_INT.c ****     #endif /* CAN_BUS_OFF && CAN_BUS_OFF_USE_HELPER */
 693:Generated_Source\PSoC4/CAN_INT.c **** 
 694:Generated_Source\PSoC4/CAN_INT.c ****     /* Message Lost */
 695:Generated_Source\PSoC4/CAN_INT.c ****     #if (CAN_RX_MSG_LOST && (CAN_RX_MSG_LOST_USE_HELPER || \
 696:Generated_Source\PSoC4/CAN_INT.c ****         (!CAN_ADVANCED_INTERRUPT_CFG)))
 697:Generated_Source\PSoC4/CAN_INT.c ****         if ((CAN_INT_SR_REG & CAN_RX_MSG_LOST_MASK) != 0u)
 698:Generated_Source\PSoC4/CAN_INT.c ****         {
 699:Generated_Source\PSoC4/CAN_INT.c ****             CAN_MsgLostIsr();
 700:Generated_Source\PSoC4/CAN_INT.c ****         }
 701:Generated_Source\PSoC4/CAN_INT.c ****     #endif /* CAN_RX_MSG_LOST && CAN_RX_MSG_LOST_USE_HELPER */
 702:Generated_Source\PSoC4/CAN_INT.c **** 
 703:Generated_Source\PSoC4/CAN_INT.c ****     /* TX Message Send */
 704:Generated_Source\PSoC4/CAN_INT.c ****     #if (CAN_TX_MESSAGE && (CAN_TX_MESSAGE_USE_HELPER || \
 705:Generated_Source\PSoC4/CAN_INT.c ****         (!CAN_ADVANCED_INTERRUPT_CFG)))
 706:Generated_Source\PSoC4/CAN_INT.c ****         if ((CAN_INT_SR_REG & CAN_TX_MESSAGE_MASK) != 0u)
 707:Generated_Source\PSoC4/CAN_INT.c ****         {
 708:Generated_Source\PSoC4/CAN_INT.c ****             CAN_MsgTXIsr();
 709:Generated_Source\PSoC4/CAN_INT.c ****         }
 710:Generated_Source\PSoC4/CAN_INT.c ****     #endif /* CAN_TX_MESSAGE && CAN_TX_MESSAGE_USE_HELPER */
 711:Generated_Source\PSoC4/CAN_INT.c **** 
 712:Generated_Source\PSoC4/CAN_INT.c ****     /* RX Message Available */
 713:Generated_Source\PSoC4/CAN_INT.c ****     #if (CAN_RX_MESSAGE && (CAN_RX_MESSAGE_USE_HELPER || \
 714:Generated_Source\PSoC4/CAN_INT.c ****         (!CAN_ADVANCED_INTERRUPT_CFG)))
 715:Generated_Source\PSoC4/CAN_INT.c ****         if ((CAN_INT_SR_REG & CAN_RX_MESSAGE_MASK) != 0u)
 241              		.loc 1 715 0
 242 0010 2368     		ldr	r3, [r4]
 243 0012 DB04     		lsls	r3, r3, #19
 244 0014 01D5     		bpl	.L28
 716:Generated_Source\PSoC4/CAN_INT.c ****         {
 717:Generated_Source\PSoC4/CAN_INT.c ****             CAN_MsgRXIsr();
 245              		.loc 1 717 0
ARM GAS  C:\Users\Melody\AppData\Local\Temp\ccJlrtOe.s 			page 18


 246 0016 FFF7FEFF 		bl	CAN_MsgRXIsr
 247              	.LVL28:
 248              	.L28:
 718:Generated_Source\PSoC4/CAN_INT.c ****         }
 719:Generated_Source\PSoC4/CAN_INT.c ****     #endif /* CAN_RX_MESSAGE && CAN_RX_MESSAGE_USE_HELPER */
 720:Generated_Source\PSoC4/CAN_INT.c **** 
 721:Generated_Source\PSoC4/CAN_INT.c ****     /* RTR Auto-reply Message Sent */
 722:Generated_Source\PSoC4/CAN_INT.c ****     #if (CAN_RTR_AUTO_MSG_SENT && (CAN_RTR_MESSAGE_USE_HELPER || \
 723:Generated_Source\PSoC4/CAN_INT.c ****         (!CAN_ADVANCED_INTERRUPT_CFG)))
 724:Generated_Source\PSoC4/CAN_INT.c ****         if ((CAN_INT_SR_REG & CAN_RTR_MSG_MASK) != 0u)
 725:Generated_Source\PSoC4/CAN_INT.c ****         {
 726:Generated_Source\PSoC4/CAN_INT.c ****             CAN_RtrAutoMsgSentIsr();
 727:Generated_Source\PSoC4/CAN_INT.c ****         }
 728:Generated_Source\PSoC4/CAN_INT.c ****     #endif /* CAN_RTR_AUTO_MSG_SENT && CAN_RTR_MESSAGE_USE_HELPER */
 729:Generated_Source\PSoC4/CAN_INT.c **** 
 730:Generated_Source\PSoC4/CAN_INT.c ****     /* Stuck at dominant error */
 731:Generated_Source\PSoC4/CAN_INT.c ****     #if (CAN_STUCK_AT_ZERO && (CAN_STUCK_AT_ZERO_USE_HELPER || \
 732:Generated_Source\PSoC4/CAN_INT.c ****         (!CAN_ADVANCED_INTERRUPT_CFG)))
 733:Generated_Source\PSoC4/CAN_INT.c ****         if ((CAN_INT_SR_REG & CAN_STUCK_AT_ZERO_MASK) != 0u)
 734:Generated_Source\PSoC4/CAN_INT.c ****         {
 735:Generated_Source\PSoC4/CAN_INT.c ****             CAN_StuckAtZeroIsr();
 736:Generated_Source\PSoC4/CAN_INT.c ****         }
 737:Generated_Source\PSoC4/CAN_INT.c ****     #endif /* CAN_STUCK_AT_ZERO && CAN_STUCK_AT_ZERO_USE_HELPER */
 738:Generated_Source\PSoC4/CAN_INT.c **** 
 739:Generated_Source\PSoC4/CAN_INT.c ****     /* Single shot transmission failure */
 740:Generated_Source\PSoC4/CAN_INT.c ****     #if (CAN_SST_FAILURE && (CAN_SST_FAILURE_USE_HELPER || \
 741:Generated_Source\PSoC4/CAN_INT.c ****         (!CAN_ADVANCED_INTERRUPT_CFG)))
 742:Generated_Source\PSoC4/CAN_INT.c ****         if ((CAN_INT_SR_REG & CAN_SST_FAILURE_MASK) != 0u)
 743:Generated_Source\PSoC4/CAN_INT.c ****         {
 744:Generated_Source\PSoC4/CAN_INT.c ****             CAN_SSTErrorIsr();
 745:Generated_Source\PSoC4/CAN_INT.c ****         }
 746:Generated_Source\PSoC4/CAN_INT.c ****     #endif /* CAN_SST_FAILURE && CAN_SST_FAILURE_USE_HELPER */
 747:Generated_Source\PSoC4/CAN_INT.c **** }
 249              		.loc 1 747 0
 250              		@ sp needed
 251 001a 10BD     		pop	{r4, pc}
 252              	.L38:
 253              		.align	2
 254              	.L37:
 255 001c 00002F40 		.word	1076822016
 256              		.cfi_endproc
 257              	.LFE3:
 258              		.size	CAN_ISR, .-CAN_ISR
 259              		.text
 260              	.Letext0:
 261              		.file 2 "Generated_Source\\PSoC4\\cytypes.h"
 262              		.file 3 "Generated_Source\\PSoC4\\CAN.h"