ARM GAS  C:\Users\leoja\AppData\Local\Temp\cc8ldM9G.s 			page 1


   1              		.syntax unified
   2              		.cpu cortex-m0
   3              		.fpu softvfp
   4              		.eabi_attribute 20, 1
   5              		.eabi_attribute 21, 1
   6              		.eabi_attribute 23, 3
   7              		.eabi_attribute 24, 1
   8              		.eabi_attribute 25, 1
   9              		.eabi_attribute 26, 1
  10              		.eabi_attribute 30, 4
  11              		.eabi_attribute 34, 0
  12              		.eabi_attribute 18, 4
  13              		.thumb
  14              		.syntax unified
  15              		.file	"can_manga.c"
  16              		.text
  17              	.Ltext0:
  18              		.cfi_sections	.debug_frame
  19              		.section	.text.getCapacitorVoltage,"ax",%progbits
  20              		.align	1
  21              		.global	getCapacitorVoltage
  22              		.code	16
  23              		.thumb_func
  24              		.type	getCapacitorVoltage, %function
  25              	getCapacitorVoltage:
  26              	.LFB35:
  27              		.file 1 "can_manga.c"
   1:can_manga.c   **** /* ========================================
   2:can_manga.c   ****  * Can API for FRUCD
   3:can_manga.c   ****  * Schuyler Alschuler 2016 - 2017
   4:can_manga.c   ****  * ========================================
   5:can_manga.c   **** */
   6:can_manga.c   **** 
   7:can_manga.c   **** /*******************************************
   8:can_manga.c   ****  * Used to interface dashboard with CAN bus
   9:can_manga.c   ****  * some functinality can be found in CAN_TX_RX_func.c
  10:can_manga.c   ****  * which is a generated source file
  11:can_manga.c   ****  * see the can component of the top design for specific mailboxes
  12:can_manga.c   ****  ******************************************/
  13:can_manga.c   **** 
  14:can_manga.c   **** #include "CAN.h"
  15:can_manga.c   **** #include "can_manga.h"
  16:can_manga.c   **** #include "cytypes.h"
  17:can_manga.c   **** //#include "data.h"
  18:can_manga.c   **** #include "frucd_display.h"
  19:can_manga.c   **** // indicator LEDs
  20:can_manga.c   **** #include "BMS_LED.h"
  21:can_manga.c   **** #include "IMD_LED.h"
  22:can_manga.c   **** 
  23:can_manga.c   **** extern volatile vcu_state state;
  24:can_manga.c   **** extern volatile uint32_t pedalOK;
  25:can_manga.c   **** extern volatile uint8_t PACK_TEMP;
  26:can_manga.c   **** extern volatile uint8_t BSPD_CATCH;
  27:can_manga.c   **** extern volatile uint16_t CURRENT;
  28:can_manga.c   **** extern volatile uint8_t soc;
  29:can_manga.c   **** extern volatile uint32_t voltage;
  30:can_manga.c   **** extern volatile BMS_STATUS bms_status;
ARM GAS  C:\Users\leoja\AppData\Local\Temp\cc8ldM9G.s 			page 2


  31:can_manga.c   **** extern volatile uint8_t shutdown_flags;
  32:can_manga.c   **** extern volatile uint8_t mc_fault_codes[8];
  33:can_manga.c   **** extern volatile uint16_t torque_limit; 
  34:can_manga.c   **** 
  35:can_manga.c   **** // info from MC and motor
  36:can_manga.c   **** extern volatile uint16_t mc_temp;
  37:can_manga.c   **** extern volatile uint16_t motor_temp;
  38:can_manga.c   **** 
  39:can_manga.c   **** volatile uint8_t CAPACITOR_VOLT = 0;
  40:can_manga.c   **** volatile uint8_t ACK_RX = 0;
  41:can_manga.c   **** 
  42:can_manga.c   **** 
  43:can_manga.c   **** uint8 current_bytes[4] = {0};
  44:can_manga.c   **** 
  45:can_manga.c   **** // returns voltage of capacitor from motor controller
  46:can_manga.c   **** uint8_t getCapacitorVoltage()
  47:can_manga.c   **** {
  28              		.loc 1 47 0
  29              		.cfi_startproc
  30              		@ args = 0, pretend = 0, frame = 0
  31              		@ frame_needed = 0, uses_anonymous_args = 0
  32              		@ link register save eliminated.
  48:can_manga.c   ****     return CAPACITOR_VOLT;
  33              		.loc 1 48 0
  34 0000 014B     		ldr	r3, .L2
  49:can_manga.c   **** }
  35              		.loc 1 49 0
  36              		@ sp needed
  48:can_manga.c   ****     return CAPACITOR_VOLT;
  37              		.loc 1 48 0
  38 0002 1878     		ldrb	r0, [r3]
  39 0004 C0B2     		uxtb	r0, r0
  40              		.loc 1 49 0
  41 0006 7047     		bx	lr
  42              	.L3:
  43              		.align	2
  44              	.L2:
  45 0008 00000000 		.word	.LANCHOR0
  46              		.cfi_endproc
  47              	.LFE35:
  48              		.size	getCapacitorVoltage, .-getCapacitorVoltage
  49              		.section	.text.can_test_send,"ax",%progbits
  50              		.align	1
  51              		.global	can_test_send
  52              		.code	16
  53              		.thumb_func
  54              		.type	can_test_send, %function
  55              	can_test_send:
  56              	.LFB36:
  50:can_manga.c   **** 
  51:can_manga.c   **** 
  52:can_manga.c   **** // called from CAN_TX_RX_func.c in the generic RX func
  53:can_manga.c   **** // tldr: part of an interrupt service routine
  54:can_manga.c   **** /*void can_receive(uint8_t *msg, int ID)
  55:can_manga.c   **** {
  56:can_manga.c   ****     uint8 InterruptState = CyEnterCriticalSection();
  57:can_manga.c   ****     
ARM GAS  C:\Users\leoja\AppData\Local\Temp\cc8ldM9G.s 			page 3


  58:can_manga.c   ****     switch (ID) 
  59:can_manga.c   ****     {
  60:can_manga.c   ****         case VEHICLE_STATE:
  61:can_manga.c   ****             state = msg[1];
  62:can_manga.c   ****             break;
  63:can_manga.c   ****         case MC_PDO_SEND:
  64:can_manga.c   ****             CAPACITOR_VOLT = msg[1];
  65:can_manga.c   ****             ABS_MOTOR_RPM = msg[3];
  66:can_manga.c   ****             mc_temp = msg[7] << 8;
  67:can_manga.c   ****             mc_temp += msg[8];
  68:can_manga.c   ****             break;
  69:can_manga.c   ****         case MC_PDO_ACK:
  70:can_manga.c   ****             ACK_RX = msg[1];
  71:can_manga.c   ****             motor_temp = msg[5] << 8;
  72:can_manga.c   ****             motor_temp |= msg[6];
  73:can_manga.c   ****             break;
  74:can_manga.c   ****         case 0xA6:  // errors sent from MC node
  75:can_manga.c   ****             CURTIS_FAULT_CHECK = 0x1;
  76:can_manga.c   ****             break;
  77:can_manga.c   ****         case 0x726:     // from motor controller to confirm that node is still active
  78:can_manga.c   ****             CURTIS_HEART_BEAT_CHECK = 0x1;
  79:can_manga.c   ****             break;
  80:can_manga.c   ****         case BMS_VOLTAGES:
  81:can_manga.c   ****             voltage = msg[5] << 24;
  82:can_manga.c   ****             voltage |= msg[6] << 16;
  83:can_manga.c   ****             voltage |= msg[7] << 8;
  84:can_manga.c   ****             voltage |= msg[8];
  85:can_manga.c   ****             break;
  86:can_manga.c   ****         case BMS_STATUS_MSG:
  87:can_manga.c   ****             soc = msg[2];
  88:can_manga.c   ****             bms_status = msg[3] << 8;    // bms error flags
  89:can_manga.c   ****             bms_status |= msg[4];        // bms error flags
  90:can_manga.c   ****             break;
  91:can_manga.c   ****         case BMS_TEMPERATURES:
  92:can_manga.c   ****             PACK_TEMP = msg[8];
  93:can_manga.c   ****             break;
  94:can_manga.c   ****         case PEI_CURRENT:
  95:can_manga.c   ****             CURRENT = msg[1] << 8;
  96:can_manga.c   ****             CURRENT |= msg[2];
  97:can_manga.c   ****             shutdown_flags = msg[3];
  98:can_manga.c   ****             break;
  99:can_manga.c   ****         case 0x366: //Tehya test
 100:can_manga.c   ****             //ESTOP = msg[CAN_DATA_BYTE_1];
 101:can_manga.c   ****             break;
 102:can_manga.c   ****     }
 103:can_manga.c   ****     
 104:can_manga.c   ****     CyExitCriticalSection(InterruptState);
 105:can_manga.c   **** }*/
 106:can_manga.c   **** 
 107:can_manga.c   **** void can_test_send()
 108:can_manga.c   **** {
  57              		.loc 1 108 0
  58              		.cfi_startproc
  59              		@ args = 0, pretend = 0, frame = 16
  60              		@ frame_needed = 0, uses_anonymous_args = 0
  61 0000 1FB5     		push	{r0, r1, r2, r3, r4, lr}
  62              		.cfi_def_cfa_offset 24
ARM GAS  C:\Users\leoja\AppData\Local\Temp\cc8ldM9G.s 			page 4


  63              		.cfi_offset 0, -24
  64              		.cfi_offset 1, -20
  65              		.cfi_offset 2, -16
  66              		.cfi_offset 3, -12
  67              		.cfi_offset 4, -8
  68              		.cfi_offset 14, -4
 109:can_manga.c   ****     //CAN_1_DATA_BYTES_MSG msg;
 110:can_manga.c   ****     CAN_TX_MSG HeartB;
 111:can_manga.c   ****     
 112:can_manga.c   ****     HeartB.id = 0x300;
  69              		.loc 1 112 0
  70 0002 C023     		movs	r3, #192
  71 0004 9B00     		lsls	r3, r3, #2
  72 0006 0093     		str	r3, [sp]
 113:can_manga.c   ****     HeartB.rtr = 0;
  73              		.loc 1 113 0
  74 0008 0022     		movs	r2, #0
  75 000a 6B46     		mov	r3, sp
 114:can_manga.c   ****     HeartB.ide = 0;
 115:can_manga.c   ****     HeartB.dlc = 1;
  76              		.loc 1 115 0
  77 000c 6946     		mov	r1, sp
 114:can_manga.c   ****     HeartB.ide = 0;
  78              		.loc 1 114 0
  79 000e 5A71     		strb	r2, [r3, #5]
 113:can_manga.c   ****     HeartB.rtr = 0;
  80              		.loc 1 113 0
  81 0010 1A71     		strb	r2, [r3, #4]
  82              		.loc 1 115 0
  83 0012 0123     		movs	r3, #1
 116:can_manga.c   ****     
 117:can_manga.c   ****     HeartB.irq = 0;
  84              		.loc 1 117 0
  85 0014 CA71     		strb	r2, [r1, #7]
 118:can_manga.c   ****     
 119:can_manga.c   ****     HeartB.msg->byte[0] = (uint8) 1;
  86              		.loc 1 119 0
  87 0016 039A     		ldr	r2, [sp, #12]
 115:can_manga.c   ****     
  88              		.loc 1 115 0
  89 0018 8B71     		strb	r3, [r1, #6]
 120:can_manga.c   ****     HeartB.msg->byte[1] = (uint8) 1;
 121:can_manga.c   ****     HeartB.msg->byte[2] = (uint8) 1;
 122:can_manga.c   ****     HeartB.msg->byte[3] = (uint8) 1;
 123:can_manga.c   ****     HeartB.msg->byte[4] = (uint8) 1;
 124:can_manga.c   ****     HeartB.msg->byte[5] = (uint8) 1;
 125:can_manga.c   ****     HeartB.msg->byte[6] = (uint8) 1;
 126:can_manga.c   ****     HeartB.msg->byte[7] = (uint8) 1;
  90              		.loc 1 126 0
  91 001a D371     		strb	r3, [r2, #7]
 119:can_manga.c   ****     HeartB.msg->byte[1] = (uint8) 1;
  92              		.loc 1 119 0
  93 001c 1370     		strb	r3, [r2]
 120:can_manga.c   ****     HeartB.msg->byte[1] = (uint8) 1;
  94              		.loc 1 120 0
  95 001e 5370     		strb	r3, [r2, #1]
 121:can_manga.c   ****     HeartB.msg->byte[3] = (uint8) 1;
ARM GAS  C:\Users\leoja\AppData\Local\Temp\cc8ldM9G.s 			page 5


  96              		.loc 1 121 0
  97 0020 9370     		strb	r3, [r2, #2]
 122:can_manga.c   ****     HeartB.msg->byte[4] = (uint8) 1;
  98              		.loc 1 122 0
  99 0022 D370     		strb	r3, [r2, #3]
 123:can_manga.c   ****     HeartB.msg->byte[5] = (uint8) 1;
 100              		.loc 1 123 0
 101 0024 1371     		strb	r3, [r2, #4]
 124:can_manga.c   ****     HeartB.msg->byte[6] = (uint8) 1;
 102              		.loc 1 124 0
 103 0026 5371     		strb	r3, [r2, #5]
 125:can_manga.c   ****     HeartB.msg->byte[7] = (uint8) 1;
 104              		.loc 1 125 0
 105 0028 9371     		strb	r3, [r2, #6]
 127:can_manga.c   ****     
 128:can_manga.c   ****     CAN_SendMsg(&HeartB);
 106              		.loc 1 128 0
 107 002a 6846     		mov	r0, sp
 108 002c FFF7FEFF 		bl	CAN_SendMsg
 109              	.LVL0:
 129:can_manga.c   **** }
 110              		.loc 1 129 0
 111 0030 05B0     		add	sp, sp, #20
 112              		@ sp needed
 113 0032 00BD     		pop	{pc}
 114              		.cfi_endproc
 115              	.LFE36:
 116              		.size	can_test_send, .-can_test_send
 117              		.section	.text.can_send,"ax",%progbits
 118              		.align	1
 119              		.global	can_send
 120              		.code	16
 121              		.thumb_func
 122              		.type	can_send, %function
 123              	can_send:
 124              	.LFB37:
 130:can_manga.c   **** 
 131:can_manga.c   **** void can_send(uint8_t data[8], uint32_t ID)
 132:can_manga.c   **** {
 125              		.loc 1 132 0
 126              		.cfi_startproc
 127              		@ args = 0, pretend = 0, frame = 24
 128              		@ frame_needed = 0, uses_anonymous_args = 0
 129              	.LVL1:
 130 0000 10B5     		push	{r4, lr}
 131              		.cfi_def_cfa_offset 8
 132              		.cfi_offset 4, -8
 133              		.cfi_offset 14, -4
 134 0002 86B0     		sub	sp, sp, #24
 135              		.cfi_def_cfa_offset 32
 133:can_manga.c   ****     uint8_t i;
 134:can_manga.c   **** 	CAN_TX_MSG message;
 135:can_manga.c   **** 	CAN_DATA_BYTES_MSG payload;
 136:can_manga.c   **** 	message.id = ID; 
 136              		.loc 1 136 0
 137 0004 0291     		str	r1, [sp, #8]
 137:can_manga.c   **** 	message.rtr = 0;
ARM GAS  C:\Users\leoja\AppData\Local\Temp\cc8ldM9G.s 			page 6


 138:can_manga.c   **** 	message.ide = 0;
 139:can_manga.c   **** 	message.dlc = 0x08;
 138              		.loc 1 139 0
 139 0006 0821     		movs	r1, #8
 140              	.LVL2:
 136:can_manga.c   **** 	message.rtr = 0;
 141              		.loc 1 136 0
 142 0008 02AA     		add	r2, sp, #8
 143              	.LVL3:
 137:can_manga.c   **** 	message.rtr = 0;
 144              		.loc 1 137 0
 145 000a 0023     		movs	r3, #0
 146              		.loc 1 139 0
 147 000c 9171     		strb	r1, [r2, #6]
 140:can_manga.c   **** 	message.irq = 0;
 141:can_manga.c   **** 	message.msg = &payload;
 148              		.loc 1 141 0
 149 000e 6946     		mov	r1, sp
 137:can_manga.c   **** 	message.ide = 0;
 150              		.loc 1 137 0
 151 0010 1371     		strb	r3, [r2, #4]
 138:can_manga.c   **** 	message.dlc = 0x08;
 152              		.loc 1 138 0
 153 0012 5371     		strb	r3, [r2, #5]
 140:can_manga.c   **** 	message.irq = 0;
 154              		.loc 1 140 0
 155 0014 D371     		strb	r3, [r2, #7]
 156              		.loc 1 141 0
 157 0016 D160     		str	r1, [r2, #12]
 158              	.LVL4:
 159              	.L6:
 142:can_manga.c   **** 	for(i=0;i<8;i++)
 143:can_manga.c   **** 		payload.byte[i] = data[i];
 160              		.loc 1 143 0 discriminator 3
 161 0018 6C46     		mov	r4, sp
 162 001a C15C     		ldrb	r1, [r0, r3]
 163 001c E154     		strb	r1, [r4, r3]
 164              	.LVL5:
 165 001e 0133     		adds	r3, r3, #1
 166              	.LVL6:
 142:can_manga.c   **** 	for(i=0;i<8;i++)
 167              		.loc 1 142 0 discriminator 3
 168 0020 082B     		cmp	r3, #8
 169 0022 F9D1     		bne	.L6
 144:can_manga.c   **** 	CAN_SendMsg(&message); 
 170              		.loc 1 144 0
 171 0024 1000     		movs	r0, r2
 172              	.LVL7:
 173 0026 FFF7FEFF 		bl	CAN_SendMsg
 174              	.LVL8:
 145:can_manga.c   **** }
 175              		.loc 1 145 0
 176 002a 06B0     		add	sp, sp, #24
 177              		@ sp needed
 178 002c 10BD     		pop	{r4, pc}
 179              		.cfi_endproc
 180              	.LFE37:
ARM GAS  C:\Users\leoja\AppData\Local\Temp\cc8ldM9G.s 			page 7


 181              		.size	can_send, .-can_send
 182              		.section	.text.can_send_switches,"ax",%progbits
 183              		.align	1
 184              		.global	can_send_switches
 185              		.code	16
 186              		.thumb_func
 187              		.type	can_send_switches, %function
 188              	can_send_switches:
 189              	.LFB38:
 146:can_manga.c   **** 
 147:can_manga.c   **** void can_send_switches(uint8_t sw_status){
 190              		.loc 1 147 0
 191              		.cfi_startproc
 192              		@ args = 0, pretend = 0, frame = 24
 193              		@ frame_needed = 0, uses_anonymous_args = 0
 194              	.LVL9:
 195 0000 7FB5     		push	{r0, r1, r2, r3, r4, r5, r6, lr}
 196              		.cfi_def_cfa_offset 32
 197              		.cfi_offset 0, -32
 198              		.cfi_offset 1, -28
 199              		.cfi_offset 2, -24
 200              		.cfi_offset 3, -20
 201              		.cfi_offset 4, -16
 202              		.cfi_offset 5, -12
 203              		.cfi_offset 6, -8
 204              		.cfi_offset 14, -4
 148:can_manga.c   ****       
 149:can_manga.c   ****         CAN_DATA_BYTES_MSG data_switches;
 150:can_manga.c   ****         CAN_TX_MSG message_switches;
 151:can_manga.c   ****     
 152:can_manga.c   ****         /* BASIC CAN mailbox configuration */
 153:can_manga.c   ****         message_switches.dlc = 2;
 205              		.loc 1 153 0
 206 0002 0222     		movs	r2, #2
 207 0004 02AB     		add	r3, sp, #8
 208 0006 9A71     		strb	r2, [r3, #6]
 154:can_manga.c   ****         message_switches.id  = DRIVER_SWITCHES;
 209              		.loc 1 154 0
 210 0008 4E32     		adds	r2, r2, #78
 211 000a 0292     		str	r2, [sp, #8]
 155:can_manga.c   ****         message_switches.ide = 0;
 212              		.loc 1 155 0
 213 000c 0022     		movs	r2, #0
 156:can_manga.c   ****         message_switches.irq = 0;
 157:can_manga.c   ****         message_switches.msg = &data_switches;
 214              		.loc 1 157 0
 215 000e 6946     		mov	r1, sp
 155:can_manga.c   ****         message_switches.ide = 0;
 216              		.loc 1 155 0
 217 0010 5A71     		strb	r2, [r3, #5]
 156:can_manga.c   ****         message_switches.irq = 0;
 218              		.loc 1 156 0
 219 0012 DA71     		strb	r2, [r3, #7]
 158:can_manga.c   ****         message_switches.rtr = 0;
 220              		.loc 1 158 0
 221 0014 1A71     		strb	r2, [r3, #4]
 159:can_manga.c   ****     
ARM GAS  C:\Users\leoja\AppData\Local\Temp\cc8ldM9G.s 			page 8


 160:can_manga.c   ****         data_switches.byte[0u] = sw_status;
 161:can_manga.c   ****         data_switches.byte[1u] = torque_limit & 0xFF; 
 222              		.loc 1 161 0
 223 0016 054A     		ldr	r2, .L10
 160:can_manga.c   ****         data_switches.byte[1u] = torque_limit & 0xFF; 
 224              		.loc 1 160 0
 225 0018 0870     		strb	r0, [r1]
 226              		.loc 1 161 0
 227 001a 1288     		ldrh	r2, [r2]
 162:can_manga.c   ****         CAN_SendMsg(&message_switches);
 228              		.loc 1 162 0
 229 001c 1800     		movs	r0, r3
 230              	.LVL10:
 157:can_manga.c   ****         message_switches.rtr = 0;
 231              		.loc 1 157 0
 232 001e 0591     		str	r1, [sp, #20]
 161:can_manga.c   ****         CAN_SendMsg(&message_switches);
 233              		.loc 1 161 0
 234 0020 4A70     		strb	r2, [r1, #1]
 235              		.loc 1 162 0
 236 0022 FFF7FEFF 		bl	CAN_SendMsg
 237              	.LVL11:
 163:can_manga.c   ****     
 164:can_manga.c   ****         /*
 165:can_manga.c   ****         uint8_t data[8];
 166:can_manga.c   ****         
 167:can_manga.c   ****         data[0] = sw_status;
 168:can_manga.c   ****         data[1] = 0;
 169:can_manga.c   ****         
 170:can_manga.c   ****         data[2] = 0;
 171:can_manga.c   ****         data[3] = 0;
 172:can_manga.c   ****         
 173:can_manga.c   ****         data[4] = 0;
 174:can_manga.c   ****         data[5] = 0;
 175:can_manga.c   ****         data[6] = 0;
 176:can_manga.c   ****         data[7] = 0;
 177:can_manga.c   **** 
 178:can_manga.c   ****         can_send(data, DRIVER_SWITCHES);
 179:can_manga.c   **** */
 180:can_manga.c   ****         
 181:can_manga.c   **** } // can_send_status()
 238              		.loc 1 181 0
 239 0026 07B0     		add	sp, sp, #28
 240              		@ sp needed
 241 0028 00BD     		pop	{pc}
 242              	.L11:
 243 002a C046     		.align	2
 244              	.L10:
 245 002c 00000000 		.word	torque_limit
 246              		.cfi_endproc
 247              	.LFE38:
 248              		.size	can_send_switches, .-can_send_switches
 249              		.section	.text.can_send_cmd,"ax",%progbits
 250              		.align	1
 251              		.global	can_send_cmd
 252              		.code	16
 253              		.thumb_func
ARM GAS  C:\Users\leoja\AppData\Local\Temp\cc8ldM9G.s 			page 9


 254              		.type	can_send_cmd, %function
 255              	can_send_cmd:
 256              	.LFB39:
 182:can_manga.c   **** 
 183:can_manga.c   **** void can_send_cmd(
 184:can_manga.c   ****     uint8_t SetInterlock,
 185:can_manga.c   ****     uint16_t VCL_Throttle_High,
 186:can_manga.c   ****     uint16_t VCL_Throttle_Low,
 187:can_manga.c   ****     uint8_t E_Stop_Check
 188:can_manga.c   **** )
 189:can_manga.c   **** {
 257              		.loc 1 189 0
 258              		.cfi_startproc
 259              		@ args = 0, pretend = 0, frame = 8
 260              		@ frame_needed = 0, uses_anonymous_args = 0
 261              	.LVL12:
 262 0000 13B5     		push	{r0, r1, r4, lr}
 263              		.cfi_def_cfa_offset 16
 264              		.cfi_offset 0, -16
 265              		.cfi_offset 1, -12
 266              		.cfi_offset 4, -8
 267              		.cfi_offset 14, -4
 190:can_manga.c   ****     //max and min voltage means the voltage of single cell
 191:can_manga.c   ****         
 192:can_manga.c   ****         uint8_t data[8];
 193:can_manga.c   ****         
 194:can_manga.c   ****         data[0] = SetInterlock;
 268              		.loc 1 194 0
 269 0002 6C46     		mov	r4, sp
 195:can_manga.c   ****         
 196:can_manga.c   ****         data[1] = VCL_Throttle_High;
 197:can_manga.c   ****         data[2] = VCL_Throttle_Low;
 270              		.loc 1 197 0
 271 0004 A270     		strb	r2, [r4, #2]
 198:can_manga.c   ****         
 199:can_manga.c   ****         data[3] = 0;
 272              		.loc 1 199 0
 273 0006 0022     		movs	r2, #0
 274              	.LVL13:
 194:can_manga.c   ****         
 275              		.loc 1 194 0
 276 0008 2070     		strb	r0, [r4]
 196:can_manga.c   ****         data[2] = VCL_Throttle_Low;
 277              		.loc 1 196 0
 278 000a 6170     		strb	r1, [r4, #1]
 279 000c 6846     		mov	r0, sp
 280              	.LVL14:
 200:can_manga.c   ****         data[4] = E_Stop_Check;
 201:can_manga.c   ****         
 202:can_manga.c   ****         data[5] = 0;
 203:can_manga.c   ****         data[6] = 0;
 204:can_manga.c   ****         data[7] = 0;
 205:can_manga.c   **** 
 206:can_manga.c   ****         can_send(data, 0x766);
 281              		.loc 1 206 0
 282 000e 0649     		ldr	r1, .L13
 283              	.LVL15:
ARM GAS  C:\Users\leoja\AppData\Local\Temp\cc8ldM9G.s 			page 10


 199:can_manga.c   ****         data[4] = E_Stop_Check;
 284              		.loc 1 199 0
 285 0010 E270     		strb	r2, [r4, #3]
 200:can_manga.c   ****         data[4] = E_Stop_Check;
 286              		.loc 1 200 0
 287 0012 2371     		strb	r3, [r4, #4]
 202:can_manga.c   ****         data[6] = 0;
 288              		.loc 1 202 0
 289 0014 6271     		strb	r2, [r4, #5]
 203:can_manga.c   ****         data[7] = 0;
 290              		.loc 1 203 0
 291 0016 A271     		strb	r2, [r4, #6]
 204:can_manga.c   **** 
 292              		.loc 1 204 0
 293 0018 E271     		strb	r2, [r4, #7]
 294              		.loc 1 206 0
 295 001a FFF7FEFF 		bl	can_send
 296              	.LVL16:
 207:can_manga.c   ****         CyDelay(1); // Wtf is this shit?
 297              		.loc 1 207 0
 298 001e 0120     		movs	r0, #1
 299 0020 FFF7FEFF 		bl	CyDelay
 300              	.LVL17:
 208:can_manga.c   **** 
 209:can_manga.c   **** } // can_send_cmd()
 301              		.loc 1 209 0
 302              		@ sp needed
 303 0024 13BD     		pop	{r0, r1, r4, pc}
 304              	.L14:
 305 0026 C046     		.align	2
 306              	.L13:
 307 0028 66070000 		.word	1894
 308              		.cfi_endproc
 309              	.LFE39:
 310              		.size	can_send_cmd, .-can_send_cmd
 311              		.section	.text.can_send_charge,"ax",%progbits
 312              		.align	1
 313              		.global	can_send_charge
 314              		.code	16
 315              		.thumb_func
 316              		.type	can_send_charge, %function
 317              	can_send_charge:
 318              	.LFB40:
 210:can_manga.c   **** 
 211:can_manga.c   **** void can_send_charge(uint8_t charge, uint8_t save_soc) {
 319              		.loc 1 211 0
 320              		.cfi_startproc
 321              		@ args = 0, pretend = 0, frame = 8
 322              		@ frame_needed = 0, uses_anonymous_args = 0
 323              	.LVL18:
 324 0000 37B5     		push	{r0, r1, r2, r4, r5, lr}
 325              		.cfi_def_cfa_offset 24
 326              		.cfi_offset 0, -24
 327              		.cfi_offset 1, -20
 328              		.cfi_offset 2, -16
 329              		.cfi_offset 4, -12
 330              		.cfi_offset 5, -8
ARM GAS  C:\Users\leoja\AppData\Local\Temp\cc8ldM9G.s 			page 11


 331              		.cfi_offset 14, -4
 332              		.loc 1 211 0
 333 0002 0500     		movs	r5, r0
 334 0004 0C00     		movs	r4, r1
 212:can_manga.c   ****     uint8_t data[8] = {0};
 335              		.loc 1 212 0
 336 0006 0822     		movs	r2, #8
 337 0008 0021     		movs	r1, #0
 338              	.LVL19:
 339 000a 6846     		mov	r0, sp
 340              	.LVL20:
 341 000c FFF7FEFF 		bl	memset
 342              	.LVL21:
 213:can_manga.c   ****     data[0] = charge;
 343              		.loc 1 213 0
 344 0010 6B46     		mov	r3, sp
 214:can_manga.c   ****     data[1] = save_soc;
 215:can_manga.c   ****     
 216:can_manga.c   ****     can_send(data, 0x389);
 345              		.loc 1 216 0
 346 0012 0349     		ldr	r1, .L16
 347 0014 6846     		mov	r0, sp
 213:can_manga.c   ****     data[0] = charge;
 348              		.loc 1 213 0
 349 0016 1D70     		strb	r5, [r3]
 214:can_manga.c   ****     data[1] = save_soc;
 350              		.loc 1 214 0
 351 0018 5C70     		strb	r4, [r3, #1]
 217:can_manga.c   **** }...
 352              		.loc 1 217 0
 353              		@ sp needed
 216:can_manga.c   ****     can_send(data, 0x389);
 354              		.loc 1 216 0
 355 001a FFF7FEFF 		bl	can_send
 356              	.LVL22:
 357              		.loc 1 217 0
 358 001e 37BD     		pop	{r0, r1, r2, r4, r5, pc}
 359              	.L17:
 360              		.align	2
 361              	.L16:
 362 0020 89030000 		.word	905
 363              		.cfi_endproc
 364              	.LFE40:
 365              		.size	can_send_charge, .-can_send_charge
 366              		.global	current_bytes
 367              		.global	ACK_RX
 368              		.global	CAPACITOR_VOLT
 369              		.comm	last_shutdown_color,4,4
 370              		.comm	last_motor_temp_color,4,4
 371              		.comm	last_mc_temp_color,4,4
 372              		.comm	last_glv_v_color,4,4
 373              		.comm	last_state_color,4,4
 374              		.comm	last_max_pack_temp_color,4,4
 375              		.comm	last_SOC_color,4,4
 376              		.comm	gui1963,120,4
 377              		.bss
 378              		.set	.LANCHOR0,. + 0
ARM GAS  C:\Users\leoja\AppData\Local\Temp\cc8ldM9G.s 			page 12


 379              		.type	CAPACITOR_VOLT, %object
 380              		.size	CAPACITOR_VOLT, 1
 381              	CAPACITOR_VOLT:
 382 0000 00       		.space	1
 383              		.type	current_bytes, %object
 384              		.size	current_bytes, 4
 385              	current_bytes:
 386 0001 00000000 		.space	4
 387              		.type	ACK_RX, %object
 388              		.size	ACK_RX, 1
 389              	ACK_RX:
 390 0005 00       		.space	1
 391              		.text
 392              	.Letext0:
 393              		.file 2 "c:\\program files (x86)\\cypress\\psoc creator\\4.4\\psoc creator\\import\\gnu\\arm\\5.4.
 394              		.file 3 "c:\\program files (x86)\\cypress\\psoc creator\\4.4\\psoc creator\\import\\gnu\\arm\\5.4.
 395              		.file 4 "Generated_Source\\PSoC4/cytypes.h"
 396              		.file 5 "Generated_Source\\PSoC4/CAN.h"
 397              		.file 6 "ugui_config.h"
 398              		.file 7 "can_manga.h"
 399              		.file 8 "ugui.h"
 400              		.file 9 "ugui_SSD1963.h"
 401              		.file 10 "frucd_display.h"
 402              		.file 11 "Generated_Source\\PSoC4/CyLib.h"