ARM GAS  C:\Users\Melody\AppData\Local\Temp\cc3mk2Hg.s 			page 1


   1              		.syntax unified
   2              		.cpu cortex-m0
   3              		.fpu softvfp
   4              		.eabi_attribute 20, 1
   5              		.eabi_attribute 21, 1
   6              		.eabi_attribute 23, 3
   7              		.eabi_attribute 24, 1
   8              		.eabi_attribute 25, 1
   9              		.eabi_attribute 26, 1
  10              		.eabi_attribute 30, 4
  11              		.eabi_attribute 34, 0
  12              		.eabi_attribute 18, 4
  13              		.thumb
  14              		.syntax unified
  15              		.file	"CAN_TX_RX_func.c"
  16              		.text
  17              	.Ltext0:
  18              		.cfi_sections	.debug_frame
  19              		.section	.text.CAN_SendMsg,"ax",%progbits
  20              		.align	1
  21              		.global	CAN_SendMsg
  22              		.code	16
  23              		.thumb_func
  24              		.type	CAN_SendMsg, %function
  25              	CAN_SendMsg:
  26              	.LFB34:
  27              		.file 1 "Generated_Source\\PSoC4\\CAN_TX_RX_func.c"
   1:Generated_Source\PSoC4/CAN_TX_RX_func.c **** /*******************************************************************************
   2:Generated_Source\PSoC4/CAN_TX_RX_func.c **** * File Name: CAN_TX_RX_func.c
   3:Generated_Source\PSoC4/CAN_TX_RX_func.c **** * Version 3.0
   4:Generated_Source\PSoC4/CAN_TX_RX_func.c **** *
   5:Generated_Source\PSoC4/CAN_TX_RX_func.c **** * Description:
   6:Generated_Source\PSoC4/CAN_TX_RX_func.c **** *  There are functions process "Full" Receive and Transmit mailboxes:
   7:Generated_Source\PSoC4/CAN_TX_RX_func.c **** *     - CAN_SendMsg0-7();
   8:Generated_Source\PSoC4/CAN_TX_RX_func.c **** *     - CAN_ReceiveMsg0-15();
   9:Generated_Source\PSoC4/CAN_TX_RX_func.c **** *  Transmission of message, and receive routine for "Basic" mailboxes:
  10:Generated_Source\PSoC4/CAN_TX_RX_func.c **** *     - CAN_SendMsg();
  11:Generated_Source\PSoC4/CAN_TX_RX_func.c **** *     - CAN_TxCancel();
  12:Generated_Source\PSoC4/CAN_TX_RX_func.c **** *     - CAN_ReceiveMsg();
  13:Generated_Source\PSoC4/CAN_TX_RX_func.c **** *
  14:Generated_Source\PSoC4/CAN_TX_RX_func.c **** *  Note:
  15:Generated_Source\PSoC4/CAN_TX_RX_func.c **** *   None
  16:Generated_Source\PSoC4/CAN_TX_RX_func.c **** *
  17:Generated_Source\PSoC4/CAN_TX_RX_func.c **** ********************************************************************************
  18:Generated_Source\PSoC4/CAN_TX_RX_func.c **** * Copyright 2008-2015, Cypress Semiconductor Corporation.  All rights reserved.
  19:Generated_Source\PSoC4/CAN_TX_RX_func.c **** * You may use this file only in accordance with the license, terms, conditions,
  20:Generated_Source\PSoC4/CAN_TX_RX_func.c **** * disclaimers, and limitations in the end user license agreement accompanying
  21:Generated_Source\PSoC4/CAN_TX_RX_func.c **** * the software package with which this file was provided.
  22:Generated_Source\PSoC4/CAN_TX_RX_func.c **** *******************************************************************************/
  23:Generated_Source\PSoC4/CAN_TX_RX_func.c **** 
  24:Generated_Source\PSoC4/CAN_TX_RX_func.c **** #include "CAN.h"
  25:Generated_Source\PSoC4/CAN_TX_RX_func.c **** #include "cyapicallbacks.h"
  26:Generated_Source\PSoC4/CAN_TX_RX_func.c **** #include "data.h"
  27:Generated_Source\PSoC4/CAN_TX_RX_func.c **** 
  28:Generated_Source\PSoC4/CAN_TX_RX_func.c **** 
  29:Generated_Source\PSoC4/CAN_TX_RX_func.c **** extern volatile vcu_state state;
  30:Generated_Source\PSoC4/CAN_TX_RX_func.c **** extern volatile uint32_t pedalOK;
ARM GAS  C:\Users\Melody\AppData\Local\Temp\cc3mk2Hg.s 			page 2


  31:Generated_Source\PSoC4/CAN_TX_RX_func.c **** extern volatile uint8_t PACK_TEMP;
  32:Generated_Source\PSoC4/CAN_TX_RX_func.c **** extern volatile uint8_t BSPD_CATCH;
  33:Generated_Source\PSoC4/CAN_TX_RX_func.c **** extern volatile uint16_t CURRENT;
  34:Generated_Source\PSoC4/CAN_TX_RX_func.c **** //extern volatile int ERROR_NODE;
  35:Generated_Source\PSoC4/CAN_TX_RX_func.c **** //extern volatile int ERROR_IDX;
  36:Generated_Source\PSoC4/CAN_TX_RX_func.c **** extern volatile uint8_t soc;
  37:Generated_Source\PSoC4/CAN_TX_RX_func.c **** extern volatile uint32_t voltage;
  38:Generated_Source\PSoC4/CAN_TX_RX_func.c **** extern volatile BMS_STATUS bms_status;
  39:Generated_Source\PSoC4/CAN_TX_RX_func.c **** extern volatile uint8_t shutdown_flags;
  40:Generated_Source\PSoC4/CAN_TX_RX_func.c **** 
  41:Generated_Source\PSoC4/CAN_TX_RX_func.c **** // info from MC and motor
  42:Generated_Source\PSoC4/CAN_TX_RX_func.c **** extern volatile uint16_t mc_temp;
  43:Generated_Source\PSoC4/CAN_TX_RX_func.c **** extern volatile uint16_t motor_temp;
  44:Generated_Source\PSoC4/CAN_TX_RX_func.c **** 
  45:Generated_Source\PSoC4/CAN_TX_RX_func.c **** extern volatile uint8_t CAPACITOR_VOLT;
  46:Generated_Source\PSoC4/CAN_TX_RX_func.c **** extern volatile uint8_t ERROR_TOLERANCE;
  47:Generated_Source\PSoC4/CAN_TX_RX_func.c **** extern volatile uint8_t ABS_MOTOR_RPM;
  48:Generated_Source\PSoC4/CAN_TX_RX_func.c **** extern volatile uint8_t THROTTLE_HIGH;
  49:Generated_Source\PSoC4/CAN_TX_RX_func.c **** extern volatile uint8_t THROTTLE_LOW;
  50:Generated_Source\PSoC4/CAN_TX_RX_func.c **** 
  51:Generated_Source\PSoC4/CAN_TX_RX_func.c **** /* `#START TX_RX_FUNCTION` */
  52:Generated_Source\PSoC4/CAN_TX_RX_func.c **** 
  53:Generated_Source\PSoC4/CAN_TX_RX_func.c **** /* `#END` */
  54:Generated_Source\PSoC4/CAN_TX_RX_func.c **** 
  55:Generated_Source\PSoC4/CAN_TX_RX_func.c **** 
  56:Generated_Source\PSoC4/CAN_TX_RX_func.c **** /*******************************************************************************
  57:Generated_Source\PSoC4/CAN_TX_RX_func.c **** * FUNCTION NAME:   CAN_SendMsg
  58:Generated_Source\PSoC4/CAN_TX_RX_func.c **** ********************************************************************************
  59:Generated_Source\PSoC4/CAN_TX_RX_func.c **** *
  60:Generated_Source\PSoC4/CAN_TX_RX_func.c **** * Summary:
  61:Generated_Source\PSoC4/CAN_TX_RX_func.c **** *  This function is Send Message from one of Basic mailboxes. The function loops
  62:Generated_Source\PSoC4/CAN_TX_RX_func.c **** *  through the transmit message buffer designed as Basic CAN mailboxes for the
  63:Generated_Source\PSoC4/CAN_TX_RX_func.c **** *  first free available and sends from it. The number of retries is limited.
  64:Generated_Source\PSoC4/CAN_TX_RX_func.c **** *
  65:Generated_Source\PSoC4/CAN_TX_RX_func.c **** * Parameters:
  66:Generated_Source\PSoC4/CAN_TX_RX_func.c **** *  message: The pointer to a structure that contains all required data to send
  67:Generated_Source\PSoC4/CAN_TX_RX_func.c **** *           messages.
  68:Generated_Source\PSoC4/CAN_TX_RX_func.c **** *
  69:Generated_Source\PSoC4/CAN_TX_RX_func.c **** * Return:
  70:Generated_Source\PSoC4/CAN_TX_RX_func.c **** *  Indication if message has been sent.
  71:Generated_Source\PSoC4/CAN_TX_RX_func.c **** *   Define                             Description
  72:Generated_Source\PSoC4/CAN_TX_RX_func.c **** *    CYRET_SUCCESS                      The function passed successfully
  73:Generated_Source\PSoC4/CAN_TX_RX_func.c **** *    CAN_FAIL              The function failed
  74:Generated_Source\PSoC4/CAN_TX_RX_func.c **** *
  75:Generated_Source\PSoC4/CAN_TX_RX_func.c **** *******************************************************************************/
  76:Generated_Source\PSoC4/CAN_TX_RX_func.c **** uint8 CAN_SendMsg(const CAN_TX_MSG *message) 
  77:Generated_Source\PSoC4/CAN_TX_RX_func.c **** {
  28              		.loc 1 77 0
  29              		.cfi_startproc
  30              		@ args = 0, pretend = 0, frame = 8
  31              		@ frame_needed = 0, uses_anonymous_args = 0
  32              	.LVL0:
  33 0000 0323     		movs	r3, #3
  34 0002 F7B5     		push	{r0, r1, r2, r4, r5, r6, r7, lr}
  35              		.cfi_def_cfa_offset 32
  36              		.cfi_offset 0, -32
  37              		.cfi_offset 1, -28
ARM GAS  C:\Users\Melody\AppData\Local\Temp\cc3mk2Hg.s 			page 3


  38              		.cfi_offset 2, -24
  39              		.cfi_offset 4, -20
  40              		.cfi_offset 5, -16
  41              		.cfi_offset 6, -12
  42              		.cfi_offset 7, -8
  43              		.cfi_offset 14, -4
  44              		.loc 1 77 0
  45 0004 0600     		movs	r6, r0
  46 0006 0093     		str	r3, [sp]
  47              	.LVL1:
  48              	.L2:
  49 0008 0127     		movs	r7, #1
  50 000a 394D     		ldr	r5, .L37
  51              	.LVL2:
  52              	.L18:
  53 000c 0120     		movs	r0, #1
  78:Generated_Source\PSoC4/CAN_TX_RX_func.c ****     uint8 i, j, shift;
  79:Generated_Source\PSoC4/CAN_TX_RX_func.c ****     uint8 retry = 0u;
  80:Generated_Source\PSoC4/CAN_TX_RX_func.c ****     uint8 result = CAN_FAIL;
  81:Generated_Source\PSoC4/CAN_TX_RX_func.c ****     uint32 regTemp;
  82:Generated_Source\PSoC4/CAN_TX_RX_func.c **** 
  83:Generated_Source\PSoC4/CAN_TX_RX_func.c ****     while (retry < CAN_RETRY_NUMBER)
  84:Generated_Source\PSoC4/CAN_TX_RX_func.c ****     {
  85:Generated_Source\PSoC4/CAN_TX_RX_func.c ****         shift = 1u;    /* Start from first mailbox */
  86:Generated_Source\PSoC4/CAN_TX_RX_func.c ****         for (i = 0u; i < CAN_NUMBER_OF_TX_MAILBOXES; i++)
  87:Generated_Source\PSoC4/CAN_TX_RX_func.c ****         {
  88:Generated_Source\PSoC4/CAN_TX_RX_func.c ****             /* Find Basic TX mailboxes */
  89:Generated_Source\PSoC4/CAN_TX_RX_func.c ****             if ((CAN_TX_MAILBOX_TYPE & shift) == 0u)
  54              		.loc 1 89 0
  55 000e 0742     		tst	r7, r0
  56 0010 5ED1     		bne	.L3
  90:Generated_Source\PSoC4/CAN_TX_RX_func.c ****             {
  91:Generated_Source\PSoC4/CAN_TX_RX_func.c ****                 /* Find free mailbox */
  92:Generated_Source\PSoC4/CAN_TX_RX_func.c ****                 #if (CY_PSOC3 || CY_PSOC5)
  93:Generated_Source\PSoC4/CAN_TX_RX_func.c ****                     if ((CAN_BUF_SR_REG.byte[2] & shift) == 0u)
  94:Generated_Source\PSoC4/CAN_TX_RX_func.c ****                 #else  /* CY_PSOC4 */
  95:Generated_Source\PSoC4/CAN_TX_RX_func.c ****                     if ((CAN_BUF_SR_REG &
  57              		.loc 1 95 0
  58 0012 384B     		ldr	r3, .L37+4
  59 0014 1A68     		ldr	r2, [r3]
  60 0016 3B04     		lsls	r3, r7, #16
  61 0018 1A42     		tst	r2, r3
  62 001a 59D1     		bne	.L3
  63              	.LVL3:
  96:Generated_Source\PSoC4/CAN_TX_RX_func.c ****                         (uint32) ((uint32) shift << CAN_TWO_BYTE_OFFSET)) == 0u)
  97:Generated_Source\PSoC4/CAN_TX_RX_func.c ****                 #endif /* CY_PSOC3 || CY_PSOC5 */
  98:Generated_Source\PSoC4/CAN_TX_RX_func.c ****                     {
  99:Generated_Source\PSoC4/CAN_TX_RX_func.c ****                         regTemp = 0u;
 100:Generated_Source\PSoC4/CAN_TX_RX_func.c **** 
 101:Generated_Source\PSoC4/CAN_TX_RX_func.c ****                         /* Set message parameters */
 102:Generated_Source\PSoC4/CAN_TX_RX_func.c ****                         if (message->rtr != CAN_STANDARD_MESSAGE)
  64              		.loc 1 102 0
  65 001c 3479     		ldrb	r4, [r6, #4]
 103:Generated_Source\PSoC4/CAN_TX_RX_func.c ****                         {
 104:Generated_Source\PSoC4/CAN_TX_RX_func.c ****                             regTemp = CAN_TX_RTR_MASK;    /* RTR message Enable */
 105:Generated_Source\PSoC4/CAN_TX_RX_func.c ****                         }
 106:Generated_Source\PSoC4/CAN_TX_RX_func.c **** 
ARM GAS  C:\Users\Melody\AppData\Local\Temp\cc3mk2Hg.s 			page 4


 107:Generated_Source\PSoC4/CAN_TX_RX_func.c ****                         if (message->ide == CAN_STANDARD_MESSAGE)
  66              		.loc 1 107 0
  67 001e 7179     		ldrb	r1, [r6, #5]
 104:Generated_Source\PSoC4/CAN_TX_RX_func.c ****                         }
  68              		.loc 1 104 0
  69 0020 621E     		subs	r2, r4, #1
  70 0022 9441     		sbcs	r4, r4, r2
  71 0024 3368     		ldr	r3, [r6]
  72 0026 6205     		lsls	r2, r4, #21
  73              	.LVL4:
  74              		.loc 1 107 0
  75 0028 0029     		cmp	r1, #0
  76 002a 01D1     		bne	.L5
 108:Generated_Source\PSoC4/CAN_TX_RX_func.c ****                         {
 109:Generated_Source\PSoC4/CAN_TX_RX_func.c ****                             CAN_SET_TX_ID_STANDARD_MSG(i, message->id);
  77              		.loc 1 109 0
  78 002c 5B05     		lsls	r3, r3, #21
  79 002e 03E0     		b	.L33
  80              	.L5:
 110:Generated_Source\PSoC4/CAN_TX_RX_func.c ****                         }
 111:Generated_Source\PSoC4/CAN_TX_RX_func.c ****                         else
 112:Generated_Source\PSoC4/CAN_TX_RX_func.c ****                         {
 113:Generated_Source\PSoC4/CAN_TX_RX_func.c ****                             regTemp |= CAN_TX_IDE_MASK;
  81              		.loc 1 113 0
  82 0030 8021     		movs	r1, #128
  83 0032 4903     		lsls	r1, r1, #13
  84 0034 0A43     		orrs	r2, r1
  85              	.LVL5:
 114:Generated_Source\PSoC4/CAN_TX_RX_func.c ****                             CAN_SET_TX_ID_EXTENDED_MSG(i, message->id);
  86              		.loc 1 114 0
  87 0036 DB00     		lsls	r3, r3, #3
  88              	.L33:
  89 0038 6B60     		str	r3, [r5, #4]
 115:Generated_Source\PSoC4/CAN_TX_RX_func.c ****                         }
 116:Generated_Source\PSoC4/CAN_TX_RX_func.c **** 
 117:Generated_Source\PSoC4/CAN_TX_RX_func.c ****                         if (message->dlc < CAN_TX_DLC_MAX_VALUE)
  90              		.loc 1 117 0
  91 003a B479     		ldrb	r4, [r6, #6]
  92 003c 072C     		cmp	r4, #7
  93 003e 01D8     		bhi	.L7
 118:Generated_Source\PSoC4/CAN_TX_RX_func.c ****                         {
 119:Generated_Source\PSoC4/CAN_TX_RX_func.c ****                             regTemp |= ((uint32) message->dlc) << CAN_TWO_BYTE_OFFSET;
  94              		.loc 1 119 0
  95 0040 2404     		lsls	r4, r4, #16
  96 0042 01E0     		b	.L34
  97              	.L7:
 120:Generated_Source\PSoC4/CAN_TX_RX_func.c ****                         }
 121:Generated_Source\PSoC4/CAN_TX_RX_func.c ****                         else
 122:Generated_Source\PSoC4/CAN_TX_RX_func.c ****                         {
 123:Generated_Source\PSoC4/CAN_TX_RX_func.c ****                             regTemp |= CAN_TX_DLC_UPPER_VALUE;
  98              		.loc 1 123 0
  99 0044 8024     		movs	r4, #128
 100 0046 2403     		lsls	r4, r4, #12
 101              	.L34:
 124:Generated_Source\PSoC4/CAN_TX_RX_func.c ****                         }
 125:Generated_Source\PSoC4/CAN_TX_RX_func.c **** 
 126:Generated_Source\PSoC4/CAN_TX_RX_func.c ****                         if (message->irq != CAN_TRANSMIT_INT_DISABLE)
ARM GAS  C:\Users\Melody\AppData\Local\Temp\cc3mk2Hg.s 			page 5


 102              		.loc 1 126 0
 103 0048 F379     		ldrb	r3, [r6, #7]
 123:Generated_Source\PSoC4/CAN_TX_RX_func.c ****                         }
 104              		.loc 1 123 0
 105 004a 1443     		orrs	r4, r2
 106              	.LVL6:
 107              		.loc 1 126 0
 108 004c 002B     		cmp	r3, #0
 109 004e 01D0     		beq	.L9
 127:Generated_Source\PSoC4/CAN_TX_RX_func.c ****                         {
 128:Generated_Source\PSoC4/CAN_TX_RX_func.c ****                             regTemp |= CAN_TX_INT_ENABLE_MASK;    /* Transmit Interrupt Enable */
 110              		.loc 1 128 0
 111 0050 0423     		movs	r3, #4
 112 0052 1C43     		orrs	r4, r3
 113              	.LVL7:
 114              	.L9:
 115 0054 2900     		movs	r1, r5
 129:Generated_Source\PSoC4/CAN_TX_RX_func.c ****                         }
 130:Generated_Source\PSoC4/CAN_TX_RX_func.c **** 
 131:Generated_Source\PSoC4/CAN_TX_RX_func.c ****                         for (j = 0u; (j < message->dlc) && (j < CAN_TX_DLC_MAX_VALUE); j++)
 116              		.loc 1 131 0
 117 0056 0022     		movs	r2, #0
 118 0058 0C31     		adds	r1, r1, #12
 119 005a 0191     		str	r1, [sp, #4]
 120              	.LVL8:
 121              	.L10:
 122              		.loc 1 131 0 is_stmt 0 discriminator 1
 123 005c B379     		ldrb	r3, [r6, #6]
 124 005e D0B2     		uxtb	r0, r2
 125              	.LVL9:
 126 0060 8342     		cmp	r3, r0
 127 0062 21D9     		bls	.L13
 128              		.loc 1 131 0 discriminator 3
 129 0064 082A     		cmp	r2, #8
 130 0066 1FD0     		beq	.L13
 131 0068 D300     		lsls	r3, r2, #3
 132:Generated_Source\PSoC4/CAN_TX_RX_func.c ****                         {
 133:Generated_Source\PSoC4/CAN_TX_RX_func.c ****                             #if (CY_PSOC3 || CY_PSOC5)
 134:Generated_Source\PSoC4/CAN_TX_RX_func.c ****                                 CAN_TX_DATA_BYTE(i, j) = message->msg->byte[j];
 135:Generated_Source\PSoC4/CAN_TX_RX_func.c ****                             #else /* CY_PSOC4 */
 136:Generated_Source\PSoC4/CAN_TX_RX_func.c ****                                 CAN_TX_DATA_BYTE(i, j, message->msg->byte[j]);
 132              		.loc 1 136 0 is_stmt 1
 133 006a 0328     		cmp	r0, #3
 134 006c 0ED9     		bls	.L11
 135              		.loc 1 136 0 is_stmt 0 discriminator 1
 136 006e 0199     		ldr	r1, [sp, #4]
 137 0070 5B42     		rsbs	r3, r3, #0
 138 0072 0868     		ldr	r0, [r1]
 139              	.LVL10:
 140 0074 FF21     		movs	r1, #255
 141 0076 3833     		adds	r3, r3, #56
 142 0078 9940     		lsls	r1, r1, r3
 143 007a 8843     		bics	r0, r1
 144 007c F168     		ldr	r1, [r6, #12]
 145 007e 895C     		ldrb	r1, [r1, r2]
 146 0080 9940     		lsls	r1, r1, r3
 147 0082 0B00     		movs	r3, r1
ARM GAS  C:\Users\Melody\AppData\Local\Temp\cc3mk2Hg.s 			page 6


 148 0084 0199     		ldr	r1, [sp, #4]
 149 0086 0343     		orrs	r3, r0
 150 0088 0B60     		str	r3, [r1]
 151 008a 0BE0     		b	.L12
 152              	.LVL11:
 153              	.L11:
 154              		.loc 1 136 0 discriminator 2
 155 008c FF21     		movs	r1, #255
 156 008e 5B42     		rsbs	r3, r3, #0
 157 0090 1833     		adds	r3, r3, #24
 158 0092 9940     		lsls	r1, r1, r3
 159 0094 A868     		ldr	r0, [r5, #8]
 160              	.LVL12:
 161 0096 8843     		bics	r0, r1
 162 0098 F168     		ldr	r1, [r6, #12]
 163 009a 895C     		ldrb	r1, [r1, r2]
 164 009c 9940     		lsls	r1, r1, r3
 165 009e 0B00     		movs	r3, r1
 166 00a0 0343     		orrs	r3, r0
 167 00a2 AB60     		str	r3, [r5, #8]
 168              	.L12:
 169              	.LVL13:
 170 00a4 0132     		adds	r2, r2, #1
 171              	.LVL14:
 172 00a6 D9E7     		b	.L10
 173              	.LVL15:
 174              	.L13:
 137:Generated_Source\PSoC4/CAN_TX_RX_func.c ****                             #endif /* CY_PSOC3 || CY_PSOC5 */
 138:Generated_Source\PSoC4/CAN_TX_RX_func.c ****                         }
 139:Generated_Source\PSoC4/CAN_TX_RX_func.c **** 
 140:Generated_Source\PSoC4/CAN_TX_RX_func.c ****                         /* Disable isr */
 141:Generated_Source\PSoC4/CAN_TX_RX_func.c ****     CyIntDisable(CAN_ISR_NUMBER);
 175              		.loc 1 141 0 is_stmt 1
 176 00a8 1C20     		movs	r0, #28
 177              	.LVL16:
 178 00aa FFF7FEFF 		bl	CyIntDisable
 179              	.LVL17:
 142:Generated_Source\PSoC4/CAN_TX_RX_func.c **** 
 143:Generated_Source\PSoC4/CAN_TX_RX_func.c ****                         /* WPN[23] and WPN[3] set to 1 for write to CAN Control reg */
 144:Generated_Source\PSoC4/CAN_TX_RX_func.c ****                         CY_SET_REG32(CAN_TX_CMD_PTR(i), (regTemp | CAN_TX_WPN_SET));
 180              		.loc 1 144 0
 181 00ae 124B     		ldr	r3, .L37+8
 182 00b0 1C43     		orrs	r4, r3
 183              	.LVL18:
 184 00b2 2C60     		str	r4, [r5]
 145:Generated_Source\PSoC4/CAN_TX_RX_func.c **** 
 146:Generated_Source\PSoC4/CAN_TX_RX_func.c ****                         #if (CY_PSOC3 || CY_PSOC5)
 147:Generated_Source\PSoC4/CAN_TX_RX_func.c ****                             CY_SET_REG32(CAN_TX_CMD_PTR(i), CAN_SEND_MESSAGE);
 148:Generated_Source\PSoC4/CAN_TX_RX_func.c ****                         #else /* CY_PSOC4 */
 149:Generated_Source\PSoC4/CAN_TX_RX_func.c ****                             if (message->sst != CAN_STANDARD_MESSAGE)
 185              		.loc 1 149 0
 186 00b4 337A     		ldrb	r3, [r6, #8]
 187 00b6 002B     		cmp	r3, #0
 188 00b8 02D0     		beq	.L15
 150:Generated_Source\PSoC4/CAN_TX_RX_func.c ****                             {
 151:Generated_Source\PSoC4/CAN_TX_RX_func.c ****                                 /* Single Shot Transmission */
 152:Generated_Source\PSoC4/CAN_TX_RX_func.c ****                                 CAN_TX_CMD_REG(i) |= CAN_SEND_MESSAGE |
ARM GAS  C:\Users\Melody\AppData\Local\Temp\cc3mk2Hg.s 			page 7


 189              		.loc 1 152 0
 190 00ba 2B68     		ldr	r3, [r5]
 191 00bc 0322     		movs	r2, #3
 192 00be 01E0     		b	.L35
 193              	.L15:
 153:Generated_Source\PSoC4/CAN_TX_RX_func.c ****                                 CAN_TX_ABORT_MASK;
 154:Generated_Source\PSoC4/CAN_TX_RX_func.c ****                             }
 155:Generated_Source\PSoC4/CAN_TX_RX_func.c ****                             else
 156:Generated_Source\PSoC4/CAN_TX_RX_func.c ****                             {
 157:Generated_Source\PSoC4/CAN_TX_RX_func.c ****                                 CAN_TX_CMD_REG(i) |= CAN_SEND_MESSAGE;
 194              		.loc 1 157 0
 195 00c0 0122     		movs	r2, #1
 196 00c2 2B68     		ldr	r3, [r5]
 197              	.L35:
 198 00c4 1343     		orrs	r3, r2
 158:Generated_Source\PSoC4/CAN_TX_RX_func.c ****                             }
 159:Generated_Source\PSoC4/CAN_TX_RX_func.c ****                         #endif /* CY_PSOC3 || CY_PSOC5 */
 160:Generated_Source\PSoC4/CAN_TX_RX_func.c **** 
 161:Generated_Source\PSoC4/CAN_TX_RX_func.c ****                         /* Enable isr */
 162:Generated_Source\PSoC4/CAN_TX_RX_func.c ****     CyIntEnable(CAN_ISR_NUMBER);
 199              		.loc 1 162 0
 200 00c6 1C20     		movs	r0, #28
 157:Generated_Source\PSoC4/CAN_TX_RX_func.c ****                             }
 201              		.loc 1 157 0
 202 00c8 2B60     		str	r3, [r5]
 203              		.loc 1 162 0
 204 00ca FFF7FEFF 		bl	CyIntEnable
 205              	.LVL19:
 163:Generated_Source\PSoC4/CAN_TX_RX_func.c **** 
 164:Generated_Source\PSoC4/CAN_TX_RX_func.c ****                         result = CYRET_SUCCESS;
 206              		.loc 1 164 0
 207 00ce 0020     		movs	r0, #0
 208              	.LVL20:
 209              	.L3:
 165:Generated_Source\PSoC4/CAN_TX_RX_func.c ****                     }
 166:Generated_Source\PSoC4/CAN_TX_RX_func.c ****             }
 167:Generated_Source\PSoC4/CAN_TX_RX_func.c ****             shift <<= 1u;
 210              		.loc 1 167 0
 211 00d0 7F00     		lsls	r7, r7, #1
 212              	.LVL21:
 213 00d2 FFB2     		uxtb	r7, r7
 214              	.LVL22:
 168:Generated_Source\PSoC4/CAN_TX_RX_func.c ****             if (result == CYRET_SUCCESS)
 215              		.loc 1 168 0
 216 00d4 0028     		cmp	r0, #0
 217 00d6 0AD0     		beq	.L25
 218              	.LVL23:
  86:Generated_Source\PSoC4/CAN_TX_RX_func.c ****         {
 219              		.loc 1 86 0 discriminator 2
 220 00d8 084B     		ldr	r3, .L37+12
 221 00da 1035     		adds	r5, r5, #16
 222 00dc 9D42     		cmp	r5, r3
 223 00de 95D1     		bne	.L18
 224              	.LVL24:
 225 00e0 009B     		ldr	r3, [sp]
 226 00e2 013B     		subs	r3, r3, #1
 227 00e4 DBB2     		uxtb	r3, r3
ARM GAS  C:\Users\Melody\AppData\Local\Temp\cc3mk2Hg.s 			page 8


 228 00e6 0093     		str	r3, [sp]
 229              	.LVL25:
  83:Generated_Source\PSoC4/CAN_TX_RX_func.c ****     {
 230              		.loc 1 83 0
 231 00e8 002B     		cmp	r3, #0
 232 00ea 8DD1     		bne	.L2
 233 00ec 0120     		movs	r0, #1
 234              	.LVL26:
 235              	.L25:
 169:Generated_Source\PSoC4/CAN_TX_RX_func.c ****             {
 170:Generated_Source\PSoC4/CAN_TX_RX_func.c ****                 break;
 171:Generated_Source\PSoC4/CAN_TX_RX_func.c ****             }
 172:Generated_Source\PSoC4/CAN_TX_RX_func.c ****         }
 173:Generated_Source\PSoC4/CAN_TX_RX_func.c ****         if (result == CYRET_SUCCESS)
 174:Generated_Source\PSoC4/CAN_TX_RX_func.c ****         {
 175:Generated_Source\PSoC4/CAN_TX_RX_func.c ****             break;
 176:Generated_Source\PSoC4/CAN_TX_RX_func.c ****         }
 177:Generated_Source\PSoC4/CAN_TX_RX_func.c ****         else
 178:Generated_Source\PSoC4/CAN_TX_RX_func.c ****         {
 179:Generated_Source\PSoC4/CAN_TX_RX_func.c ****             retry++;
 180:Generated_Source\PSoC4/CAN_TX_RX_func.c ****         }
 181:Generated_Source\PSoC4/CAN_TX_RX_func.c ****     }
 182:Generated_Source\PSoC4/CAN_TX_RX_func.c **** 
 183:Generated_Source\PSoC4/CAN_TX_RX_func.c ****     return (result);
 184:Generated_Source\PSoC4/CAN_TX_RX_func.c **** }
 236              		.loc 1 184 0
 237              		@ sp needed
 238              	.LVL27:
 239              	.LVL28:
 240 00ee FEBD     		pop	{r1, r2, r3, r4, r5, r6, r7, pc}
 241              	.L38:
 242              		.align	2
 243              	.L37:
 244 00f0 20002F40 		.word	1076822048
 245 00f4 08002F40 		.word	1076822024
 246 00f8 08008000 		.word	8388616
 247 00fc A0002F40 		.word	1076822176
 248              		.cfi_endproc
 249              	.LFE34:
 250              		.size	CAN_SendMsg, .-CAN_SendMsg
 251              		.section	.text.CAN_TxCancel,"ax",%progbits
 252              		.align	1
 253              		.global	CAN_TxCancel
 254              		.code	16
 255              		.thumb_func
 256              		.type	CAN_TxCancel, %function
 257              	CAN_TxCancel:
 258              	.LFB35:
 185:Generated_Source\PSoC4/CAN_TX_RX_func.c **** 
 186:Generated_Source\PSoC4/CAN_TX_RX_func.c **** 
 187:Generated_Source\PSoC4/CAN_TX_RX_func.c **** /*******************************************************************************
 188:Generated_Source\PSoC4/CAN_TX_RX_func.c **** * FUNCTION NAME:   CAN_TxCancel
 189:Generated_Source\PSoC4/CAN_TX_RX_func.c **** ********************************************************************************
 190:Generated_Source\PSoC4/CAN_TX_RX_func.c **** *
 191:Generated_Source\PSoC4/CAN_TX_RX_func.c **** * Summary:
 192:Generated_Source\PSoC4/CAN_TX_RX_func.c **** *  This function cancels transmission of a message that has been queued to be
 193:Generated_Source\PSoC4/CAN_TX_RX_func.c **** *  transmitted. Values between 0 and 7 are valid.
ARM GAS  C:\Users\Melody\AppData\Local\Temp\cc3mk2Hg.s 			page 9


 194:Generated_Source\PSoC4/CAN_TX_RX_func.c **** *
 195:Generated_Source\PSoC4/CAN_TX_RX_func.c **** * Parameters:
 196:Generated_Source\PSoC4/CAN_TX_RX_func.c **** *  bufferId: The mailbox number.
 197:Generated_Source\PSoC4/CAN_TX_RX_func.c **** *
 198:Generated_Source\PSoC4/CAN_TX_RX_func.c **** * Return:
 199:Generated_Source\PSoC4/CAN_TX_RX_func.c **** *  None.
 200:Generated_Source\PSoC4/CAN_TX_RX_func.c **** *
 201:Generated_Source\PSoC4/CAN_TX_RX_func.c **** *******************************************************************************/
 202:Generated_Source\PSoC4/CAN_TX_RX_func.c **** void CAN_TxCancel(uint8 bufferId) 
 203:Generated_Source\PSoC4/CAN_TX_RX_func.c **** {
 259              		.loc 1 203 0
 260              		.cfi_startproc
 261              		@ args = 0, pretend = 0, frame = 0
 262              		@ frame_needed = 0, uses_anonymous_args = 0
 263              		@ link register save eliminated.
 264              	.LVL29:
 204:Generated_Source\PSoC4/CAN_TX_RX_func.c ****     if (bufferId < CAN_NUMBER_OF_TX_MAILBOXES)
 265              		.loc 1 204 0
 266 0000 0728     		cmp	r0, #7
 267 0002 08D8     		bhi	.L39
 205:Generated_Source\PSoC4/CAN_TX_RX_func.c ****     {
 206:Generated_Source\PSoC4/CAN_TX_RX_func.c ****         CAN_TX_ABORT_MESSAGE(bufferId);
 268              		.loc 1 206 0
 269 0004 0322     		movs	r2, #3
 270 0006 044B     		ldr	r3, .L41
 271 0008 0001     		lsls	r0, r0, #4
 272              	.LVL30:
 273 000a C018     		adds	r0, r0, r3
 274 000c 0368     		ldr	r3, [r0]
 275 000e 9343     		bics	r3, r2
 276 0010 013A     		subs	r2, r2, #1
 277 0012 1343     		orrs	r3, r2
 278 0014 0360     		str	r3, [r0]
 279              	.L39:
 207:Generated_Source\PSoC4/CAN_TX_RX_func.c ****     }
 208:Generated_Source\PSoC4/CAN_TX_RX_func.c **** }
 280              		.loc 1 208 0
 281              		@ sp needed
 282 0016 7047     		bx	lr
 283              	.L42:
 284              		.align	2
 285              	.L41:
 286 0018 20002F40 		.word	1076822048
 287              		.cfi_endproc
 288              	.LFE35:
 289              		.size	CAN_TxCancel, .-CAN_TxCancel
 290              		.section	.text.CAN_SendMsgDRIVER_SWITCHES,"ax",%progbits
 291              		.align	1
 292              		.global	CAN_SendMsgDRIVER_SWITCHES
 293              		.code	16
 294              		.thumb_func
 295              		.type	CAN_SendMsgDRIVER_SWITCHES, %function
 296              	CAN_SendMsgDRIVER_SWITCHES:
 297              	.LFB36:
 209:Generated_Source\PSoC4/CAN_TX_RX_func.c **** 
 210:Generated_Source\PSoC4/CAN_TX_RX_func.c **** 
 211:Generated_Source\PSoC4/CAN_TX_RX_func.c **** #if (CAN_TX0_FUNC_ENABLE)
ARM GAS  C:\Users\Melody\AppData\Local\Temp\cc3mk2Hg.s 			page 10


 212:Generated_Source\PSoC4/CAN_TX_RX_func.c ****     /*******************************************************************************
 213:Generated_Source\PSoC4/CAN_TX_RX_func.c ****     * FUNCTION NAME:   CAN_SendMsgDRIVER_SWITCHES
 214:Generated_Source\PSoC4/CAN_TX_RX_func.c ****     ********************************************************************************
 215:Generated_Source\PSoC4/CAN_TX_RX_func.c ****     *
 216:Generated_Source\PSoC4/CAN_TX_RX_func.c ****     * Summary:
 217:Generated_Source\PSoC4/CAN_TX_RX_func.c ****     *  This function is the entry point to Transmit Message 0. The function checks
 218:Generated_Source\PSoC4/CAN_TX_RX_func.c ****     *  if mailbox 0 doesn't already have un-transmitted messages waiting for
 219:Generated_Source\PSoC4/CAN_TX_RX_func.c ****     *  arbitration. If not initiate transmission of the message.
 220:Generated_Source\PSoC4/CAN_TX_RX_func.c ****     *  Generated only for the Transmit mailbox designed as Full.
 221:Generated_Source\PSoC4/CAN_TX_RX_func.c ****     *
 222:Generated_Source\PSoC4/CAN_TX_RX_func.c ****     * Parameters:
 223:Generated_Source\PSoC4/CAN_TX_RX_func.c ****     *  None.
 224:Generated_Source\PSoC4/CAN_TX_RX_func.c ****     *
 225:Generated_Source\PSoC4/CAN_TX_RX_func.c ****     * Return:
 226:Generated_Source\PSoC4/CAN_TX_RX_func.c ****     *  Indication if Message has been sent.
 227:Generated_Source\PSoC4/CAN_TX_RX_func.c ****     *   Define                             Description
 228:Generated_Source\PSoC4/CAN_TX_RX_func.c ****     *    CYRET_SUCCESS                      The function passed successfully
 229:Generated_Source\PSoC4/CAN_TX_RX_func.c ****     *    CAN_FAIL              The function failed
 230:Generated_Source\PSoC4/CAN_TX_RX_func.c ****     *
 231:Generated_Source\PSoC4/CAN_TX_RX_func.c ****     *******************************************************************************/
 232:Generated_Source\PSoC4/CAN_TX_RX_func.c ****     uint8 CAN_SendMsgDRIVER_SWITCHES(void) 
 233:Generated_Source\PSoC4/CAN_TX_RX_func.c ****     {
 298              		.loc 1 233 0
 299              		.cfi_startproc
 300              		@ args = 0, pretend = 0, frame = 0
 301              		@ frame_needed = 0, uses_anonymous_args = 0
 302              		@ link register save eliminated.
 303              	.LVL31:
 234:Generated_Source\PSoC4/CAN_TX_RX_func.c ****         uint8 result = CYRET_SUCCESS;
 235:Generated_Source\PSoC4/CAN_TX_RX_func.c **** 
 236:Generated_Source\PSoC4/CAN_TX_RX_func.c ****         #if (CY_PSOC3 || CY_PSOC5)
 237:Generated_Source\PSoC4/CAN_TX_RX_func.c ****             if ((CAN_TX[0u].txcmd.byte[0u] & CAN_TX_REQUEST_PENDING) != 0u)
 238:Generated_Source\PSoC4/CAN_TX_RX_func.c ****         #else  /* CY_PSOC4 */
 239:Generated_Source\PSoC4/CAN_TX_RX_func.c ****             if ((CAN_TX_CMD_REG(0u) & CAN_TX_REQUEST_PENDING) != 0u)
 304              		.loc 1 239 0
 305 0000 0120     		movs	r0, #1
 306 0002 044A     		ldr	r2, .L46
 307 0004 1368     		ldr	r3, [r2]
 308 0006 0340     		ands	r3, r0
 309 0008 03D1     		bne	.L44
 240:Generated_Source\PSoC4/CAN_TX_RX_func.c ****         #endif /* CY_PSOC3 || CY_PSOC5 */
 241:Generated_Source\PSoC4/CAN_TX_RX_func.c ****             {
 242:Generated_Source\PSoC4/CAN_TX_RX_func.c ****                 result = CAN_FAIL;
 243:Generated_Source\PSoC4/CAN_TX_RX_func.c ****             }
 244:Generated_Source\PSoC4/CAN_TX_RX_func.c ****             else
 245:Generated_Source\PSoC4/CAN_TX_RX_func.c ****             {
 246:Generated_Source\PSoC4/CAN_TX_RX_func.c ****                 /* `#START MESSAGE_DRIVER_SWITCHES_TRASMITTED` */
 247:Generated_Source\PSoC4/CAN_TX_RX_func.c **** 
 248:Generated_Source\PSoC4/CAN_TX_RX_func.c ****                 /* `#END` */
 249:Generated_Source\PSoC4/CAN_TX_RX_func.c **** 
 250:Generated_Source\PSoC4/CAN_TX_RX_func.c ****                 #ifdef CAN_SEND_MSG_DRIVER_SWITCHES_CALLBACK
 251:Generated_Source\PSoC4/CAN_TX_RX_func.c ****                     CAN_SendMsg_DRIVER_SWITCHES_Callback();
 252:Generated_Source\PSoC4/CAN_TX_RX_func.c ****                 #endif /* CAN_SEND_MSG_DRIVER_SWITCHES_CALLBACK */
 253:Generated_Source\PSoC4/CAN_TX_RX_func.c **** 
 254:Generated_Source\PSoC4/CAN_TX_RX_func.c ****                 CY_SET_REG32(CAN_TX_CMD_PTR(0u),
 310              		.loc 1 254 0
 311 000a 1168     		ldr	r1, [r2]
ARM GAS  C:\Users\Melody\AppData\Local\Temp\cc3mk2Hg.s 			page 11


 312 000c 0843     		orrs	r0, r1
 313 000e 1060     		str	r0, [r2]
 234:Generated_Source\PSoC4/CAN_TX_RX_func.c ****         uint8 result = CYRET_SUCCESS;
 314              		.loc 1 234 0
 315 0010 1800     		movs	r0, r3
 316              	.L44:
 317              	.LVL32:
 255:Generated_Source\PSoC4/CAN_TX_RX_func.c ****                 CY_GET_REG32(CAN_TX_CMD_PTR(0u)) | CAN_SEND_MESSAGE);
 256:Generated_Source\PSoC4/CAN_TX_RX_func.c ****             }
 257:Generated_Source\PSoC4/CAN_TX_RX_func.c **** 
 258:Generated_Source\PSoC4/CAN_TX_RX_func.c ****         return (result);
 259:Generated_Source\PSoC4/CAN_TX_RX_func.c ****     }
 318              		.loc 1 259 0
 319              		@ sp needed
 320 0012 7047     		bx	lr
 321              	.L47:
 322              		.align	2
 323              	.L46:
 324 0014 20002F40 		.word	1076822048
 325              		.cfi_endproc
 326              	.LFE36:
 327              		.size	CAN_SendMsgDRIVER_SWITCHES, .-CAN_SendMsgDRIVER_SWITCHES
 328              		.section	.text.CAN_ReceiveMsg,"ax",%progbits
 329              		.align	1
 330              		.global	CAN_ReceiveMsg
 331              		.code	16
 332              		.thumb_func
 333              		.type	CAN_ReceiveMsg, %function
 334              	CAN_ReceiveMsg:
 335              	.LFB37:
 260:Generated_Source\PSoC4/CAN_TX_RX_func.c **** #endif /* CAN_TX0_FUNC_ENABLE */
 261:Generated_Source\PSoC4/CAN_TX_RX_func.c **** 
 262:Generated_Source\PSoC4/CAN_TX_RX_func.c **** 
 263:Generated_Source\PSoC4/CAN_TX_RX_func.c **** #if (CAN_TX1_FUNC_ENABLE)
 264:Generated_Source\PSoC4/CAN_TX_RX_func.c ****     /*******************************************************************************
 265:Generated_Source\PSoC4/CAN_TX_RX_func.c ****     * FUNCTION NAME:   CAN_SendMsg1
 266:Generated_Source\PSoC4/CAN_TX_RX_func.c ****     ********************************************************************************
 267:Generated_Source\PSoC4/CAN_TX_RX_func.c ****     *
 268:Generated_Source\PSoC4/CAN_TX_RX_func.c ****     * Summary:
 269:Generated_Source\PSoC4/CAN_TX_RX_func.c ****     *  This function is the entry point to Transmit Message 1. The function checks
 270:Generated_Source\PSoC4/CAN_TX_RX_func.c ****     *  if mailbox 1 doesn't already have un-transmitted messages waiting for
 271:Generated_Source\PSoC4/CAN_TX_RX_func.c ****     *  arbitration. If not initiate transmission of the message.
 272:Generated_Source\PSoC4/CAN_TX_RX_func.c ****     *  Generated only for the Transmit mailbox designed as Full.
 273:Generated_Source\PSoC4/CAN_TX_RX_func.c ****     *
 274:Generated_Source\PSoC4/CAN_TX_RX_func.c ****     * Parameters:
 275:Generated_Source\PSoC4/CAN_TX_RX_func.c ****     *  None.
 276:Generated_Source\PSoC4/CAN_TX_RX_func.c ****     *
 277:Generated_Source\PSoC4/CAN_TX_RX_func.c ****     * Return:
 278:Generated_Source\PSoC4/CAN_TX_RX_func.c ****     *  Indication if Message has been sent.
 279:Generated_Source\PSoC4/CAN_TX_RX_func.c ****     *   Define                             Description
 280:Generated_Source\PSoC4/CAN_TX_RX_func.c ****     *    CYRET_SUCCESS                      The function passed successfully
 281:Generated_Source\PSoC4/CAN_TX_RX_func.c ****     *    CAN_FAIL              The function failed
 282:Generated_Source\PSoC4/CAN_TX_RX_func.c ****     *
 283:Generated_Source\PSoC4/CAN_TX_RX_func.c ****     *******************************************************************************/
 284:Generated_Source\PSoC4/CAN_TX_RX_func.c ****     uint8 CAN_SendMsg1(void) 
 285:Generated_Source\PSoC4/CAN_TX_RX_func.c ****     {
 286:Generated_Source\PSoC4/CAN_TX_RX_func.c ****         uint8 result = CYRET_SUCCESS;
ARM GAS  C:\Users\Melody\AppData\Local\Temp\cc3mk2Hg.s 			page 12


 287:Generated_Source\PSoC4/CAN_TX_RX_func.c **** 
 288:Generated_Source\PSoC4/CAN_TX_RX_func.c ****         #if (CY_PSOC3 || CY_PSOC5)
 289:Generated_Source\PSoC4/CAN_TX_RX_func.c ****             if ((CAN_TX[1u].txcmd.byte[0u] & CAN_TX_REQUEST_PENDING) != 0u)
 290:Generated_Source\PSoC4/CAN_TX_RX_func.c ****         #else  /* CY_PSOC4 */
 291:Generated_Source\PSoC4/CAN_TX_RX_func.c ****             if ((CAN_TX_CMD_REG(1u) & CAN_TX_REQUEST_PENDING) != 0u)
 292:Generated_Source\PSoC4/CAN_TX_RX_func.c ****         #endif /* CY_PSOC3 || CY_PSOC5 */
 293:Generated_Source\PSoC4/CAN_TX_RX_func.c ****             {
 294:Generated_Source\PSoC4/CAN_TX_RX_func.c ****                 result = CAN_FAIL;
 295:Generated_Source\PSoC4/CAN_TX_RX_func.c ****             }
 296:Generated_Source\PSoC4/CAN_TX_RX_func.c ****             else
 297:Generated_Source\PSoC4/CAN_TX_RX_func.c ****             {
 298:Generated_Source\PSoC4/CAN_TX_RX_func.c ****                 /* `#START MESSAGE_1_TRASMITTED` */
 299:Generated_Source\PSoC4/CAN_TX_RX_func.c **** 
 300:Generated_Source\PSoC4/CAN_TX_RX_func.c ****                 /* `#END` */
 301:Generated_Source\PSoC4/CAN_TX_RX_func.c **** 
 302:Generated_Source\PSoC4/CAN_TX_RX_func.c ****                 #ifdef CAN_SEND_MSG_1_CALLBACK
 303:Generated_Source\PSoC4/CAN_TX_RX_func.c ****                     CAN_SendMsg_1_Callback();
 304:Generated_Source\PSoC4/CAN_TX_RX_func.c ****                 #endif /* CAN_SEND_MSG_1_CALLBACK */
 305:Generated_Source\PSoC4/CAN_TX_RX_func.c **** 
 306:Generated_Source\PSoC4/CAN_TX_RX_func.c ****                 CY_SET_REG32(CAN_TX_CMD_PTR(1u),
 307:Generated_Source\PSoC4/CAN_TX_RX_func.c ****                 CY_GET_REG32(CAN_TX_CMD_PTR(1u)) | CAN_SEND_MESSAGE);
 308:Generated_Source\PSoC4/CAN_TX_RX_func.c ****             }
 309:Generated_Source\PSoC4/CAN_TX_RX_func.c **** 
 310:Generated_Source\PSoC4/CAN_TX_RX_func.c ****         return (result);
 311:Generated_Source\PSoC4/CAN_TX_RX_func.c ****     }
 312:Generated_Source\PSoC4/CAN_TX_RX_func.c **** #endif /* CAN_TX1_FUNC_ENABLE */
 313:Generated_Source\PSoC4/CAN_TX_RX_func.c **** 
 314:Generated_Source\PSoC4/CAN_TX_RX_func.c **** 
 315:Generated_Source\PSoC4/CAN_TX_RX_func.c **** #if (CAN_TX2_FUNC_ENABLE)
 316:Generated_Source\PSoC4/CAN_TX_RX_func.c ****     /*******************************************************************************
 317:Generated_Source\PSoC4/CAN_TX_RX_func.c ****     * FUNCTION NAME:   CAN_SendMsg2
 318:Generated_Source\PSoC4/CAN_TX_RX_func.c ****     ********************************************************************************
 319:Generated_Source\PSoC4/CAN_TX_RX_func.c ****     *
 320:Generated_Source\PSoC4/CAN_TX_RX_func.c ****     * Summary:
 321:Generated_Source\PSoC4/CAN_TX_RX_func.c ****     *  This function is the entry point to Transmit Message 2. The function checks
 322:Generated_Source\PSoC4/CAN_TX_RX_func.c ****     *  if mailbox 2 doesn't already have un-transmitted messages waiting for
 323:Generated_Source\PSoC4/CAN_TX_RX_func.c ****     *  arbitration. If not initiate transmission of the message.
 324:Generated_Source\PSoC4/CAN_TX_RX_func.c ****     *  Generated only for the Transmit mailbox designed as Full.
 325:Generated_Source\PSoC4/CAN_TX_RX_func.c ****     *
 326:Generated_Source\PSoC4/CAN_TX_RX_func.c ****     * Parameters:
 327:Generated_Source\PSoC4/CAN_TX_RX_func.c ****     *  None.
 328:Generated_Source\PSoC4/CAN_TX_RX_func.c ****     *
 329:Generated_Source\PSoC4/CAN_TX_RX_func.c ****     * Return:
 330:Generated_Source\PSoC4/CAN_TX_RX_func.c ****     *  Indication if Message has been sent.
 331:Generated_Source\PSoC4/CAN_TX_RX_func.c ****     *   Define                             Description
 332:Generated_Source\PSoC4/CAN_TX_RX_func.c ****     *    CYRET_SUCCESS                      The function passed successfully
 333:Generated_Source\PSoC4/CAN_TX_RX_func.c ****     *    CAN_FAIL              The function failed
 334:Generated_Source\PSoC4/CAN_TX_RX_func.c ****     *
 335:Generated_Source\PSoC4/CAN_TX_RX_func.c ****     *******************************************************************************/
 336:Generated_Source\PSoC4/CAN_TX_RX_func.c ****     uint8 CAN_SendMsg2(void) 
 337:Generated_Source\PSoC4/CAN_TX_RX_func.c ****     {
 338:Generated_Source\PSoC4/CAN_TX_RX_func.c ****         uint8 result = CYRET_SUCCESS;
 339:Generated_Source\PSoC4/CAN_TX_RX_func.c **** 
 340:Generated_Source\PSoC4/CAN_TX_RX_func.c ****         #if (CY_PSOC3 || CY_PSOC5)
 341:Generated_Source\PSoC4/CAN_TX_RX_func.c ****             if ((CAN_TX[2u].txcmd.byte[0u] & CAN_TX_REQUEST_PENDING) != 0u)
 342:Generated_Source\PSoC4/CAN_TX_RX_func.c ****         #else  /* CY_PSOC4 */
 343:Generated_Source\PSoC4/CAN_TX_RX_func.c ****             if ((CAN_TX_CMD_REG(2u) & CAN_TX_REQUEST_PENDING) != 0u)
ARM GAS  C:\Users\Melody\AppData\Local\Temp\cc3mk2Hg.s 			page 13


 344:Generated_Source\PSoC4/CAN_TX_RX_func.c ****         #endif /* CY_PSOC3 || CY_PSOC5 */
 345:Generated_Source\PSoC4/CAN_TX_RX_func.c ****             {
 346:Generated_Source\PSoC4/CAN_TX_RX_func.c ****                 result = CAN_FAIL;
 347:Generated_Source\PSoC4/CAN_TX_RX_func.c ****             }
 348:Generated_Source\PSoC4/CAN_TX_RX_func.c ****             else
 349:Generated_Source\PSoC4/CAN_TX_RX_func.c ****             {
 350:Generated_Source\PSoC4/CAN_TX_RX_func.c ****                 /* `#START MESSAGE_2_TRASMITTED` */
 351:Generated_Source\PSoC4/CAN_TX_RX_func.c **** 
 352:Generated_Source\PSoC4/CAN_TX_RX_func.c ****                 /* `#END` */
 353:Generated_Source\PSoC4/CAN_TX_RX_func.c **** 
 354:Generated_Source\PSoC4/CAN_TX_RX_func.c ****                 #ifdef CAN_SEND_MSG_2_CALLBACK
 355:Generated_Source\PSoC4/CAN_TX_RX_func.c ****                     CAN_SendMsg_2_Callback();
 356:Generated_Source\PSoC4/CAN_TX_RX_func.c ****                 #endif /* CAN_SEND_MSG_2_CALLBACK */
 357:Generated_Source\PSoC4/CAN_TX_RX_func.c **** 
 358:Generated_Source\PSoC4/CAN_TX_RX_func.c ****                 CY_SET_REG32(CAN_TX_CMD_PTR(2u),
 359:Generated_Source\PSoC4/CAN_TX_RX_func.c ****                 CY_GET_REG32(CAN_TX_CMD_PTR(2u)) | CAN_SEND_MESSAGE);
 360:Generated_Source\PSoC4/CAN_TX_RX_func.c ****             }
 361:Generated_Source\PSoC4/CAN_TX_RX_func.c **** 
 362:Generated_Source\PSoC4/CAN_TX_RX_func.c ****         return (result);
 363:Generated_Source\PSoC4/CAN_TX_RX_func.c ****     }
 364:Generated_Source\PSoC4/CAN_TX_RX_func.c **** #endif /* CAN_TX2_FUNC_ENABLE */
 365:Generated_Source\PSoC4/CAN_TX_RX_func.c **** 
 366:Generated_Source\PSoC4/CAN_TX_RX_func.c **** 
 367:Generated_Source\PSoC4/CAN_TX_RX_func.c **** #if (CAN_TX3_FUNC_ENABLE)
 368:Generated_Source\PSoC4/CAN_TX_RX_func.c ****     /*******************************************************************************
 369:Generated_Source\PSoC4/CAN_TX_RX_func.c ****     * FUNCTION NAME:   CAN_SendMsg3
 370:Generated_Source\PSoC4/CAN_TX_RX_func.c ****     ********************************************************************************
 371:Generated_Source\PSoC4/CAN_TX_RX_func.c ****     *
 372:Generated_Source\PSoC4/CAN_TX_RX_func.c ****     * Summary:
 373:Generated_Source\PSoC4/CAN_TX_RX_func.c ****     *  This function is the entry point to Transmit Message 3. The function checks
 374:Generated_Source\PSoC4/CAN_TX_RX_func.c ****     *  if mailbox 3 doesn't already have un-transmitted messages waiting for
 375:Generated_Source\PSoC4/CAN_TX_RX_func.c ****     *  arbitration. If not initiate transmission of the message.
 376:Generated_Source\PSoC4/CAN_TX_RX_func.c ****     *  Generated only for the Transmit mailbox designed as Full.
 377:Generated_Source\PSoC4/CAN_TX_RX_func.c ****     *
 378:Generated_Source\PSoC4/CAN_TX_RX_func.c ****     * Parameters:
 379:Generated_Source\PSoC4/CAN_TX_RX_func.c ****     *  None.
 380:Generated_Source\PSoC4/CAN_TX_RX_func.c ****     *
 381:Generated_Source\PSoC4/CAN_TX_RX_func.c ****     * Return:
 382:Generated_Source\PSoC4/CAN_TX_RX_func.c ****     *  Indication if Message has been sent.
 383:Generated_Source\PSoC4/CAN_TX_RX_func.c ****     *   Define                             Description
 384:Generated_Source\PSoC4/CAN_TX_RX_func.c ****     *    CYRET_SUCCESS                      The function passed successfully
 385:Generated_Source\PSoC4/CAN_TX_RX_func.c ****     *    CAN_FAIL              The function failed
 386:Generated_Source\PSoC4/CAN_TX_RX_func.c ****     *
 387:Generated_Source\PSoC4/CAN_TX_RX_func.c ****     *******************************************************************************/
 388:Generated_Source\PSoC4/CAN_TX_RX_func.c ****     uint8 CAN_SendMsg3(void) 
 389:Generated_Source\PSoC4/CAN_TX_RX_func.c ****     {
 390:Generated_Source\PSoC4/CAN_TX_RX_func.c ****         uint8 result = CYRET_SUCCESS;
 391:Generated_Source\PSoC4/CAN_TX_RX_func.c **** 
 392:Generated_Source\PSoC4/CAN_TX_RX_func.c ****         #if (CY_PSOC3 || CY_PSOC5)
 393:Generated_Source\PSoC4/CAN_TX_RX_func.c ****             if ((CAN_TX[3u].txcmd.byte[0u] & CAN_TX_REQUEST_PENDING) != 0u)
 394:Generated_Source\PSoC4/CAN_TX_RX_func.c ****         #else  /* CY_PSOC4 */
 395:Generated_Source\PSoC4/CAN_TX_RX_func.c ****             if ((CAN_TX_CMD_REG(3u) & CAN_TX_REQUEST_PENDING) != 0u)
 396:Generated_Source\PSoC4/CAN_TX_RX_func.c ****         #endif /* CY_PSOC3 || CY_PSOC5 */
 397:Generated_Source\PSoC4/CAN_TX_RX_func.c ****             {
 398:Generated_Source\PSoC4/CAN_TX_RX_func.c ****                 result = CAN_FAIL;
 399:Generated_Source\PSoC4/CAN_TX_RX_func.c ****             }
 400:Generated_Source\PSoC4/CAN_TX_RX_func.c ****             else
ARM GAS  C:\Users\Melody\AppData\Local\Temp\cc3mk2Hg.s 			page 14


 401:Generated_Source\PSoC4/CAN_TX_RX_func.c ****             {
 402:Generated_Source\PSoC4/CAN_TX_RX_func.c ****                 /* `#START MESSAGE_3_TRASMITTED` */
 403:Generated_Source\PSoC4/CAN_TX_RX_func.c **** 
 404:Generated_Source\PSoC4/CAN_TX_RX_func.c ****                 /* `#END` */
 405:Generated_Source\PSoC4/CAN_TX_RX_func.c **** 
 406:Generated_Source\PSoC4/CAN_TX_RX_func.c ****                 #ifdef CAN_SEND_MSG_3_CALLBACK
 407:Generated_Source\PSoC4/CAN_TX_RX_func.c ****                     CAN_SendMsg_3_Callback();
 408:Generated_Source\PSoC4/CAN_TX_RX_func.c ****                 #endif /* CAN_SEND_MSG_3_CALLBACK */
 409:Generated_Source\PSoC4/CAN_TX_RX_func.c **** 
 410:Generated_Source\PSoC4/CAN_TX_RX_func.c ****                 CY_SET_REG32(CAN_TX_CMD_PTR(3u),
 411:Generated_Source\PSoC4/CAN_TX_RX_func.c ****                 CY_GET_REG32(CAN_TX_CMD_PTR(3u)) | CAN_SEND_MESSAGE);
 412:Generated_Source\PSoC4/CAN_TX_RX_func.c ****             }
 413:Generated_Source\PSoC4/CAN_TX_RX_func.c **** 
 414:Generated_Source\PSoC4/CAN_TX_RX_func.c ****         return (result);
 415:Generated_Source\PSoC4/CAN_TX_RX_func.c ****     }
 416:Generated_Source\PSoC4/CAN_TX_RX_func.c **** #endif /* CAN_TX3_FUNC_ENABLE */
 417:Generated_Source\PSoC4/CAN_TX_RX_func.c **** 
 418:Generated_Source\PSoC4/CAN_TX_RX_func.c **** 
 419:Generated_Source\PSoC4/CAN_TX_RX_func.c **** #if (CAN_TX4_FUNC_ENABLE)
 420:Generated_Source\PSoC4/CAN_TX_RX_func.c ****     /*******************************************************************************
 421:Generated_Source\PSoC4/CAN_TX_RX_func.c ****     * FUNCTION NAME:   CAN_SendMsg4
 422:Generated_Source\PSoC4/CAN_TX_RX_func.c ****     ********************************************************************************
 423:Generated_Source\PSoC4/CAN_TX_RX_func.c ****     *
 424:Generated_Source\PSoC4/CAN_TX_RX_func.c ****     * Summary:
 425:Generated_Source\PSoC4/CAN_TX_RX_func.c ****     *  This function is the entry point to Transmit Message 4. The function checks
 426:Generated_Source\PSoC4/CAN_TX_RX_func.c ****     *  if mailbox 4 doesn't already have un-transmitted messages waiting for
 427:Generated_Source\PSoC4/CAN_TX_RX_func.c ****     *  arbitration. If not initiate transmission of the message.
 428:Generated_Source\PSoC4/CAN_TX_RX_func.c ****     *  Generated only for the Transmit mailbox designed as Full.
 429:Generated_Source\PSoC4/CAN_TX_RX_func.c ****     *
 430:Generated_Source\PSoC4/CAN_TX_RX_func.c ****     * Parameters:
 431:Generated_Source\PSoC4/CAN_TX_RX_func.c ****     *  None.
 432:Generated_Source\PSoC4/CAN_TX_RX_func.c ****     *
 433:Generated_Source\PSoC4/CAN_TX_RX_func.c ****     * Return:
 434:Generated_Source\PSoC4/CAN_TX_RX_func.c ****     *  Indication if Message has been sent.
 435:Generated_Source\PSoC4/CAN_TX_RX_func.c ****     *   Define                             Description
 436:Generated_Source\PSoC4/CAN_TX_RX_func.c ****     *    CYRET_SUCCESS                      The function passed successfully
 437:Generated_Source\PSoC4/CAN_TX_RX_func.c ****     *    CAN_FAIL              The function failed
 438:Generated_Source\PSoC4/CAN_TX_RX_func.c ****     *
 439:Generated_Source\PSoC4/CAN_TX_RX_func.c ****     *******************************************************************************/
 440:Generated_Source\PSoC4/CAN_TX_RX_func.c ****     uint8 CAN_SendMsg4(void) 
 441:Generated_Source\PSoC4/CAN_TX_RX_func.c ****     {
 442:Generated_Source\PSoC4/CAN_TX_RX_func.c ****         uint8 result = CYRET_SUCCESS;
 443:Generated_Source\PSoC4/CAN_TX_RX_func.c **** 
 444:Generated_Source\PSoC4/CAN_TX_RX_func.c ****         #if (CY_PSOC3 || CY_PSOC5)
 445:Generated_Source\PSoC4/CAN_TX_RX_func.c ****             if ((CAN_TX[4u].txcmd.byte[0u] & CAN_TX_REQUEST_PENDING) != 0u)
 446:Generated_Source\PSoC4/CAN_TX_RX_func.c ****         #else  /* CY_PSOC4 */
 447:Generated_Source\PSoC4/CAN_TX_RX_func.c ****             if ((CAN_TX_CMD_REG(4u) & CAN_TX_REQUEST_PENDING) != 0u)
 448:Generated_Source\PSoC4/CAN_TX_RX_func.c ****         #endif /* CY_PSOC3 || CY_PSOC5 */
 449:Generated_Source\PSoC4/CAN_TX_RX_func.c ****             {
 450:Generated_Source\PSoC4/CAN_TX_RX_func.c ****                 result = CAN_FAIL;
 451:Generated_Source\PSoC4/CAN_TX_RX_func.c ****             }
 452:Generated_Source\PSoC4/CAN_TX_RX_func.c ****             else
 453:Generated_Source\PSoC4/CAN_TX_RX_func.c ****             {
 454:Generated_Source\PSoC4/CAN_TX_RX_func.c ****                 /* `#START MESSAGE_4_TRASMITTED` */
 455:Generated_Source\PSoC4/CAN_TX_RX_func.c **** 
 456:Generated_Source\PSoC4/CAN_TX_RX_func.c ****                 /* `#END` */
 457:Generated_Source\PSoC4/CAN_TX_RX_func.c **** 
ARM GAS  C:\Users\Melody\AppData\Local\Temp\cc3mk2Hg.s 			page 15


 458:Generated_Source\PSoC4/CAN_TX_RX_func.c ****                 #ifdef CAN_SEND_MSG_4_CALLBACK
 459:Generated_Source\PSoC4/CAN_TX_RX_func.c ****                     CAN_SendMsg_4_Callback();
 460:Generated_Source\PSoC4/CAN_TX_RX_func.c ****                 #endif /* CAN_SEND_MSG_4_CALLBACK */
 461:Generated_Source\PSoC4/CAN_TX_RX_func.c **** 
 462:Generated_Source\PSoC4/CAN_TX_RX_func.c ****                 CY_SET_REG32(CAN_TX_CMD_PTR(4u),
 463:Generated_Source\PSoC4/CAN_TX_RX_func.c ****                 CY_GET_REG32(CAN_TX_CMD_PTR(4u)) | CAN_SEND_MESSAGE);
 464:Generated_Source\PSoC4/CAN_TX_RX_func.c ****             }
 465:Generated_Source\PSoC4/CAN_TX_RX_func.c **** 
 466:Generated_Source\PSoC4/CAN_TX_RX_func.c ****         return (result);
 467:Generated_Source\PSoC4/CAN_TX_RX_func.c ****     }
 468:Generated_Source\PSoC4/CAN_TX_RX_func.c **** #endif /* CAN_TX4_FUNC_ENABLE */
 469:Generated_Source\PSoC4/CAN_TX_RX_func.c **** 
 470:Generated_Source\PSoC4/CAN_TX_RX_func.c **** 
 471:Generated_Source\PSoC4/CAN_TX_RX_func.c **** #if (CAN_TX5_FUNC_ENABLE)
 472:Generated_Source\PSoC4/CAN_TX_RX_func.c ****     /*******************************************************************************
 473:Generated_Source\PSoC4/CAN_TX_RX_func.c ****     * FUNCTION NAME:   CAN_SendMsg5
 474:Generated_Source\PSoC4/CAN_TX_RX_func.c ****     ********************************************************************************
 475:Generated_Source\PSoC4/CAN_TX_RX_func.c ****     *
 476:Generated_Source\PSoC4/CAN_TX_RX_func.c ****     * Summary:
 477:Generated_Source\PSoC4/CAN_TX_RX_func.c ****     *  This function is the entry point to Transmit Message 5. The function checks
 478:Generated_Source\PSoC4/CAN_TX_RX_func.c ****     *  if mailbox 5 doesn't already have un-transmitted messages waiting for
 479:Generated_Source\PSoC4/CAN_TX_RX_func.c ****     *  arbitration. If not initiate transmission of the message.
 480:Generated_Source\PSoC4/CAN_TX_RX_func.c ****     *  Generated only for the Transmit mailbox designed as Full.
 481:Generated_Source\PSoC4/CAN_TX_RX_func.c ****     *
 482:Generated_Source\PSoC4/CAN_TX_RX_func.c ****     * Parameters:
 483:Generated_Source\PSoC4/CAN_TX_RX_func.c ****     *  None.
 484:Generated_Source\PSoC4/CAN_TX_RX_func.c ****     *
 485:Generated_Source\PSoC4/CAN_TX_RX_func.c ****     * Return:
 486:Generated_Source\PSoC4/CAN_TX_RX_func.c ****     *  Indication if Message has been sent.
 487:Generated_Source\PSoC4/CAN_TX_RX_func.c ****     *   Define                             Description
 488:Generated_Source\PSoC4/CAN_TX_RX_func.c ****     *    CYRET_SUCCESS                      The function passed successfully
 489:Generated_Source\PSoC4/CAN_TX_RX_func.c ****     *    CAN_FAIL              The function failed
 490:Generated_Source\PSoC4/CAN_TX_RX_func.c ****     *
 491:Generated_Source\PSoC4/CAN_TX_RX_func.c ****     *******************************************************************************/
 492:Generated_Source\PSoC4/CAN_TX_RX_func.c ****     uint8 CAN_SendMsg5(void) 
 493:Generated_Source\PSoC4/CAN_TX_RX_func.c ****     {
 494:Generated_Source\PSoC4/CAN_TX_RX_func.c ****         uint8 result = CYRET_SUCCESS;
 495:Generated_Source\PSoC4/CAN_TX_RX_func.c **** 
 496:Generated_Source\PSoC4/CAN_TX_RX_func.c ****         #if (CY_PSOC3 || CY_PSOC5)
 497:Generated_Source\PSoC4/CAN_TX_RX_func.c ****             if ((CAN_TX[5u].txcmd.byte[0u] & CAN_TX_REQUEST_PENDING) != 0u)
 498:Generated_Source\PSoC4/CAN_TX_RX_func.c ****         #else  /* CY_PSOC4 */
 499:Generated_Source\PSoC4/CAN_TX_RX_func.c ****             if ((CAN_TX_CMD_REG(5u) & CAN_TX_REQUEST_PENDING) != 0u)
 500:Generated_Source\PSoC4/CAN_TX_RX_func.c ****         #endif /* CY_PSOC3 || CY_PSOC5 */
 501:Generated_Source\PSoC4/CAN_TX_RX_func.c ****             {
 502:Generated_Source\PSoC4/CAN_TX_RX_func.c ****                 result = CAN_FAIL;
 503:Generated_Source\PSoC4/CAN_TX_RX_func.c ****             }
 504:Generated_Source\PSoC4/CAN_TX_RX_func.c ****             else
 505:Generated_Source\PSoC4/CAN_TX_RX_func.c ****             {
 506:Generated_Source\PSoC4/CAN_TX_RX_func.c ****                 /* `#START MESSAGE_5_TRASMITTED` */
 507:Generated_Source\PSoC4/CAN_TX_RX_func.c **** 
 508:Generated_Source\PSoC4/CAN_TX_RX_func.c ****                 /* `#END` */
 509:Generated_Source\PSoC4/CAN_TX_RX_func.c **** 
 510:Generated_Source\PSoC4/CAN_TX_RX_func.c ****                 #ifdef CAN_SEND_MSG_5_CALLBACK
 511:Generated_Source\PSoC4/CAN_TX_RX_func.c ****                     CAN_SendMsg_5_Callback();
 512:Generated_Source\PSoC4/CAN_TX_RX_func.c ****                 #endif /* CAN_SEND_MSG_5_CALLBACK */
 513:Generated_Source\PSoC4/CAN_TX_RX_func.c **** 
 514:Generated_Source\PSoC4/CAN_TX_RX_func.c ****                 CY_SET_REG32(CAN_TX_CMD_PTR(5u),
ARM GAS  C:\Users\Melody\AppData\Local\Temp\cc3mk2Hg.s 			page 16


 515:Generated_Source\PSoC4/CAN_TX_RX_func.c ****                 CY_GET_REG32(CAN_TX_CMD_PTR(5u)) | CAN_SEND_MESSAGE);
 516:Generated_Source\PSoC4/CAN_TX_RX_func.c ****             }
 517:Generated_Source\PSoC4/CAN_TX_RX_func.c **** 
 518:Generated_Source\PSoC4/CAN_TX_RX_func.c ****         return (result);
 519:Generated_Source\PSoC4/CAN_TX_RX_func.c ****     }
 520:Generated_Source\PSoC4/CAN_TX_RX_func.c **** #endif /* CAN_TX5_FUNC_ENABLE */
 521:Generated_Source\PSoC4/CAN_TX_RX_func.c **** 
 522:Generated_Source\PSoC4/CAN_TX_RX_func.c **** 
 523:Generated_Source\PSoC4/CAN_TX_RX_func.c **** #if (CAN_TX6_FUNC_ENABLE)
 524:Generated_Source\PSoC4/CAN_TX_RX_func.c ****     /*******************************************************************************
 525:Generated_Source\PSoC4/CAN_TX_RX_func.c ****     * FUNCTION NAME:   CAN_SendMsg6
 526:Generated_Source\PSoC4/CAN_TX_RX_func.c ****     ********************************************************************************
 527:Generated_Source\PSoC4/CAN_TX_RX_func.c ****     *
 528:Generated_Source\PSoC4/CAN_TX_RX_func.c ****     * Summary:
 529:Generated_Source\PSoC4/CAN_TX_RX_func.c ****     *  This function is the entry point to Transmit Message 6. The function checks
 530:Generated_Source\PSoC4/CAN_TX_RX_func.c ****     *  if mailbox 6 doesn't already have un-transmitted messages waiting for
 531:Generated_Source\PSoC4/CAN_TX_RX_func.c ****     *  arbitration. If not initiate transmission of the message.
 532:Generated_Source\PSoC4/CAN_TX_RX_func.c ****     *  Generated only for the Transmit mailbox designed as Full.
 533:Generated_Source\PSoC4/CAN_TX_RX_func.c ****     *
 534:Generated_Source\PSoC4/CAN_TX_RX_func.c ****     * Parameters:
 535:Generated_Source\PSoC4/CAN_TX_RX_func.c ****     *  None.
 536:Generated_Source\PSoC4/CAN_TX_RX_func.c ****     *
 537:Generated_Source\PSoC4/CAN_TX_RX_func.c ****     * Return:
 538:Generated_Source\PSoC4/CAN_TX_RX_func.c ****     *  Indication if Message has been sent.
 539:Generated_Source\PSoC4/CAN_TX_RX_func.c ****     *   Define                             Description
 540:Generated_Source\PSoC4/CAN_TX_RX_func.c ****     *    CYRET_SUCCESS                      The function passed successfully
 541:Generated_Source\PSoC4/CAN_TX_RX_func.c ****     *    CAN_FAIL              The function failed
 542:Generated_Source\PSoC4/CAN_TX_RX_func.c ****     *
 543:Generated_Source\PSoC4/CAN_TX_RX_func.c ****     *******************************************************************************/
 544:Generated_Source\PSoC4/CAN_TX_RX_func.c ****     uint8 CAN_SendMsg6(void) 
 545:Generated_Source\PSoC4/CAN_TX_RX_func.c ****     {
 546:Generated_Source\PSoC4/CAN_TX_RX_func.c ****         uint8 result = CYRET_SUCCESS;
 547:Generated_Source\PSoC4/CAN_TX_RX_func.c **** 
 548:Generated_Source\PSoC4/CAN_TX_RX_func.c ****         #if (CY_PSOC3 || CY_PSOC5)
 549:Generated_Source\PSoC4/CAN_TX_RX_func.c ****             if ((CAN_TX[6u].txcmd.byte[0u] & CAN_TX_REQUEST_PENDING) != 0u)
 550:Generated_Source\PSoC4/CAN_TX_RX_func.c ****         #else  /* CY_PSOC4 */
 551:Generated_Source\PSoC4/CAN_TX_RX_func.c ****             if ((CAN_TX_CMD_REG(6u) & CAN_TX_REQUEST_PENDING) != 0u)
 552:Generated_Source\PSoC4/CAN_TX_RX_func.c ****         #endif /* CY_PSOC3 || CY_PSOC5 */
 553:Generated_Source\PSoC4/CAN_TX_RX_func.c ****             {
 554:Generated_Source\PSoC4/CAN_TX_RX_func.c ****                 result = CAN_FAIL;
 555:Generated_Source\PSoC4/CAN_TX_RX_func.c ****             }
 556:Generated_Source\PSoC4/CAN_TX_RX_func.c ****             else
 557:Generated_Source\PSoC4/CAN_TX_RX_func.c ****             {
 558:Generated_Source\PSoC4/CAN_TX_RX_func.c ****                 /* `#START MESSAGE_6_TRASMITTED` */
 559:Generated_Source\PSoC4/CAN_TX_RX_func.c **** 
 560:Generated_Source\PSoC4/CAN_TX_RX_func.c ****                 /* `#END` */
 561:Generated_Source\PSoC4/CAN_TX_RX_func.c **** 
 562:Generated_Source\PSoC4/CAN_TX_RX_func.c ****                 #ifdef CAN_SEND_MSG_6_CALLBACK
 563:Generated_Source\PSoC4/CAN_TX_RX_func.c ****                     CAN_SendMsg_6_Callback();
 564:Generated_Source\PSoC4/CAN_TX_RX_func.c ****                 #endif /* CAN_SEND_MSG_6_CALLBACK */
 565:Generated_Source\PSoC4/CAN_TX_RX_func.c **** 
 566:Generated_Source\PSoC4/CAN_TX_RX_func.c ****                 CY_SET_REG32(CAN_TX_CMD_PTR(6u),
 567:Generated_Source\PSoC4/CAN_TX_RX_func.c ****                 CY_GET_REG32(CAN_TX_CMD_PTR(6u)) | CAN_SEND_MESSAGE);
 568:Generated_Source\PSoC4/CAN_TX_RX_func.c ****             }
 569:Generated_Source\PSoC4/CAN_TX_RX_func.c **** 
 570:Generated_Source\PSoC4/CAN_TX_RX_func.c ****         return (result);
 571:Generated_Source\PSoC4/CAN_TX_RX_func.c ****     }
ARM GAS  C:\Users\Melody\AppData\Local\Temp\cc3mk2Hg.s 			page 17


 572:Generated_Source\PSoC4/CAN_TX_RX_func.c **** #endif /* CAN_TX6_FUNC_ENABLE */
 573:Generated_Source\PSoC4/CAN_TX_RX_func.c **** 
 574:Generated_Source\PSoC4/CAN_TX_RX_func.c **** 
 575:Generated_Source\PSoC4/CAN_TX_RX_func.c **** #if (CAN_TX7_FUNC_ENABLE)
 576:Generated_Source\PSoC4/CAN_TX_RX_func.c ****     /*******************************************************************************
 577:Generated_Source\PSoC4/CAN_TX_RX_func.c ****     * FUNCTION NAME:   CAN_SendMsg7)
 578:Generated_Source\PSoC4/CAN_TX_RX_func.c ****     ********************************************************************************
 579:Generated_Source\PSoC4/CAN_TX_RX_func.c ****     *
 580:Generated_Source\PSoC4/CAN_TX_RX_func.c ****     * Summary:
 581:Generated_Source\PSoC4/CAN_TX_RX_func.c ****     *  This function is the entry point to Transmit Message 7. The function checks
 582:Generated_Source\PSoC4/CAN_TX_RX_func.c ****     *  if mailbox 7 doesn't already have un-transmitted messages waiting for
 583:Generated_Source\PSoC4/CAN_TX_RX_func.c ****     *  arbitration. If not initiate transmission of the message.
 584:Generated_Source\PSoC4/CAN_TX_RX_func.c ****     *  Generated only for the Transmit mailbox designed as Full.
 585:Generated_Source\PSoC4/CAN_TX_RX_func.c ****     *
 586:Generated_Source\PSoC4/CAN_TX_RX_func.c ****     * Parameters:
 587:Generated_Source\PSoC4/CAN_TX_RX_func.c ****     *  None.
 588:Generated_Source\PSoC4/CAN_TX_RX_func.c ****     *
 589:Generated_Source\PSoC4/CAN_TX_RX_func.c ****     * Return:
 590:Generated_Source\PSoC4/CAN_TX_RX_func.c ****     *  Indication if Message has been sent.
 591:Generated_Source\PSoC4/CAN_TX_RX_func.c ****     *   Define                             Description
 592:Generated_Source\PSoC4/CAN_TX_RX_func.c ****     *    CYRET_SUCCESS                      The function passed successfully
 593:Generated_Source\PSoC4/CAN_TX_RX_func.c ****     *    CAN_FAIL              The function failed
 594:Generated_Source\PSoC4/CAN_TX_RX_func.c ****     *
 595:Generated_Source\PSoC4/CAN_TX_RX_func.c ****     *******************************************************************************/
 596:Generated_Source\PSoC4/CAN_TX_RX_func.c ****     uint8 CAN_SendMsg7(void) 
 597:Generated_Source\PSoC4/CAN_TX_RX_func.c ****     {
 598:Generated_Source\PSoC4/CAN_TX_RX_func.c ****         uint8 result = CYRET_SUCCESS;
 599:Generated_Source\PSoC4/CAN_TX_RX_func.c **** 
 600:Generated_Source\PSoC4/CAN_TX_RX_func.c ****         #if (CY_PSOC3 || CY_PSOC5)
 601:Generated_Source\PSoC4/CAN_TX_RX_func.c ****             if ((CAN_TX[7u].txcmd.byte[0u] & CAN_TX_REQUEST_PENDING) != 0u)
 602:Generated_Source\PSoC4/CAN_TX_RX_func.c ****         #else  /* CY_PSOC4 */
 603:Generated_Source\PSoC4/CAN_TX_RX_func.c ****             if ((CAN_TX_CMD_REG(7u) & CAN_TX_REQUEST_PENDING) != 0u)
 604:Generated_Source\PSoC4/CAN_TX_RX_func.c ****         #endif /* CY_PSOC3 || CY_PSOC5 */
 605:Generated_Source\PSoC4/CAN_TX_RX_func.c ****             {
 606:Generated_Source\PSoC4/CAN_TX_RX_func.c ****                 result = CAN_FAIL;
 607:Generated_Source\PSoC4/CAN_TX_RX_func.c ****             }
 608:Generated_Source\PSoC4/CAN_TX_RX_func.c ****             else
 609:Generated_Source\PSoC4/CAN_TX_RX_func.c ****             {
 610:Generated_Source\PSoC4/CAN_TX_RX_func.c ****                 /* `#START MESSAGE_7_TRASMITTED` */
 611:Generated_Source\PSoC4/CAN_TX_RX_func.c **** 
 612:Generated_Source\PSoC4/CAN_TX_RX_func.c ****                 /* `#END` */
 613:Generated_Source\PSoC4/CAN_TX_RX_func.c **** 
 614:Generated_Source\PSoC4/CAN_TX_RX_func.c ****                 #ifdef CAN_SEND_MSG_7_CALLBACK
 615:Generated_Source\PSoC4/CAN_TX_RX_func.c ****                     CAN_SendMsg_7_Callback();
 616:Generated_Source\PSoC4/CAN_TX_RX_func.c ****                 #endif /* CAN_SEND_MSG_7_CALLBACK */
 617:Generated_Source\PSoC4/CAN_TX_RX_func.c **** 
 618:Generated_Source\PSoC4/CAN_TX_RX_func.c ****                 CY_SET_REG32(CAN_TX_CMD_PTR(7u),
 619:Generated_Source\PSoC4/CAN_TX_RX_func.c ****                 CY_GET_REG32(CAN_TX_CMD_PTR(7u)) | CAN_SEND_MESSAGE);
 620:Generated_Source\PSoC4/CAN_TX_RX_func.c ****             }
 621:Generated_Source\PSoC4/CAN_TX_RX_func.c **** 
 622:Generated_Source\PSoC4/CAN_TX_RX_func.c ****         return (result);
 623:Generated_Source\PSoC4/CAN_TX_RX_func.c ****     }
 624:Generated_Source\PSoC4/CAN_TX_RX_func.c **** #endif /* CAN_TX7_FUNC_ENABLE */
 625:Generated_Source\PSoC4/CAN_TX_RX_func.c **** 
 626:Generated_Source\PSoC4/CAN_TX_RX_func.c **** 
 627:Generated_Source\PSoC4/CAN_TX_RX_func.c **** /*******************************************************************************
 628:Generated_Source\PSoC4/CAN_TX_RX_func.c **** * FUNCTION NAME:   CAN_ReceiveMsg
ARM GAS  C:\Users\Melody\AppData\Local\Temp\cc3mk2Hg.s 			page 18


 629:Generated_Source\PSoC4/CAN_TX_RX_func.c **** ********************************************************************************
 630:Generated_Source\PSoC4/CAN_TX_RX_func.c **** *
 631:Generated_Source\PSoC4/CAN_TX_RX_func.c **** * Summary:
 632:Generated_Source\PSoC4/CAN_TX_RX_func.c **** *  This function is the entry point to Receive Message Interrupt for Basic
 633:Generated_Source\PSoC4/CAN_TX_RX_func.c **** *  mailboxes. Clears the Receive particular Message interrupt flag. Generated
 634:Generated_Source\PSoC4/CAN_TX_RX_func.c **** *  only if one of the Receive mailboxes is designed as Basic.
 635:Generated_Source\PSoC4/CAN_TX_RX_func.c **** *
 636:Generated_Source\PSoC4/CAN_TX_RX_func.c **** * Parameters:
 637:Generated_Source\PSoC4/CAN_TX_RX_func.c **** *  rxMailbox: The mailbox number that trig Receive Message Interrupt.
 638:Generated_Source\PSoC4/CAN_TX_RX_func.c **** *
 639:Generated_Source\PSoC4/CAN_TX_RX_func.c **** * Return:
 640:Generated_Source\PSoC4/CAN_TX_RX_func.c **** *  None.
 641:Generated_Source\PSoC4/CAN_TX_RX_func.c **** *
 642:Generated_Source\PSoC4/CAN_TX_RX_func.c **** * Reentrant:
 643:Generated_Source\PSoC4/CAN_TX_RX_func.c **** *  Depends on the Customer code.
 644:Generated_Source\PSoC4/CAN_TX_RX_func.c **** *
 645:Generated_Source\PSoC4/CAN_TX_RX_func.c **** *******************************************************************************/
 646:Generated_Source\PSoC4/CAN_TX_RX_func.c **** void CAN_ReceiveMsg(uint8 rxMailbox) 
 647:Generated_Source\PSoC4/CAN_TX_RX_func.c **** {
 336              		.loc 1 647 0
 337              		.cfi_startproc
 338              		@ args = 0, pretend = 0, frame = 0
 339              		@ frame_needed = 0, uses_anonymous_args = 0
 340              		@ link register save eliminated.
 341              	.LVL33:
 648:Generated_Source\PSoC4/CAN_TX_RX_func.c ****     #if (CY_PSOC3 || CY_PSOC5)
 649:Generated_Source\PSoC4/CAN_TX_RX_func.c ****         if ((CAN_RX[rxMailbox].rxcmd.byte[0u] & CAN_RX_ACK_MSG) != 0u)
 650:Generated_Source\PSoC4/CAN_TX_RX_func.c ****     #else  /* CY_PSOC4 */
 651:Generated_Source\PSoC4/CAN_TX_RX_func.c ****         if ((CAN_RX_CMD_REG(rxMailbox) & CAN_RX_ACK_MSG) != 0u)
 342              		.loc 1 651 0
 343 0000 0122     		movs	r2, #1
 344 0002 054B     		ldr	r3, .L53
 345 0004 4001     		lsls	r0, r0, #5
 346              	.LVL34:
 347 0006 C018     		adds	r0, r0, r3
 348 0008 0368     		ldr	r3, [r0]
 349 000a 1342     		tst	r3, r2
 350 000c 02D0     		beq	.L48
 652:Generated_Source\PSoC4/CAN_TX_RX_func.c ****     #endif /* CY_PSOC3 || CY_PSOC5 */
 653:Generated_Source\PSoC4/CAN_TX_RX_func.c ****         {
 654:Generated_Source\PSoC4/CAN_TX_RX_func.c ****             /* `#START MESSAGE_BASIC_RECEIVED` */
 655:Generated_Source\PSoC4/CAN_TX_RX_func.c **** 
 656:Generated_Source\PSoC4/CAN_TX_RX_func.c ****             /* `#END` */
 657:Generated_Source\PSoC4/CAN_TX_RX_func.c **** 
 658:Generated_Source\PSoC4/CAN_TX_RX_func.c ****             #ifdef CAN_RECEIVE_MSG_CALLBACK
 659:Generated_Source\PSoC4/CAN_TX_RX_func.c ****                 CAN_ReceiveMsg_Callback();
 660:Generated_Source\PSoC4/CAN_TX_RX_func.c ****             #endif /* CAN_RECEIVE_MSG_CALLBACK */
 661:Generated_Source\PSoC4/CAN_TX_RX_func.c **** 
 662:Generated_Source\PSoC4/CAN_TX_RX_func.c ****             #if (CY_PSOC3 || CY_PSOC5)
 663:Generated_Source\PSoC4/CAN_TX_RX_func.c ****                 CAN_RX[rxMailbox].rxcmd.byte[0u] |= CAN_RX_ACK_MSG;
 664:Generated_Source\PSoC4/CAN_TX_RX_func.c ****             #else  /* CY_PSOC4 */
 665:Generated_Source\PSoC4/CAN_TX_RX_func.c ****                 CAN_RX_CMD_REG(rxMailbox) |= CAN_RX_ACK_MSG;
 351              		.loc 1 665 0
 352 000e 0368     		ldr	r3, [r0]
 353 0010 1343     		orrs	r3, r2
 354 0012 0360     		str	r3, [r0]
 355              	.L48:
ARM GAS  C:\Users\Melody\AppData\Local\Temp\cc3mk2Hg.s 			page 19


 666:Generated_Source\PSoC4/CAN_TX_RX_func.c ****             #endif /* CY_PSOC3 || CY_PSOC5 */
 667:Generated_Source\PSoC4/CAN_TX_RX_func.c ****         }
 668:Generated_Source\PSoC4/CAN_TX_RX_func.c **** }
 356              		.loc 1 668 0
 357              		@ sp needed
 358 0014 7047     		bx	lr
 359              	.L54:
 360 0016 C046     		.align	2
 361              	.L53:
 362 0018 A0002F40 		.word	1076822176
 363              		.cfi_endproc
 364              	.LFE37:
 365              		.size	CAN_ReceiveMsg, .-CAN_ReceiveMsg
 366              		.section	.text.CAN_ReceiveMsgVEHICLE_STATE,"ax",%progbits
 367              		.align	1
 368              		.global	CAN_ReceiveMsgVEHICLE_STATE
 369              		.code	16
 370              		.thumb_func
 371              		.type	CAN_ReceiveMsgVEHICLE_STATE, %function
 372              	CAN_ReceiveMsgVEHICLE_STATE:
 373              	.LFB38:
 669:Generated_Source\PSoC4/CAN_TX_RX_func.c **** 
 670:Generated_Source\PSoC4/CAN_TX_RX_func.c **** 
 671:Generated_Source\PSoC4/CAN_TX_RX_func.c **** #if (CAN_RX0_FUNC_ENABLE)
 672:Generated_Source\PSoC4/CAN_TX_RX_func.c ****     /*******************************************************************************
 673:Generated_Source\PSoC4/CAN_TX_RX_func.c ****     * FUNCTION NAME:   CAN_ReceiveMsgVEHICLE_STATE
 674:Generated_Source\PSoC4/CAN_TX_RX_func.c ****     ********************************************************************************
 675:Generated_Source\PSoC4/CAN_TX_RX_func.c ****     *
 676:Generated_Source\PSoC4/CAN_TX_RX_func.c ****     * Summary:
 677:Generated_Source\PSoC4/CAN_TX_RX_func.c ****     *  This function is the entry point to Receive Message 0 Interrupt. Clears the
 678:Generated_Source\PSoC4/CAN_TX_RX_func.c ****     *  Receive Message 0 interrupt flag. Generated only for the Receive mailbox
 679:Generated_Source\PSoC4/CAN_TX_RX_func.c ****     *  designed as Full.
 680:Generated_Source\PSoC4/CAN_TX_RX_func.c ****     *
 681:Generated_Source\PSoC4/CAN_TX_RX_func.c ****     * Parameters:
 682:Generated_Source\PSoC4/CAN_TX_RX_func.c ****     *  None.
 683:Generated_Source\PSoC4/CAN_TX_RX_func.c ****     *
 684:Generated_Source\PSoC4/CAN_TX_RX_func.c ****     * Return:
 685:Generated_Source\PSoC4/CAN_TX_RX_func.c ****     *  None.
 686:Generated_Source\PSoC4/CAN_TX_RX_func.c ****     *
 687:Generated_Source\PSoC4/CAN_TX_RX_func.c ****     * Reentrant:
 688:Generated_Source\PSoC4/CAN_TX_RX_func.c ****     *  Depends on the Customer code.
 689:Generated_Source\PSoC4/CAN_TX_RX_func.c ****     *
 690:Generated_Source\PSoC4/CAN_TX_RX_func.c ****     *******************************************************************************/
 691:Generated_Source\PSoC4/CAN_TX_RX_func.c ****     void CAN_ReceiveMsgVEHICLE_STATE(void) 
 692:Generated_Source\PSoC4/CAN_TX_RX_func.c ****     {
 374              		.loc 1 692 0
 375              		.cfi_startproc
 376              		@ args = 0, pretend = 0, frame = 0
 377              		@ frame_needed = 0, uses_anonymous_args = 0
 378              		@ link register save eliminated.
 693:Generated_Source\PSoC4/CAN_TX_RX_func.c ****         /* `#START MESSAGE_VEHICLE_STATE_RECEIVED` */
 694:Generated_Source\PSoC4/CAN_TX_RX_func.c ****         state = CAN_RX_DATA_BYTE5(CAN_RX_MAILBOX_VEHICLE_STATE);
 695:Generated_Source\PSoC4/CAN_TX_RX_func.c ****         /* `#END` */
 696:Generated_Source\PSoC4/CAN_TX_RX_func.c **** 
 697:Generated_Source\PSoC4/CAN_TX_RX_func.c ****         #ifdef CAN_RECEIVE_MSG_VEHICLE_STATE_CALLBACK
 698:Generated_Source\PSoC4/CAN_TX_RX_func.c ****             CAN_ReceiveMsg_VEHICLE_STATE_Callback();
 699:Generated_Source\PSoC4/CAN_TX_RX_func.c ****         #endif /* CAN_RECEIVE_MSG_VEHICLE_STATE_CALLBACK */
ARM GAS  C:\Users\Melody\AppData\Local\Temp\cc3mk2Hg.s 			page 20


 700:Generated_Source\PSoC4/CAN_TX_RX_func.c **** 
 701:Generated_Source\PSoC4/CAN_TX_RX_func.c ****         CAN_RX_ACK_MESSAGE(0u);
 379              		.loc 1 701 0
 380 0000 0121     		movs	r1, #1
 694:Generated_Source\PSoC4/CAN_TX_RX_func.c ****         /* `#END` */
 381              		.loc 1 694 0
 382 0002 054B     		ldr	r3, .L56
 383 0004 054A     		ldr	r2, .L56+4
 384 0006 1B68     		ldr	r3, [r3]
 702:Generated_Source\PSoC4/CAN_TX_RX_func.c ****     }
 385              		.loc 1 702 0
 386              		@ sp needed
 694:Generated_Source\PSoC4/CAN_TX_RX_func.c ****         /* `#END` */
 387              		.loc 1 694 0
 388 0008 1B0E     		lsrs	r3, r3, #24
 389 000a 1370     		strb	r3, [r2]
 701:Generated_Source\PSoC4/CAN_TX_RX_func.c ****     }
 390              		.loc 1 701 0
 391 000c 044A     		ldr	r2, .L56+8
 392 000e 1368     		ldr	r3, [r2]
 393 0010 0B43     		orrs	r3, r1
 394 0012 1360     		str	r3, [r2]
 395              		.loc 1 702 0
 396 0014 7047     		bx	lr
 397              	.L57:
 398 0016 C046     		.align	2
 399              	.L56:
 400 0018 AC002F40 		.word	1076822188
 401 001c 00000000 		.word	state
 402 0020 A0002F40 		.word	1076822176
 403              		.cfi_endproc
 404              	.LFE38:
 405              		.size	CAN_ReceiveMsgVEHICLE_STATE, .-CAN_ReceiveMsgVEHICLE_STATE
 406              		.section	.text.CAN_ReceiveMsgBSPD_FLAGS,"ax",%progbits
 407              		.align	1
 408              		.global	CAN_ReceiveMsgBSPD_FLAGS
 409              		.code	16
 410              		.thumb_func
 411              		.type	CAN_ReceiveMsgBSPD_FLAGS, %function
 412              	CAN_ReceiveMsgBSPD_FLAGS:
 413              	.LFB39:
 703:Generated_Source\PSoC4/CAN_TX_RX_func.c **** #endif /* CAN_RX0_FUNC_ENABLE */
 704:Generated_Source\PSoC4/CAN_TX_RX_func.c **** 
 705:Generated_Source\PSoC4/CAN_TX_RX_func.c **** 
 706:Generated_Source\PSoC4/CAN_TX_RX_func.c **** #if (CAN_RX1_FUNC_ENABLE)
 707:Generated_Source\PSoC4/CAN_TX_RX_func.c ****     /*******************************************************************************
 708:Generated_Source\PSoC4/CAN_TX_RX_func.c ****     * FUNCTION NAME:    CAN_ReceiveMsgBSPD_FLAGS
 709:Generated_Source\PSoC4/CAN_TX_RX_func.c ****     ********************************************************************************
 710:Generated_Source\PSoC4/CAN_TX_RX_func.c ****     *
 711:Generated_Source\PSoC4/CAN_TX_RX_func.c ****     * Summary:
 712:Generated_Source\PSoC4/CAN_TX_RX_func.c ****     *  This function is the entry point to Receive Message 1 Interrupt. Clears the
 713:Generated_Source\PSoC4/CAN_TX_RX_func.c ****     *  Receive Message 1 interrupt flag. Generated only for the Receive mailbox
 714:Generated_Source\PSoC4/CAN_TX_RX_func.c ****     *  designed as Full.
 715:Generated_Source\PSoC4/CAN_TX_RX_func.c ****     *
 716:Generated_Source\PSoC4/CAN_TX_RX_func.c ****     * Parameters:
 717:Generated_Source\PSoC4/CAN_TX_RX_func.c ****     *  None.
 718:Generated_Source\PSoC4/CAN_TX_RX_func.c ****     *
ARM GAS  C:\Users\Melody\AppData\Local\Temp\cc3mk2Hg.s 			page 21


 719:Generated_Source\PSoC4/CAN_TX_RX_func.c ****     * Return:
 720:Generated_Source\PSoC4/CAN_TX_RX_func.c ****     *  None.
 721:Generated_Source\PSoC4/CAN_TX_RX_func.c ****     *
 722:Generated_Source\PSoC4/CAN_TX_RX_func.c ****     * Reentrant:
 723:Generated_Source\PSoC4/CAN_TX_RX_func.c ****     *  Depends on the Customer code.
 724:Generated_Source\PSoC4/CAN_TX_RX_func.c ****     *
 725:Generated_Source\PSoC4/CAN_TX_RX_func.c ****     *******************************************************************************/
 726:Generated_Source\PSoC4/CAN_TX_RX_func.c ****     void CAN_ReceiveMsgBSPD_FLAGS(void) 
 727:Generated_Source\PSoC4/CAN_TX_RX_func.c ****     {
 414              		.loc 1 727 0
 415              		.cfi_startproc
 416              		@ args = 0, pretend = 0, frame = 0
 417              		@ frame_needed = 0, uses_anonymous_args = 0
 418              		@ link register save eliminated.
 728:Generated_Source\PSoC4/CAN_TX_RX_func.c ****         /* `#START MESSAGE_BSPD_FLAGS_RECEIVED` */
 729:Generated_Source\PSoC4/CAN_TX_RX_func.c **** 
 730:Generated_Source\PSoC4/CAN_TX_RX_func.c ****         /* `#END` */
 731:Generated_Source\PSoC4/CAN_TX_RX_func.c **** 
 732:Generated_Source\PSoC4/CAN_TX_RX_func.c ****         #ifdef CAN_RECEIVE_MSG_BSPD_FLAGS_CALLBACK
 733:Generated_Source\PSoC4/CAN_TX_RX_func.c ****             CAN_ReceiveMsg_BSPD_FLAGS_Callback();
 734:Generated_Source\PSoC4/CAN_TX_RX_func.c ****         #endif /* CAN_RECEIVE_MSG_BSPD_FLAGS_CALLBACK */
 735:Generated_Source\PSoC4/CAN_TX_RX_func.c **** 
 736:Generated_Source\PSoC4/CAN_TX_RX_func.c ****         CAN_RX_ACK_MESSAGE(1u);
 419              		.loc 1 736 0
 420 0000 0121     		movs	r1, #1
 421 0002 024A     		ldr	r2, .L59
 737:Generated_Source\PSoC4/CAN_TX_RX_func.c ****     }
 422              		.loc 1 737 0
 423              		@ sp needed
 736:Generated_Source\PSoC4/CAN_TX_RX_func.c ****     }
 424              		.loc 1 736 0
 425 0004 1368     		ldr	r3, [r2]
 426 0006 0B43     		orrs	r3, r1
 427 0008 1360     		str	r3, [r2]
 428              		.loc 1 737 0
 429 000a 7047     		bx	lr
 430              	.L60:
 431              		.align	2
 432              	.L59:
 433 000c C0002F40 		.word	1076822208
 434              		.cfi_endproc
 435              	.LFE39:
 436              		.size	CAN_ReceiveMsgBSPD_FLAGS, .-CAN_ReceiveMsgBSPD_FLAGS
 437              		.section	.text.CAN_ReceiveMsgBMS_STATUS_MSG,"ax",%progbits
 438              		.align	1
 439              		.global	CAN_ReceiveMsgBMS_STATUS_MSG
 440              		.code	16
 441              		.thumb_func
 442              		.type	CAN_ReceiveMsgBMS_STATUS_MSG, %function
 443              	CAN_ReceiveMsgBMS_STATUS_MSG:
 444              	.LFB40:
 738:Generated_Source\PSoC4/CAN_TX_RX_func.c **** #endif /* CAN_RX1_FUNC_ENABLE */
 739:Generated_Source\PSoC4/CAN_TX_RX_func.c **** 
 740:Generated_Source\PSoC4/CAN_TX_RX_func.c **** 
 741:Generated_Source\PSoC4/CAN_TX_RX_func.c **** #if (CAN_RX2_FUNC_ENABLE)
 742:Generated_Source\PSoC4/CAN_TX_RX_func.c ****     /*******************************************************************************
 743:Generated_Source\PSoC4/CAN_TX_RX_func.c ****     * FUNCTION NAME:   CAN_ReceiveMsgBMS_STATUS_MSG
ARM GAS  C:\Users\Melody\AppData\Local\Temp\cc3mk2Hg.s 			page 22


 744:Generated_Source\PSoC4/CAN_TX_RX_func.c ****     ********************************************************************************
 745:Generated_Source\PSoC4/CAN_TX_RX_func.c ****     *
 746:Generated_Source\PSoC4/CAN_TX_RX_func.c ****     * Summary:
 747:Generated_Source\PSoC4/CAN_TX_RX_func.c ****     *  This function is the entry point to Receive Message 2 Interrupt. Clears the
 748:Generated_Source\PSoC4/CAN_TX_RX_func.c ****     *  Receive Message 2 interrupt flag. Generated only for the Receive mailbox
 749:Generated_Source\PSoC4/CAN_TX_RX_func.c ****     *  designed as Full.
 750:Generated_Source\PSoC4/CAN_TX_RX_func.c ****     *
 751:Generated_Source\PSoC4/CAN_TX_RX_func.c ****     * Parameters:
 752:Generated_Source\PSoC4/CAN_TX_RX_func.c ****     *  None.
 753:Generated_Source\PSoC4/CAN_TX_RX_func.c ****     *
 754:Generated_Source\PSoC4/CAN_TX_RX_func.c ****     * Return:
 755:Generated_Source\PSoC4/CAN_TX_RX_func.c ****     *  None.
 756:Generated_Source\PSoC4/CAN_TX_RX_func.c ****     *
 757:Generated_Source\PSoC4/CAN_TX_RX_func.c ****     * Reentrant:
 758:Generated_Source\PSoC4/CAN_TX_RX_func.c ****     *  Depends on the Customer code.
 759:Generated_Source\PSoC4/CAN_TX_RX_func.c ****     *
 760:Generated_Source\PSoC4/CAN_TX_RX_func.c ****     *******************************************************************************/
 761:Generated_Source\PSoC4/CAN_TX_RX_func.c ****     void CAN_ReceiveMsgBMS_STATUS_MSG(void) 
 762:Generated_Source\PSoC4/CAN_TX_RX_func.c ****     {
 445              		.loc 1 762 0
 446              		.cfi_startproc
 447              		@ args = 0, pretend = 0, frame = 0
 448              		@ frame_needed = 0, uses_anonymous_args = 0
 449              		@ link register save eliminated.
 763:Generated_Source\PSoC4/CAN_TX_RX_func.c ****         /* `#START MESSAGE_BMS_STATUS_MSG_RECEIVED` */
 764:Generated_Source\PSoC4/CAN_TX_RX_func.c ****         soc = CAN_RX_DATA_BYTE2(CAN_RX_MAILBOX_BMS_STATUS_MSG);
 450              		.loc 1 764 0
 451 0000 0B4A     		ldr	r2, .L62
 452 0002 0C49     		ldr	r1, .L62+4
 453 0004 1368     		ldr	r3, [r2]
 765:Generated_Source\PSoC4/CAN_TX_RX_func.c ****         bms_status = CAN_RX_DATA_BYTE3(CAN_RX_MAILBOX_BMS_STATUS_MSG) << 8;    // bms error flags
 766:Generated_Source\PSoC4/CAN_TX_RX_func.c ****         bms_status |= CAN_RX_DATA_BYTE4(CAN_RX_MAILBOX_BMS_STATUS_MSG);        // bms error flags
 767:Generated_Source\PSoC4/CAN_TX_RX_func.c ****         /* `#END` */
 768:Generated_Source\PSoC4/CAN_TX_RX_func.c **** 
 769:Generated_Source\PSoC4/CAN_TX_RX_func.c ****         #ifdef CAN_RECEIVE_MSG_BMS_STATUS_MSG_CALLBACK
 770:Generated_Source\PSoC4/CAN_TX_RX_func.c ****             CAN_ReceiveMsg_BMS_STATUS_MSG_Callback();
 771:Generated_Source\PSoC4/CAN_TX_RX_func.c ****         #endif /* CAN_RECEIVE_MSG_BMS_STATUS_MSG_CALLBACK */
 772:Generated_Source\PSoC4/CAN_TX_RX_func.c **** 
 773:Generated_Source\PSoC4/CAN_TX_RX_func.c ****         CAN_RX_ACK_MESSAGE(2u);
 774:Generated_Source\PSoC4/CAN_TX_RX_func.c ****     }
 454              		.loc 1 774 0
 455              		@ sp needed
 764:Generated_Source\PSoC4/CAN_TX_RX_func.c ****         bms_status = CAN_RX_DATA_BYTE3(CAN_RX_MAILBOX_BMS_STATUS_MSG) << 8;    // bms error flags
 456              		.loc 1 764 0
 457 0006 1B0C     		lsrs	r3, r3, #16
 458 0008 DBB2     		uxtb	r3, r3
 459 000a 0B70     		strb	r3, [r1]
 460 000c FF23     		movs	r3, #255
 765:Generated_Source\PSoC4/CAN_TX_RX_func.c ****         bms_status = CAN_RX_DATA_BYTE3(CAN_RX_MAILBOX_BMS_STATUS_MSG) << 8;    // bms error flags
 461              		.loc 1 765 0
 462 000e 1168     		ldr	r1, [r2]
 463 0010 1B02     		lsls	r3, r3, #8
 464 0012 0B40     		ands	r3, r1
 465 0014 0849     		ldr	r1, .L62+8
 466 0016 0B80     		strh	r3, [r1]
 766:Generated_Source\PSoC4/CAN_TX_RX_func.c ****         /* `#END` */
 467              		.loc 1 766 0
ARM GAS  C:\Users\Melody\AppData\Local\Temp\cc3mk2Hg.s 			page 23


 468 0018 1268     		ldr	r2, [r2]
 469 001a 0888     		ldrh	r0, [r1]
 470 001c D3B2     		uxtb	r3, r2
 471 001e 0343     		orrs	r3, r0
 472 0020 0B80     		strh	r3, [r1]
 773:Generated_Source\PSoC4/CAN_TX_RX_func.c ****     }
 473              		.loc 1 773 0
 474 0022 0121     		movs	r1, #1
 475 0024 054A     		ldr	r2, .L62+12
 476 0026 1368     		ldr	r3, [r2]
 477 0028 0B43     		orrs	r3, r1
 478 002a 1360     		str	r3, [r2]
 479              		.loc 1 774 0
 480 002c 7047     		bx	lr
 481              	.L63:
 482 002e C046     		.align	2
 483              	.L62:
 484 0030 E8002F40 		.word	1076822248
 485 0034 00000000 		.word	soc
 486 0038 00000000 		.word	bms_status
 487 003c E0002F40 		.word	1076822240
 488              		.cfi_endproc
 489              	.LFE40:
 490              		.size	CAN_ReceiveMsgBMS_STATUS_MSG, .-CAN_ReceiveMsgBMS_STATUS_MSG
 491              		.section	.text.CAN_ReceiveMsgBMS_VOLTAGES,"ax",%progbits
 492              		.align	1
 493              		.global	CAN_ReceiveMsgBMS_VOLTAGES
 494              		.code	16
 495              		.thumb_func
 496              		.type	CAN_ReceiveMsgBMS_VOLTAGES, %function
 497              	CAN_ReceiveMsgBMS_VOLTAGES:
 498              	.LFB41:
 775:Generated_Source\PSoC4/CAN_TX_RX_func.c **** #endif /* CAN_RX2_FUNC_ENABLE */
 776:Generated_Source\PSoC4/CAN_TX_RX_func.c **** 
 777:Generated_Source\PSoC4/CAN_TX_RX_func.c **** 
 778:Generated_Source\PSoC4/CAN_TX_RX_func.c **** #if (CAN_RX3_FUNC_ENABLE)
 779:Generated_Source\PSoC4/CAN_TX_RX_func.c ****     /*******************************************************************************
 780:Generated_Source\PSoC4/CAN_TX_RX_func.c ****     * FUNCTION NAME:   CAN_ReceiveMsgBMS_VOLTAGES
 781:Generated_Source\PSoC4/CAN_TX_RX_func.c ****     ********************************************************************************
 782:Generated_Source\PSoC4/CAN_TX_RX_func.c ****     *
 783:Generated_Source\PSoC4/CAN_TX_RX_func.c ****     * Summary:
 784:Generated_Source\PSoC4/CAN_TX_RX_func.c ****     *  This function is the entry point to Receive Message 3 Interrupt. Clears the
 785:Generated_Source\PSoC4/CAN_TX_RX_func.c ****     *  Receive Message 3 interrupt flag. Generated only for the Receive mailbox
 786:Generated_Source\PSoC4/CAN_TX_RX_func.c ****     *  designed as Full.
 787:Generated_Source\PSoC4/CAN_TX_RX_func.c ****     *
 788:Generated_Source\PSoC4/CAN_TX_RX_func.c ****     * Parameters:
 789:Generated_Source\PSoC4/CAN_TX_RX_func.c ****     *  None.
 790:Generated_Source\PSoC4/CAN_TX_RX_func.c ****     *
 791:Generated_Source\PSoC4/CAN_TX_RX_func.c ****     * Return:
 792:Generated_Source\PSoC4/CAN_TX_RX_func.c ****     *  None.
 793:Generated_Source\PSoC4/CAN_TX_RX_func.c ****     *
 794:Generated_Source\PSoC4/CAN_TX_RX_func.c ****     * Reentrant:
 795:Generated_Source\PSoC4/CAN_TX_RX_func.c ****     *  Depends on the Customer code.
 796:Generated_Source\PSoC4/CAN_TX_RX_func.c ****     *
 797:Generated_Source\PSoC4/CAN_TX_RX_func.c ****     *******************************************************************************/
 798:Generated_Source\PSoC4/CAN_TX_RX_func.c ****     void CAN_ReceiveMsgBMS_VOLTAGES(void) 
 799:Generated_Source\PSoC4/CAN_TX_RX_func.c ****     {
ARM GAS  C:\Users\Melody\AppData\Local\Temp\cc3mk2Hg.s 			page 24


 499              		.loc 1 799 0
 500              		.cfi_startproc
 501              		@ args = 0, pretend = 0, frame = 0
 502              		@ frame_needed = 0, uses_anonymous_args = 0
 503              		@ link register save eliminated.
 800:Generated_Source\PSoC4/CAN_TX_RX_func.c ****         /* `#START MESSAGE_BMS_VOLTAGES_RECEIVED` */
 801:Generated_Source\PSoC4/CAN_TX_RX_func.c **** 
 802:Generated_Source\PSoC4/CAN_TX_RX_func.c ****         /* `#END` */
 803:Generated_Source\PSoC4/CAN_TX_RX_func.c **** 
 804:Generated_Source\PSoC4/CAN_TX_RX_func.c ****         #ifdef CAN_RECEIVE_MSG_BMS_VOLTAGES_CALLBACK
 805:Generated_Source\PSoC4/CAN_TX_RX_func.c ****             CAN_ReceiveMsg_BMS_VOLTAGES_Callback();
 806:Generated_Source\PSoC4/CAN_TX_RX_func.c ****         #endif /* CAN_RECEIVE_MSG_BMS_VOLTAGES_CALLBACK */
 807:Generated_Source\PSoC4/CAN_TX_RX_func.c **** 
 808:Generated_Source\PSoC4/CAN_TX_RX_func.c ****         CAN_RX_ACK_MESSAGE(3u);
 504              		.loc 1 808 0
 505 0000 0121     		movs	r1, #1
 506 0002 024A     		ldr	r2, .L65
 809:Generated_Source\PSoC4/CAN_TX_RX_func.c ****     }
 507              		.loc 1 809 0
 508              		@ sp needed
 808:Generated_Source\PSoC4/CAN_TX_RX_func.c ****     }
 509              		.loc 1 808 0
 510 0004 1368     		ldr	r3, [r2]
 511 0006 0B43     		orrs	r3, r1
 512 0008 1360     		str	r3, [r2]
 513              		.loc 1 809 0
 514 000a 7047     		bx	lr
 515              	.L66:
 516              		.align	2
 517              	.L65:
 518 000c 00012F40 		.word	1076822272
 519              		.cfi_endproc
 520              	.LFE41:
 521              		.size	CAN_ReceiveMsgBMS_VOLTAGES, .-CAN_ReceiveMsgBMS_VOLTAGES
 522              		.section	.text.CAN_ReceiveMsgBMS_TEMPERATURES,"ax",%progbits
 523              		.align	1
 524              		.global	CAN_ReceiveMsgBMS_TEMPERATURES
 525              		.code	16
 526              		.thumb_func
 527              		.type	CAN_ReceiveMsgBMS_TEMPERATURES, %function
 528              	CAN_ReceiveMsgBMS_TEMPERATURES:
 529              	.LFB42:
 810:Generated_Source\PSoC4/CAN_TX_RX_func.c **** #endif /* CAN_RX3_FUNC_ENABLE */
 811:Generated_Source\PSoC4/CAN_TX_RX_func.c **** 
 812:Generated_Source\PSoC4/CAN_TX_RX_func.c **** 
 813:Generated_Source\PSoC4/CAN_TX_RX_func.c **** #if (CAN_RX4_FUNC_ENABLE)
 814:Generated_Source\PSoC4/CAN_TX_RX_func.c ****     /*******************************************************************************
 815:Generated_Source\PSoC4/CAN_TX_RX_func.c ****     * FUNCTION NAME:   CAN_ReceiveMsgBMS_TEMPERATURES
 816:Generated_Source\PSoC4/CAN_TX_RX_func.c ****     ********************************************************************************
 817:Generated_Source\PSoC4/CAN_TX_RX_func.c ****     *
 818:Generated_Source\PSoC4/CAN_TX_RX_func.c ****     * Summary:
 819:Generated_Source\PSoC4/CAN_TX_RX_func.c ****     *  This function is the entry point to Receive Message 4 Interrupt. Clears the
 820:Generated_Source\PSoC4/CAN_TX_RX_func.c ****     *  Receive Message 4 interrupt flag. Generated only for the Receive mailbox
 821:Generated_Source\PSoC4/CAN_TX_RX_func.c ****     *  designed as Full.
 822:Generated_Source\PSoC4/CAN_TX_RX_func.c ****     *
 823:Generated_Source\PSoC4/CAN_TX_RX_func.c ****     * Parameters:
 824:Generated_Source\PSoC4/CAN_TX_RX_func.c ****     *  None.
ARM GAS  C:\Users\Melody\AppData\Local\Temp\cc3mk2Hg.s 			page 25


 825:Generated_Source\PSoC4/CAN_TX_RX_func.c ****     *
 826:Generated_Source\PSoC4/CAN_TX_RX_func.c ****     * Return:
 827:Generated_Source\PSoC4/CAN_TX_RX_func.c ****     *  None.
 828:Generated_Source\PSoC4/CAN_TX_RX_func.c ****     *
 829:Generated_Source\PSoC4/CAN_TX_RX_func.c ****     * Reentrant:
 830:Generated_Source\PSoC4/CAN_TX_RX_func.c ****     *  Depends on the Customer code.
 831:Generated_Source\PSoC4/CAN_TX_RX_func.c ****     *
 832:Generated_Source\PSoC4/CAN_TX_RX_func.c ****     *******************************************************************************/
 833:Generated_Source\PSoC4/CAN_TX_RX_func.c ****     void CAN_ReceiveMsgBMS_TEMPERATURES(void) 
 834:Generated_Source\PSoC4/CAN_TX_RX_func.c ****     {
 530              		.loc 1 834 0
 531              		.cfi_startproc
 532              		@ args = 0, pretend = 0, frame = 0
 533              		@ frame_needed = 0, uses_anonymous_args = 0
 534              		@ link register save eliminated.
 835:Generated_Source\PSoC4/CAN_TX_RX_func.c ****         /* `#START MESSAGE_BMS_TEMPERATURES_RECEIVED` */
 836:Generated_Source\PSoC4/CAN_TX_RX_func.c ****         PACK_TEMP = CAN_RX_DATA_BYTE8(CAN_RX_MAILBOX_BMS_TEMPERATURES);
 837:Generated_Source\PSoC4/CAN_TX_RX_func.c ****         /* `#END` */
 838:Generated_Source\PSoC4/CAN_TX_RX_func.c **** 
 839:Generated_Source\PSoC4/CAN_TX_RX_func.c ****         #ifdef CAN_RECEIVE_MSG_BMS_TEMPERATURES_CALLBACK
 840:Generated_Source\PSoC4/CAN_TX_RX_func.c ****             CAN_ReceiveMsg_BMS_TEMPERATURES_Callback();
 841:Generated_Source\PSoC4/CAN_TX_RX_func.c ****         #endif /* CAN_RECEIVE_MSG_BMS_TEMPERATURES_CALLBACK */
 842:Generated_Source\PSoC4/CAN_TX_RX_func.c **** 
 843:Generated_Source\PSoC4/CAN_TX_RX_func.c ****         CAN_RX_ACK_MESSAGE(4u);
 535              		.loc 1 843 0
 536 0000 0121     		movs	r1, #1
 836:Generated_Source\PSoC4/CAN_TX_RX_func.c ****         /* `#END` */
 537              		.loc 1 836 0
 538 0002 054B     		ldr	r3, .L68
 539 0004 054A     		ldr	r2, .L68+4
 540 0006 1B68     		ldr	r3, [r3]
 844:Generated_Source\PSoC4/CAN_TX_RX_func.c ****     }
 541              		.loc 1 844 0
 542              		@ sp needed
 836:Generated_Source\PSoC4/CAN_TX_RX_func.c ****         /* `#END` */
 543              		.loc 1 836 0
 544 0008 DBB2     		uxtb	r3, r3
 545 000a 1370     		strb	r3, [r2]
 843:Generated_Source\PSoC4/CAN_TX_RX_func.c ****     }
 546              		.loc 1 843 0
 547 000c 044A     		ldr	r2, .L68+8
 548 000e 1368     		ldr	r3, [r2]
 549 0010 0B43     		orrs	r3, r1
 550 0012 1360     		str	r3, [r2]
 551              		.loc 1 844 0
 552 0014 7047     		bx	lr
 553              	.L69:
 554 0016 C046     		.align	2
 555              	.L68:
 556 0018 2C012F40 		.word	1076822316
 557 001c 00000000 		.word	PACK_TEMP
 558 0020 20012F40 		.word	1076822304
 559              		.cfi_endproc
 560              	.LFE42:
 561              		.size	CAN_ReceiveMsgBMS_TEMPERATURES, .-CAN_ReceiveMsgBMS_TEMPERATURES
 562              		.section	.text.CAN_ReceiveMsgPEI_ESTOP,"ax",%progbits
 563              		.align	1
ARM GAS  C:\Users\Melody\AppData\Local\Temp\cc3mk2Hg.s 			page 26


 564              		.global	CAN_ReceiveMsgPEI_ESTOP
 565              		.code	16
 566              		.thumb_func
 567              		.type	CAN_ReceiveMsgPEI_ESTOP, %function
 568              	CAN_ReceiveMsgPEI_ESTOP:
 569              	.LFB43:
 845:Generated_Source\PSoC4/CAN_TX_RX_func.c **** #endif /* CAN_RX4_FUNC_ENABLE */
 846:Generated_Source\PSoC4/CAN_TX_RX_func.c **** 
 847:Generated_Source\PSoC4/CAN_TX_RX_func.c **** 
 848:Generated_Source\PSoC4/CAN_TX_RX_func.c **** #if (CAN_RX5_FUNC_ENABLE)
 849:Generated_Source\PSoC4/CAN_TX_RX_func.c ****     /*******************************************************************************
 850:Generated_Source\PSoC4/CAN_TX_RX_func.c ****     * FUNCTION NAME:   CAN_ReceiveMsgPEI_ESTOP
 851:Generated_Source\PSoC4/CAN_TX_RX_func.c ****     ********************************************************************************
 852:Generated_Source\PSoC4/CAN_TX_RX_func.c ****     *
 853:Generated_Source\PSoC4/CAN_TX_RX_func.c ****     * Summary:
 854:Generated_Source\PSoC4/CAN_TX_RX_func.c ****     *  This function is the entry point to Receive Message 5 Interrupt. Clears the
 855:Generated_Source\PSoC4/CAN_TX_RX_func.c ****     *  Receive Message 5 interrupt flag. Generated only for the Receive mailbox
 856:Generated_Source\PSoC4/CAN_TX_RX_func.c ****     *  designed as Full.
 857:Generated_Source\PSoC4/CAN_TX_RX_func.c ****     *
 858:Generated_Source\PSoC4/CAN_TX_RX_func.c ****     * Parameters:
 859:Generated_Source\PSoC4/CAN_TX_RX_func.c ****     *  None.
 860:Generated_Source\PSoC4/CAN_TX_RX_func.c ****     *
 861:Generated_Source\PSoC4/CAN_TX_RX_func.c ****     * Return:
 862:Generated_Source\PSoC4/CAN_TX_RX_func.c ****     *  None.
 863:Generated_Source\PSoC4/CAN_TX_RX_func.c ****     *
 864:Generated_Source\PSoC4/CAN_TX_RX_func.c ****     * Reentrant:
 865:Generated_Source\PSoC4/CAN_TX_RX_func.c ****     *  Depends on the Customer code.
 866:Generated_Source\PSoC4/CAN_TX_RX_func.c ****     *
 867:Generated_Source\PSoC4/CAN_TX_RX_func.c ****     *******************************************************************************/
 868:Generated_Source\PSoC4/CAN_TX_RX_func.c ****     void CAN_ReceiveMsgPEI_ESTOP(void) 
 869:Generated_Source\PSoC4/CAN_TX_RX_func.c ****     {
 570              		.loc 1 869 0
 571              		.cfi_startproc
 572              		@ args = 0, pretend = 0, frame = 0
 573              		@ frame_needed = 0, uses_anonymous_args = 0
 574              		@ link register save eliminated.
 870:Generated_Source\PSoC4/CAN_TX_RX_func.c ****         /* `#START MESSAGE_PEI_ESTOP_RECEIVED` */
 871:Generated_Source\PSoC4/CAN_TX_RX_func.c **** 
 872:Generated_Source\PSoC4/CAN_TX_RX_func.c ****         /* `#END` */
 873:Generated_Source\PSoC4/CAN_TX_RX_func.c **** 
 874:Generated_Source\PSoC4/CAN_TX_RX_func.c ****         #ifdef CAN_RECEIVE_MSG_PEI_ESTOP_CALLBACK
 875:Generated_Source\PSoC4/CAN_TX_RX_func.c ****             CAN_ReceiveMsg_PEI_ESTOP_Callback();
 876:Generated_Source\PSoC4/CAN_TX_RX_func.c ****         #endif /* CAN_RECEIVE_MSG_PEI_ESTOP_CALLBACK */
 877:Generated_Source\PSoC4/CAN_TX_RX_func.c **** 
 878:Generated_Source\PSoC4/CAN_TX_RX_func.c ****         CAN_RX_ACK_MESSAGE(5u);
 575              		.loc 1 878 0
 576 0000 0121     		movs	r1, #1
 577 0002 024A     		ldr	r2, .L71
 879:Generated_Source\PSoC4/CAN_TX_RX_func.c ****     }
 578              		.loc 1 879 0
 579              		@ sp needed
 878:Generated_Source\PSoC4/CAN_TX_RX_func.c ****     }
 580              		.loc 1 878 0
 581 0004 1368     		ldr	r3, [r2]
 582 0006 0B43     		orrs	r3, r1
 583 0008 1360     		str	r3, [r2]
 584              		.loc 1 879 0
ARM GAS  C:\Users\Melody\AppData\Local\Temp\cc3mk2Hg.s 			page 27


 585 000a 7047     		bx	lr
 586              	.L72:
 587              		.align	2
 588              	.L71:
 589 000c 40012F40 		.word	1076822336
 590              		.cfi_endproc
 591              	.LFE43:
 592              		.size	CAN_ReceiveMsgPEI_ESTOP, .-CAN_ReceiveMsgPEI_ESTOP
 593              		.section	.text.CAN_ReceiveMsgPEI_CURRENT_SHUTDOWN,"ax",%progbits
 594              		.align	1
 595              		.global	CAN_ReceiveMsgPEI_CURRENT_SHUTDOWN
 596              		.code	16
 597              		.thumb_func
 598              		.type	CAN_ReceiveMsgPEI_CURRENT_SHUTDOWN, %function
 599              	CAN_ReceiveMsgPEI_CURRENT_SHUTDOWN:
 600              	.LFB44:
 880:Generated_Source\PSoC4/CAN_TX_RX_func.c **** #endif /* CAN_RX5_FUNC_ENABLE */
 881:Generated_Source\PSoC4/CAN_TX_RX_func.c **** 
 882:Generated_Source\PSoC4/CAN_TX_RX_func.c **** 
 883:Generated_Source\PSoC4/CAN_TX_RX_func.c **** #if (CAN_RX6_FUNC_ENABLE)
 884:Generated_Source\PSoC4/CAN_TX_RX_func.c ****     /*******************************************************************************
 885:Generated_Source\PSoC4/CAN_TX_RX_func.c ****     * FUNCTION NAME:   CAN_ReceiveMsgPEI_CURRENT_SHUTDOWN
 886:Generated_Source\PSoC4/CAN_TX_RX_func.c ****     ********************************************************************************
 887:Generated_Source\PSoC4/CAN_TX_RX_func.c ****     *
 888:Generated_Source\PSoC4/CAN_TX_RX_func.c ****     * Summary:
 889:Generated_Source\PSoC4/CAN_TX_RX_func.c ****     *  This function is the entry point to Receive Message 6 Interrupt. Clears the
 890:Generated_Source\PSoC4/CAN_TX_RX_func.c ****     *  Receive Message 6 interrupt flag. Generated only for the Receive mailbox
 891:Generated_Source\PSoC4/CAN_TX_RX_func.c ****     *  designed as Full.
 892:Generated_Source\PSoC4/CAN_TX_RX_func.c ****     *
 893:Generated_Source\PSoC4/CAN_TX_RX_func.c ****     * Parameters:
 894:Generated_Source\PSoC4/CAN_TX_RX_func.c ****     *  None.
 895:Generated_Source\PSoC4/CAN_TX_RX_func.c ****     *
 896:Generated_Source\PSoC4/CAN_TX_RX_func.c ****     * Return:
 897:Generated_Source\PSoC4/CAN_TX_RX_func.c ****     *  None.
 898:Generated_Source\PSoC4/CAN_TX_RX_func.c ****     *
 899:Generated_Source\PSoC4/CAN_TX_RX_func.c ****     * Reentrant:
 900:Generated_Source\PSoC4/CAN_TX_RX_func.c ****     *  Depends on the Customer code.
 901:Generated_Source\PSoC4/CAN_TX_RX_func.c ****     *
 902:Generated_Source\PSoC4/CAN_TX_RX_func.c ****     *******************************************************************************/
 903:Generated_Source\PSoC4/CAN_TX_RX_func.c ****     void CAN_ReceiveMsgPEI_CURRENT_SHUTDOWN(void) 
 904:Generated_Source\PSoC4/CAN_TX_RX_func.c ****     {
 601              		.loc 1 904 0
 602              		.cfi_startproc
 603              		@ args = 0, pretend = 0, frame = 0
 604              		@ frame_needed = 0, uses_anonymous_args = 0
 905:Generated_Source\PSoC4/CAN_TX_RX_func.c ****         /* `#START MESSAGE_PEI_CURRENT_SHUTDOWN_RECEIVED` */
 906:Generated_Source\PSoC4/CAN_TX_RX_func.c ****         CURRENT = CAN_RX_DATA_BYTE1(CAN_RX_MAILBOX_PEI_CURRENT_SHUTDOWN) << 8; // BYTE #s start at 
 605              		.loc 1 906 0
 606 0000 0B49     		ldr	r1, .L74
 607 0002 0C48     		ldr	r0, .L74+4
 608 0004 0B68     		ldr	r3, [r1]
 904:Generated_Source\PSoC4/CAN_TX_RX_func.c ****         /* `#START MESSAGE_PEI_CURRENT_SHUTDOWN_RECEIVED` */
 609              		.loc 1 904 0
 610 0006 10B5     		push	{r4, lr}
 611              		.cfi_def_cfa_offset 8
 612              		.cfi_offset 4, -8
 613              		.cfi_offset 14, -4
ARM GAS  C:\Users\Melody\AppData\Local\Temp\cc3mk2Hg.s 			page 28


 614              		.loc 1 906 0
 615 0008 1B0E     		lsrs	r3, r3, #24
 616 000a 1B02     		lsls	r3, r3, #8
 617 000c 0380     		strh	r3, [r0]
 907:Generated_Source\PSoC4/CAN_TX_RX_func.c ****         CURRENT |= CAN_RX_DATA_BYTE2(CAN_RX_MAILBOX_PEI_CURRENT_SHUTDOWN);
 618              		.loc 1 907 0
 619 000e 0A68     		ldr	r2, [r1]
 620 0010 0488     		ldrh	r4, [r0]
 621 0012 120C     		lsrs	r2, r2, #16
 622 0014 D3B2     		uxtb	r3, r2
 623 0016 2343     		orrs	r3, r4
 624 0018 0380     		strh	r3, [r0]
 908:Generated_Source\PSoC4/CAN_TX_RX_func.c ****         shutdown_flags = CAN_RX_DATA_BYTE3(CAN_RX_MAILBOX_PEI_CURRENT_SHUTDOWN);
 625              		.loc 1 908 0
 626 001a 0B68     		ldr	r3, [r1]
 909:Generated_Source\PSoC4/CAN_TX_RX_func.c ****         /* `#END` */
 910:Generated_Source\PSoC4/CAN_TX_RX_func.c **** 
 911:Generated_Source\PSoC4/CAN_TX_RX_func.c ****         #ifdef CAN_RECEIVE_MSG_PEI_CURRENT_SHUTDOWN_CALLBACK
 912:Generated_Source\PSoC4/CAN_TX_RX_func.c ****             CAN_ReceiveMsg_PEI_CURRENT_SHUTDOWN_Callback();
 913:Generated_Source\PSoC4/CAN_TX_RX_func.c ****         #endif /* CAN_RECEIVE_MSG_PEI_CURRENT_SHUTDOWN_CALLBACK */
 914:Generated_Source\PSoC4/CAN_TX_RX_func.c **** 
 915:Generated_Source\PSoC4/CAN_TX_RX_func.c ****         CAN_RX_ACK_MESSAGE(6u);
 627              		.loc 1 915 0
 628 001c 0121     		movs	r1, #1
 908:Generated_Source\PSoC4/CAN_TX_RX_func.c ****         shutdown_flags = CAN_RX_DATA_BYTE3(CAN_RX_MAILBOX_PEI_CURRENT_SHUTDOWN);
 629              		.loc 1 908 0
 630 001e 064A     		ldr	r2, .L74+8
 631 0020 1B0A     		lsrs	r3, r3, #8
 632 0022 DBB2     		uxtb	r3, r3
 633 0024 1370     		strb	r3, [r2]
 634              		.loc 1 915 0
 635 0026 054A     		ldr	r2, .L74+12
 916:Generated_Source\PSoC4/CAN_TX_RX_func.c ****     }
 636              		.loc 1 916 0
 637              		@ sp needed
 915:Generated_Source\PSoC4/CAN_TX_RX_func.c ****     }
 638              		.loc 1 915 0
 639 0028 1368     		ldr	r3, [r2]
 640 002a 0B43     		orrs	r3, r1
 641 002c 1360     		str	r3, [r2]
 642              		.loc 1 916 0
 643 002e 10BD     		pop	{r4, pc}
 644              	.L75:
 645              		.align	2
 646              	.L74:
 647 0030 68012F40 		.word	1076822376
 648 0034 00000000 		.word	CURRENT
 649 0038 00000000 		.word	shutdown_flags
 650 003c 60012F40 		.word	1076822368
 651              		.cfi_endproc
 652              	.LFE44:
 653              		.size	CAN_ReceiveMsgPEI_CURRENT_SHUTDOWN, .-CAN_ReceiveMsgPEI_CURRENT_SHUTDOWN
 654              		.section	.text.CAN_ReceiveMsgMC_VOLTAGE_INFO,"ax",%progbits
 655              		.align	1
 656              		.global	CAN_ReceiveMsgMC_VOLTAGE_INFO
 657              		.code	16
 658              		.thumb_func
ARM GAS  C:\Users\Melody\AppData\Local\Temp\cc3mk2Hg.s 			page 29


 659              		.type	CAN_ReceiveMsgMC_VOLTAGE_INFO, %function
 660              	CAN_ReceiveMsgMC_VOLTAGE_INFO:
 661              	.LFB45:
 917:Generated_Source\PSoC4/CAN_TX_RX_func.c **** #endif /* CAN_RX6_FUNC_ENABLE */
 918:Generated_Source\PSoC4/CAN_TX_RX_func.c **** 
 919:Generated_Source\PSoC4/CAN_TX_RX_func.c **** 
 920:Generated_Source\PSoC4/CAN_TX_RX_func.c **** #if (CAN_RX7_FUNC_ENABLE)
 921:Generated_Source\PSoC4/CAN_TX_RX_func.c ****     /*******************************************************************************
 922:Generated_Source\PSoC4/CAN_TX_RX_func.c ****     * FUNCTION NAME:   CAN_ReceiveMsgMC_VOLTAGE_INFO
 923:Generated_Source\PSoC4/CAN_TX_RX_func.c ****     ********************************************************************************
 924:Generated_Source\PSoC4/CAN_TX_RX_func.c ****     *
 925:Generated_Source\PSoC4/CAN_TX_RX_func.c ****     * Summary:
 926:Generated_Source\PSoC4/CAN_TX_RX_func.c ****     *  This function is the entry point to Receive Message 7 Interrupt. Clears the
 927:Generated_Source\PSoC4/CAN_TX_RX_func.c ****     *  Receive Message 7 interrupt flag. Generated only for the Receive mailbox
 928:Generated_Source\PSoC4/CAN_TX_RX_func.c ****     *  designed as Full.
 929:Generated_Source\PSoC4/CAN_TX_RX_func.c ****     *
 930:Generated_Source\PSoC4/CAN_TX_RX_func.c ****     * Parameters:
 931:Generated_Source\PSoC4/CAN_TX_RX_func.c ****     *  None.
 932:Generated_Source\PSoC4/CAN_TX_RX_func.c ****     *
 933:Generated_Source\PSoC4/CAN_TX_RX_func.c ****     * Return:
 934:Generated_Source\PSoC4/CAN_TX_RX_func.c ****     *  None.
 935:Generated_Source\PSoC4/CAN_TX_RX_func.c ****     *
 936:Generated_Source\PSoC4/CAN_TX_RX_func.c ****     * Reentrant:
 937:Generated_Source\PSoC4/CAN_TX_RX_func.c ****     *  Depends on the Customer code.
 938:Generated_Source\PSoC4/CAN_TX_RX_func.c ****     *
 939:Generated_Source\PSoC4/CAN_TX_RX_func.c ****     *******************************************************************************/
 940:Generated_Source\PSoC4/CAN_TX_RX_func.c ****     void CAN_ReceiveMsgMC_VOLTAGE_INFO(void) 
 941:Generated_Source\PSoC4/CAN_TX_RX_func.c ****     {
 662              		.loc 1 941 0
 663              		.cfi_startproc
 664              		@ args = 0, pretend = 0, frame = 0
 665              		@ frame_needed = 0, uses_anonymous_args = 0
 666              		@ link register save eliminated.
 942:Generated_Source\PSoC4/CAN_TX_RX_func.c ****         /* `#START MESSAGE_MC_VOLTAGE_INFO_RECEIVED` */
 943:Generated_Source\PSoC4/CAN_TX_RX_func.c ****         CAPACITOR_VOLT = CAN_RX_DATA_BYTE1(CAN_RX_MAILBOX_MC_VOLTAGE_INFO) << 8; // upper bits
 667              		.loc 1 943 0
 668 0000 0021     		movs	r1, #0
 669 0002 084B     		ldr	r3, .L77
 944:Generated_Source\PSoC4/CAN_TX_RX_func.c ****         CAPACITOR_VOLT |= CAN_RX_DATA_BYTE2(CAN_RX_MAILBOX_MC_VOLTAGE_INFO); // lower bits
 945:Generated_Source\PSoC4/CAN_TX_RX_func.c ****         /* `#END` */
 946:Generated_Source\PSoC4/CAN_TX_RX_func.c **** 
 947:Generated_Source\PSoC4/CAN_TX_RX_func.c ****         #ifdef CAN_RECEIVE_MSG_MC_VOLTAGE_INFO_CALLBACK
 948:Generated_Source\PSoC4/CAN_TX_RX_func.c ****             CAN_ReceiveMsg_MC_VOLTAGE_INFO_Callback();
 949:Generated_Source\PSoC4/CAN_TX_RX_func.c ****         #endif /* CAN_RECEIVE_MSG_MC_VOLTAGE_INFO_CALLBACK */
 950:Generated_Source\PSoC4/CAN_TX_RX_func.c **** 
 951:Generated_Source\PSoC4/CAN_TX_RX_func.c ****         CAN_RX_ACK_MESSAGE(7u);
 952:Generated_Source\PSoC4/CAN_TX_RX_func.c ****     }
 670              		.loc 1 952 0
 671              		@ sp needed
 943:Generated_Source\PSoC4/CAN_TX_RX_func.c ****         CAPACITOR_VOLT |= CAN_RX_DATA_BYTE2(CAN_RX_MAILBOX_MC_VOLTAGE_INFO); // lower bits
 672              		.loc 1 943 0
 673 0004 1A68     		ldr	r2, [r3]
 674 0006 084A     		ldr	r2, .L77+4
 675 0008 1170     		strb	r1, [r2]
 944:Generated_Source\PSoC4/CAN_TX_RX_func.c ****         CAPACITOR_VOLT |= CAN_RX_DATA_BYTE2(CAN_RX_MAILBOX_MC_VOLTAGE_INFO); // lower bits
 676              		.loc 1 944 0
 677 000a 1B68     		ldr	r3, [r3]
ARM GAS  C:\Users\Melody\AppData\Local\Temp\cc3mk2Hg.s 			page 30


 678 000c 1178     		ldrb	r1, [r2]
 679 000e 1B0C     		lsrs	r3, r3, #16
 680 0010 0B43     		orrs	r3, r1
 951:Generated_Source\PSoC4/CAN_TX_RX_func.c ****     }
 681              		.loc 1 951 0
 682 0012 0121     		movs	r1, #1
 944:Generated_Source\PSoC4/CAN_TX_RX_func.c ****         CAPACITOR_VOLT |= CAN_RX_DATA_BYTE2(CAN_RX_MAILBOX_MC_VOLTAGE_INFO); // lower bits
 683              		.loc 1 944 0
 684 0014 DBB2     		uxtb	r3, r3
 685 0016 1370     		strb	r3, [r2]
 951:Generated_Source\PSoC4/CAN_TX_RX_func.c ****     }
 686              		.loc 1 951 0
 687 0018 044A     		ldr	r2, .L77+8
 688 001a 1368     		ldr	r3, [r2]
 689 001c 0B43     		orrs	r3, r1
 690 001e 1360     		str	r3, [r2]
 691              		.loc 1 952 0
 692 0020 7047     		bx	lr
 693              	.L78:
 694 0022 C046     		.align	2
 695              	.L77:
 696 0024 88012F40 		.word	1076822408
 697 0028 00000000 		.word	CAPACITOR_VOLT
 698 002c 80012F40 		.word	1076822400
 699              		.cfi_endproc
 700              	.LFE45:
 701              		.size	CAN_ReceiveMsgMC_VOLTAGE_INFO, .-CAN_ReceiveMsgMC_VOLTAGE_INFO
 702              		.section	.text.CAN_ReceiveMsgMC_INTERNAL_STATES,"ax",%progbits
 703              		.align	1
 704              		.global	CAN_ReceiveMsgMC_INTERNAL_STATES
 705              		.code	16
 706              		.thumb_func
 707              		.type	CAN_ReceiveMsgMC_INTERNAL_STATES, %function
 708              	CAN_ReceiveMsgMC_INTERNAL_STATES:
 709              	.LFB46:
 953:Generated_Source\PSoC4/CAN_TX_RX_func.c **** #endif /* CAN_RX7_FUNC_ENABLE */
 954:Generated_Source\PSoC4/CAN_TX_RX_func.c **** 
 955:Generated_Source\PSoC4/CAN_TX_RX_func.c **** 
 956:Generated_Source\PSoC4/CAN_TX_RX_func.c **** #if (CAN_RX8_FUNC_ENABLE)
 957:Generated_Source\PSoC4/CAN_TX_RX_func.c ****     /*******************************************************************************
 958:Generated_Source\PSoC4/CAN_TX_RX_func.c ****     * FUNCTION NAME:   CAN_ReceiveMsgMC_INTERNAL_STATES
 959:Generated_Source\PSoC4/CAN_TX_RX_func.c ****     ********************************************************************************
 960:Generated_Source\PSoC4/CAN_TX_RX_func.c ****     *
 961:Generated_Source\PSoC4/CAN_TX_RX_func.c ****     * Summary:
 962:Generated_Source\PSoC4/CAN_TX_RX_func.c ****     *  This function is the entry point to Receive Message 8 Interrupt. Clears the
 963:Generated_Source\PSoC4/CAN_TX_RX_func.c ****     *  Receive Message 8 interrupt flag. Generated only for the Receive mailbox
 964:Generated_Source\PSoC4/CAN_TX_RX_func.c ****     *  designed as Full.
 965:Generated_Source\PSoC4/CAN_TX_RX_func.c ****     *
 966:Generated_Source\PSoC4/CAN_TX_RX_func.c ****     * Parameters:
 967:Generated_Source\PSoC4/CAN_TX_RX_func.c ****     *  None.
 968:Generated_Source\PSoC4/CAN_TX_RX_func.c ****     *
 969:Generated_Source\PSoC4/CAN_TX_RX_func.c ****     * Return:
 970:Generated_Source\PSoC4/CAN_TX_RX_func.c ****     *  None.
 971:Generated_Source\PSoC4/CAN_TX_RX_func.c ****     *
 972:Generated_Source\PSoC4/CAN_TX_RX_func.c ****     * Reentrant:
 973:Generated_Source\PSoC4/CAN_TX_RX_func.c ****     *  Depends on the Customer code.
 974:Generated_Source\PSoC4/CAN_TX_RX_func.c ****     *
ARM GAS  C:\Users\Melody\AppData\Local\Temp\cc3mk2Hg.s 			page 31


 975:Generated_Source\PSoC4/CAN_TX_RX_func.c ****     *******************************************************************************/
 976:Generated_Source\PSoC4/CAN_TX_RX_func.c ****     void CAN_ReceiveMsgMC_INTERNAL_STATES(void) 
 977:Generated_Source\PSoC4/CAN_TX_RX_func.c ****     {
 710              		.loc 1 977 0
 711              		.cfi_startproc
 712              		@ args = 0, pretend = 0, frame = 0
 713              		@ frame_needed = 0, uses_anonymous_args = 0
 714              		@ link register save eliminated.
 978:Generated_Source\PSoC4/CAN_TX_RX_func.c ****         /* `#START MESSAGE_MC_INTERNAL_STATES_RECEIVED` */
 979:Generated_Source\PSoC4/CAN_TX_RX_func.c **** 
 980:Generated_Source\PSoC4/CAN_TX_RX_func.c ****         /* `#END` */
 981:Generated_Source\PSoC4/CAN_TX_RX_func.c **** 
 982:Generated_Source\PSoC4/CAN_TX_RX_func.c ****         #ifdef CAN_RECEIVE_MSG_MC_INTERNAL_STATES_CALLBACK
 983:Generated_Source\PSoC4/CAN_TX_RX_func.c ****             CAN_ReceiveMsg_MC_INTERNAL_STATES_Callback();
 984:Generated_Source\PSoC4/CAN_TX_RX_func.c ****         #endif /* CAN_RECEIVE_MSG_MC_INTERNAL_STATES_CALLBACK */
 985:Generated_Source\PSoC4/CAN_TX_RX_func.c **** 
 986:Generated_Source\PSoC4/CAN_TX_RX_func.c ****         CAN_RX_ACK_MESSAGE(8u);
 715              		.loc 1 986 0
 716 0000 0121     		movs	r1, #1
 717 0002 024A     		ldr	r2, .L80
 987:Generated_Source\PSoC4/CAN_TX_RX_func.c ****     }
 718              		.loc 1 987 0
 719              		@ sp needed
 986:Generated_Source\PSoC4/CAN_TX_RX_func.c ****     }
 720              		.loc 1 986 0
 721 0004 1368     		ldr	r3, [r2]
 722 0006 0B43     		orrs	r3, r1
 723 0008 1360     		str	r3, [r2]
 724              		.loc 1 987 0
 725 000a 7047     		bx	lr
 726              	.L81:
 727              		.align	2
 728              	.L80:
 729 000c A0012F40 		.word	1076822432
 730              		.cfi_endproc
 731              	.LFE46:
 732              		.size	CAN_ReceiveMsgMC_INTERNAL_STATES, .-CAN_ReceiveMsgMC_INTERNAL_STATES
 733              		.text
 734              	.Letext0:
 735              		.file 2 "c:\\program files (x86)\\cypress\\psoc creator\\4.4\\psoc creator\\import\\gnu\\arm\\5.4.
 736              		.file 3 "c:\\program files (x86)\\cypress\\psoc creator\\4.4\\psoc creator\\import\\gnu\\arm\\5.4.
 737              		.file 4 "Generated_Source\\PSoC4\\cytypes.h"
 738              		.file 5 "Generated_Source\\PSoC4\\CAN.h"
 739              		.file 6 "./data.h"
 740              		.file 7 "Generated_Source\\PSoC4\\CyLib.h"