ARM GAS  C:\Users\leoja\AppData\Local\Temp\ccqDtOdQ.s 			page 1


   1              		.syntax unified
   2              		.cpu cortex-m0
   3              		.fpu softvfp
   4              		.eabi_attribute 20, 1
   5              		.eabi_attribute 21, 1
   6              		.eabi_attribute 23, 3
   7              		.eabi_attribute 24, 1
   8              		.eabi_attribute 25, 1
   9              		.eabi_attribute 26, 1
  10              		.eabi_attribute 30, 4
  11              		.eabi_attribute 34, 0
  12              		.eabi_attribute 18, 4
  13              		.thumb
  14              		.syntax unified
  15              		.file	"cyfitter_cfg.c"
  16              		.text
  17              	.Ltext0:
  18              		.cfi_sections	.debug_frame
  19              		.section	.text.SetAnalogRoutingPumps,"ax",%progbits
  20              		.align	1
  21              		.global	SetAnalogRoutingPumps
  22              		.code	16
  23              		.thumb_func
  24              		.type	SetAnalogRoutingPumps, %function
  25              	SetAnalogRoutingPumps:
  26              	.LFB7:
  27              		.file 1 "Generated_Source\\PSoC4\\cyfitter_cfg.c"
   1:Generated_Source\PSoC4/cyfitter_cfg.c **** 
   2:Generated_Source\PSoC4/cyfitter_cfg.c **** /*******************************************************************************
   3:Generated_Source\PSoC4/cyfitter_cfg.c **** * File Name: cyfitter_cfg.c
   4:Generated_Source\PSoC4/cyfitter_cfg.c **** * 
   5:Generated_Source\PSoC4/cyfitter_cfg.c **** * PSoC Creator  4.4
   6:Generated_Source\PSoC4/cyfitter_cfg.c **** *
   7:Generated_Source\PSoC4/cyfitter_cfg.c **** * Description:
   8:Generated_Source\PSoC4/cyfitter_cfg.c **** * This file contains device initialization code.
   9:Generated_Source\PSoC4/cyfitter_cfg.c **** * Except for the user defined sections in CyClockStartupError(), this file should not be modified.
  10:Generated_Source\PSoC4/cyfitter_cfg.c **** * This file is automatically generated by PSoC Creator.
  11:Generated_Source\PSoC4/cyfitter_cfg.c **** *
  12:Generated_Source\PSoC4/cyfitter_cfg.c **** ********************************************************************************
  13:Generated_Source\PSoC4/cyfitter_cfg.c **** * Copyright (c) 2007-2020 Cypress Semiconductor.  All rights reserved.
  14:Generated_Source\PSoC4/cyfitter_cfg.c **** * You may use this file only in accordance with the license, terms, conditions, 
  15:Generated_Source\PSoC4/cyfitter_cfg.c **** * disclaimers, and limitations in the end user license agreement accompanying 
  16:Generated_Source\PSoC4/cyfitter_cfg.c **** * the software package with which this file was provided.
  17:Generated_Source\PSoC4/cyfitter_cfg.c **** ********************************************************************************/
  18:Generated_Source\PSoC4/cyfitter_cfg.c **** 
  19:Generated_Source\PSoC4/cyfitter_cfg.c **** #include <string.h>
  20:Generated_Source\PSoC4/cyfitter_cfg.c **** #include "cytypes.h"
  21:Generated_Source\PSoC4/cyfitter_cfg.c **** #include "cydevice_trm.h"
  22:Generated_Source\PSoC4/cyfitter_cfg.c **** #include "cyfitter.h"
  23:Generated_Source\PSoC4/cyfitter_cfg.c **** #include "CyLib.h"
  24:Generated_Source\PSoC4/cyfitter_cfg.c **** #include "CyLFClk.h"
  25:Generated_Source\PSoC4/cyfitter_cfg.c **** #include "cyfitter_cfg.h"
  26:Generated_Source\PSoC4/cyfitter_cfg.c **** #include "cyapicallbacks.h"
  27:Generated_Source\PSoC4/cyfitter_cfg.c **** 
  28:Generated_Source\PSoC4/cyfitter_cfg.c **** 
  29:Generated_Source\PSoC4/cyfitter_cfg.c **** #if defined(__GNUC__) || defined(__ARMCC_VERSION)
  30:Generated_Source\PSoC4/cyfitter_cfg.c ****     #define CYPACKED 
ARM GAS  C:\Users\leoja\AppData\Local\Temp\ccqDtOdQ.s 			page 2


  31:Generated_Source\PSoC4/cyfitter_cfg.c ****     #define CYPACKED_ATTR __attribute__ ((packed))
  32:Generated_Source\PSoC4/cyfitter_cfg.c ****     #define CYALIGNED __attribute__ ((aligned))
  33:Generated_Source\PSoC4/cyfitter_cfg.c ****     #define CY_CFG_UNUSED __attribute__ ((unused))
  34:Generated_Source\PSoC4/cyfitter_cfg.c ****     #ifndef CY_CFG_SECTION
  35:Generated_Source\PSoC4/cyfitter_cfg.c ****         #define CY_CFG_SECTION __attribute__ ((section(".psocinit")))
  36:Generated_Source\PSoC4/cyfitter_cfg.c ****     #endif
  37:Generated_Source\PSoC4/cyfitter_cfg.c ****     
  38:Generated_Source\PSoC4/cyfitter_cfg.c ****     #if defined(__ARMCC_VERSION)
  39:Generated_Source\PSoC4/cyfitter_cfg.c ****         #define CY_CFG_MEMORY_BARRIER() __memory_changed()
  40:Generated_Source\PSoC4/cyfitter_cfg.c ****     #else
  41:Generated_Source\PSoC4/cyfitter_cfg.c ****         #define CY_CFG_MEMORY_BARRIER() __sync_synchronize()
  42:Generated_Source\PSoC4/cyfitter_cfg.c ****     #endif
  43:Generated_Source\PSoC4/cyfitter_cfg.c ****     
  44:Generated_Source\PSoC4/cyfitter_cfg.c **** #elif defined(__ICCARM__)
  45:Generated_Source\PSoC4/cyfitter_cfg.c ****     #include <intrinsics.h>
  46:Generated_Source\PSoC4/cyfitter_cfg.c **** 
  47:Generated_Source\PSoC4/cyfitter_cfg.c ****     #define CYPACKED __packed
  48:Generated_Source\PSoC4/cyfitter_cfg.c ****     #define CYPACKED_ATTR 
  49:Generated_Source\PSoC4/cyfitter_cfg.c ****     #define CYALIGNED _Pragma("data_alignment=4")
  50:Generated_Source\PSoC4/cyfitter_cfg.c ****     #define CY_CFG_UNUSED _Pragma("diag_suppress=Pe177")
  51:Generated_Source\PSoC4/cyfitter_cfg.c ****     #define CY_CFG_SECTION _Pragma("location=\".psocinit\"")
  52:Generated_Source\PSoC4/cyfitter_cfg.c ****     
  53:Generated_Source\PSoC4/cyfitter_cfg.c ****     #define CY_CFG_MEMORY_BARRIER() __DMB()
  54:Generated_Source\PSoC4/cyfitter_cfg.c ****     
  55:Generated_Source\PSoC4/cyfitter_cfg.c **** #else
  56:Generated_Source\PSoC4/cyfitter_cfg.c ****     #error Unsupported toolchain
  57:Generated_Source\PSoC4/cyfitter_cfg.c **** #endif
  58:Generated_Source\PSoC4/cyfitter_cfg.c **** 
  59:Generated_Source\PSoC4/cyfitter_cfg.c **** #ifndef CYCODE
  60:Generated_Source\PSoC4/cyfitter_cfg.c ****     #define CYCODE
  61:Generated_Source\PSoC4/cyfitter_cfg.c **** #endif
  62:Generated_Source\PSoC4/cyfitter_cfg.c **** #ifndef CYDATA
  63:Generated_Source\PSoC4/cyfitter_cfg.c ****     #define CYDATA
  64:Generated_Source\PSoC4/cyfitter_cfg.c **** #endif
  65:Generated_Source\PSoC4/cyfitter_cfg.c **** #ifndef CYFAR
  66:Generated_Source\PSoC4/cyfitter_cfg.c ****     #define CYFAR
  67:Generated_Source\PSoC4/cyfitter_cfg.c **** #endif
  68:Generated_Source\PSoC4/cyfitter_cfg.c **** #ifndef CYXDATA
  69:Generated_Source\PSoC4/cyfitter_cfg.c ****     #define CYXDATA
  70:Generated_Source\PSoC4/cyfitter_cfg.c **** #endif
  71:Generated_Source\PSoC4/cyfitter_cfg.c **** 
  72:Generated_Source\PSoC4/cyfitter_cfg.c **** 
  73:Generated_Source\PSoC4/cyfitter_cfg.c **** CY_CFG_UNUSED
  74:Generated_Source\PSoC4/cyfitter_cfg.c **** static void CYMEMZERO(void *s, size_t n);
  75:Generated_Source\PSoC4/cyfitter_cfg.c **** CY_CFG_UNUSED
  76:Generated_Source\PSoC4/cyfitter_cfg.c **** static void CYMEMZERO(void *s, size_t n)
  77:Generated_Source\PSoC4/cyfitter_cfg.c **** {
  78:Generated_Source\PSoC4/cyfitter_cfg.c **** 	(void)memset(s, 0, n);
  79:Generated_Source\PSoC4/cyfitter_cfg.c **** }
  80:Generated_Source\PSoC4/cyfitter_cfg.c **** CY_CFG_UNUSED
  81:Generated_Source\PSoC4/cyfitter_cfg.c **** static void CYCONFIGCPY(void *dest, const void *src, size_t n);
  82:Generated_Source\PSoC4/cyfitter_cfg.c **** CY_CFG_UNUSED
  83:Generated_Source\PSoC4/cyfitter_cfg.c **** static void CYCONFIGCPY(void *dest, const void *src, size_t n)
  84:Generated_Source\PSoC4/cyfitter_cfg.c **** {
  85:Generated_Source\PSoC4/cyfitter_cfg.c **** 	(void)memcpy(dest, src, n);
  86:Generated_Source\PSoC4/cyfitter_cfg.c **** }
  87:Generated_Source\PSoC4/cyfitter_cfg.c **** CY_CFG_UNUSED
ARM GAS  C:\Users\leoja\AppData\Local\Temp\ccqDtOdQ.s 			page 3


  88:Generated_Source\PSoC4/cyfitter_cfg.c **** static void CYCONFIGCPYCODE(void *dest, const void *src, size_t n);
  89:Generated_Source\PSoC4/cyfitter_cfg.c **** CY_CFG_UNUSED
  90:Generated_Source\PSoC4/cyfitter_cfg.c **** static void CYCONFIGCPYCODE(void *dest, const void *src, size_t n)
  91:Generated_Source\PSoC4/cyfitter_cfg.c **** {
  92:Generated_Source\PSoC4/cyfitter_cfg.c **** 	(void)memcpy(dest, src, n);
  93:Generated_Source\PSoC4/cyfitter_cfg.c **** }
  94:Generated_Source\PSoC4/cyfitter_cfg.c **** 
  95:Generated_Source\PSoC4/cyfitter_cfg.c **** 
  96:Generated_Source\PSoC4/cyfitter_cfg.c **** 
  97:Generated_Source\PSoC4/cyfitter_cfg.c **** 
  98:Generated_Source\PSoC4/cyfitter_cfg.c **** /* Clock startup error codes                                                   */
  99:Generated_Source\PSoC4/cyfitter_cfg.c **** #define CYCLOCKSTART_NO_ERROR    0u
 100:Generated_Source\PSoC4/cyfitter_cfg.c **** #define CYCLOCKSTART_XTAL_ERROR  1u
 101:Generated_Source\PSoC4/cyfitter_cfg.c **** #define CYCLOCKSTART_32KHZ_ERROR 2u
 102:Generated_Source\PSoC4/cyfitter_cfg.c **** #define CYCLOCKSTART_PLL_ERROR   3u
 103:Generated_Source\PSoC4/cyfitter_cfg.c **** #define CYCLOCKSTART_FLL_ERROR   4u
 104:Generated_Source\PSoC4/cyfitter_cfg.c **** #define CYCLOCKSTART_WCO_ERROR   5u
 105:Generated_Source\PSoC4/cyfitter_cfg.c **** 
 106:Generated_Source\PSoC4/cyfitter_cfg.c **** 
 107:Generated_Source\PSoC4/cyfitter_cfg.c **** #ifdef CY_NEED_CYCLOCKSTARTUPERROR
 108:Generated_Source\PSoC4/cyfitter_cfg.c **** /*******************************************************************************
 109:Generated_Source\PSoC4/cyfitter_cfg.c **** * Function Name: CyClockStartupError
 110:Generated_Source\PSoC4/cyfitter_cfg.c **** ********************************************************************************
 111:Generated_Source\PSoC4/cyfitter_cfg.c **** * Summary:
 112:Generated_Source\PSoC4/cyfitter_cfg.c **** *  If an error is encountered during clock configuration (crystal startup error,
 113:Generated_Source\PSoC4/cyfitter_cfg.c **** *  PLL lock error, etc.), the system will end up here.  Unless reimplemented by
 114:Generated_Source\PSoC4/cyfitter_cfg.c **** *  the customer, this function will stop in an infinite loop.
 115:Generated_Source\PSoC4/cyfitter_cfg.c **** *
 116:Generated_Source\PSoC4/cyfitter_cfg.c **** * Parameters:
 117:Generated_Source\PSoC4/cyfitter_cfg.c **** *   void
 118:Generated_Source\PSoC4/cyfitter_cfg.c **** *
 119:Generated_Source\PSoC4/cyfitter_cfg.c **** * Return:
 120:Generated_Source\PSoC4/cyfitter_cfg.c **** *   void
 121:Generated_Source\PSoC4/cyfitter_cfg.c **** *
 122:Generated_Source\PSoC4/cyfitter_cfg.c **** *******************************************************************************/
 123:Generated_Source\PSoC4/cyfitter_cfg.c **** CY_CFG_UNUSED
 124:Generated_Source\PSoC4/cyfitter_cfg.c **** static void CyClockStartupError(uint8 errorCode);
 125:Generated_Source\PSoC4/cyfitter_cfg.c **** CY_CFG_UNUSED
 126:Generated_Source\PSoC4/cyfitter_cfg.c **** static void CyClockStartupError(uint8 errorCode)
 127:Generated_Source\PSoC4/cyfitter_cfg.c **** {
 128:Generated_Source\PSoC4/cyfitter_cfg.c ****     /* To remove the compiler warning if errorCode not used.                */
 129:Generated_Source\PSoC4/cyfitter_cfg.c ****     errorCode = errorCode;
 130:Generated_Source\PSoC4/cyfitter_cfg.c **** 
 131:Generated_Source\PSoC4/cyfitter_cfg.c ****     /* If we have a clock startup error (bad MHz crystal, PLL lock, etc.),  */
 132:Generated_Source\PSoC4/cyfitter_cfg.c ****     /* we will end up here to allow the customer to implement something to  */
 133:Generated_Source\PSoC4/cyfitter_cfg.c ****     /* deal with the clock condition.                                       */
 134:Generated_Source\PSoC4/cyfitter_cfg.c **** 
 135:Generated_Source\PSoC4/cyfitter_cfg.c **** #ifdef CY_CFG_CLOCK_STARTUP_ERROR_CALLBACK
 136:Generated_Source\PSoC4/cyfitter_cfg.c ****     CY_CFG_Clock_Startup_ErrorCallback();
 137:Generated_Source\PSoC4/cyfitter_cfg.c **** #else
 138:Generated_Source\PSoC4/cyfitter_cfg.c ****     /*  If not using CY_CFG_CLOCK_STARTUP_ERROR_CALLBACK, place your clock startup code here. */
 139:Generated_Source\PSoC4/cyfitter_cfg.c ****     /* `#START CyClockStartupError` */
 140:Generated_Source\PSoC4/cyfitter_cfg.c **** 
 141:Generated_Source\PSoC4/cyfitter_cfg.c **** 
 142:Generated_Source\PSoC4/cyfitter_cfg.c **** 
 143:Generated_Source\PSoC4/cyfitter_cfg.c ****     /* `#END` */
 144:Generated_Source\PSoC4/cyfitter_cfg.c **** 
ARM GAS  C:\Users\leoja\AppData\Local\Temp\ccqDtOdQ.s 			page 4


 145:Generated_Source\PSoC4/cyfitter_cfg.c ****     while(1) {}
 146:Generated_Source\PSoC4/cyfitter_cfg.c **** #endif /* CY_CFG_CLOCK_STARTUP_ERROR_CALLBACK */
 147:Generated_Source\PSoC4/cyfitter_cfg.c **** }
 148:Generated_Source\PSoC4/cyfitter_cfg.c **** #endif
 149:Generated_Source\PSoC4/cyfitter_cfg.c **** 
 150:Generated_Source\PSoC4/cyfitter_cfg.c **** #define CY_CFG_BASE_ADDR_COUNT 8u
 151:Generated_Source\PSoC4/cyfitter_cfg.c **** CYPACKED typedef struct
 152:Generated_Source\PSoC4/cyfitter_cfg.c **** {
 153:Generated_Source\PSoC4/cyfitter_cfg.c **** 	uint8 offset;
 154:Generated_Source\PSoC4/cyfitter_cfg.c **** 	uint8 value;
 155:Generated_Source\PSoC4/cyfitter_cfg.c **** } CYPACKED_ATTR cy_cfg_addrvalue_t;
 156:Generated_Source\PSoC4/cyfitter_cfg.c **** 
 157:Generated_Source\PSoC4/cyfitter_cfg.c **** 
 158:Generated_Source\PSoC4/cyfitter_cfg.c **** 
 159:Generated_Source\PSoC4/cyfitter_cfg.c **** /*******************************************************************************
 160:Generated_Source\PSoC4/cyfitter_cfg.c **** * Function Name: cfg_write_bytes32
 161:Generated_Source\PSoC4/cyfitter_cfg.c **** ********************************************************************************
 162:Generated_Source\PSoC4/cyfitter_cfg.c **** * Summary:
 163:Generated_Source\PSoC4/cyfitter_cfg.c **** *  This function is used for setting up the chip configuration areas that
 164:Generated_Source\PSoC4/cyfitter_cfg.c **** *  contain relatively sparse data.
 165:Generated_Source\PSoC4/cyfitter_cfg.c **** *
 166:Generated_Source\PSoC4/cyfitter_cfg.c **** * Parameters:
 167:Generated_Source\PSoC4/cyfitter_cfg.c **** *   void
 168:Generated_Source\PSoC4/cyfitter_cfg.c **** *
 169:Generated_Source\PSoC4/cyfitter_cfg.c **** * Return:
 170:Generated_Source\PSoC4/cyfitter_cfg.c **** *   void
 171:Generated_Source\PSoC4/cyfitter_cfg.c **** *
 172:Generated_Source\PSoC4/cyfitter_cfg.c **** *******************************************************************************/
 173:Generated_Source\PSoC4/cyfitter_cfg.c **** static void cfg_write_bytes32(const uint32 addr_table[], const cy_cfg_addrvalue_t data_table[]);
 174:Generated_Source\PSoC4/cyfitter_cfg.c **** static void cfg_write_bytes32(const uint32 addr_table[], const cy_cfg_addrvalue_t data_table[])
 175:Generated_Source\PSoC4/cyfitter_cfg.c **** {
 176:Generated_Source\PSoC4/cyfitter_cfg.c **** 	/* For 32-bit little-endian architectures */
 177:Generated_Source\PSoC4/cyfitter_cfg.c **** 	uint32 i, j = 0u;
 178:Generated_Source\PSoC4/cyfitter_cfg.c **** 	for (i = 0u; i < CY_CFG_BASE_ADDR_COUNT; i++)
 179:Generated_Source\PSoC4/cyfitter_cfg.c **** 	{
 180:Generated_Source\PSoC4/cyfitter_cfg.c **** 		uint32 baseAddr = addr_table[i];
 181:Generated_Source\PSoC4/cyfitter_cfg.c **** 		uint8 count = (uint8)baseAddr;
 182:Generated_Source\PSoC4/cyfitter_cfg.c **** 		baseAddr &= 0xFFFFFF00u;
 183:Generated_Source\PSoC4/cyfitter_cfg.c **** 		while (count != 0u)
 184:Generated_Source\PSoC4/cyfitter_cfg.c **** 		{
 185:Generated_Source\PSoC4/cyfitter_cfg.c **** 			CY_SET_REG8((void *)(baseAddr + data_table[j].offset), data_table[j].value);
 186:Generated_Source\PSoC4/cyfitter_cfg.c **** 			j++;
 187:Generated_Source\PSoC4/cyfitter_cfg.c **** 			count--;
 188:Generated_Source\PSoC4/cyfitter_cfg.c **** 		}
 189:Generated_Source\PSoC4/cyfitter_cfg.c **** 	}
 190:Generated_Source\PSoC4/cyfitter_cfg.c **** }
 191:Generated_Source\PSoC4/cyfitter_cfg.c **** 
 192:Generated_Source\PSoC4/cyfitter_cfg.c **** 
 193:Generated_Source\PSoC4/cyfitter_cfg.c **** /*******************************************************************************
 194:Generated_Source\PSoC4/cyfitter_cfg.c **** * Function Name: ClockSetup
 195:Generated_Source\PSoC4/cyfitter_cfg.c **** ********************************************************************************
 196:Generated_Source\PSoC4/cyfitter_cfg.c **** *
 197:Generated_Source\PSoC4/cyfitter_cfg.c **** * Summary:
 198:Generated_Source\PSoC4/cyfitter_cfg.c **** *   Performs the initialization of all of the clocks in the device based on the
 199:Generated_Source\PSoC4/cyfitter_cfg.c **** *   settings in the Clock tab of the DWR.  This includes enabling the requested
 200:Generated_Source\PSoC4/cyfitter_cfg.c **** *   clocks and setting the necessary dividers to produce the desired frequency. 
 201:Generated_Source\PSoC4/cyfitter_cfg.c **** *
ARM GAS  C:\Users\leoja\AppData\Local\Temp\ccqDtOdQ.s 			page 5


 202:Generated_Source\PSoC4/cyfitter_cfg.c **** * Parameters:
 203:Generated_Source\PSoC4/cyfitter_cfg.c **** *   void
 204:Generated_Source\PSoC4/cyfitter_cfg.c **** *
 205:Generated_Source\PSoC4/cyfitter_cfg.c **** * Return:
 206:Generated_Source\PSoC4/cyfitter_cfg.c **** *   void
 207:Generated_Source\PSoC4/cyfitter_cfg.c **** *
 208:Generated_Source\PSoC4/cyfitter_cfg.c **** *******************************************************************************/
 209:Generated_Source\PSoC4/cyfitter_cfg.c **** static void ClockSetup(void);
 210:Generated_Source\PSoC4/cyfitter_cfg.c **** CY_CFG_SECTION
 211:Generated_Source\PSoC4/cyfitter_cfg.c **** static void ClockSetup(void)
 212:Generated_Source\PSoC4/cyfitter_cfg.c **** {
 213:Generated_Source\PSoC4/cyfitter_cfg.c **** 
 214:Generated_Source\PSoC4/cyfitter_cfg.c **** 	/* Set Flash Cycles based on max possible frequency in case a glitch occurs during ClockSetup(). *
 215:Generated_Source\PSoC4/cyfitter_cfg.c **** 	CY_SET_REG32((void CYXDATA *)(CYREG_CPUSS_FLASH_CTL), (0x0012u));
 216:Generated_Source\PSoC4/cyfitter_cfg.c **** 
 217:Generated_Source\PSoC4/cyfitter_cfg.c **** 	/* Start the WCO */
 218:Generated_Source\PSoC4/cyfitter_cfg.c **** 	CySysClkWcoStart();
 219:Generated_Source\PSoC4/cyfitter_cfg.c **** 	CyDelayCycles(12000000u); /* WCO may take up to 500ms to start */
 220:Generated_Source\PSoC4/cyfitter_cfg.c **** 
 221:Generated_Source\PSoC4/cyfitter_cfg.c **** 	/* Setup and trim IMO based on desired frequency. */
 222:Generated_Source\PSoC4/cyfitter_cfg.c **** 	CySysClkWriteImoFreq(24u);
 223:Generated_Source\PSoC4/cyfitter_cfg.c **** 	CySysClkImoEnableWcoLock();
 224:Generated_Source\PSoC4/cyfitter_cfg.c **** 	/* CYDEV_CLK_ILO_CONFIG Starting address: CYDEV_CLK_ILO_CONFIG */
 225:Generated_Source\PSoC4/cyfitter_cfg.c **** 	CY_SET_REG32((void *)(CYREG_CLK_ILO_CONFIG), 0x80000006u);
 226:Generated_Source\PSoC4/cyfitter_cfg.c **** 
 227:Generated_Source\PSoC4/cyfitter_cfg.c **** 
 228:Generated_Source\PSoC4/cyfitter_cfg.c **** 	/* Setup phase aligned clocks */
 229:Generated_Source\PSoC4/cyfitter_cfg.c **** 	CY_SET_REG32((void *)CYREG_PERI_DIV_16_CTL1, 0x00000000u);
 230:Generated_Source\PSoC4/cyfitter_cfg.c **** 	CY_SET_REG32((void *)CYREG_PERI_DIV_CMD, 0x8000FF41u);
 231:Generated_Source\PSoC4/cyfitter_cfg.c **** 	CY_SET_REG32((void *)CYREG_PERI_DIV_16_CTL0, 0x00000000u);
 232:Generated_Source\PSoC4/cyfitter_cfg.c **** 	CY_SET_REG32((void *)CYREG_PERI_DIV_CMD, 0x8000FF40u);
 233:Generated_Source\PSoC4/cyfitter_cfg.c **** 	CY_SET_REG32((void *)CYREG_PERI_DIV_16_CTL4, 0x0003BF00u);
 234:Generated_Source\PSoC4/cyfitter_cfg.c **** 	CY_SET_REG32((void *)CYREG_PERI_DIV_CMD, 0x8000FF44u);
 235:Generated_Source\PSoC4/cyfitter_cfg.c **** 	CY_SET_REG32((void *)CYREG_PERI_DIV_16_CTL2, 0x00000100u);
 236:Generated_Source\PSoC4/cyfitter_cfg.c **** 	CY_SET_REG32((void *)CYREG_PERI_DIV_CMD, 0x8000FF42u);
 237:Generated_Source\PSoC4/cyfitter_cfg.c **** 	CY_SET_REG32((void *)CYREG_PERI_DIV_16_CTL3, 0x00000400u);
 238:Generated_Source\PSoC4/cyfitter_cfg.c **** 	CY_SET_REG32((void *)CYREG_PERI_DIV_CMD, 0x8000FF43u);
 239:Generated_Source\PSoC4/cyfitter_cfg.c **** 
 240:Generated_Source\PSoC4/cyfitter_cfg.c **** 	/* CYDEV_CLK_IMO_CONFIG Starting address: CYDEV_CLK_IMO_CONFIG */
 241:Generated_Source\PSoC4/cyfitter_cfg.c **** 	CY_SET_REG32((void *)(CYREG_CLK_IMO_CONFIG), 0x82000000u);
 242:Generated_Source\PSoC4/cyfitter_cfg.c **** 
 243:Generated_Source\PSoC4/cyfitter_cfg.c **** 	/* CYDEV_CLK_SELECT Starting address: CYDEV_CLK_SELECT */
 244:Generated_Source\PSoC4/cyfitter_cfg.c **** 	CY_SET_REG32((void *)(CYREG_CLK_SELECT), 0x00000000u);
 245:Generated_Source\PSoC4/cyfitter_cfg.c **** 
 246:Generated_Source\PSoC4/cyfitter_cfg.c **** 	/* CYDEV_PERI_PCLK_CTL22 Starting address: CYDEV_PERI_PCLK_CTL22 */
 247:Generated_Source\PSoC4/cyfitter_cfg.c **** 	CY_SET_REG32((void *)(CYREG_PERI_PCLK_CTL22), 0x00000044u);
 248:Generated_Source\PSoC4/cyfitter_cfg.c **** 
 249:Generated_Source\PSoC4/cyfitter_cfg.c **** 	/* CYDEV_PERI_PCLK_CTL20 Starting address: CYDEV_PERI_PCLK_CTL20 */
 250:Generated_Source\PSoC4/cyfitter_cfg.c **** 	CY_SET_REG32((void *)(CYREG_PERI_PCLK_CTL20), 0x00000042u);
 251:Generated_Source\PSoC4/cyfitter_cfg.c **** 
 252:Generated_Source\PSoC4/cyfitter_cfg.c **** 	/* CYDEV_PERI_PCLK_CTL10 Starting address: CYDEV_PERI_PCLK_CTL10 */
 253:Generated_Source\PSoC4/cyfitter_cfg.c **** 	CY_SET_REG32((void *)(CYREG_PERI_PCLK_CTL10), 0x00000043u);
 254:Generated_Source\PSoC4/cyfitter_cfg.c **** 
 255:Generated_Source\PSoC4/cyfitter_cfg.c **** 	(void)CyIntSetVector(7u, &CySysWdtIsr);
 256:Generated_Source\PSoC4/cyfitter_cfg.c **** 	CyIntEnable(7u);
 257:Generated_Source\PSoC4/cyfitter_cfg.c **** 	CY_SET_REG32((void *)(CYREG_WDT_CONFIG), 0x00000000u);
 258:Generated_Source\PSoC4/cyfitter_cfg.c **** 	/* Set Flash Cycles based on newly configured 24.00MHz HFCLK. */
ARM GAS  C:\Users\leoja\AppData\Local\Temp\ccqDtOdQ.s 			page 6


 259:Generated_Source\PSoC4/cyfitter_cfg.c **** 	CY_SET_REG32((void CYXDATA *)(CYREG_CPUSS_FLASH_CTL), (0x0011u));
 260:Generated_Source\PSoC4/cyfitter_cfg.c **** }
 261:Generated_Source\PSoC4/cyfitter_cfg.c **** 
 262:Generated_Source\PSoC4/cyfitter_cfg.c **** 
 263:Generated_Source\PSoC4/cyfitter_cfg.c **** /* Analog API Functions */
 264:Generated_Source\PSoC4/cyfitter_cfg.c **** 
 265:Generated_Source\PSoC4/cyfitter_cfg.c **** 
 266:Generated_Source\PSoC4/cyfitter_cfg.c **** /*******************************************************************************
 267:Generated_Source\PSoC4/cyfitter_cfg.c **** * Function Name: AnalogSetDefault
 268:Generated_Source\PSoC4/cyfitter_cfg.c **** ********************************************************************************
 269:Generated_Source\PSoC4/cyfitter_cfg.c **** *
 270:Generated_Source\PSoC4/cyfitter_cfg.c **** * Summary:
 271:Generated_Source\PSoC4/cyfitter_cfg.c **** *  Sets up the analog portions of the chip to default values based on chip
 272:Generated_Source\PSoC4/cyfitter_cfg.c **** *  configuration options from the project.
 273:Generated_Source\PSoC4/cyfitter_cfg.c **** *
 274:Generated_Source\PSoC4/cyfitter_cfg.c **** * Parameters:
 275:Generated_Source\PSoC4/cyfitter_cfg.c **** *  void
 276:Generated_Source\PSoC4/cyfitter_cfg.c **** *
 277:Generated_Source\PSoC4/cyfitter_cfg.c **** * Return:
 278:Generated_Source\PSoC4/cyfitter_cfg.c **** *  void
 279:Generated_Source\PSoC4/cyfitter_cfg.c **** *
 280:Generated_Source\PSoC4/cyfitter_cfg.c **** *******************************************************************************/
 281:Generated_Source\PSoC4/cyfitter_cfg.c **** static void AnalogSetDefault(void);
 282:Generated_Source\PSoC4/cyfitter_cfg.c **** static void AnalogSetDefault(void)
 283:Generated_Source\PSoC4/cyfitter_cfg.c **** {
 284:Generated_Source\PSoC4/cyfitter_cfg.c **** 	CY_SET_XTND_REG32((void CYFAR *)CYREG_CTBM0_DFT_CTRL, 0x00000003u);
 285:Generated_Source\PSoC4/cyfitter_cfg.c **** 	CY_SET_XTND_REG32((void CYFAR *)CYREG_CTBM1_DFT_CTRL, 0x00000003u);
 286:Generated_Source\PSoC4/cyfitter_cfg.c **** 	CY_SET_XTND_REG32((void CYFAR *)CYREG_SAR_CTRL, 0x80000000u);
 287:Generated_Source\PSoC4/cyfitter_cfg.c **** 	CY_SET_XTND_REG32((void CYFAR *)CYREG_SAR_MUX_SWITCH0, 0x000000C0u);
 288:Generated_Source\PSoC4/cyfitter_cfg.c **** 	CY_SET_XTND_REG32((void CYFAR *)CYREG_SAR_MUX_SWITCH_HW_CTRL, 0x000000C0u);
 289:Generated_Source\PSoC4/cyfitter_cfg.c **** 	CY_SET_XTND_REG32((void CYFAR *)CYREG_PASS_DSAB_DSAB_CTRL, 0x00000000u);
 290:Generated_Source\PSoC4/cyfitter_cfg.c **** 	SetAnalogRoutingPumps(1);
 291:Generated_Source\PSoC4/cyfitter_cfg.c **** }
 292:Generated_Source\PSoC4/cyfitter_cfg.c **** 
 293:Generated_Source\PSoC4/cyfitter_cfg.c **** 
 294:Generated_Source\PSoC4/cyfitter_cfg.c **** /*******************************************************************************
 295:Generated_Source\PSoC4/cyfitter_cfg.c **** * Function Name: SetAnalogRoutingPumps
 296:Generated_Source\PSoC4/cyfitter_cfg.c **** ********************************************************************************
 297:Generated_Source\PSoC4/cyfitter_cfg.c **** *
 298:Generated_Source\PSoC4/cyfitter_cfg.c **** * Summary:
 299:Generated_Source\PSoC4/cyfitter_cfg.c **** * Enables or disables the analog pumps feeding analog routing switches.
 300:Generated_Source\PSoC4/cyfitter_cfg.c **** * Intended to be called at startup, based on the Vdda system configuration;
 301:Generated_Source\PSoC4/cyfitter_cfg.c **** * may be called during operation when the user informs us that the Vdda voltage crossed the pump th
 302:Generated_Source\PSoC4/cyfitter_cfg.c **** *
 303:Generated_Source\PSoC4/cyfitter_cfg.c **** * Parameters:
 304:Generated_Source\PSoC4/cyfitter_cfg.c **** *  enabled - 1 to enable the pumps, 0 to disable the pumps
 305:Generated_Source\PSoC4/cyfitter_cfg.c **** *
 306:Generated_Source\PSoC4/cyfitter_cfg.c **** * Return:
 307:Generated_Source\PSoC4/cyfitter_cfg.c **** *  void
 308:Generated_Source\PSoC4/cyfitter_cfg.c **** *
 309:Generated_Source\PSoC4/cyfitter_cfg.c **** *******************************************************************************/
 310:Generated_Source\PSoC4/cyfitter_cfg.c **** void SetAnalogRoutingPumps(uint8 enabled)
 311:Generated_Source\PSoC4/cyfitter_cfg.c **** {
  28              		.loc 1 311 0
  29              		.cfi_startproc
  30              		@ args = 0, pretend = 0, frame = 0
  31              		@ frame_needed = 0, uses_anonymous_args = 0
ARM GAS  C:\Users\leoja\AppData\Local\Temp\ccqDtOdQ.s 			page 7


  32              		@ link register save eliminated.
  33              	.LVL0:
 312:Generated_Source\PSoC4/cyfitter_cfg.c **** 	uint32 regValue = CY_GET_XTND_REG32((void *)(CYREG_SAR_PUMP_CTRL));
  34              		.loc 1 312 0
  35 0000 054A     		ldr	r2, .L5
  36 0002 1368     		ldr	r3, [r2]
  37              	.LVL1:
 313:Generated_Source\PSoC4/cyfitter_cfg.c **** 	if (enabled != 0u)
  38              		.loc 1 313 0
  39 0004 0028     		cmp	r0, #0
  40 0006 03D0     		beq	.L2
 314:Generated_Source\PSoC4/cyfitter_cfg.c **** 	{
 315:Generated_Source\PSoC4/cyfitter_cfg.c **** 		regValue |= 0x80000000u;
  41              		.loc 1 315 0
  42 0008 8021     		movs	r1, #128
  43 000a 0906     		lsls	r1, r1, #24
  44 000c 0B43     		orrs	r3, r1
  45              	.LVL2:
  46 000e 01E0     		b	.L3
  47              	.L2:
 316:Generated_Source\PSoC4/cyfitter_cfg.c **** 	}
 317:Generated_Source\PSoC4/cyfitter_cfg.c **** 	else
 318:Generated_Source\PSoC4/cyfitter_cfg.c **** 	{
 319:Generated_Source\PSoC4/cyfitter_cfg.c **** 		regValue &= ~0x80000000u;
  48              		.loc 1 319 0
  49 0010 5B00     		lsls	r3, r3, #1
  50              	.LVL3:
  51 0012 5B08     		lsrs	r3, r3, #1
  52              	.LVL4:
  53              	.L3:
 320:Generated_Source\PSoC4/cyfitter_cfg.c **** 	}
 321:Generated_Source\PSoC4/cyfitter_cfg.c **** 	CY_SET_XTND_REG32((void *)(CYREG_SAR_PUMP_CTRL), regValue);
  54              		.loc 1 321 0
  55 0014 1360     		str	r3, [r2]
 322:Generated_Source\PSoC4/cyfitter_cfg.c **** }
  56              		.loc 1 322 0
  57              		@ sp needed
  58 0016 7047     		bx	lr
  59              	.L6:
  60              		.align	2
  61              	.L5:
  62 0018 80033A40 		.word	1077543808
  63              		.cfi_endproc
  64              	.LFE7:
  65              		.size	SetAnalogRoutingPumps, .-SetAnalogRoutingPumps
  66              		.section	.psocinit,"ax",%progbits
  67              		.align	1
  68              		.global	cyfitter_cfg
  69              		.code	16
  70              		.thumb_func
  71              		.type	cyfitter_cfg, %function
  72              	cyfitter_cfg:
  73              	.LFB8:
 323:Generated_Source\PSoC4/cyfitter_cfg.c **** 
 324:Generated_Source\PSoC4/cyfitter_cfg.c **** 
 325:Generated_Source\PSoC4/cyfitter_cfg.c **** 
 326:Generated_Source\PSoC4/cyfitter_cfg.c **** 
ARM GAS  C:\Users\leoja\AppData\Local\Temp\ccqDtOdQ.s 			page 8


 327:Generated_Source\PSoC4/cyfitter_cfg.c **** /*******************************************************************************
 328:Generated_Source\PSoC4/cyfitter_cfg.c **** * Function Name: cyfitter_cfg
 329:Generated_Source\PSoC4/cyfitter_cfg.c **** ********************************************************************************
 330:Generated_Source\PSoC4/cyfitter_cfg.c **** * Summary:
 331:Generated_Source\PSoC4/cyfitter_cfg.c **** *  This function is called by the start-up code for the selected device. It
 332:Generated_Source\PSoC4/cyfitter_cfg.c **** *  performs all of the necessary device configuration based on the design
 333:Generated_Source\PSoC4/cyfitter_cfg.c **** *  settings.  This includes settings from the Design Wide Resources (DWR) such
 334:Generated_Source\PSoC4/cyfitter_cfg.c **** *  as Clocks and Pins as well as any component configuration that is necessary.
 335:Generated_Source\PSoC4/cyfitter_cfg.c **** *
 336:Generated_Source\PSoC4/cyfitter_cfg.c **** * Parameters:
 337:Generated_Source\PSoC4/cyfitter_cfg.c **** *   void
 338:Generated_Source\PSoC4/cyfitter_cfg.c **** *
 339:Generated_Source\PSoC4/cyfitter_cfg.c **** * Return:
 340:Generated_Source\PSoC4/cyfitter_cfg.c **** *   void
 341:Generated_Source\PSoC4/cyfitter_cfg.c **** *
 342:Generated_Source\PSoC4/cyfitter_cfg.c **** *******************************************************************************/
 343:Generated_Source\PSoC4/cyfitter_cfg.c **** CY_CFG_SECTION
 344:Generated_Source\PSoC4/cyfitter_cfg.c **** void cyfitter_cfg(void)
 345:Generated_Source\PSoC4/cyfitter_cfg.c **** {
  74              		.loc 1 345 0
  75              		.cfi_startproc
  76              		@ args = 0, pretend = 0, frame = 8
  77              		@ frame_needed = 0, uses_anonymous_args = 0
  78 0000 F7B5     		push	{r0, r1, r2, r4, r5, r6, r7, lr}
  79              		.cfi_def_cfa_offset 32
  80              		.cfi_offset 0, -32
  81              		.cfi_offset 1, -28
  82              		.cfi_offset 2, -24
  83              		.cfi_offset 4, -20
  84              		.cfi_offset 5, -16
  85              		.cfi_offset 6, -12
  86              		.cfi_offset 7, -8
  87              		.cfi_offset 14, -4
 346:Generated_Source\PSoC4/cyfitter_cfg.c **** 	/* Disable interrupts by default. Let user enable if/when they want. */
 347:Generated_Source\PSoC4/cyfitter_cfg.c **** 	CyGlobalIntDisable;
  88              		.loc 1 347 0
  89              		.syntax divided
  90              	@ 347 "Generated_Source\PSoC4\cyfitter_cfg.c" 1
  91 0002 72B6     		CPSID   i
  92              	@ 0 "" 2
 348:Generated_Source\PSoC4/cyfitter_cfg.c **** 
 349:Generated_Source\PSoC4/cyfitter_cfg.c **** 	/* Enable the clock in the interrupt controller for the routed interrupts */
 350:Generated_Source\PSoC4/cyfitter_cfg.c **** 	CY_SET_REG8((void *)CYREG_UDB_UDBIF_INT_CLK_CTL, 0x01u);
  93              		.loc 1 350 0
  94              		.thumb
  95              		.syntax unified
  96 0004 0122     		movs	r2, #1
  97 0006 0025     		movs	r5, #0
  98              	.LBB22:
  99              	.LBB23:
 351:Generated_Source\PSoC4/cyfitter_cfg.c **** 	{
 352:Generated_Source\PSoC4/cyfitter_cfg.c **** 		static const uint32 CYCODE cy_cfg_addr_table[] = {
 353:Generated_Source\PSoC4/cyfitter_cfg.c **** 			0x400F0004u, /* Base address: 0x400F0000 Count: 4 */
 354:Generated_Source\PSoC4/cyfitter_cfg.c **** 			0x400F301Au, /* Base address: 0x400F3000 Count: 26 */
 355:Generated_Source\PSoC4/cyfitter_cfg.c **** 			0x400F313Cu, /* Base address: 0x400F3100 Count: 60 */
 356:Generated_Source\PSoC4/cyfitter_cfg.c **** 			0x400F325Cu, /* Base address: 0x400F3200 Count: 92 */
 357:Generated_Source\PSoC4/cyfitter_cfg.c **** 			0x400F334Eu, /* Base address: 0x400F3300 Count: 78 */
ARM GAS  C:\Users\leoja\AppData\Local\Temp\ccqDtOdQ.s 			page 9


 358:Generated_Source\PSoC4/cyfitter_cfg.c **** 			0x400F400Fu, /* Base address: 0x400F4000 Count: 15 */
 359:Generated_Source\PSoC4/cyfitter_cfg.c **** 			0x400F4133u, /* Base address: 0x400F4100 Count: 51 */
 360:Generated_Source\PSoC4/cyfitter_cfg.c **** 			0x400F6002u, /* Base address: 0x400F6000 Count: 2 */
 361:Generated_Source\PSoC4/cyfitter_cfg.c **** 		};
 362:Generated_Source\PSoC4/cyfitter_cfg.c **** 
 363:Generated_Source\PSoC4/cyfitter_cfg.c **** 		static const cy_cfg_addrvalue_t CYCODE cy_cfg_data_table[] = {
 364:Generated_Source\PSoC4/cyfitter_cfg.c **** 			{0x21u, 0x08u},
 365:Generated_Source\PSoC4/cyfitter_cfg.c **** 			{0x31u, 0x09u},
 366:Generated_Source\PSoC4/cyfitter_cfg.c **** 			{0x82u, 0x0Du},
 367:Generated_Source\PSoC4/cyfitter_cfg.c **** 			{0x83u, 0x0Fu},
 368:Generated_Source\PSoC4/cyfitter_cfg.c **** 			{0x40u, 0x30u},
 369:Generated_Source\PSoC4/cyfitter_cfg.c **** 			{0x41u, 0x06u},
 370:Generated_Source\PSoC4/cyfitter_cfg.c **** 			{0x45u, 0xD1u},
 371:Generated_Source\PSoC4/cyfitter_cfg.c **** 			{0x46u, 0x05u},
 372:Generated_Source\PSoC4/cyfitter_cfg.c **** 			{0x47u, 0x02u},
 373:Generated_Source\PSoC4/cyfitter_cfg.c **** 			{0x48u, 0x17u},
 374:Generated_Source\PSoC4/cyfitter_cfg.c **** 			{0x49u, 0xFFu},
 375:Generated_Source\PSoC4/cyfitter_cfg.c **** 			{0x4Au, 0xFFu},
 376:Generated_Source\PSoC4/cyfitter_cfg.c **** 			{0x4Bu, 0xFFu},
 377:Generated_Source\PSoC4/cyfitter_cfg.c **** 			{0x4Du, 0xA0u},
 378:Generated_Source\PSoC4/cyfitter_cfg.c **** 			{0x4Fu, 0x04u},
 379:Generated_Source\PSoC4/cyfitter_cfg.c **** 			{0x50u, 0x18u},
 380:Generated_Source\PSoC4/cyfitter_cfg.c **** 			{0x54u, 0x02u},
 381:Generated_Source\PSoC4/cyfitter_cfg.c **** 			{0x5Au, 0x04u},
 382:Generated_Source\PSoC4/cyfitter_cfg.c **** 			{0x5Bu, 0x04u},
 383:Generated_Source\PSoC4/cyfitter_cfg.c **** 			{0x5Du, 0x91u},
 384:Generated_Source\PSoC4/cyfitter_cfg.c **** 			{0x5Fu, 0x01u},
 385:Generated_Source\PSoC4/cyfitter_cfg.c **** 			{0x60u, 0x40u},
 386:Generated_Source\PSoC4/cyfitter_cfg.c **** 			{0x62u, 0xC0u},
 387:Generated_Source\PSoC4/cyfitter_cfg.c **** 			{0x64u, 0x40u},
 388:Generated_Source\PSoC4/cyfitter_cfg.c **** 			{0x65u, 0x40u},
 389:Generated_Source\PSoC4/cyfitter_cfg.c **** 			{0x66u, 0xC0u},
 390:Generated_Source\PSoC4/cyfitter_cfg.c **** 			{0x68u, 0xC0u},
 391:Generated_Source\PSoC4/cyfitter_cfg.c **** 			{0x6Au, 0xC0u},
 392:Generated_Source\PSoC4/cyfitter_cfg.c **** 			{0x6Cu, 0xC0u},
 393:Generated_Source\PSoC4/cyfitter_cfg.c **** 			{0x6Eu, 0xC0u},
 394:Generated_Source\PSoC4/cyfitter_cfg.c **** 			{0x05u, 0x14u},
 395:Generated_Source\PSoC4/cyfitter_cfg.c **** 			{0x06u, 0x42u},
 396:Generated_Source\PSoC4/cyfitter_cfg.c **** 			{0x0Eu, 0x21u},
 397:Generated_Source\PSoC4/cyfitter_cfg.c **** 			{0x16u, 0x08u},
 398:Generated_Source\PSoC4/cyfitter_cfg.c **** 			{0x17u, 0x02u},
 399:Generated_Source\PSoC4/cyfitter_cfg.c **** 			{0x1Cu, 0x81u},
 400:Generated_Source\PSoC4/cyfitter_cfg.c **** 			{0x1Du, 0x34u},
 401:Generated_Source\PSoC4/cyfitter_cfg.c **** 			{0x1Eu, 0x08u},
 402:Generated_Source\PSoC4/cyfitter_cfg.c **** 			{0x1Fu, 0x08u},
 403:Generated_Source\PSoC4/cyfitter_cfg.c **** 			{0x25u, 0x12u},
 404:Generated_Source\PSoC4/cyfitter_cfg.c **** 			{0x26u, 0x48u},
 405:Generated_Source\PSoC4/cyfitter_cfg.c **** 			{0x27u, 0x12u},
 406:Generated_Source\PSoC4/cyfitter_cfg.c **** 			{0x2Fu, 0x0Au},
 407:Generated_Source\PSoC4/cyfitter_cfg.c **** 			{0x36u, 0x54u},
 408:Generated_Source\PSoC4/cyfitter_cfg.c **** 			{0x37u, 0x01u},
 409:Generated_Source\PSoC4/cyfitter_cfg.c **** 			{0x3Du, 0x20u},
 410:Generated_Source\PSoC4/cyfitter_cfg.c **** 			{0x3Eu, 0x81u},
 411:Generated_Source\PSoC4/cyfitter_cfg.c **** 			{0x40u, 0x10u},
 412:Generated_Source\PSoC4/cyfitter_cfg.c **** 			{0x45u, 0xA0u},
 413:Generated_Source\PSoC4/cyfitter_cfg.c **** 			{0x47u, 0x02u},
 414:Generated_Source\PSoC4/cyfitter_cfg.c **** 			{0x48u, 0x28u},
ARM GAS  C:\Users\leoja\AppData\Local\Temp\ccqDtOdQ.s 			page 10


 415:Generated_Source\PSoC4/cyfitter_cfg.c **** 			{0x49u, 0x01u},
 416:Generated_Source\PSoC4/cyfitter_cfg.c **** 			{0x4Du, 0x04u},
 417:Generated_Source\PSoC4/cyfitter_cfg.c **** 			{0x4Eu, 0x80u},
 418:Generated_Source\PSoC4/cyfitter_cfg.c **** 			{0x50u, 0x48u},
 419:Generated_Source\PSoC4/cyfitter_cfg.c **** 			{0x54u, 0x10u},
 420:Generated_Source\PSoC4/cyfitter_cfg.c **** 			{0x56u, 0xCAu},
 421:Generated_Source\PSoC4/cyfitter_cfg.c **** 			{0x57u, 0x02u},
 422:Generated_Source\PSoC4/cyfitter_cfg.c **** 			{0x5Au, 0x40u},
 423:Generated_Source\PSoC4/cyfitter_cfg.c **** 			{0x5Bu, 0x10u},
 424:Generated_Source\PSoC4/cyfitter_cfg.c **** 			{0x5Cu, 0x48u},
 425:Generated_Source\PSoC4/cyfitter_cfg.c **** 			{0x5Du, 0x02u},
 426:Generated_Source\PSoC4/cyfitter_cfg.c **** 			{0x5Eu, 0x10u},
 427:Generated_Source\PSoC4/cyfitter_cfg.c **** 			{0x64u, 0x92u},
 428:Generated_Source\PSoC4/cyfitter_cfg.c **** 			{0x66u, 0x20u},
 429:Generated_Source\PSoC4/cyfitter_cfg.c **** 			{0x6Du, 0x02u},
 430:Generated_Source\PSoC4/cyfitter_cfg.c **** 			{0x6Eu, 0x20u},
 431:Generated_Source\PSoC4/cyfitter_cfg.c **** 			{0x6Fu, 0x21u},
 432:Generated_Source\PSoC4/cyfitter_cfg.c **** 			{0x74u, 0x01u},
 433:Generated_Source\PSoC4/cyfitter_cfg.c **** 			{0x75u, 0xA8u},
 434:Generated_Source\PSoC4/cyfitter_cfg.c **** 			{0x7Eu, 0x08u},
 435:Generated_Source\PSoC4/cyfitter_cfg.c **** 			{0x84u, 0x02u},
 436:Generated_Source\PSoC4/cyfitter_cfg.c **** 			{0x87u, 0x20u},
 437:Generated_Source\PSoC4/cyfitter_cfg.c **** 			{0x89u, 0xA0u},
 438:Generated_Source\PSoC4/cyfitter_cfg.c **** 			{0x8Au, 0x10u},
 439:Generated_Source\PSoC4/cyfitter_cfg.c **** 			{0x8Bu, 0x01u},
 440:Generated_Source\PSoC4/cyfitter_cfg.c **** 			{0x8Du, 0x02u},
 441:Generated_Source\PSoC4/cyfitter_cfg.c **** 			{0xC0u, 0xF0u},
 442:Generated_Source\PSoC4/cyfitter_cfg.c **** 			{0xC2u, 0xA0u},
 443:Generated_Source\PSoC4/cyfitter_cfg.c **** 			{0xC4u, 0x50u},
 444:Generated_Source\PSoC4/cyfitter_cfg.c **** 			{0xCAu, 0x30u},
 445:Generated_Source\PSoC4/cyfitter_cfg.c **** 			{0xCCu, 0xF0u},
 446:Generated_Source\PSoC4/cyfitter_cfg.c **** 			{0xCEu, 0xB0u},
 447:Generated_Source\PSoC4/cyfitter_cfg.c **** 			{0xD0u, 0xB2u},
 448:Generated_Source\PSoC4/cyfitter_cfg.c **** 			{0xD2u, 0x04u},
 449:Generated_Source\PSoC4/cyfitter_cfg.c **** 			{0xD6u, 0xFCu},
 450:Generated_Source\PSoC4/cyfitter_cfg.c **** 			{0xD8u, 0xF0u},
 451:Generated_Source\PSoC4/cyfitter_cfg.c **** 			{0xDEu, 0x20u},
 452:Generated_Source\PSoC4/cyfitter_cfg.c **** 			{0xE2u, 0xA0u},
 453:Generated_Source\PSoC4/cyfitter_cfg.c **** 			{0xE6u, 0xB0u},
 454:Generated_Source\PSoC4/cyfitter_cfg.c **** 			{0x00u, 0x20u},
 455:Generated_Source\PSoC4/cyfitter_cfg.c **** 			{0x04u, 0x7Du},
 456:Generated_Source\PSoC4/cyfitter_cfg.c **** 			{0x0Eu, 0x10u},
 457:Generated_Source\PSoC4/cyfitter_cfg.c **** 			{0x0Fu, 0x02u},
 458:Generated_Source\PSoC4/cyfitter_cfg.c **** 			{0x16u, 0x80u},
 459:Generated_Source\PSoC4/cyfitter_cfg.c **** 			{0x18u, 0x08u},
 460:Generated_Source\PSoC4/cyfitter_cfg.c **** 			{0x1Au, 0x36u},
 461:Generated_Source\PSoC4/cyfitter_cfg.c **** 			{0x1Cu, 0x51u},
 462:Generated_Source\PSoC4/cyfitter_cfg.c **** 			{0x1Eu, 0x2Au},
 463:Generated_Source\PSoC4/cyfitter_cfg.c **** 			{0x1Fu, 0x01u},
 464:Generated_Source\PSoC4/cyfitter_cfg.c **** 			{0x20u, 0x07u},
 465:Generated_Source\PSoC4/cyfitter_cfg.c **** 			{0x22u, 0x48u},
 466:Generated_Source\PSoC4/cyfitter_cfg.c **** 			{0x24u, 0x03u},
 467:Generated_Source\PSoC4/cyfitter_cfg.c **** 			{0x27u, 0x01u},
 468:Generated_Source\PSoC4/cyfitter_cfg.c **** 			{0x2Au, 0x80u},
 469:Generated_Source\PSoC4/cyfitter_cfg.c **** 			{0x31u, 0x01u},
 470:Generated_Source\PSoC4/cyfitter_cfg.c **** 			{0x32u, 0x40u},
 471:Generated_Source\PSoC4/cyfitter_cfg.c **** 			{0x33u, 0x02u},
ARM GAS  C:\Users\leoja\AppData\Local\Temp\ccqDtOdQ.s 			page 11


 472:Generated_Source\PSoC4/cyfitter_cfg.c **** 			{0x34u, 0x80u},
 473:Generated_Source\PSoC4/cyfitter_cfg.c **** 			{0x36u, 0x3Fu},
 474:Generated_Source\PSoC4/cyfitter_cfg.c **** 			{0x38u, 0x08u},
 475:Generated_Source\PSoC4/cyfitter_cfg.c **** 			{0x3Eu, 0x10u},
 476:Generated_Source\PSoC4/cyfitter_cfg.c **** 			{0x3Fu, 0x01u},
 477:Generated_Source\PSoC4/cyfitter_cfg.c **** 			{0x40u, 0x13u},
 478:Generated_Source\PSoC4/cyfitter_cfg.c **** 			{0x49u, 0xFFu},
 479:Generated_Source\PSoC4/cyfitter_cfg.c **** 			{0x4Au, 0xFFu},
 480:Generated_Source\PSoC4/cyfitter_cfg.c **** 			{0x4Bu, 0xFFu},
 481:Generated_Source\PSoC4/cyfitter_cfg.c **** 			{0x4Fu, 0x01u},
 482:Generated_Source\PSoC4/cyfitter_cfg.c **** 			{0x50u, 0x18u},
 483:Generated_Source\PSoC4/cyfitter_cfg.c **** 			{0x52u, 0x80u},
 484:Generated_Source\PSoC4/cyfitter_cfg.c **** 			{0x54u, 0x01u},
 485:Generated_Source\PSoC4/cyfitter_cfg.c **** 			{0x56u, 0x04u},
 486:Generated_Source\PSoC4/cyfitter_cfg.c **** 			{0x58u, 0x04u},
 487:Generated_Source\PSoC4/cyfitter_cfg.c **** 			{0x59u, 0x04u},
 488:Generated_Source\PSoC4/cyfitter_cfg.c **** 			{0x5Au, 0x04u},
 489:Generated_Source\PSoC4/cyfitter_cfg.c **** 			{0x5Bu, 0x04u},
 490:Generated_Source\PSoC4/cyfitter_cfg.c **** 			{0x5Cu, 0x19u},
 491:Generated_Source\PSoC4/cyfitter_cfg.c **** 			{0x5Du, 0x33u},
 492:Generated_Source\PSoC4/cyfitter_cfg.c **** 			{0x5Fu, 0x01u},
 493:Generated_Source\PSoC4/cyfitter_cfg.c **** 			{0x60u, 0x40u},
 494:Generated_Source\PSoC4/cyfitter_cfg.c **** 			{0x62u, 0x40u},
 495:Generated_Source\PSoC4/cyfitter_cfg.c **** 			{0x64u, 0x40u},
 496:Generated_Source\PSoC4/cyfitter_cfg.c **** 			{0x65u, 0x40u},
 497:Generated_Source\PSoC4/cyfitter_cfg.c **** 			{0x66u, 0x80u},
 498:Generated_Source\PSoC4/cyfitter_cfg.c **** 			{0x68u, 0x80u},
 499:Generated_Source\PSoC4/cyfitter_cfg.c **** 			{0x6Au, 0x80u},
 500:Generated_Source\PSoC4/cyfitter_cfg.c **** 			{0x6Cu, 0x80u},
 501:Generated_Source\PSoC4/cyfitter_cfg.c **** 			{0x6Eu, 0x80u},
 502:Generated_Source\PSoC4/cyfitter_cfg.c **** 			{0x82u, 0x04u},
 503:Generated_Source\PSoC4/cyfitter_cfg.c **** 			{0x8Au, 0x04u},
 504:Generated_Source\PSoC4/cyfitter_cfg.c **** 			{0x8Eu, 0x01u},
 505:Generated_Source\PSoC4/cyfitter_cfg.c **** 			{0x8Fu, 0x02u},
 506:Generated_Source\PSoC4/cyfitter_cfg.c **** 			{0x98u, 0x01u},
 507:Generated_Source\PSoC4/cyfitter_cfg.c **** 			{0x9Bu, 0x01u},
 508:Generated_Source\PSoC4/cyfitter_cfg.c **** 			{0xA5u, 0x01u},
 509:Generated_Source\PSoC4/cyfitter_cfg.c **** 			{0xA6u, 0x02u},
 510:Generated_Source\PSoC4/cyfitter_cfg.c **** 			{0xB0u, 0x04u},
 511:Generated_Source\PSoC4/cyfitter_cfg.c **** 			{0xB2u, 0x02u},
 512:Generated_Source\PSoC4/cyfitter_cfg.c **** 			{0xB4u, 0x01u},
 513:Generated_Source\PSoC4/cyfitter_cfg.c **** 			{0xB5u, 0x02u},
 514:Generated_Source\PSoC4/cyfitter_cfg.c **** 			{0xB7u, 0x01u},
 515:Generated_Source\PSoC4/cyfitter_cfg.c **** 			{0xB8u, 0x02u},
 516:Generated_Source\PSoC4/cyfitter_cfg.c **** 			{0xBEu, 0x01u},
 517:Generated_Source\PSoC4/cyfitter_cfg.c **** 			{0xC0u, 0x12u},
 518:Generated_Source\PSoC4/cyfitter_cfg.c **** 			{0xC5u, 0xECu},
 519:Generated_Source\PSoC4/cyfitter_cfg.c **** 			{0xC6u, 0x20u},
 520:Generated_Source\PSoC4/cyfitter_cfg.c **** 			{0xC8u, 0x0Bu},
 521:Generated_Source\PSoC4/cyfitter_cfg.c **** 			{0xC9u, 0xFFu},
 522:Generated_Source\PSoC4/cyfitter_cfg.c **** 			{0xCAu, 0xFFu},
 523:Generated_Source\PSoC4/cyfitter_cfg.c **** 			{0xCBu, 0xFFu},
 524:Generated_Source\PSoC4/cyfitter_cfg.c **** 			{0xCDu, 0x83u},
 525:Generated_Source\PSoC4/cyfitter_cfg.c **** 			{0xCEu, 0x03u},
 526:Generated_Source\PSoC4/cyfitter_cfg.c **** 			{0xCFu, 0x01u},
 527:Generated_Source\PSoC4/cyfitter_cfg.c **** 			{0xD0u, 0x18u},
 528:Generated_Source\PSoC4/cyfitter_cfg.c **** 			{0xD2u, 0x80u},
ARM GAS  C:\Users\leoja\AppData\Local\Temp\ccqDtOdQ.s 			page 12


 529:Generated_Source\PSoC4/cyfitter_cfg.c **** 			{0xD4u, 0x07u},
 530:Generated_Source\PSoC4/cyfitter_cfg.c **** 			{0xD8u, 0x04u},
 531:Generated_Source\PSoC4/cyfitter_cfg.c **** 			{0xD9u, 0x04u},
 532:Generated_Source\PSoC4/cyfitter_cfg.c **** 			{0xDAu, 0x04u},
 533:Generated_Source\PSoC4/cyfitter_cfg.c **** 			{0xDBu, 0x04u},
 534:Generated_Source\PSoC4/cyfitter_cfg.c **** 			{0xDCu, 0x11u},
 535:Generated_Source\PSoC4/cyfitter_cfg.c **** 			{0xDDu, 0x13u},
 536:Generated_Source\PSoC4/cyfitter_cfg.c **** 			{0xDFu, 0x01u},
 537:Generated_Source\PSoC4/cyfitter_cfg.c **** 			{0xE0u, 0x40u},
 538:Generated_Source\PSoC4/cyfitter_cfg.c **** 			{0xE2u, 0x40u},
 539:Generated_Source\PSoC4/cyfitter_cfg.c **** 			{0xE4u, 0x40u},
 540:Generated_Source\PSoC4/cyfitter_cfg.c **** 			{0xE5u, 0x40u},
 541:Generated_Source\PSoC4/cyfitter_cfg.c **** 			{0xE6u, 0x80u},
 542:Generated_Source\PSoC4/cyfitter_cfg.c **** 			{0xE8u, 0x80u},
 543:Generated_Source\PSoC4/cyfitter_cfg.c **** 			{0xEAu, 0x80u},
 544:Generated_Source\PSoC4/cyfitter_cfg.c **** 			{0xECu, 0x80u},
 545:Generated_Source\PSoC4/cyfitter_cfg.c **** 			{0xEEu, 0x80u},
 546:Generated_Source\PSoC4/cyfitter_cfg.c **** 			{0x00u, 0x20u},
 547:Generated_Source\PSoC4/cyfitter_cfg.c **** 			{0x01u, 0x40u},
 548:Generated_Source\PSoC4/cyfitter_cfg.c **** 			{0x02u, 0x80u},
 549:Generated_Source\PSoC4/cyfitter_cfg.c **** 			{0x05u, 0x04u},
 550:Generated_Source\PSoC4/cyfitter_cfg.c **** 			{0x06u, 0x42u},
 551:Generated_Source\PSoC4/cyfitter_cfg.c **** 			{0x09u, 0x20u},
 552:Generated_Source\PSoC4/cyfitter_cfg.c **** 			{0x0Cu, 0x08u},
 553:Generated_Source\PSoC4/cyfitter_cfg.c **** 			{0x0Eu, 0x09u},
 554:Generated_Source\PSoC4/cyfitter_cfg.c **** 			{0x10u, 0x20u},
 555:Generated_Source\PSoC4/cyfitter_cfg.c **** 			{0x15u, 0x04u},
 556:Generated_Source\PSoC4/cyfitter_cfg.c **** 			{0x17u, 0x12u},
 557:Generated_Source\PSoC4/cyfitter_cfg.c **** 			{0x19u, 0x18u},
 558:Generated_Source\PSoC4/cyfitter_cfg.c **** 			{0x1Au, 0x40u},
 559:Generated_Source\PSoC4/cyfitter_cfg.c **** 			{0x1Du, 0x80u},
 560:Generated_Source\PSoC4/cyfitter_cfg.c **** 			{0x1Eu, 0x05u},
 561:Generated_Source\PSoC4/cyfitter_cfg.c **** 			{0x1Fu, 0x04u},
 562:Generated_Source\PSoC4/cyfitter_cfg.c **** 			{0x21u, 0x20u},
 563:Generated_Source\PSoC4/cyfitter_cfg.c **** 			{0x22u, 0x40u},
 564:Generated_Source\PSoC4/cyfitter_cfg.c **** 			{0x24u, 0x50u},
 565:Generated_Source\PSoC4/cyfitter_cfg.c **** 			{0x27u, 0x10u},
 566:Generated_Source\PSoC4/cyfitter_cfg.c **** 			{0x29u, 0x08u},
 567:Generated_Source\PSoC4/cyfitter_cfg.c **** 			{0x2Fu, 0x20u},
 568:Generated_Source\PSoC4/cyfitter_cfg.c **** 			{0x30u, 0x20u},
 569:Generated_Source\PSoC4/cyfitter_cfg.c **** 			{0x37u, 0x40u},
 570:Generated_Source\PSoC4/cyfitter_cfg.c **** 			{0x38u, 0x80u},
 571:Generated_Source\PSoC4/cyfitter_cfg.c **** 			{0x39u, 0x40u},
 572:Generated_Source\PSoC4/cyfitter_cfg.c **** 			{0x3Fu, 0x40u},
 573:Generated_Source\PSoC4/cyfitter_cfg.c **** 			{0x43u, 0x60u},
 574:Generated_Source\PSoC4/cyfitter_cfg.c **** 			{0x46u, 0x10u},
 575:Generated_Source\PSoC4/cyfitter_cfg.c **** 			{0x47u, 0x40u},
 576:Generated_Source\PSoC4/cyfitter_cfg.c **** 			{0x4Bu, 0x05u},
 577:Generated_Source\PSoC4/cyfitter_cfg.c **** 			{0x52u, 0x10u},
 578:Generated_Source\PSoC4/cyfitter_cfg.c **** 			{0x53u, 0x20u},
 579:Generated_Source\PSoC4/cyfitter_cfg.c **** 			{0x59u, 0x11u},
 580:Generated_Source\PSoC4/cyfitter_cfg.c **** 			{0x5Au, 0x84u},
 581:Generated_Source\PSoC4/cyfitter_cfg.c **** 			{0x5Cu, 0x40u},
 582:Generated_Source\PSoC4/cyfitter_cfg.c **** 			{0x5Fu, 0x05u},
 583:Generated_Source\PSoC4/cyfitter_cfg.c **** 			{0x66u, 0x01u},
 584:Generated_Source\PSoC4/cyfitter_cfg.c **** 			{0x73u, 0x40u},
 585:Generated_Source\PSoC4/cyfitter_cfg.c **** 			{0x77u, 0x40u},
ARM GAS  C:\Users\leoja\AppData\Local\Temp\ccqDtOdQ.s 			page 13


 586:Generated_Source\PSoC4/cyfitter_cfg.c **** 			{0x80u, 0x80u},
 587:Generated_Source\PSoC4/cyfitter_cfg.c **** 			{0x82u, 0x01u},
 588:Generated_Source\PSoC4/cyfitter_cfg.c **** 			{0x84u, 0x01u},
 589:Generated_Source\PSoC4/cyfitter_cfg.c **** 			{0x88u, 0x10u},
 590:Generated_Source\PSoC4/cyfitter_cfg.c **** 			{0x89u, 0x02u},
 591:Generated_Source\PSoC4/cyfitter_cfg.c **** 			{0x8Cu, 0x08u},
 592:Generated_Source\PSoC4/cyfitter_cfg.c **** 			{0x8Eu, 0x10u},
 593:Generated_Source\PSoC4/cyfitter_cfg.c **** 			{0x90u, 0x80u},
 594:Generated_Source\PSoC4/cyfitter_cfg.c **** 			{0x91u, 0x04u},
 595:Generated_Source\PSoC4/cyfitter_cfg.c **** 			{0x94u, 0x10u},
 596:Generated_Source\PSoC4/cyfitter_cfg.c **** 			{0x96u, 0x51u},
 597:Generated_Source\PSoC4/cyfitter_cfg.c **** 			{0x97u, 0x08u},
 598:Generated_Source\PSoC4/cyfitter_cfg.c **** 			{0x99u, 0x05u},
 599:Generated_Source\PSoC4/cyfitter_cfg.c **** 			{0x9Au, 0x42u},
 600:Generated_Source\PSoC4/cyfitter_cfg.c **** 			{0x9Bu, 0x02u},
 601:Generated_Source\PSoC4/cyfitter_cfg.c **** 			{0x9Cu, 0x98u},
 602:Generated_Source\PSoC4/cyfitter_cfg.c **** 			{0x9Du, 0x02u},
 603:Generated_Source\PSoC4/cyfitter_cfg.c **** 			{0xA0u, 0x39u},
 604:Generated_Source\PSoC4/cyfitter_cfg.c **** 			{0xA2u, 0x84u},
 605:Generated_Source\PSoC4/cyfitter_cfg.c **** 			{0xA5u, 0x80u},
 606:Generated_Source\PSoC4/cyfitter_cfg.c **** 			{0xA9u, 0x19u},
 607:Generated_Source\PSoC4/cyfitter_cfg.c **** 			{0xACu, 0x40u},
 608:Generated_Source\PSoC4/cyfitter_cfg.c **** 			{0xAEu, 0x20u},
 609:Generated_Source\PSoC4/cyfitter_cfg.c **** 			{0xAFu, 0x04u},
 610:Generated_Source\PSoC4/cyfitter_cfg.c **** 			{0xB4u, 0x41u},
 611:Generated_Source\PSoC4/cyfitter_cfg.c **** 			{0xC0u, 0xBBu},
 612:Generated_Source\PSoC4/cyfitter_cfg.c **** 			{0xC2u, 0xE2u},
 613:Generated_Source\PSoC4/cyfitter_cfg.c **** 			{0xC4u, 0x74u},
 614:Generated_Source\PSoC4/cyfitter_cfg.c **** 			{0xCAu, 0x42u},
 615:Generated_Source\PSoC4/cyfitter_cfg.c **** 			{0xCCu, 0x14u},
 616:Generated_Source\PSoC4/cyfitter_cfg.c **** 			{0xCEu, 0x18u},
 617:Generated_Source\PSoC4/cyfitter_cfg.c **** 			{0xD0u, 0x5Cu},
 618:Generated_Source\PSoC4/cyfitter_cfg.c **** 			{0xD6u, 0xDFu},
 619:Generated_Source\PSoC4/cyfitter_cfg.c **** 			{0xD8u, 0x80u},
 620:Generated_Source\PSoC4/cyfitter_cfg.c **** 			{0xE0u, 0xE0u},
 621:Generated_Source\PSoC4/cyfitter_cfg.c **** 			{0xE4u, 0x10u},
 622:Generated_Source\PSoC4/cyfitter_cfg.c **** 			{0xE8u, 0x40u},
 623:Generated_Source\PSoC4/cyfitter_cfg.c **** 			{0xEEu, 0x10u},
 624:Generated_Source\PSoC4/cyfitter_cfg.c **** 			{0x50u, 0x40u},
 625:Generated_Source\PSoC4/cyfitter_cfg.c **** 			{0x57u, 0x01u},
 626:Generated_Source\PSoC4/cyfitter_cfg.c **** 			{0x5Bu, 0x04u},
 627:Generated_Source\PSoC4/cyfitter_cfg.c **** 			{0x5Cu, 0x01u},
 628:Generated_Source\PSoC4/cyfitter_cfg.c **** 			{0x6Bu, 0x10u},
 629:Generated_Source\PSoC4/cyfitter_cfg.c **** 			{0x84u, 0x01u},
 630:Generated_Source\PSoC4/cyfitter_cfg.c **** 			{0x87u, 0x10u},
 631:Generated_Source\PSoC4/cyfitter_cfg.c **** 			{0x89u, 0x01u},
 632:Generated_Source\PSoC4/cyfitter_cfg.c **** 			{0x8Au, 0x91u},
 633:Generated_Source\PSoC4/cyfitter_cfg.c **** 			{0x8Cu, 0x01u},
 634:Generated_Source\PSoC4/cyfitter_cfg.c **** 			{0xD4u, 0x20u},
 635:Generated_Source\PSoC4/cyfitter_cfg.c **** 			{0xD6u, 0xE0u},
 636:Generated_Source\PSoC4/cyfitter_cfg.c **** 			{0xDAu, 0x40u},
 637:Generated_Source\PSoC4/cyfitter_cfg.c **** 			{0xE4u, 0x40u},
 638:Generated_Source\PSoC4/cyfitter_cfg.c **** 			{0xE6u, 0x10u},
 639:Generated_Source\PSoC4/cyfitter_cfg.c **** 			{0x01u, 0x48u},
 640:Generated_Source\PSoC4/cyfitter_cfg.c **** 			{0x05u, 0x40u},
 641:Generated_Source\PSoC4/cyfitter_cfg.c **** 			{0x06u, 0x80u},
 642:Generated_Source\PSoC4/cyfitter_cfg.c **** 			{0x08u, 0x80u},
ARM GAS  C:\Users\leoja\AppData\Local\Temp\ccqDtOdQ.s 			page 14


 643:Generated_Source\PSoC4/cyfitter_cfg.c **** 			{0x0Bu, 0x20u},
 644:Generated_Source\PSoC4/cyfitter_cfg.c **** 			{0x0Du, 0x80u},
 645:Generated_Source\PSoC4/cyfitter_cfg.c **** 			{0x0Fu, 0x10u},
 646:Generated_Source\PSoC4/cyfitter_cfg.c **** 			{0x30u, 0x20u},
 647:Generated_Source\PSoC4/cyfitter_cfg.c **** 			{0x52u, 0x80u},
 648:Generated_Source\PSoC4/cyfitter_cfg.c **** 			{0x54u, 0x01u},
 649:Generated_Source\PSoC4/cyfitter_cfg.c **** 			{0x56u, 0x10u},
 650:Generated_Source\PSoC4/cyfitter_cfg.c **** 			{0x5Au, 0x02u},
 651:Generated_Source\PSoC4/cyfitter_cfg.c **** 			{0x5Bu, 0x40u},
 652:Generated_Source\PSoC4/cyfitter_cfg.c **** 			{0x5Du, 0x01u},
 653:Generated_Source\PSoC4/cyfitter_cfg.c **** 			{0x60u, 0x08u},
 654:Generated_Source\PSoC4/cyfitter_cfg.c **** 			{0x65u, 0x02u},
 655:Generated_Source\PSoC4/cyfitter_cfg.c **** 			{0x81u, 0x80u},
 656:Generated_Source\PSoC4/cyfitter_cfg.c **** 			{0x83u, 0x10u},
 657:Generated_Source\PSoC4/cyfitter_cfg.c **** 			{0x84u, 0x08u},
 658:Generated_Source\PSoC4/cyfitter_cfg.c **** 			{0x88u, 0x80u},
 659:Generated_Source\PSoC4/cyfitter_cfg.c **** 			{0x89u, 0x40u},
 660:Generated_Source\PSoC4/cyfitter_cfg.c **** 			{0x8Du, 0x40u},
 661:Generated_Source\PSoC4/cyfitter_cfg.c **** 			{0x8Eu, 0x80u},
 662:Generated_Source\PSoC4/cyfitter_cfg.c **** 			{0x91u, 0x01u},
 663:Generated_Source\PSoC4/cyfitter_cfg.c **** 			{0x92u, 0x02u},
 664:Generated_Source\PSoC4/cyfitter_cfg.c **** 			{0x97u, 0x30u},
 665:Generated_Source\PSoC4/cyfitter_cfg.c **** 			{0x99u, 0x02u},
 666:Generated_Source\PSoC4/cyfitter_cfg.c **** 			{0x9Au, 0x10u},
 667:Generated_Source\PSoC4/cyfitter_cfg.c **** 			{0x9Bu, 0x40u},
 668:Generated_Source\PSoC4/cyfitter_cfg.c **** 			{0x9Du, 0x08u},
 669:Generated_Source\PSoC4/cyfitter_cfg.c **** 			{0x9Fu, 0x10u},
 670:Generated_Source\PSoC4/cyfitter_cfg.c **** 			{0xA0u, 0x21u},
 671:Generated_Source\PSoC4/cyfitter_cfg.c **** 			{0xA2u, 0x80u},
 672:Generated_Source\PSoC4/cyfitter_cfg.c **** 			{0xA9u, 0x02u},
 673:Generated_Source\PSoC4/cyfitter_cfg.c **** 			{0xABu, 0x44u},
 674:Generated_Source\PSoC4/cyfitter_cfg.c **** 			{0xACu, 0x20u},
 675:Generated_Source\PSoC4/cyfitter_cfg.c **** 			{0xAFu, 0x11u},
 676:Generated_Source\PSoC4/cyfitter_cfg.c **** 			{0xB4u, 0x40u},
 677:Generated_Source\PSoC4/cyfitter_cfg.c **** 			{0xB5u, 0x08u},
 678:Generated_Source\PSoC4/cyfitter_cfg.c **** 			{0xC0u, 0xF0u},
 679:Generated_Source\PSoC4/cyfitter_cfg.c **** 			{0xC2u, 0xF0u},
 680:Generated_Source\PSoC4/cyfitter_cfg.c **** 			{0xCCu, 0x10u},
 681:Generated_Source\PSoC4/cyfitter_cfg.c **** 			{0xD4u, 0xE0u},
 682:Generated_Source\PSoC4/cyfitter_cfg.c **** 			{0xD6u, 0xE0u},
 683:Generated_Source\PSoC4/cyfitter_cfg.c **** 			{0xD8u, 0xC0u},
 684:Generated_Source\PSoC4/cyfitter_cfg.c **** 			{0xE2u, 0x20u},
 685:Generated_Source\PSoC4/cyfitter_cfg.c **** 			{0xE4u, 0x80u},
 686:Generated_Source\PSoC4/cyfitter_cfg.c **** 			{0xE6u, 0x10u},
 687:Generated_Source\PSoC4/cyfitter_cfg.c **** 			{0xE8u, 0x10u},
 688:Generated_Source\PSoC4/cyfitter_cfg.c **** 			{0xEAu, 0xC0u},
 689:Generated_Source\PSoC4/cyfitter_cfg.c **** 			{0xEEu, 0xB0u},
 690:Generated_Source\PSoC4/cyfitter_cfg.c **** 			{0x10u, 0x0Au},
 691:Generated_Source\PSoC4/cyfitter_cfg.c **** 			{0x11u, 0x01u},
 692:Generated_Source\PSoC4/cyfitter_cfg.c **** 		};
 693:Generated_Source\PSoC4/cyfitter_cfg.c **** 
 694:Generated_Source\PSoC4/cyfitter_cfg.c **** 
 695:Generated_Source\PSoC4/cyfitter_cfg.c **** 
 696:Generated_Source\PSoC4/cyfitter_cfg.c **** 		CYPACKED typedef struct {
 697:Generated_Source\PSoC4/cyfitter_cfg.c **** 			void CYFAR *address;
 698:Generated_Source\PSoC4/cyfitter_cfg.c **** 			uint16 size;
 699:Generated_Source\PSoC4/cyfitter_cfg.c **** 		} CYPACKED_ATTR cfg_memset_t;
ARM GAS  C:\Users\leoja\AppData\Local\Temp\ccqDtOdQ.s 			page 15


 700:Generated_Source\PSoC4/cyfitter_cfg.c **** 
 701:Generated_Source\PSoC4/cyfitter_cfg.c **** 
 702:Generated_Source\PSoC4/cyfitter_cfg.c **** 		CYPACKED typedef struct {
 703:Generated_Source\PSoC4/cyfitter_cfg.c **** 			void CYFAR *dest;
 704:Generated_Source\PSoC4/cyfitter_cfg.c **** 			const void CYCODE *src;
 705:Generated_Source\PSoC4/cyfitter_cfg.c **** 			uint16 size;
 706:Generated_Source\PSoC4/cyfitter_cfg.c **** 		} CYPACKED_ATTR cfg_memcpy_t;
 707:Generated_Source\PSoC4/cyfitter_cfg.c **** 
 708:Generated_Source\PSoC4/cyfitter_cfg.c **** 		static const cfg_memset_t CYCODE cfg_memset_list[] = {
 709:Generated_Source\PSoC4/cyfitter_cfg.c **** 			/* address, size */
 710:Generated_Source\PSoC4/cyfitter_cfg.c **** 			{(void CYFAR *)(CYDEV_UDB_P0_U0_BASE), 128u},
 711:Generated_Source\PSoC4/cyfitter_cfg.c **** 			{(void CYFAR *)(CYDEV_UDB_P0_ROUTE_BASE), 768u},
 712:Generated_Source\PSoC4/cyfitter_cfg.c **** 			{(void CYFAR *)(CYDEV_UDB_DSI0_BASE), 1024u},
 713:Generated_Source\PSoC4/cyfitter_cfg.c **** 		};
 714:Generated_Source\PSoC4/cyfitter_cfg.c **** 
 715:Generated_Source\PSoC4/cyfitter_cfg.c **** 		/* UDB_0_1_1_CONFIG Address: CYDEV_UDB_P0_U1_BASE Size (bytes): 128 */
 716:Generated_Source\PSoC4/cyfitter_cfg.c **** 		static const uint8 CYCODE BS_UDB_0_1_1_CONFIG_VAL[] = {
 717:Generated_Source\PSoC4/cyfitter_cfg.c **** 			0x10u, 0x7Au, 0x00u, 0x04u, 0xDEu, 0x00u, 0x21u, 0x00u, 0x25u, 0x20u, 0x1Au, 0x40u, 0x08u, 0x00u
 718:Generated_Source\PSoC4/cyfitter_cfg.c **** 			0x00u, 0x40u, 0x00u, 0x20u, 0x21u, 0x62u, 0x00u, 0x1Cu, 0x00u, 0x00u, 0x00u, 0x02u, 0xA9u, 0x68u
 719:Generated_Source\PSoC4/cyfitter_cfg.c **** 			0x63u, 0x00u, 0x84u, 0x00u, 0x00u, 0x00u, 0x00u, 0x00u, 0x01u, 0x18u, 0x20u, 0x63u, 0x00u, 0x00u
 720:Generated_Source\PSoC4/cyfitter_cfg.c **** 			0x02u, 0x08u, 0x60u, 0x10u, 0x1Fu, 0x60u, 0x82u, 0x07u, 0x80u, 0x02u, 0x00u, 0xA0u, 0x00u, 0x00u
 721:Generated_Source\PSoC4/cyfitter_cfg.c **** 			0x21u, 0x04u, 0x00u, 0x00u, 0x00u, 0xFCu, 0xE6u, 0x2Du, 0x3Fu, 0xFFu, 0xFFu, 0xFFu, 0x00u, 0x00u
 722:Generated_Source\PSoC4/cyfitter_cfg.c **** 			0x04u, 0x00u, 0x00u, 0x00u, 0xFFu, 0x00u, 0x01u, 0x00u, 0x04u, 0x04u, 0x04u, 0x0Du, 0x99u, 0x99u
 723:Generated_Source\PSoC4/cyfitter_cfg.c **** 			0x00u, 0x00u, 0xC0u, 0x00u, 0x30u, 0x00u, 0x00u, 0x10u, 0x80u, 0x00u, 0x20u, 0x00u, 0x40u, 0x40u
 724:Generated_Source\PSoC4/cyfitter_cfg.c **** 			0x00u, 0x00u, 0x00u, 0x00u, 0x00u, 0x00u, 0x00u, 0x00u, 0x00u, 0x00u, 0x00u, 0x00u, 0x00u, 0x00u
 725:Generated_Source\PSoC4/cyfitter_cfg.c **** 
 726:Generated_Source\PSoC4/cyfitter_cfg.c **** 		static const cfg_memcpy_t CYCODE cfg_memcpy_list [] = {
 727:Generated_Source\PSoC4/cyfitter_cfg.c **** 			/* dest, src, size */
 728:Generated_Source\PSoC4/cyfitter_cfg.c **** 			{(void CYFAR *)(CYDEV_UDB_P0_U1_BASE), BS_UDB_0_1_1_CONFIG_VAL, 128u},
 729:Generated_Source\PSoC4/cyfitter_cfg.c **** 		};
 730:Generated_Source\PSoC4/cyfitter_cfg.c **** 
 731:Generated_Source\PSoC4/cyfitter_cfg.c **** 		uint8 CYDATA i;
 732:Generated_Source\PSoC4/cyfitter_cfg.c **** 
 733:Generated_Source\PSoC4/cyfitter_cfg.c **** 		/* Zero out critical memory blocks before beginning configuration */
 734:Generated_Source\PSoC4/cyfitter_cfg.c **** 		for (i = 0u; i < (sizeof(cfg_memset_list)/sizeof(cfg_memset_list[0])); i++)
 735:Generated_Source\PSoC4/cyfitter_cfg.c **** 		{
 736:Generated_Source\PSoC4/cyfitter_cfg.c **** 			const cfg_memset_t CYCODE * CYDATA ms = &cfg_memset_list[i];
 737:Generated_Source\PSoC4/cyfitter_cfg.c **** 			CYMEMZERO(ms->address, (size_t)(uint32)(ms->size));
 100              		.loc 1 737 0
 101 0008 0626     		movs	r6, #6
 102              	.LBE23:
 103              	.LBE22:
 350:Generated_Source\PSoC4/cyfitter_cfg.c **** 	{
 104              		.loc 1 350 0
 105 000a 7B4B     		ldr	r3, .L15
 106 000c 1A70     		strb	r2, [r3]
 107              	.LVL5:
 108              	.L8:
 109              	.LBB35:
 110              	.LBB28:
 111              		.loc 1 737 0 discriminator 3
 112 000e 3300     		movs	r3, r6
 113 0010 6B43     		muls	r3, r5
 114 0012 7A4C     		ldr	r4, .L15+4
 115 0014 0135     		adds	r5, r5, #1
 116              	.LVL6:
 117 0016 E018     		adds	r0, r4, r3
ARM GAS  C:\Users\leoja\AppData\Local\Temp\ccqDtOdQ.s 			page 16


 118 0018 1F5D     		ldrb	r7, [r3, r4]
 119 001a 4378     		ldrb	r3, [r0, #1]
 120 001c 4279     		ldrb	r2, [r0, #5]
 121 001e 0179     		ldrb	r1, [r0, #4]
 122 0020 1B02     		lsls	r3, r3, #8
 123 0022 3B43     		orrs	r3, r7
 124 0024 1202     		lsls	r2, r2, #8
 125              	.LBB24:
 126              	.LBB25:
  78:Generated_Source\PSoC4/cyfitter_cfg.c **** }
 127              		.loc 1 78 0 discriminator 3
 128 0026 0A43     		orrs	r2, r1
 129              	.LBE25:
 130              	.LBE24:
 131              		.loc 1 737 0 discriminator 3
 132 0028 1900     		movs	r1, r3
 133 002a 8378     		ldrb	r3, [r0, #2]
 134 002c C078     		ldrb	r0, [r0, #3]
 135 002e 1B04     		lsls	r3, r3, #16
 136 0030 0B43     		orrs	r3, r1
 137 0032 0006     		lsls	r0, r0, #24
 138 0034 1843     		orrs	r0, r3
 139              	.LBB27:
 140              	.LBB26:
  78:Generated_Source\PSoC4/cyfitter_cfg.c **** }
 141              		.loc 1 78 0 discriminator 3
 142 0036 0021     		movs	r1, #0
 143 0038 FFF7FEFF 		bl	memset
 144              	.LVL7:
 145              	.LBE26:
 146              	.LBE27:
 147              	.LBE28:
 734:Generated_Source\PSoC4/cyfitter_cfg.c **** 		{
 148              		.loc 1 734 0 discriminator 3
 149 003c 032D     		cmp	r5, #3
 150 003e E6D1     		bne	.L8
 151              	.LVL8:
 152              	.LBB29:
 153              	.LBB30:
 154              	.LBB31:
  92:Generated_Source\PSoC4/cyfitter_cfg.c **** }
 155              		.loc 1 92 0 discriminator 3
 156 0040 2100     		movs	r1, r4
 157 0042 8022     		movs	r2, #128
 158 0044 1231     		adds	r1, r1, #18
 159 0046 6E48     		ldr	r0, .L15+8
 160 0048 FFF7FEFF 		bl	memcpy
 161              	.LVL9:
 162 004c 0022     		movs	r2, #0
 163 004e 1100     		movs	r1, r2
 164 0050 6C4E     		ldr	r6, .L15+12
 165              	.LBE31:
 166              	.LBE30:
 167              	.LBE29:
 168              	.LBB32:
 169              	.LBB33:
 170              	.LBB34:
ARM GAS  C:\Users\leoja\AppData\Local\Temp\ccqDtOdQ.s 			page 17


 182:Generated_Source\PSoC4/cyfitter_cfg.c **** 		while (count != 0u)
 171              		.loc 1 182 0 discriminator 3
 172 0052 FC35     		adds	r5, r5, #252
 173              	.LVL10:
 174 0054 3436     		adds	r6, r6, #52
 175              	.LVL11:
 176              	.L11:
 180:Generated_Source\PSoC4/cyfitter_cfg.c **** 		uint8 count = (uint8)baseAddr;
 177              		.loc 1 180 0
 178 0056 6B4B     		ldr	r3, .L15+12
 179 0058 1433     		adds	r3, r3, #20
 180 005a D058     		ldr	r0, [r2, r3]
 181              	.LVL12:
 182 005c 4B00     		lsls	r3, r1, #1
 182:Generated_Source\PSoC4/cyfitter_cfg.c **** 		while (count != 0u)
 183              		.loc 1 182 0
 184 005e 0700     		movs	r7, r0
 185 0060 2840     		ands	r0, r5
 186              	.LVL13:
 187 0062 0918     		adds	r1, r1, r0
 188              	.LVL14:
 189 0064 4800     		lsls	r0, r1, #1
 190 0066 0130     		adds	r0, r0, #1
 191 0068 0133     		adds	r3, r3, #1
 192 006a 3018     		adds	r0, r6, r0
 193 006c AF43     		bics	r7, r5
 194              	.LVL15:
 195 006e F318     		adds	r3, r6, r3
 196 0070 0190     		str	r0, [sp, #4]
 197              	.LVL16:
 198              	.L9:
 183:Generated_Source\PSoC4/cyfitter_cfg.c **** 		{
 199              		.loc 1 183 0
 200 0072 0198     		ldr	r0, [sp, #4]
 201 0074 8342     		cmp	r3, r0
 202 0076 07D0     		beq	.L14
 185:Generated_Source\PSoC4/cyfitter_cfg.c **** 			j++;
 203              		.loc 1 185 0
 204 0078 581E     		subs	r0, r3, #1
 205 007a 0078     		ldrb	r0, [r0]
 206 007c C019     		adds	r0, r0, r7
 207 007e 0400     		movs	r4, r0
 208 0080 1878     		ldrb	r0, [r3]
 209 0082 0233     		adds	r3, r3, #2
 210 0084 2070     		strb	r0, [r4]
 211 0086 F4E7     		b	.L9
 212              	.L14:
 213              	.LVL17:
 214 0088 0432     		adds	r2, r2, #4
 215              	.LBE34:
 178:Generated_Source\PSoC4/cyfitter_cfg.c **** 	{
 216              		.loc 1 178 0
 217 008a 202A     		cmp	r2, #32
 218 008c E3D1     		bne	.L11
 219              	.LVL18:
 220              	.LBE33:
 221              	.LBE32:
ARM GAS  C:\Users\leoja\AppData\Local\Temp\ccqDtOdQ.s 			page 18


 738:Generated_Source\PSoC4/cyfitter_cfg.c **** 		}
 739:Generated_Source\PSoC4/cyfitter_cfg.c **** 
 740:Generated_Source\PSoC4/cyfitter_cfg.c **** 		/* Copy device configuration data into registers */
 741:Generated_Source\PSoC4/cyfitter_cfg.c **** 		for (i = 0u; i < (sizeof(cfg_memcpy_list)/sizeof(cfg_memcpy_list[0])); i++)
 742:Generated_Source\PSoC4/cyfitter_cfg.c **** 		{
 743:Generated_Source\PSoC4/cyfitter_cfg.c **** 			const cfg_memcpy_t CYCODE * CYDATA mc = &cfg_memcpy_list[i];
 744:Generated_Source\PSoC4/cyfitter_cfg.c **** 			void * CYDATA destPtr = mc->dest;
 745:Generated_Source\PSoC4/cyfitter_cfg.c **** 			const void CYCODE * CYDATA srcPtr = mc->src;
 746:Generated_Source\PSoC4/cyfitter_cfg.c **** 			uint16 CYDATA numBytes = mc->size;
 747:Generated_Source\PSoC4/cyfitter_cfg.c **** 			CYCONFIGCPYCODE(destPtr, srcPtr, numBytes);
 748:Generated_Source\PSoC4/cyfitter_cfg.c **** 		}
 749:Generated_Source\PSoC4/cyfitter_cfg.c **** 
 750:Generated_Source\PSoC4/cyfitter_cfg.c **** 		cfg_write_bytes32(cy_cfg_addr_table, cy_cfg_data_table);
 751:Generated_Source\PSoC4/cyfitter_cfg.c **** 
 752:Generated_Source\PSoC4/cyfitter_cfg.c **** 		/* Perform normal device configuration. Order is not critical for these items. */
 753:Generated_Source\PSoC4/cyfitter_cfg.c **** 		CY_SET_REG16((void *)(CYREG_UDB_BCTL0_DRV), 0x0A00u);
 222              		.loc 1 753 0
 223 008e A022     		movs	r2, #160
 754:Generated_Source\PSoC4/cyfitter_cfg.c **** 		CY_SET_REG8((void *)(CYREG_UDB_BCTL0_DRV + 0x2u), 0x01u);
 224              		.loc 1 754 0
 225 0090 0125     		movs	r5, #1
 226              	.LVL19:
 753:Generated_Source\PSoC4/cyfitter_cfg.c **** 		CY_SET_REG8((void *)(CYREG_UDB_BCTL0_DRV + 0x2u), 0x01u);
 227              		.loc 1 753 0
 228 0092 5D4B     		ldr	r3, .L15+16
 229 0094 1201     		lsls	r2, r2, #4
 230 0096 1A80     		strh	r2, [r3]
 231              		.loc 1 754 0
 232 0098 5C4B     		ldr	r3, .L15+20
 755:Generated_Source\PSoC4/cyfitter_cfg.c **** 
 756:Generated_Source\PSoC4/cyfitter_cfg.c **** 		/* HSIOM Starting address: CYDEV_HSIOM_BASE */
 757:Generated_Source\PSoC4/cyfitter_cfg.c **** 		CY_SET_REG32((void *)(CYDEV_HSIOM_BASE), 0x330033AAu);
 233              		.loc 1 757 0
 234 009a 5D4A     		ldr	r2, .L15+24
 754:Generated_Source\PSoC4/cyfitter_cfg.c **** 
 235              		.loc 1 754 0
 236 009c 1D70     		strb	r5, [r3]
 237              		.loc 1 757 0
 238 009e 5D4B     		ldr	r3, .L15+28
 758:Generated_Source\PSoC4/cyfitter_cfg.c **** 		CY_SET_REG32((void *)(CYREG_HSIOM_PORT_SEL1), 0x22222222u);
 759:Generated_Source\PSoC4/cyfitter_cfg.c **** 		CY_SET_REG32((void *)(CYREG_HSIOM_PORT_SEL3), 0x0000EE00u);
 760:Generated_Source\PSoC4/cyfitter_cfg.c **** 		CY_SET_REG32((void *)(CYREG_HSIOM_PORT_SEL4), 0x000000AAu);
 761:Generated_Source\PSoC4/cyfitter_cfg.c **** 
 762:Generated_Source\PSoC4/cyfitter_cfg.c **** 		/* UDB_PA_0 Starting address: CYDEV_UDB_PA0_BASE */
 763:Generated_Source\PSoC4/cyfitter_cfg.c **** 		CY_SET_REG32((void *)(CYDEV_UDB_PA0_BASE), 0x00990000u);
 764:Generated_Source\PSoC4/cyfitter_cfg.c **** 		CY_SET_REG32((void *)(CYREG_UDB_PA0_CFG8), 0x1AC50000u);
 239              		.loc 1 764 0
 240 00a0 5D49     		ldr	r1, .L15+32
 757:Generated_Source\PSoC4/cyfitter_cfg.c **** 		CY_SET_REG32((void *)(CYREG_HSIOM_PORT_SEL1), 0x22222222u);
 241              		.loc 1 757 0
 242 00a2 1A60     		str	r2, [r3]
 758:Generated_Source\PSoC4/cyfitter_cfg.c **** 		CY_SET_REG32((void *)(CYREG_HSIOM_PORT_SEL1), 0x22222222u);
 243              		.loc 1 758 0
 244 00a4 5D4A     		ldr	r2, .L15+36
 245 00a6 5E4B     		ldr	r3, .L15+40
 246              	.LBE35:
 765:Generated_Source\PSoC4/cyfitter_cfg.c **** 
ARM GAS  C:\Users\leoja\AppData\Local\Temp\ccqDtOdQ.s 			page 19


 766:Generated_Source\PSoC4/cyfitter_cfg.c **** 		/* UDB_PA_1 Starting address: CYDEV_UDB_PA1_BASE */
 767:Generated_Source\PSoC4/cyfitter_cfg.c **** 		CY_SET_REG32((void *)(CYDEV_UDB_PA1_BASE), 0x00990000u);
 768:Generated_Source\PSoC4/cyfitter_cfg.c **** 		CY_SET_REG32((void *)(CYREG_UDB_PA1_CFG8), 0xB1B10000u);
 769:Generated_Source\PSoC4/cyfitter_cfg.c **** 
 770:Generated_Source\PSoC4/cyfitter_cfg.c **** 		/* UDB_PA_2 Starting address: CYDEV_UDB_PA2_BASE */
 771:Generated_Source\PSoC4/cyfitter_cfg.c **** 		CY_SET_REG32((void *)(CYDEV_UDB_PA2_BASE), 0x00990000u);
 772:Generated_Source\PSoC4/cyfitter_cfg.c **** 
 773:Generated_Source\PSoC4/cyfitter_cfg.c **** 		/* UDB_PA_3 Starting address: CYDEV_UDB_PA3_BASE */
 774:Generated_Source\PSoC4/cyfitter_cfg.c **** 		CY_SET_REG32((void *)(CYDEV_UDB_PA3_BASE), 0x00990000u);
 775:Generated_Source\PSoC4/cyfitter_cfg.c **** 
 776:Generated_Source\PSoC4/cyfitter_cfg.c **** 		/* INT_SELECT Starting address: CYDEV_CPUSS_INT_SEL */
 777:Generated_Source\PSoC4/cyfitter_cfg.c **** 		CY_SET_REG32((void *)(CYREG_CPUSS_INT_SEL), 0x00000001u);
 778:Generated_Source\PSoC4/cyfitter_cfg.c **** 
 779:Generated_Source\PSoC4/cyfitter_cfg.c **** 		/* INT_CONFIG Starting address: CYDEV_UDB_INT_CFG */
 780:Generated_Source\PSoC4/cyfitter_cfg.c **** 		CY_SET_REG32((void *)(CYREG_UDB_INT_CFG), 0x00000001u);
 781:Generated_Source\PSoC4/cyfitter_cfg.c **** 
 782:Generated_Source\PSoC4/cyfitter_cfg.c **** 		/* Enable UDB array and digital routing */
 783:Generated_Source\PSoC4/cyfitter_cfg.c **** 		CY_SET_XTND_REG8((void *)CYREG_UDB_UDBIF_WAIT_CFG, (uint8)((CY_GET_XTND_REG8((void *)CYREG_UDB_UD
 784:Generated_Source\PSoC4/cyfitter_cfg.c **** 		CY_SET_XTND_REG8((void *)CYREG_UDB_UDBIF_BANK_CTL, (uint8)(CY_GET_XTND_REG8((void *)CYREG_UDB_UDB
 785:Generated_Source\PSoC4/cyfitter_cfg.c **** 	}
 786:Generated_Source\PSoC4/cyfitter_cfg.c **** 
 787:Generated_Source\PSoC4/cyfitter_cfg.c **** 	/* Perform second pass device configuration. These items must be configured in specific order afte
 788:Generated_Source\PSoC4/cyfitter_cfg.c **** 	/* IOPINS0_0 Starting address: CYDEV_GPIO_PRT0_BASE */
 789:Generated_Source\PSoC4/cyfitter_cfg.c **** 	CY_SET_REG32((void *)(CYDEV_GPIO_PRT0_BASE), 0x000000CEu);
 790:Generated_Source\PSoC4/cyfitter_cfg.c **** 	CY_SET_REG32((void *)(CYREG_GPIO_PRT0_PC), 0x00D80DB1u);
 791:Generated_Source\PSoC4/cyfitter_cfg.c **** 
 792:Generated_Source\PSoC4/cyfitter_cfg.c **** 	/* IOPINS0_1 Starting address: CYDEV_GPIO_PRT1_BASE */
 793:Generated_Source\PSoC4/cyfitter_cfg.c **** 	CY_SET_REG32((void *)(CYDEV_GPIO_PRT1_BASE), 0x000000FFu);
 794:Generated_Source\PSoC4/cyfitter_cfg.c **** 	CY_SET_REG32((void *)(CYREG_GPIO_PRT1_PC), 0x00DB6DB6u);
 795:Generated_Source\PSoC4/cyfitter_cfg.c **** 
 796:Generated_Source\PSoC4/cyfitter_cfg.c **** 	/* IOPINS0_2 Starting address: CYDEV_GPIO_PRT2_BASE */
 797:Generated_Source\PSoC4/cyfitter_cfg.c **** 	CY_SET_REG32((void *)(CYDEV_GPIO_PRT2_BASE), 0x000000C0u);
 247              		.loc 1 797 0
 248 00a8 C026     		movs	r6, #192
 249              	.LBB36:
 758:Generated_Source\PSoC4/cyfitter_cfg.c **** 		CY_SET_REG32((void *)(CYREG_HSIOM_PORT_SEL3), 0x0000EE00u);
 250              		.loc 1 758 0
 251 00aa 1A60     		str	r2, [r3]
 759:Generated_Source\PSoC4/cyfitter_cfg.c **** 		CY_SET_REG32((void *)(CYREG_HSIOM_PORT_SEL4), 0x000000AAu);
 252              		.loc 1 759 0
 253 00ac EE22     		movs	r2, #238
 254 00ae 5D4B     		ldr	r3, .L15+44
 255 00b0 1202     		lsls	r2, r2, #8
 256 00b2 1A60     		str	r2, [r3]
 760:Generated_Source\PSoC4/cyfitter_cfg.c **** 
 257              		.loc 1 760 0
 258 00b4 AA22     		movs	r2, #170
 259 00b6 5C4B     		ldr	r3, .L15+48
 260              	.LBE36:
 261              	.LBB37:
 262              	.LBB38:
 229:Generated_Source\PSoC4/cyfitter_cfg.c **** 	CY_SET_REG32((void *)CYREG_PERI_DIV_CMD, 0x8000FF41u);
 263              		.loc 1 229 0
 264 00b8 0024     		movs	r4, #0
 265              	.LBE38:
 266              	.LBE37:
 267              	.LBB42:
ARM GAS  C:\Users\leoja\AppData\Local\Temp\ccqDtOdQ.s 			page 20


 760:Generated_Source\PSoC4/cyfitter_cfg.c **** 
 268              		.loc 1 760 0
 269 00ba 1A60     		str	r2, [r3]
 763:Generated_Source\PSoC4/cyfitter_cfg.c **** 		CY_SET_REG32((void *)(CYREG_UDB_PA0_CFG8), 0x1AC50000u);
 270              		.loc 1 763 0
 271 00bc 9923     		movs	r3, #153
 272 00be 5B4A     		ldr	r2, .L15+52
 273 00c0 1B04     		lsls	r3, r3, #16
 274 00c2 1360     		str	r3, [r2]
 764:Generated_Source\PSoC4/cyfitter_cfg.c **** 
 275              		.loc 1 764 0
 276 00c4 5A4A     		ldr	r2, .L15+56
 277              	.LBE42:
 278              	.LBB43:
 279              	.LBB39:
 215:Generated_Source\PSoC4/cyfitter_cfg.c **** 
 280              		.loc 1 215 0
 281 00c6 5B4F     		ldr	r7, .L15+60
 282              	.LBE39:
 283              	.LBE43:
 284              	.LBB44:
 764:Generated_Source\PSoC4/cyfitter_cfg.c **** 
 285              		.loc 1 764 0
 286 00c8 1160     		str	r1, [r2]
 767:Generated_Source\PSoC4/cyfitter_cfg.c **** 		CY_SET_REG32((void *)(CYREG_UDB_PA1_CFG8), 0xB1B10000u);
 287              		.loc 1 767 0
 288 00ca 5B4A     		ldr	r2, .L15+64
 768:Generated_Source\PSoC4/cyfitter_cfg.c **** 
 289              		.loc 1 768 0
 290 00cc 5B49     		ldr	r1, .L15+68
 767:Generated_Source\PSoC4/cyfitter_cfg.c **** 		CY_SET_REG32((void *)(CYREG_UDB_PA1_CFG8), 0xB1B10000u);
 291              		.loc 1 767 0
 292 00ce 1360     		str	r3, [r2]
 768:Generated_Source\PSoC4/cyfitter_cfg.c **** 
 293              		.loc 1 768 0
 294 00d0 5B4A     		ldr	r2, .L15+72
 295              	.LBE44:
 798:Generated_Source\PSoC4/cyfitter_cfg.c **** 	CY_SET_REG32((void *)(CYREG_GPIO_PRT2_PC2), 0x000000C0u);
 799:Generated_Source\PSoC4/cyfitter_cfg.c **** 
 800:Generated_Source\PSoC4/cyfitter_cfg.c **** 	/* IOPINS0_3 Starting address: CYDEV_GPIO_PRT3_BASE */
 801:Generated_Source\PSoC4/cyfitter_cfg.c **** 	CY_SET_REG32((void *)(CYREG_GPIO_PRT3_PC), 0x00C49D80u);
 802:Generated_Source\PSoC4/cyfitter_cfg.c **** 
 803:Generated_Source\PSoC4/cyfitter_cfg.c **** 	/* IOPINS0_4 Starting address: CYDEV_GPIO_PRT4_BASE */
 804:Generated_Source\PSoC4/cyfitter_cfg.c **** 	CY_SET_REG32((void *)(CYDEV_GPIO_PRT4_BASE), 0x00000002u);
 805:Generated_Source\PSoC4/cyfitter_cfg.c **** 	CY_SET_REG32((void *)(CYREG_GPIO_PRT4_PC), 0x00036C71u);
 806:Generated_Source\PSoC4/cyfitter_cfg.c **** 
 807:Generated_Source\PSoC4/cyfitter_cfg.c **** 	/* IOPINS0_5 Starting address: CYDEV_GPIO_PRT5_BASE */
 808:Generated_Source\PSoC4/cyfitter_cfg.c **** 	CY_SET_REG32((void *)(CYDEV_GPIO_PRT5_BASE), 0x00000028u);
 809:Generated_Source\PSoC4/cyfitter_cfg.c **** 	CY_SET_REG32((void *)(CYREG_GPIO_PRT5_PC), 0x00030C00u);
 810:Generated_Source\PSoC4/cyfitter_cfg.c **** 
 811:Generated_Source\PSoC4/cyfitter_cfg.c **** 	/* IOPINS0_6 Starting address: CYDEV_GPIO_PRT6_BASE */
 812:Generated_Source\PSoC4/cyfitter_cfg.c **** 	CY_SET_REG32((void *)(CYREG_GPIO_PRT6_PC), 0x00009000u);
 813:Generated_Source\PSoC4/cyfitter_cfg.c **** 
 814:Generated_Source\PSoC4/cyfitter_cfg.c **** 	/* IOPINS0_7 Starting address: CYDEV_GPIO_PRT7_BASE */
 815:Generated_Source\PSoC4/cyfitter_cfg.c **** 	CY_SET_REG32((void *)(CYREG_GPIO_PRT7_PC), 0x00000030u);
 816:Generated_Source\PSoC4/cyfitter_cfg.c **** 
 817:Generated_Source\PSoC4/cyfitter_cfg.c **** 
ARM GAS  C:\Users\leoja\AppData\Local\Temp\ccqDtOdQ.s 			page 21


 818:Generated_Source\PSoC4/cyfitter_cfg.c **** 	/* Setup clocks based on selections from Clock DWR */
 819:Generated_Source\PSoC4/cyfitter_cfg.c **** 	ClockSetup();
 820:Generated_Source\PSoC4/cyfitter_cfg.c **** 
 821:Generated_Source\PSoC4/cyfitter_cfg.c **** 	/* Perform basic analog initialization to defaults */
 822:Generated_Source\PSoC4/cyfitter_cfg.c **** 	AnalogSetDefault();
 823:Generated_Source\PSoC4/cyfitter_cfg.c **** 
 824:Generated_Source\PSoC4/cyfitter_cfg.c **** }
 296              		.loc 1 824 0
 297              		@ sp needed
 298              	.LBB45:
 768:Generated_Source\PSoC4/cyfitter_cfg.c **** 
 299              		.loc 1 768 0
 300 00d2 1160     		str	r1, [r2]
 783:Generated_Source\PSoC4/cyfitter_cfg.c **** 		CY_SET_XTND_REG8((void *)CYREG_UDB_UDBIF_BANK_CTL, (uint8)(CY_GET_XTND_REG8((void *)CYREG_UDB_UDB
 301              		.loc 1 783 0
 302 00d4 3C21     		movs	r1, #60
 771:Generated_Source\PSoC4/cyfitter_cfg.c **** 
 303              		.loc 1 771 0
 304 00d6 5B4A     		ldr	r2, .L15+76
 305 00d8 1360     		str	r3, [r2]
 774:Generated_Source\PSoC4/cyfitter_cfg.c **** 
 306              		.loc 1 774 0
 307 00da 5B4A     		ldr	r2, .L15+80
 308 00dc 1360     		str	r3, [r2]
 777:Generated_Source\PSoC4/cyfitter_cfg.c **** 
 309              		.loc 1 777 0
 310 00de 5B4B     		ldr	r3, .L15+84
 783:Generated_Source\PSoC4/cyfitter_cfg.c **** 		CY_SET_XTND_REG8((void *)CYREG_UDB_UDBIF_BANK_CTL, (uint8)(CY_GET_XTND_REG8((void *)CYREG_UDB_UDB
 311              		.loc 1 783 0
 312 00e0 5B4A     		ldr	r2, .L15+88
 777:Generated_Source\PSoC4/cyfitter_cfg.c **** 
 313              		.loc 1 777 0
 314 00e2 1D60     		str	r5, [r3]
 780:Generated_Source\PSoC4/cyfitter_cfg.c **** 
 315              		.loc 1 780 0
 316 00e4 5B4B     		ldr	r3, .L15+92
 317 00e6 1D60     		str	r5, [r3]
 783:Generated_Source\PSoC4/cyfitter_cfg.c **** 		CY_SET_XTND_REG8((void *)CYREG_UDB_UDBIF_BANK_CTL, (uint8)(CY_GET_XTND_REG8((void *)CYREG_UDB_UDB
 318              		.loc 1 783 0
 319 00e8 1378     		ldrb	r3, [r2]
 320 00ea 8B43     		bics	r3, r1
 321 00ec 2839     		subs	r1, r1, #40
 322 00ee 0B43     		orrs	r3, r1
 323 00f0 1370     		strb	r3, [r2]
 784:Generated_Source\PSoC4/cyfitter_cfg.c **** 	}
 324              		.loc 1 784 0
 325 00f2 594A     		ldr	r2, .L15+96
 326 00f4 0231     		adds	r1, r1, #2
 327 00f6 1378     		ldrb	r3, [r2]
 328 00f8 0B43     		orrs	r3, r1
 329 00fa 1370     		strb	r3, [r2]
 330              	.LBE45:
 789:Generated_Source\PSoC4/cyfitter_cfg.c **** 	CY_SET_REG32((void *)(CYREG_GPIO_PRT0_PC), 0x00D80DB1u);
 331              		.loc 1 789 0
 332 00fc CE22     		movs	r2, #206
 333 00fe 574B     		ldr	r3, .L15+100
 334 0100 1A60     		str	r2, [r3]
ARM GAS  C:\Users\leoja\AppData\Local\Temp\ccqDtOdQ.s 			page 22


 790:Generated_Source\PSoC4/cyfitter_cfg.c **** 
 335              		.loc 1 790 0
 336 0102 574A     		ldr	r2, .L15+104
 337 0104 574B     		ldr	r3, .L15+108
 338 0106 1A60     		str	r2, [r3]
 793:Generated_Source\PSoC4/cyfitter_cfg.c **** 	CY_SET_REG32((void *)(CYREG_GPIO_PRT1_PC), 0x00DB6DB6u);
 339              		.loc 1 793 0
 340 0108 FF22     		movs	r2, #255
 341 010a 574B     		ldr	r3, .L15+112
 342 010c 1A60     		str	r2, [r3]
 794:Generated_Source\PSoC4/cyfitter_cfg.c **** 
 343              		.loc 1 794 0
 344 010e 574A     		ldr	r2, .L15+116
 345 0110 574B     		ldr	r3, .L15+120
 346 0112 1A60     		str	r2, [r3]
 797:Generated_Source\PSoC4/cyfitter_cfg.c **** 	CY_SET_REG32((void *)(CYREG_GPIO_PRT2_PC2), 0x000000C0u);
 347              		.loc 1 797 0
 348 0114 574B     		ldr	r3, .L15+124
 801:Generated_Source\PSoC4/cyfitter_cfg.c **** 
 349              		.loc 1 801 0
 350 0116 584A     		ldr	r2, .L15+128
 797:Generated_Source\PSoC4/cyfitter_cfg.c **** 	CY_SET_REG32((void *)(CYREG_GPIO_PRT2_PC2), 0x000000C0u);
 351              		.loc 1 797 0
 352 0118 1E60     		str	r6, [r3]
 798:Generated_Source\PSoC4/cyfitter_cfg.c **** 
 353              		.loc 1 798 0
 354 011a 584B     		ldr	r3, .L15+132
 355 011c 1E60     		str	r6, [r3]
 801:Generated_Source\PSoC4/cyfitter_cfg.c **** 
 356              		.loc 1 801 0
 357 011e 584B     		ldr	r3, .L15+136
 358 0120 1A60     		str	r2, [r3]
 804:Generated_Source\PSoC4/cyfitter_cfg.c **** 	CY_SET_REG32((void *)(CYREG_GPIO_PRT4_PC), 0x00036C71u);
 359              		.loc 1 804 0
 360 0122 0222     		movs	r2, #2
 361 0124 574B     		ldr	r3, .L15+140
 362 0126 1A60     		str	r2, [r3]
 805:Generated_Source\PSoC4/cyfitter_cfg.c **** 
 363              		.loc 1 805 0
 364 0128 574A     		ldr	r2, .L15+144
 365 012a 584B     		ldr	r3, .L15+148
 366 012c 1A60     		str	r2, [r3]
 808:Generated_Source\PSoC4/cyfitter_cfg.c **** 	CY_SET_REG32((void *)(CYREG_GPIO_PRT5_PC), 0x00030C00u);
 367              		.loc 1 808 0
 368 012e 2822     		movs	r2, #40
 369 0130 574B     		ldr	r3, .L15+152
 370 0132 1A60     		str	r2, [r3]
 809:Generated_Source\PSoC4/cyfitter_cfg.c **** 
 371              		.loc 1 809 0
 372 0134 C322     		movs	r2, #195
 373 0136 574B     		ldr	r3, .L15+156
 374 0138 9202     		lsls	r2, r2, #10
 375 013a 1A60     		str	r2, [r3]
 812:Generated_Source\PSoC4/cyfitter_cfg.c **** 
 376              		.loc 1 812 0
 377 013c 9022     		movs	r2, #144
 378 013e 564B     		ldr	r3, .L15+160
ARM GAS  C:\Users\leoja\AppData\Local\Temp\ccqDtOdQ.s 			page 23


 379 0140 1202     		lsls	r2, r2, #8
 380 0142 1A60     		str	r2, [r3]
 815:Generated_Source\PSoC4/cyfitter_cfg.c **** 
 381              		.loc 1 815 0
 382 0144 3022     		movs	r2, #48
 383 0146 554B     		ldr	r3, .L15+164
 384 0148 1A60     		str	r2, [r3]
 385              	.LBB46:
 386              	.LBB40:
 215:Generated_Source\PSoC4/cyfitter_cfg.c **** 
 387              		.loc 1 215 0
 388 014a 1223     		movs	r3, #18
 389 014c 3B60     		str	r3, [r7]
 218:Generated_Source\PSoC4/cyfitter_cfg.c **** 	CyDelayCycles(12000000u); /* WCO may take up to 500ms to start */
 390              		.loc 1 218 0
 391 014e FFF7FEFF 		bl	CySysClkWcoStart
 392              	.LVL20:
 219:Generated_Source\PSoC4/cyfitter_cfg.c **** 
 393              		.loc 1 219 0
 394 0152 5348     		ldr	r0, .L15+168
 395 0154 FFF7FEFF 		bl	CyDelayCycles
 396              	.LVL21:
 222:Generated_Source\PSoC4/cyfitter_cfg.c **** 	CySysClkImoEnableWcoLock();
 397              		.loc 1 222 0
 398 0158 1820     		movs	r0, #24
 399 015a FFF7FEFF 		bl	CySysClkWriteImoFreq
 400              	.LVL22:
 223:Generated_Source\PSoC4/cyfitter_cfg.c **** 	/* CYDEV_CLK_ILO_CONFIG Starting address: CYDEV_CLK_ILO_CONFIG */
 401              		.loc 1 223 0
 402 015e FFF7FEFF 		bl	CySysClkImoEnableWcoLock
 403              	.LVL23:
 225:Generated_Source\PSoC4/cyfitter_cfg.c **** 
 404              		.loc 1 225 0
 405 0162 504A     		ldr	r2, .L15+172
 406 0164 504B     		ldr	r3, .L15+176
 233:Generated_Source\PSoC4/cyfitter_cfg.c **** 	CY_SET_REG32((void *)CYREG_PERI_DIV_CMD, 0x8000FF44u);
 407              		.loc 1 233 0
 408 0166 5149     		ldr	r1, .L15+180
 225:Generated_Source\PSoC4/cyfitter_cfg.c **** 
 409              		.loc 1 225 0
 410 0168 1A60     		str	r2, [r3]
 229:Generated_Source\PSoC4/cyfitter_cfg.c **** 	CY_SET_REG32((void *)CYREG_PERI_DIV_CMD, 0x8000FF41u);
 411              		.loc 1 229 0
 412 016a 514B     		ldr	r3, .L15+184
 230:Generated_Source\PSoC4/cyfitter_cfg.c **** 	CY_SET_REG32((void *)CYREG_PERI_DIV_16_CTL0, 0x00000000u);
 413              		.loc 1 230 0
 414 016c 514A     		ldr	r2, .L15+188
 229:Generated_Source\PSoC4/cyfitter_cfg.c **** 	CY_SET_REG32((void *)CYREG_PERI_DIV_CMD, 0x8000FF41u);
 415              		.loc 1 229 0
 416 016e 1C60     		str	r4, [r3]
 230:Generated_Source\PSoC4/cyfitter_cfg.c **** 	CY_SET_REG32((void *)CYREG_PERI_DIV_16_CTL0, 0x00000000u);
 417              		.loc 1 230 0
 418 0170 514B     		ldr	r3, .L15+192
 255:Generated_Source\PSoC4/cyfitter_cfg.c **** 	CyIntEnable(7u);
 419              		.loc 1 255 0
 420 0172 0720     		movs	r0, #7
 230:Generated_Source\PSoC4/cyfitter_cfg.c **** 	CY_SET_REG32((void *)CYREG_PERI_DIV_16_CTL0, 0x00000000u);
ARM GAS  C:\Users\leoja\AppData\Local\Temp\ccqDtOdQ.s 			page 24


 421              		.loc 1 230 0
 422 0174 1A60     		str	r2, [r3]
 231:Generated_Source\PSoC4/cyfitter_cfg.c **** 	CY_SET_REG32((void *)CYREG_PERI_DIV_CMD, 0x8000FF40u);
 423              		.loc 1 231 0
 424 0176 514A     		ldr	r2, .L15+196
 425 0178 1460     		str	r4, [r2]
 232:Generated_Source\PSoC4/cyfitter_cfg.c **** 	CY_SET_REG32((void *)CYREG_PERI_DIV_16_CTL4, 0x0003BF00u);
 426              		.loc 1 232 0
 427 017a 514A     		ldr	r2, .L15+200
 428 017c 1A60     		str	r2, [r3]
 233:Generated_Source\PSoC4/cyfitter_cfg.c **** 	CY_SET_REG32((void *)CYREG_PERI_DIV_CMD, 0x8000FF44u);
 429              		.loc 1 233 0
 430 017e 514A     		ldr	r2, .L15+204
 431 0180 1160     		str	r1, [r2]
 235:Generated_Source\PSoC4/cyfitter_cfg.c **** 	CY_SET_REG32((void *)CYREG_PERI_DIV_CMD, 0x8000FF42u);
 432              		.loc 1 235 0
 433 0182 8021     		movs	r1, #128
 234:Generated_Source\PSoC4/cyfitter_cfg.c **** 	CY_SET_REG32((void *)CYREG_PERI_DIV_16_CTL2, 0x00000100u);
 434              		.loc 1 234 0
 435 0184 504A     		ldr	r2, .L15+208
 235:Generated_Source\PSoC4/cyfitter_cfg.c **** 	CY_SET_REG32((void *)CYREG_PERI_DIV_CMD, 0x8000FF42u);
 436              		.loc 1 235 0
 437 0186 4900     		lsls	r1, r1, #1
 234:Generated_Source\PSoC4/cyfitter_cfg.c **** 	CY_SET_REG32((void *)CYREG_PERI_DIV_16_CTL2, 0x00000100u);
 438              		.loc 1 234 0
 439 0188 1A60     		str	r2, [r3]
 235:Generated_Source\PSoC4/cyfitter_cfg.c **** 	CY_SET_REG32((void *)CYREG_PERI_DIV_CMD, 0x8000FF42u);
 440              		.loc 1 235 0
 441 018a 504A     		ldr	r2, .L15+212
 442 018c 1160     		str	r1, [r2]
 237:Generated_Source\PSoC4/cyfitter_cfg.c **** 	CY_SET_REG32((void *)CYREG_PERI_DIV_CMD, 0x8000FF43u);
 443              		.loc 1 237 0
 444 018e 8021     		movs	r1, #128
 236:Generated_Source\PSoC4/cyfitter_cfg.c **** 	CY_SET_REG32((void *)CYREG_PERI_DIV_16_CTL3, 0x00000400u);
 445              		.loc 1 236 0
 446 0190 4F4A     		ldr	r2, .L15+216
 237:Generated_Source\PSoC4/cyfitter_cfg.c **** 	CY_SET_REG32((void *)CYREG_PERI_DIV_CMD, 0x8000FF43u);
 447              		.loc 1 237 0
 448 0192 C900     		lsls	r1, r1, #3
 236:Generated_Source\PSoC4/cyfitter_cfg.c **** 	CY_SET_REG32((void *)CYREG_PERI_DIV_16_CTL3, 0x00000400u);
 449              		.loc 1 236 0
 450 0194 1A60     		str	r2, [r3]
 237:Generated_Source\PSoC4/cyfitter_cfg.c **** 	CY_SET_REG32((void *)CYREG_PERI_DIV_CMD, 0x8000FF43u);
 451              		.loc 1 237 0
 452 0196 4F4A     		ldr	r2, .L15+220
 453 0198 1160     		str	r1, [r2]
 238:Generated_Source\PSoC4/cyfitter_cfg.c **** 
 454              		.loc 1 238 0
 455 019a 4F4A     		ldr	r2, .L15+224
 255:Generated_Source\PSoC4/cyfitter_cfg.c **** 	CyIntEnable(7u);
 456              		.loc 1 255 0
 457 019c 4F49     		ldr	r1, .L15+228
 238:Generated_Source\PSoC4/cyfitter_cfg.c **** 
 458              		.loc 1 238 0
 459 019e 1A60     		str	r2, [r3]
 241:Generated_Source\PSoC4/cyfitter_cfg.c **** 
 460              		.loc 1 241 0
ARM GAS  C:\Users\leoja\AppData\Local\Temp\ccqDtOdQ.s 			page 25


 461 01a0 8222     		movs	r2, #130
 462 01a2 4F4B     		ldr	r3, .L15+232
 463 01a4 1206     		lsls	r2, r2, #24
 464 01a6 1A60     		str	r2, [r3]
 247:Generated_Source\PSoC4/cyfitter_cfg.c **** 
 465              		.loc 1 247 0
 466 01a8 4422     		movs	r2, #68
 244:Generated_Source\PSoC4/cyfitter_cfg.c **** 
 467              		.loc 1 244 0
 468 01aa 4E4B     		ldr	r3, .L15+236
 469 01ac 1C60     		str	r4, [r3]
 247:Generated_Source\PSoC4/cyfitter_cfg.c **** 
 470              		.loc 1 247 0
 471 01ae 4E4B     		ldr	r3, .L15+240
 472 01b0 1A60     		str	r2, [r3]
 250:Generated_Source\PSoC4/cyfitter_cfg.c **** 
 473              		.loc 1 250 0
 474 01b2 4E4B     		ldr	r3, .L15+244
 475 01b4 023A     		subs	r2, r2, #2
 476 01b6 1A60     		str	r2, [r3]
 253:Generated_Source\PSoC4/cyfitter_cfg.c **** 
 477              		.loc 1 253 0
 478 01b8 4D4B     		ldr	r3, .L15+248
 479 01ba 5219     		adds	r2, r2, r5
 480 01bc 1A60     		str	r2, [r3]
 255:Generated_Source\PSoC4/cyfitter_cfg.c **** 	CyIntEnable(7u);
 481              		.loc 1 255 0
 482 01be FFF7FEFF 		bl	CyIntSetVector
 483              	.LVL24:
 256:Generated_Source\PSoC4/cyfitter_cfg.c **** 	CY_SET_REG32((void *)(CYREG_WDT_CONFIG), 0x00000000u);
 484              		.loc 1 256 0
 485 01c2 0720     		movs	r0, #7
 486 01c4 FFF7FEFF 		bl	CyIntEnable
 487              	.LVL25:
 257:Generated_Source\PSoC4/cyfitter_cfg.c **** 	/* Set Flash Cycles based on newly configured 24.00MHz HFCLK. */
 488              		.loc 1 257 0
 489 01c8 4A4B     		ldr	r3, .L15+252
 490              	.LBE40:
 491              	.LBE46:
 492              	.LBB47:
 493              	.LBB48:
 284:Generated_Source\PSoC4/cyfitter_cfg.c **** 	CY_SET_XTND_REG32((void CYFAR *)CYREG_CTBM1_DFT_CTRL, 0x00000003u);
 494              		.loc 1 284 0
 495 01ca 4B4A     		ldr	r2, .L15+256
 496              	.LBE48:
 497              	.LBE47:
 498              	.LBB50:
 499              	.LBB41:
 257:Generated_Source\PSoC4/cyfitter_cfg.c **** 	/* Set Flash Cycles based on newly configured 24.00MHz HFCLK. */
 500              		.loc 1 257 0
 501 01cc 1C60     		str	r4, [r3]
 259:Generated_Source\PSoC4/cyfitter_cfg.c **** }
 502              		.loc 1 259 0
 503 01ce 1123     		movs	r3, #17
 504 01d0 3B60     		str	r3, [r7]
 505              	.LBE41:
 506              	.LBE50:
ARM GAS  C:\Users\leoja\AppData\Local\Temp\ccqDtOdQ.s 			page 26


 507              	.LBB51:
 508              	.LBB49:
 284:Generated_Source\PSoC4/cyfitter_cfg.c **** 	CY_SET_XTND_REG32((void CYFAR *)CYREG_CTBM1_DFT_CTRL, 0x00000003u);
 509              		.loc 1 284 0
 510 01d2 0E3B     		subs	r3, r3, #14
 511 01d4 1360     		str	r3, [r2]
 285:Generated_Source\PSoC4/cyfitter_cfg.c **** 	CY_SET_XTND_REG32((void CYFAR *)CYREG_SAR_CTRL, 0x80000000u);
 512              		.loc 1 285 0
 513 01d6 494A     		ldr	r2, .L15+260
 290:Generated_Source\PSoC4/cyfitter_cfg.c **** }
 514              		.loc 1 290 0
 515 01d8 2800     		movs	r0, r5
 285:Generated_Source\PSoC4/cyfitter_cfg.c **** 	CY_SET_XTND_REG32((void CYFAR *)CYREG_SAR_CTRL, 0x80000000u);
 516              		.loc 1 285 0
 517 01da 1360     		str	r3, [r2]
 286:Generated_Source\PSoC4/cyfitter_cfg.c **** 	CY_SET_XTND_REG32((void CYFAR *)CYREG_SAR_MUX_SWITCH0, 0x000000C0u);
 518              		.loc 1 286 0
 519 01dc 8022     		movs	r2, #128
 520 01de 484B     		ldr	r3, .L15+264
 521 01e0 1206     		lsls	r2, r2, #24
 522 01e2 1A60     		str	r2, [r3]
 287:Generated_Source\PSoC4/cyfitter_cfg.c **** 	CY_SET_XTND_REG32((void CYFAR *)CYREG_SAR_MUX_SWITCH_HW_CTRL, 0x000000C0u);
 523              		.loc 1 287 0
 524 01e4 474B     		ldr	r3, .L15+268
 525 01e6 1E60     		str	r6, [r3]
 288:Generated_Source\PSoC4/cyfitter_cfg.c **** 	CY_SET_XTND_REG32((void CYFAR *)CYREG_PASS_DSAB_DSAB_CTRL, 0x00000000u);
 526              		.loc 1 288 0
 527 01e8 474B     		ldr	r3, .L15+272
 528 01ea 1E60     		str	r6, [r3]
 289:Generated_Source\PSoC4/cyfitter_cfg.c **** 	SetAnalogRoutingPumps(1);
 529              		.loc 1 289 0
 530 01ec 474B     		ldr	r3, .L15+276
 531 01ee 1C60     		str	r4, [r3]
 290:Generated_Source\PSoC4/cyfitter_cfg.c **** }
 532              		.loc 1 290 0
 533 01f0 FFF7FEFF 		bl	SetAnalogRoutingPumps
 534              	.LVL26:
 535              	.LBE49:
 536              	.LBE51:
 537              		.loc 1 824 0
 538 01f4 F7BD     		pop	{r0, r1, r2, r4, r5, r6, r7, pc}
 539              	.L16:
 540 01f6 C046     		.align	2
 541              	.L15:
 542 01f8 1C700F40 		.word	1074753564
 543 01fc 00000000 		.word	.LANCHOR0
 544 0200 80300F40 		.word	1074737280
 545 0204 80000000 		.word	.LANCHOR1
 546 0208 00600F40 		.word	1074749440
 547 020c 02600F40 		.word	1074749442
 548 0210 AA330033 		.word	855651242
 549 0214 00000240 		.word	1073872896
 550 0218 0000C51A 		.word	449118208
 551 021c 22222222 		.word	572662306
 552 0220 00010240 		.word	1073873152
 553 0224 00030240 		.word	1073873664
 554 0228 00040240 		.word	1073873920
ARM GAS  C:\Users\leoja\AppData\Local\Temp\ccqDtOdQ.s 			page 27


 555 022c 00500F40 		.word	1074745344
 556 0230 08500F40 		.word	1074745352
 557 0234 30001040 		.word	1074790448
 558 0238 10500F40 		.word	1074745360
 559 023c 0000B1B1 		.word	-1313800192
 560 0240 18500F40 		.word	1074745368
 561 0244 20500F40 		.word	1074745376
 562 0248 30500F40 		.word	1074745392
 563 024c 20001040 		.word	1074790432
 564 0250 01700F40 		.word	1074753537
 565 0254 00800F40 		.word	1074757632
 566 0258 00700F40 		.word	1074753536
 567 025c 00000440 		.word	1074003968
 568 0260 B10DD800 		.word	14159281
 569 0264 08000440 		.word	1074003976
 570 0268 00010440 		.word	1074004224
 571 026c B66DDB00 		.word	14380470
 572 0270 08010440 		.word	1074004232
 573 0274 00020440 		.word	1074004480
 574 0278 809DC400 		.word	12885376
 575 027c 18020440 		.word	1074004504
 576 0280 08030440 		.word	1074004744
 577 0284 00040440 		.word	1074004992
 578 0288 716C0300 		.word	224369
 579 028c 08040440 		.word	1074005000
 580 0290 00050440 		.word	1074005248
 581 0294 08050440 		.word	1074005256
 582 0298 08060440 		.word	1074005512
 583 029c 08070440 		.word	1074005768
 584 02a0 001BB700 		.word	12000000
 585 02a4 06000080 		.word	-2147483642
 586 02a8 04010B40 		.word	1074462980
 587 02ac 00BF0300 		.word	245504
 588 02b0 04030140 		.word	1073808132
 589 02b4 41FF0080 		.word	-2147418303
 590 02b8 00000140 		.word	1073807360
 591 02bc 00030140 		.word	1073808128
 592 02c0 40FF0080 		.word	-2147418304
 593 02c4 10030140 		.word	1073808144
 594 02c8 44FF0080 		.word	-2147418300
 595 02cc 08030140 		.word	1073808136
 596 02d0 42FF0080 		.word	-2147418302
 597 02d4 0C030140 		.word	1073808140
 598 02d8 43FF0080 		.word	-2147418301
 599 02dc 00000000 		.word	CySysWdtIsr
 600 02e0 08010B40 		.word	1074462984
 601 02e4 00010B40 		.word	1074462976
 602 02e8 58010140 		.word	1073807704
 603 02ec 50010140 		.word	1073807696
 604 02f0 28010140 		.word	1073807656
 605 02f4 0C020B40 		.word	1074463244
 606 02f8 30003040 		.word	1076887600
 607 02fc 30003140 		.word	1076953136
 608 0300 00003A40 		.word	1077542912
 609 0304 00033A40 		.word	1077543680
 610 0308 40033A40 		.word	1077543744
 611 030c 000E3F40 		.word	1077874176
ARM GAS  C:\Users\leoja\AppData\Local\Temp\ccqDtOdQ.s 			page 28


 612              		.cfi_endproc
 613              	.LFE8:
 614              		.size	cyfitter_cfg, .-cyfitter_cfg
 615              		.section	.rodata
 616              		.align	2
 617              		.set	.LANCHOR0,. + 0
 618              		.set	.LANCHOR1,. + 128
 619              		.type	cfg_memset_list.4922, %object
 620              		.size	cfg_memset_list.4922, 18
 621              	cfg_memset_list.4922:
 622 0000 00300F40 		.4byte	1074737152
 623 0004 8000     		.2byte	128
 624 0006 00310F40 		.4byte	1074737408
 625 000a 0003     		.2byte	768
 626 000c 00400F40 		.4byte	1074741248
 627 0010 0004     		.2byte	1024
 628              		.type	BS_UDB_0_1_1_CONFIG_VAL.4923, %object
 629              		.size	BS_UDB_0_1_1_CONFIG_VAL.4923, 128
 630              	BS_UDB_0_1_1_CONFIG_VAL.4923:
 631 0012 10       		.byte	16
 632 0013 7A       		.byte	122
 633 0014 00       		.byte	0
 634 0015 04       		.byte	4
 635 0016 DE       		.byte	-34
 636 0017 00       		.byte	0
 637 0018 21       		.byte	33
 638 0019 00       		.byte	0
 639 001a 25       		.byte	37
 640 001b 20       		.byte	32
 641 001c 1A       		.byte	26
 642 001d 40       		.byte	64
 643 001e 08       		.byte	8
 644 001f 00       		.byte	0
 645 0020 00       		.byte	0
 646 0021 04       		.byte	4
 647 0022 00       		.byte	0
 648 0023 40       		.byte	64
 649 0024 00       		.byte	0
 650 0025 20       		.byte	32
 651 0026 21       		.byte	33
 652 0027 62       		.byte	98
 653 0028 00       		.byte	0
 654 0029 1C       		.byte	28
 655 002a 00       		.byte	0
 656 002b 00       		.byte	0
 657 002c 00       		.byte	0
 658 002d 02       		.byte	2
 659 002e A9       		.byte	-87
 660 002f 68       		.byte	104
 661 0030 50       		.byte	80
 662 0031 15       		.byte	21
 663 0032 63       		.byte	99
 664 0033 00       		.byte	0
 665 0034 84       		.byte	-124
 666 0035 00       		.byte	0
 667 0036 00       		.byte	0
 668 0037 00       		.byte	0
ARM GAS  C:\Users\leoja\AppData\Local\Temp\ccqDtOdQ.s 			page 29


 669 0038 00       		.byte	0
 670 0039 00       		.byte	0
 671 003a 01       		.byte	1
 672 003b 18       		.byte	24
 673 003c 20       		.byte	32
 674 003d 63       		.byte	99
 675 003e 00       		.byte	0
 676 003f 00       		.byte	0
 677 0040 00       		.byte	0
 678 0041 10       		.byte	16
 679 0042 02       		.byte	2
 680 0043 08       		.byte	8
 681 0044 60       		.byte	96
 682 0045 10       		.byte	16
 683 0046 1F       		.byte	31
 684 0047 60       		.byte	96
 685 0048 82       		.byte	-126
 686 0049 07       		.byte	7
 687 004a 80       		.byte	-128
 688 004b 02       		.byte	2
 689 004c 00       		.byte	0
 690 004d A0       		.byte	-96
 691 004e 00       		.byte	0
 692 004f 00       		.byte	0
 693 0050 00       		.byte	0
 694 0051 04       		.byte	4
 695 0052 21       		.byte	33
 696 0053 04       		.byte	4
 697 0054 00       		.byte	0
 698 0055 00       		.byte	0
 699 0056 00       		.byte	0
 700 0057 FC       		.byte	-4
 701 0058 E6       		.byte	-26
 702 0059 2D       		.byte	45
 703 005a 3F       		.byte	63
 704 005b FF       		.byte	-1
 705 005c FF       		.byte	-1
 706 005d FF       		.byte	-1
 707 005e 00       		.byte	0
 708 005f 00       		.byte	0
 709 0060 00       		.byte	0
 710 0061 00       		.byte	0
 711 0062 04       		.byte	4
 712 0063 00       		.byte	0
 713 0064 00       		.byte	0
 714 0065 00       		.byte	0
 715 0066 FF       		.byte	-1
 716 0067 00       		.byte	0
 717 0068 01       		.byte	1
 718 0069 00       		.byte	0
 719 006a 04       		.byte	4
 720 006b 04       		.byte	4
 721 006c 04       		.byte	4
 722 006d 0D       		.byte	13
 723 006e 99       		.byte	-103
 724 006f 99       		.byte	-103
 725 0070 00       		.byte	0
ARM GAS  C:\Users\leoja\AppData\Local\Temp\ccqDtOdQ.s 			page 30


 726 0071 01       		.byte	1
 727 0072 00       		.byte	0
 728 0073 00       		.byte	0
 729 0074 C0       		.byte	-64
 730 0075 00       		.byte	0
 731 0076 30       		.byte	48
 732 0077 00       		.byte	0
 733 0078 00       		.byte	0
 734 0079 10       		.byte	16
 735 007a 80       		.byte	-128
 736 007b 00       		.byte	0
 737 007c 20       		.byte	32
 738 007d 00       		.byte	0
 739 007e 40       		.byte	64
 740 007f 40       		.byte	64
 741 0080 10       		.byte	16
 742 0081 50       		.byte	80
 743 0082 00       		.byte	0
 744 0083 00       		.byte	0
 745 0084 00       		.byte	0
 746 0085 00       		.byte	0
 747 0086 00       		.byte	0
 748 0087 00       		.byte	0
 749 0088 00       		.byte	0
 750 0089 00       		.byte	0
 751 008a 00       		.byte	0
 752 008b 00       		.byte	0
 753 008c 00       		.byte	0
 754 008d 00       		.byte	0
 755 008e 00       		.byte	0
 756 008f 00       		.byte	0
 757 0090 00       		.byte	0
 758 0091 00       		.byte	0
 759 0092 0000     		.space	2
 760              		.type	cy_cfg_addr_table.4911, %object
 761              		.size	cy_cfg_addr_table.4911, 32
 762              	cy_cfg_addr_table.4911:
 763 0094 04000F40 		.word	1074724868
 764 0098 1A300F40 		.word	1074737178
 765 009c 3C310F40 		.word	1074737468
 766 00a0 5C320F40 		.word	1074737756
 767 00a4 4E330F40 		.word	1074737998
 768 00a8 0F400F40 		.word	1074741263
 769 00ac 33410F40 		.word	1074741555
 770 00b0 02600F40 		.word	1074749442
 771              		.type	cy_cfg_data_table.4912, %object
 772              		.size	cy_cfg_data_table.4912, 656
 773              	cy_cfg_data_table.4912:
 774 00b4 21       		.byte	33
 775 00b5 08       		.byte	8
 776 00b6 31       		.byte	49
 777 00b7 09       		.byte	9
 778 00b8 82       		.byte	-126
 779 00b9 0D       		.byte	13
 780 00ba 83       		.byte	-125
 781 00bb 0F       		.byte	15
 782 00bc 40       		.byte	64
ARM GAS  C:\Users\leoja\AppData\Local\Temp\ccqDtOdQ.s 			page 31


 783 00bd 30       		.byte	48
 784 00be 41       		.byte	65
 785 00bf 06       		.byte	6
 786 00c0 45       		.byte	69
 787 00c1 D1       		.byte	-47
 788 00c2 46       		.byte	70
 789 00c3 05       		.byte	5
 790 00c4 47       		.byte	71
 791 00c5 02       		.byte	2
 792 00c6 48       		.byte	72
 793 00c7 17       		.byte	23
 794 00c8 49       		.byte	73
 795 00c9 FF       		.byte	-1
 796 00ca 4A       		.byte	74
 797 00cb FF       		.byte	-1
 798 00cc 4B       		.byte	75
 799 00cd FF       		.byte	-1
 800 00ce 4D       		.byte	77
 801 00cf A0       		.byte	-96
 802 00d0 4F       		.byte	79
 803 00d1 04       		.byte	4
 804 00d2 50       		.byte	80
 805 00d3 18       		.byte	24
 806 00d4 54       		.byte	84
 807 00d5 02       		.byte	2
 808 00d6 5A       		.byte	90
 809 00d7 04       		.byte	4
 810 00d8 5B       		.byte	91
 811 00d9 04       		.byte	4
 812 00da 5D       		.byte	93
 813 00db 91       		.byte	-111
 814 00dc 5F       		.byte	95
 815 00dd 01       		.byte	1
 816 00de 60       		.byte	96
 817 00df 40       		.byte	64
 818 00e0 62       		.byte	98
 819 00e1 C0       		.byte	-64
 820 00e2 64       		.byte	100
 821 00e3 40       		.byte	64
 822 00e4 65       		.byte	101
 823 00e5 40       		.byte	64
 824 00e6 66       		.byte	102
 825 00e7 C0       		.byte	-64
 826 00e8 68       		.byte	104
 827 00e9 C0       		.byte	-64
 828 00ea 6A       		.byte	106
 829 00eb C0       		.byte	-64
 830 00ec 6C       		.byte	108
 831 00ed C0       		.byte	-64
 832 00ee 6E       		.byte	110
 833 00ef C0       		.byte	-64
 834 00f0 05       		.byte	5
 835 00f1 14       		.byte	20
 836 00f2 06       		.byte	6
 837 00f3 42       		.byte	66
 838 00f4 0E       		.byte	14
 839 00f5 21       		.byte	33
ARM GAS  C:\Users\leoja\AppData\Local\Temp\ccqDtOdQ.s 			page 32


 840 00f6 16       		.byte	22
 841 00f7 08       		.byte	8
 842 00f8 17       		.byte	23
 843 00f9 02       		.byte	2
 844 00fa 1C       		.byte	28
 845 00fb 81       		.byte	-127
 846 00fc 1D       		.byte	29
 847 00fd 34       		.byte	52
 848 00fe 1E       		.byte	30
 849 00ff 08       		.byte	8
 850 0100 1F       		.byte	31
 851 0101 08       		.byte	8
 852 0102 25       		.byte	37
 853 0103 12       		.byte	18
 854 0104 26       		.byte	38
 855 0105 48       		.byte	72
 856 0106 27       		.byte	39
 857 0107 12       		.byte	18
 858 0108 2F       		.byte	47
 859 0109 0A       		.byte	10
 860 010a 36       		.byte	54
 861 010b 54       		.byte	84
 862 010c 37       		.byte	55
 863 010d 01       		.byte	1
 864 010e 3D       		.byte	61
 865 010f 20       		.byte	32
 866 0110 3E       		.byte	62
 867 0111 81       		.byte	-127
 868 0112 40       		.byte	64
 869 0113 10       		.byte	16
 870 0114 45       		.byte	69
 871 0115 A0       		.byte	-96
 872 0116 47       		.byte	71
 873 0117 02       		.byte	2
 874 0118 48       		.byte	72
 875 0119 28       		.byte	40
 876 011a 49       		.byte	73
 877 011b 01       		.byte	1
 878 011c 4D       		.byte	77
 879 011d 04       		.byte	4
 880 011e 4E       		.byte	78
 881 011f 80       		.byte	-128
 882 0120 50       		.byte	80
 883 0121 48       		.byte	72
 884 0122 54       		.byte	84
 885 0123 10       		.byte	16
 886 0124 56       		.byte	86
 887 0125 CA       		.byte	-54
 888 0126 57       		.byte	87
 889 0127 02       		.byte	2
 890 0128 5A       		.byte	90
 891 0129 40       		.byte	64
 892 012a 5B       		.byte	91
 893 012b 10       		.byte	16
 894 012c 5C       		.byte	92
 895 012d 48       		.byte	72
 896 012e 5D       		.byte	93
ARM GAS  C:\Users\leoja\AppData\Local\Temp\ccqDtOdQ.s 			page 33


 897 012f 02       		.byte	2
 898 0130 5E       		.byte	94
 899 0131 10       		.byte	16
 900 0132 64       		.byte	100
 901 0133 92       		.byte	-110
 902 0134 66       		.byte	102
 903 0135 20       		.byte	32
 904 0136 6D       		.byte	109
 905 0137 02       		.byte	2
 906 0138 6E       		.byte	110
 907 0139 20       		.byte	32
 908 013a 6F       		.byte	111
 909 013b 21       		.byte	33
 910 013c 74       		.byte	116
 911 013d 01       		.byte	1
 912 013e 75       		.byte	117
 913 013f A8       		.byte	-88
 914 0140 7E       		.byte	126
 915 0141 08       		.byte	8
 916 0142 84       		.byte	-124
 917 0143 02       		.byte	2
 918 0144 87       		.byte	-121
 919 0145 20       		.byte	32
 920 0146 89       		.byte	-119
 921 0147 A0       		.byte	-96
 922 0148 8A       		.byte	-118
 923 0149 10       		.byte	16
 924 014a 8B       		.byte	-117
 925 014b 01       		.byte	1
 926 014c 8D       		.byte	-115
 927 014d 02       		.byte	2
 928 014e C0       		.byte	-64
 929 014f F0       		.byte	-16
 930 0150 C2       		.byte	-62
 931 0151 A0       		.byte	-96
 932 0152 C4       		.byte	-60
 933 0153 50       		.byte	80
 934 0154 CA       		.byte	-54
 935 0155 30       		.byte	48
 936 0156 CC       		.byte	-52
 937 0157 F0       		.byte	-16
 938 0158 CE       		.byte	-50
 939 0159 B0       		.byte	-80
 940 015a D0       		.byte	-48
 941 015b B2       		.byte	-78
 942 015c D2       		.byte	-46
 943 015d 04       		.byte	4
 944 015e D6       		.byte	-42
 945 015f FC       		.byte	-4
 946 0160 D8       		.byte	-40
 947 0161 F0       		.byte	-16
 948 0162 DE       		.byte	-34
 949 0163 20       		.byte	32
 950 0164 E2       		.byte	-30
 951 0165 A0       		.byte	-96
 952 0166 E6       		.byte	-26
 953 0167 B0       		.byte	-80
ARM GAS  C:\Users\leoja\AppData\Local\Temp\ccqDtOdQ.s 			page 34


 954 0168 00       		.byte	0
 955 0169 20       		.byte	32
 956 016a 04       		.byte	4
 957 016b 7D       		.byte	125
 958 016c 0E       		.byte	14
 959 016d 10       		.byte	16
 960 016e 0F       		.byte	15
 961 016f 02       		.byte	2
 962 0170 16       		.byte	22
 963 0171 80       		.byte	-128
 964 0172 18       		.byte	24
 965 0173 08       		.byte	8
 966 0174 1A       		.byte	26
 967 0175 36       		.byte	54
 968 0176 1C       		.byte	28
 969 0177 51       		.byte	81
 970 0178 1E       		.byte	30
 971 0179 2A       		.byte	42
 972 017a 1F       		.byte	31
 973 017b 01       		.byte	1
 974 017c 20       		.byte	32
 975 017d 07       		.byte	7
 976 017e 22       		.byte	34
 977 017f 48       		.byte	72
 978 0180 24       		.byte	36
 979 0181 03       		.byte	3
 980 0182 27       		.byte	39
 981 0183 01       		.byte	1
 982 0184 2A       		.byte	42
 983 0185 80       		.byte	-128
 984 0186 31       		.byte	49
 985 0187 01       		.byte	1
 986 0188 32       		.byte	50
 987 0189 40       		.byte	64
 988 018a 33       		.byte	51
 989 018b 02       		.byte	2
 990 018c 34       		.byte	52
 991 018d 80       		.byte	-128
 992 018e 36       		.byte	54
 993 018f 3F       		.byte	63
 994 0190 38       		.byte	56
 995 0191 08       		.byte	8
 996 0192 3E       		.byte	62
 997 0193 10       		.byte	16
 998 0194 3F       		.byte	63
 999 0195 01       		.byte	1
 1000 0196 40       		.byte	64
 1001 0197 13       		.byte	19
 1002 0198 49       		.byte	73
 1003 0199 FF       		.byte	-1
 1004 019a 4A       		.byte	74
 1005 019b FF       		.byte	-1
 1006 019c 4B       		.byte	75
 1007 019d FF       		.byte	-1
 1008 019e 4F       		.byte	79
 1009 019f 01       		.byte	1
 1010 01a0 50       		.byte	80
ARM GAS  C:\Users\leoja\AppData\Local\Temp\ccqDtOdQ.s 			page 35


 1011 01a1 18       		.byte	24
 1012 01a2 52       		.byte	82
 1013 01a3 80       		.byte	-128
 1014 01a4 54       		.byte	84
 1015 01a5 01       		.byte	1
 1016 01a6 56       		.byte	86
 1017 01a7 04       		.byte	4
 1018 01a8 58       		.byte	88
 1019 01a9 04       		.byte	4
 1020 01aa 59       		.byte	89
 1021 01ab 04       		.byte	4
 1022 01ac 5A       		.byte	90
 1023 01ad 04       		.byte	4
 1024 01ae 5B       		.byte	91
 1025 01af 04       		.byte	4
 1026 01b0 5C       		.byte	92
 1027 01b1 19       		.byte	25
 1028 01b2 5D       		.byte	93
 1029 01b3 33       		.byte	51
 1030 01b4 5F       		.byte	95
 1031 01b5 01       		.byte	1
 1032 01b6 60       		.byte	96
 1033 01b7 40       		.byte	64
 1034 01b8 62       		.byte	98
 1035 01b9 40       		.byte	64
 1036 01ba 64       		.byte	100
 1037 01bb 40       		.byte	64
 1038 01bc 65       		.byte	101
 1039 01bd 40       		.byte	64
 1040 01be 66       		.byte	102
 1041 01bf 80       		.byte	-128
 1042 01c0 68       		.byte	104
 1043 01c1 80       		.byte	-128
 1044 01c2 6A       		.byte	106
 1045 01c3 80       		.byte	-128
 1046 01c4 6C       		.byte	108
 1047 01c5 80       		.byte	-128
 1048 01c6 6E       		.byte	110
 1049 01c7 80       		.byte	-128
 1050 01c8 82       		.byte	-126
 1051 01c9 04       		.byte	4
 1052 01ca 8A       		.byte	-118
 1053 01cb 04       		.byte	4
 1054 01cc 8E       		.byte	-114
 1055 01cd 01       		.byte	1
 1056 01ce 8F       		.byte	-113
 1057 01cf 02       		.byte	2
 1058 01d0 98       		.byte	-104
 1059 01d1 01       		.byte	1
 1060 01d2 9B       		.byte	-101
 1061 01d3 01       		.byte	1
 1062 01d4 A5       		.byte	-91
 1063 01d5 01       		.byte	1
 1064 01d6 A6       		.byte	-90
 1065 01d7 02       		.byte	2
 1066 01d8 B0       		.byte	-80
 1067 01d9 04       		.byte	4
ARM GAS  C:\Users\leoja\AppData\Local\Temp\ccqDtOdQ.s 			page 36


 1068 01da B2       		.byte	-78
 1069 01db 02       		.byte	2
 1070 01dc B4       		.byte	-76
 1071 01dd 01       		.byte	1
 1072 01de B5       		.byte	-75
 1073 01df 02       		.byte	2
 1074 01e0 B7       		.byte	-73
 1075 01e1 01       		.byte	1
 1076 01e2 B8       		.byte	-72
 1077 01e3 02       		.byte	2
 1078 01e4 BE       		.byte	-66
 1079 01e5 01       		.byte	1
 1080 01e6 C0       		.byte	-64
 1081 01e7 12       		.byte	18
 1082 01e8 C5       		.byte	-59
 1083 01e9 EC       		.byte	-20
 1084 01ea C6       		.byte	-58
 1085 01eb 20       		.byte	32
 1086 01ec C8       		.byte	-56
 1087 01ed 0B       		.byte	11
 1088 01ee C9       		.byte	-55
 1089 01ef FF       		.byte	-1
 1090 01f0 CA       		.byte	-54
 1091 01f1 FF       		.byte	-1
 1092 01f2 CB       		.byte	-53
 1093 01f3 FF       		.byte	-1
 1094 01f4 CD       		.byte	-51
 1095 01f5 83       		.byte	-125
 1096 01f6 CE       		.byte	-50
 1097 01f7 03       		.byte	3
 1098 01f8 CF       		.byte	-49
 1099 01f9 01       		.byte	1
 1100 01fa D0       		.byte	-48
 1101 01fb 18       		.byte	24
 1102 01fc D2       		.byte	-46
 1103 01fd 80       		.byte	-128
 1104 01fe D4       		.byte	-44
 1105 01ff 07       		.byte	7
 1106 0200 D8       		.byte	-40
 1107 0201 04       		.byte	4
 1108 0202 D9       		.byte	-39
 1109 0203 04       		.byte	4
 1110 0204 DA       		.byte	-38
 1111 0205 04       		.byte	4
 1112 0206 DB       		.byte	-37
 1113 0207 04       		.byte	4
 1114 0208 DC       		.byte	-36
 1115 0209 11       		.byte	17
 1116 020a DD       		.byte	-35
 1117 020b 13       		.byte	19
 1118 020c DF       		.byte	-33
 1119 020d 01       		.byte	1
 1120 020e E0       		.byte	-32
 1121 020f 40       		.byte	64
 1122 0210 E2       		.byte	-30
 1123 0211 40       		.byte	64
 1124 0212 E4       		.byte	-28
ARM GAS  C:\Users\leoja\AppData\Local\Temp\ccqDtOdQ.s 			page 37


 1125 0213 40       		.byte	64
 1126 0214 E5       		.byte	-27
 1127 0215 40       		.byte	64
 1128 0216 E6       		.byte	-26
 1129 0217 80       		.byte	-128
 1130 0218 E8       		.byte	-24
 1131 0219 80       		.byte	-128
 1132 021a EA       		.byte	-22
 1133 021b 80       		.byte	-128
 1134 021c EC       		.byte	-20
 1135 021d 80       		.byte	-128
 1136 021e EE       		.byte	-18
 1137 021f 80       		.byte	-128
 1138 0220 00       		.byte	0
 1139 0221 20       		.byte	32
 1140 0222 01       		.byte	1
 1141 0223 40       		.byte	64
 1142 0224 02       		.byte	2
 1143 0225 80       		.byte	-128
 1144 0226 05       		.byte	5
 1145 0227 04       		.byte	4
 1146 0228 06       		.byte	6
 1147 0229 42       		.byte	66
 1148 022a 09       		.byte	9
 1149 022b 20       		.byte	32
 1150 022c 0C       		.byte	12
 1151 022d 08       		.byte	8
 1152 022e 0E       		.byte	14
 1153 022f 09       		.byte	9
 1154 0230 10       		.byte	16
 1155 0231 20       		.byte	32
 1156 0232 15       		.byte	21
 1157 0233 04       		.byte	4
 1158 0234 17       		.byte	23
 1159 0235 12       		.byte	18
 1160 0236 19       		.byte	25
 1161 0237 18       		.byte	24
 1162 0238 1A       		.byte	26
 1163 0239 40       		.byte	64
 1164 023a 1D       		.byte	29
 1165 023b 80       		.byte	-128
 1166 023c 1E       		.byte	30
 1167 023d 05       		.byte	5
 1168 023e 1F       		.byte	31
 1169 023f 04       		.byte	4
 1170 0240 21       		.byte	33
 1171 0241 20       		.byte	32
 1172 0242 22       		.byte	34
 1173 0243 40       		.byte	64
 1174 0244 24       		.byte	36
 1175 0245 50       		.byte	80
 1176 0246 27       		.byte	39
 1177 0247 10       		.byte	16
 1178 0248 29       		.byte	41
 1179 0249 08       		.byte	8
 1180 024a 2F       		.byte	47
 1181 024b 20       		.byte	32
ARM GAS  C:\Users\leoja\AppData\Local\Temp\ccqDtOdQ.s 			page 38


 1182 024c 30       		.byte	48
 1183 024d 20       		.byte	32
 1184 024e 37       		.byte	55
 1185 024f 40       		.byte	64
 1186 0250 38       		.byte	56
 1187 0251 80       		.byte	-128
 1188 0252 39       		.byte	57
 1189 0253 40       		.byte	64
 1190 0254 3F       		.byte	63
 1191 0255 40       		.byte	64
 1192 0256 43       		.byte	67
 1193 0257 60       		.byte	96
 1194 0258 46       		.byte	70
 1195 0259 10       		.byte	16
 1196 025a 47       		.byte	71
 1197 025b 40       		.byte	64
 1198 025c 4B       		.byte	75
 1199 025d 05       		.byte	5
 1200 025e 52       		.byte	82
 1201 025f 10       		.byte	16
 1202 0260 53       		.byte	83
 1203 0261 20       		.byte	32
 1204 0262 59       		.byte	89
 1205 0263 11       		.byte	17
 1206 0264 5A       		.byte	90
 1207 0265 84       		.byte	-124
 1208 0266 5C       		.byte	92
 1209 0267 40       		.byte	64
 1210 0268 5F       		.byte	95
 1211 0269 05       		.byte	5
 1212 026a 66       		.byte	102
 1213 026b 01       		.byte	1
 1214 026c 73       		.byte	115
 1215 026d 40       		.byte	64
 1216 026e 77       		.byte	119
 1217 026f 40       		.byte	64
 1218 0270 80       		.byte	-128
 1219 0271 80       		.byte	-128
 1220 0272 82       		.byte	-126
 1221 0273 01       		.byte	1
 1222 0274 84       		.byte	-124
 1223 0275 01       		.byte	1
 1224 0276 88       		.byte	-120
 1225 0277 10       		.byte	16
 1226 0278 89       		.byte	-119
 1227 0279 02       		.byte	2
 1228 027a 8C       		.byte	-116
 1229 027b 08       		.byte	8
 1230 027c 8E       		.byte	-114
 1231 027d 10       		.byte	16
 1232 027e 90       		.byte	-112
 1233 027f 80       		.byte	-128
 1234 0280 91       		.byte	-111
 1235 0281 04       		.byte	4
 1236 0282 94       		.byte	-108
 1237 0283 10       		.byte	16
 1238 0284 96       		.byte	-106
ARM GAS  C:\Users\leoja\AppData\Local\Temp\ccqDtOdQ.s 			page 39


 1239 0285 51       		.byte	81
 1240 0286 97       		.byte	-105
 1241 0287 08       		.byte	8
 1242 0288 99       		.byte	-103
 1243 0289 05       		.byte	5
 1244 028a 9A       		.byte	-102
 1245 028b 42       		.byte	66
 1246 028c 9B       		.byte	-101
 1247 028d 02       		.byte	2
 1248 028e 9C       		.byte	-100
 1249 028f 98       		.byte	-104
 1250 0290 9D       		.byte	-99
 1251 0291 02       		.byte	2
 1252 0292 A0       		.byte	-96
 1253 0293 39       		.byte	57
 1254 0294 A2       		.byte	-94
 1255 0295 84       		.byte	-124
 1256 0296 A5       		.byte	-91
 1257 0297 80       		.byte	-128
 1258 0298 A9       		.byte	-87
 1259 0299 19       		.byte	25
 1260 029a AC       		.byte	-84
 1261 029b 40       		.byte	64
 1262 029c AE       		.byte	-82
 1263 029d 20       		.byte	32
 1264 029e AF       		.byte	-81
 1265 029f 04       		.byte	4
 1266 02a0 B4       		.byte	-76
 1267 02a1 41       		.byte	65
 1268 02a2 C0       		.byte	-64
 1269 02a3 BB       		.byte	-69
 1270 02a4 C2       		.byte	-62
 1271 02a5 E2       		.byte	-30
 1272 02a6 C4       		.byte	-60
 1273 02a7 74       		.byte	116
 1274 02a8 CA       		.byte	-54
 1275 02a9 42       		.byte	66
 1276 02aa CC       		.byte	-52
 1277 02ab 14       		.byte	20
 1278 02ac CE       		.byte	-50
 1279 02ad 18       		.byte	24
 1280 02ae D0       		.byte	-48
 1281 02af 5C       		.byte	92
 1282 02b0 D6       		.byte	-42
 1283 02b1 DF       		.byte	-33
 1284 02b2 D8       		.byte	-40
 1285 02b3 80       		.byte	-128
 1286 02b4 E0       		.byte	-32
 1287 02b5 E0       		.byte	-32
 1288 02b6 E4       		.byte	-28
 1289 02b7 10       		.byte	16
 1290 02b8 E8       		.byte	-24
 1291 02b9 40       		.byte	64
 1292 02ba EE       		.byte	-18
 1293 02bb 10       		.byte	16
 1294 02bc 50       		.byte	80
 1295 02bd 40       		.byte	64
ARM GAS  C:\Users\leoja\AppData\Local\Temp\ccqDtOdQ.s 			page 40


 1296 02be 57       		.byte	87
 1297 02bf 01       		.byte	1
 1298 02c0 5B       		.byte	91
 1299 02c1 04       		.byte	4
 1300 02c2 5C       		.byte	92
 1301 02c3 01       		.byte	1
 1302 02c4 6B       		.byte	107
 1303 02c5 10       		.byte	16
 1304 02c6 84       		.byte	-124
 1305 02c7 01       		.byte	1
 1306 02c8 87       		.byte	-121
 1307 02c9 10       		.byte	16
 1308 02ca 89       		.byte	-119
 1309 02cb 01       		.byte	1
 1310 02cc 8A       		.byte	-118
 1311 02cd 91       		.byte	-111
 1312 02ce 8C       		.byte	-116
 1313 02cf 01       		.byte	1
 1314 02d0 D4       		.byte	-44
 1315 02d1 20       		.byte	32
 1316 02d2 D6       		.byte	-42
 1317 02d3 E0       		.byte	-32
 1318 02d4 DA       		.byte	-38
 1319 02d5 40       		.byte	64
 1320 02d6 E4       		.byte	-28
 1321 02d7 40       		.byte	64
 1322 02d8 E6       		.byte	-26
 1323 02d9 10       		.byte	16
 1324 02da 01       		.byte	1
 1325 02db 48       		.byte	72
 1326 02dc 05       		.byte	5
 1327 02dd 40       		.byte	64
 1328 02de 06       		.byte	6
 1329 02df 80       		.byte	-128
 1330 02e0 08       		.byte	8
 1331 02e1 80       		.byte	-128
 1332 02e2 0B       		.byte	11
 1333 02e3 20       		.byte	32
 1334 02e4 0D       		.byte	13
 1335 02e5 80       		.byte	-128
 1336 02e6 0F       		.byte	15
 1337 02e7 10       		.byte	16
 1338 02e8 30       		.byte	48
 1339 02e9 20       		.byte	32
 1340 02ea 52       		.byte	82
 1341 02eb 80       		.byte	-128
 1342 02ec 54       		.byte	84
 1343 02ed 01       		.byte	1
 1344 02ee 56       		.byte	86
 1345 02ef 10       		.byte	16
 1346 02f0 5A       		.byte	90
 1347 02f1 02       		.byte	2
 1348 02f2 5B       		.byte	91
 1349 02f3 40       		.byte	64
 1350 02f4 5D       		.byte	93
 1351 02f5 01       		.byte	1
 1352 02f6 60       		.byte	96
ARM GAS  C:\Users\leoja\AppData\Local\Temp\ccqDtOdQ.s 			page 41


 1353 02f7 08       		.byte	8
 1354 02f8 65       		.byte	101
 1355 02f9 02       		.byte	2
 1356 02fa 81       		.byte	-127
 1357 02fb 80       		.byte	-128
 1358 02fc 83       		.byte	-125
 1359 02fd 10       		.byte	16
 1360 02fe 84       		.byte	-124
 1361 02ff 08       		.byte	8
 1362 0300 88       		.byte	-120
 1363 0301 80       		.byte	-128
 1364 0302 89       		.byte	-119
 1365 0303 40       		.byte	64
 1366 0304 8D       		.byte	-115
 1367 0305 40       		.byte	64
 1368 0306 8E       		.byte	-114
 1369 0307 80       		.byte	-128
 1370 0308 91       		.byte	-111
 1371 0309 01       		.byte	1
 1372 030a 92       		.byte	-110
 1373 030b 02       		.byte	2
 1374 030c 97       		.byte	-105
 1375 030d 30       		.byte	48
 1376 030e 99       		.byte	-103
 1377 030f 02       		.byte	2
 1378 0310 9A       		.byte	-102
 1379 0311 10       		.byte	16
 1380 0312 9B       		.byte	-101
 1381 0313 40       		.byte	64
 1382 0314 9D       		.byte	-99
 1383 0315 08       		.byte	8
 1384 0316 9F       		.byte	-97
 1385 0317 10       		.byte	16
 1386 0318 A0       		.byte	-96
 1387 0319 21       		.byte	33
 1388 031a A2       		.byte	-94
 1389 031b 80       		.byte	-128
 1390 031c A9       		.byte	-87
 1391 031d 02       		.byte	2
 1392 031e AB       		.byte	-85
 1393 031f 44       		.byte	68
 1394 0320 AC       		.byte	-84
 1395 0321 20       		.byte	32
 1396 0322 AF       		.byte	-81
 1397 0323 11       		.byte	17
 1398 0324 B4       		.byte	-76
 1399 0325 40       		.byte	64
 1400 0326 B5       		.byte	-75
 1401 0327 08       		.byte	8
 1402 0328 C0       		.byte	-64
 1403 0329 F0       		.byte	-16
 1404 032a C2       		.byte	-62
 1405 032b F0       		.byte	-16
 1406 032c CC       		.byte	-52
 1407 032d 10       		.byte	16
 1408 032e D4       		.byte	-44
 1409 032f E0       		.byte	-32
ARM GAS  C:\Users\leoja\AppData\Local\Temp\ccqDtOdQ.s 			page 42


 1410 0330 D6       		.byte	-42
 1411 0331 E0       		.byte	-32
 1412 0332 D8       		.byte	-40
 1413 0333 C0       		.byte	-64
 1414 0334 E2       		.byte	-30
 1415 0335 20       		.byte	32
 1416 0336 E4       		.byte	-28
 1417 0337 80       		.byte	-128
 1418 0338 E6       		.byte	-26
 1419 0339 10       		.byte	16
 1420 033a E8       		.byte	-24
 1421 033b 10       		.byte	16
 1422 033c EA       		.byte	-22
 1423 033d C0       		.byte	-64
 1424 033e EE       		.byte	-18
 1425 033f B0       		.byte	-80
 1426 0340 10       		.byte	16
 1427 0341 0A       		.byte	10
 1428 0342 11       		.byte	17
 1429 0343 01       		.byte	1
 1430              		.text
 1431              	.Letext0:
 1432              		.file 2 "c:\\program files (x86)\\cypress\\psoc creator\\4.4\\psoc creator\\import\\gnu\\arm\\5.4.
 1433              		.file 3 "Generated_Source\\PSoC4\\cytypes.h"
 1434              		.file 4 "Generated_Source\\PSoC4\\CyLFClk.h"
 1435              		.file 5 "Generated_Source\\PSoC4\\CyLib.h"