ARM GAS  C:\Users\leoja\AppData\Local\Temp\ccYOCOnJ.s 			page 1


   1              		.syntax unified
   2              		.cpu cortex-m0
   3              		.fpu softvfp
   4              		.eabi_attribute 20, 1
   5              		.eabi_attribute 21, 1
   6              		.eabi_attribute 23, 3
   7              		.eabi_attribute 24, 1
   8              		.eabi_attribute 25, 1
   9              		.eabi_attribute 26, 1
  10              		.eabi_attribute 30, 4
  11              		.eabi_attribute 34, 0
  12              		.eabi_attribute 18, 4
  13              		.thumb
  14              		.syntax unified
  15              		.file	"frucd_display.c"
  16              		.text
  17              	.Ltext0:
  18              		.cfi_sections	.debug_frame
  19              		.section	.text.calibrateScreen,"ax",%progbits
  20              		.align	1
  21              		.global	calibrateScreen
  22              		.code	16
  23              		.thumb_func
  24              		.type	calibrateScreen, %function
  25              	calibrateScreen:
  26              	.LFB35:
  27              		.file 1 "frucd_display.c"
   1:frucd_display.c **** /* ========================================
   2:frucd_display.c ****  *
   3:frucd_display.c ****  * APIs for updating FRUCD Dashboard display
   4:frucd_display.c ****  *
   5:frucd_display.c ****  * ========================================
   6:frucd_display.c **** */
   7:frucd_display.c **** #include "frucd_display.h"
   8:frucd_display.c **** 
   9:frucd_display.c **** // Just a test function that displays elements at the supposed corners of the screen
  10:frucd_display.c **** void calibrateScreen() {
  28              		.loc 1 10 0
  29              		.cfi_startproc
  30              		@ args = 0, pretend = 0, frame = 0
  31              		@ frame_needed = 0, uses_anonymous_args = 0
  32 0000 F7B5     		push	{r0, r1, r2, r4, r5, r6, r7, lr}
  33              		.cfi_def_cfa_offset 32
  34              		.cfi_offset 0, -32
  35              		.cfi_offset 1, -28
  36              		.cfi_offset 2, -24
  37              		.cfi_offset 4, -20
  38              		.cfi_offset 5, -16
  39              		.cfi_offset 6, -12
  40              		.cfi_offset 7, -8
  41              		.cfi_offset 14, -4
  11:frucd_display.c ****     UG_FillScreen(C_WHITE);
  42              		.loc 1 11 0
  43 0002 1948     		ldr	r0, .L2
  44 0004 FFF7FEFF 		bl	UG_FillScreen
  45              	.LVL0:
  12:frucd_display.c ****     //libTFT_FillRectangle(0, 0, 10, 10, RED);
ARM GAS  C:\Users\leoja\AppData\Local\Temp\ccYOCOnJ.s 			page 2


  13:frucd_display.c ****     UG_FillFrame(0, 0, 10, 10, C_RED);
  46              		.loc 1 13 0
  47 0008 FF23     		movs	r3, #255
  48 000a 1B04     		lsls	r3, r3, #16
  49 000c 0093     		str	r3, [sp]
  50 000e 0021     		movs	r1, #0
  51 0010 0A23     		movs	r3, #10
  52 0012 0800     		movs	r0, r1
  53 0014 1A00     		movs	r2, r3
  14:frucd_display.c ****     //libTFT_FillRectangle(0, 262, 10, 10, BLUE);
  15:frucd_display.c ****     UG_FillFrame(0, 262, 10, 272, C_BLUE);
  54              		.loc 1 15 0
  55 0016 8827     		movs	r7, #136
  56 0018 8325     		movs	r5, #131
  13:frucd_display.c ****     //libTFT_FillRectangle(0, 262, 10, 10, BLUE);
  57              		.loc 1 13 0
  58 001a FFF7FEFF 		bl	UG_FillFrame
  59              	.LVL1:
  60              		.loc 1 15 0
  61 001e FF23     		movs	r3, #255
  62 0020 7F00     		lsls	r7, r7, #1
  63 0022 6D00     		lsls	r5, r5, #1
  64 0024 2900     		movs	r1, r5
  65 0026 0093     		str	r3, [sp]
  66 0028 0A22     		movs	r2, #10
  67 002a 3B00     		movs	r3, r7
  68 002c 0020     		movs	r0, #0
  69 002e FFF7FEFF 		bl	UG_FillFrame
  70              	.LVL2:
  16:frucd_display.c ****     //libTFT_FillRectangle(470, 0, 10, 10, GREEN);
  17:frucd_display.c ****     UG_FillFrame(470, 0, 480, 10, C_GREEN);
  71              		.loc 1 17 0
  72 0032 F026     		movs	r6, #240
  73 0034 EB24     		movs	r4, #235
  74 0036 FF23     		movs	r3, #255
  75 0038 7600     		lsls	r6, r6, #1
  76 003a 6400     		lsls	r4, r4, #1
  77 003c 1B02     		lsls	r3, r3, #8
  78 003e 3200     		movs	r2, r6
  79 0040 0093     		str	r3, [sp]
  80 0042 2000     		movs	r0, r4
  81 0044 0A23     		movs	r3, #10
  82 0046 0021     		movs	r1, #0
  83 0048 FFF7FEFF 		bl	UG_FillFrame
  84              	.LVL3:
  18:frucd_display.c ****     //libTFT_FillRectangle(470, 262, 10, 10, YELLOW);
  19:frucd_display.c ****     UG_FillFrame(470, 262, 480, 272, C_YELLOW);
  85              		.loc 1 19 0
  86 004c 074B     		ldr	r3, .L2+4
  87 004e 3200     		movs	r2, r6
  88 0050 2900     		movs	r1, r5
  89 0052 0093     		str	r3, [sp]
  90 0054 2000     		movs	r0, r4
  91 0056 3B00     		movs	r3, r7
  92 0058 FFF7FEFF 		bl	UG_FillFrame
  93              	.LVL4:
  20:frucd_display.c ****     CyDelay(300);
ARM GAS  C:\Users\leoja\AppData\Local\Temp\ccYOCOnJ.s 			page 3


  94              		.loc 1 20 0
  95 005c 9620     		movs	r0, #150
  96 005e 4000     		lsls	r0, r0, #1
  97 0060 FFF7FEFF 		bl	CyDelay
  98              	.LVL5:
  21:frucd_display.c **** }
  99              		.loc 1 21 0
 100              		@ sp needed
 101 0064 F7BD     		pop	{r0, r1, r2, r4, r5, r6, r7, pc}
 102              	.L3:
 103 0066 C046     		.align	2
 104              	.L2:
 105 0068 FFFFFF00 		.word	16777215
 106 006c 00FFFF00 		.word	16776960
 107              		.cfi_endproc
 108              	.LFE35:
 109              		.size	calibrateScreen, .-calibrateScreen
 110              		.section	.text.debugTemplate,"ax",%progbits
 111              		.align	1
 112              		.global	debugTemplate
 113              		.code	16
 114              		.thumb_func
 115              		.type	debugTemplate, %function
 116              	debugTemplate:
 117              	.LFB36:
  22:frucd_display.c **** 
  23:frucd_display.c **** // Initializes dashboard layout/label
  24:frucd_display.c **** /*
  25:frucd_display.c **** void initDashTemplate() {
  26:frucd_display.c ****     UG_FillScreen(C_BLACK);
  27:frucd_display.c ****     UG_PutString(68, 10, "PACK SOC");
  28:frucd_display.c ****     UG_PutString(297, 10, "MAX PACK T");
  29:frucd_display.c ****     UG_PutString(10, 195, "STATE:");
  30:frucd_display.c ****     UG_PutString(10, 240, "GLV V:");
  31:frucd_display.c ****     UG_PutString(339, 195, "MC T:");
  32:frucd_display.c ****     UG_PutString(300, 240, "MOTOR T:");
  33:frucd_display.c **** }
  34:frucd_display.c **** */
  35:frucd_display.c **** 
  36:frucd_display.c **** void debugTemplate(){
 118              		.loc 1 36 0
 119              		.cfi_startproc
 120              		@ args = 0, pretend = 0, frame = 0
 121              		@ frame_needed = 0, uses_anonymous_args = 0
 122 0000 10B5     		push	{r4, lr}
 123              		.cfi_def_cfa_offset 8
 124              		.cfi_offset 4, -8
 125              		.cfi_offset 14, -4
  37:frucd_display.c ****     UG_FillScreen(C_BLACK);
 126              		.loc 1 37 0
 127 0002 0020     		movs	r0, #0
 128 0004 FFF7FEFF 		bl	UG_FillScreen
 129              	.LVL6:
  38:frucd_display.c ****     UG_PutString(68, 10, "PACK SOC");
 130              		.loc 1 38 0
 131 0008 104A     		ldr	r2, .L5
 132 000a 0A21     		movs	r1, #10
ARM GAS  C:\Users\leoja\AppData\Local\Temp\ccYOCOnJ.s 			page 4


 133 000c 4420     		movs	r0, #68
 134 000e FFF7FEFF 		bl	UG_PutString
 135              	.LVL7:
  39:frucd_display.c ****     UG_PutString(297, 10, "MAX PACK T");
 136              		.loc 1 39 0
 137 0012 2A20     		movs	r0, #42
 138 0014 0E4A     		ldr	r2, .L5+4
 139 0016 0A21     		movs	r1, #10
 140 0018 FF30     		adds	r0, r0, #255
 141 001a FFF7FEFF 		bl	UG_PutString
 142              	.LVL8:
  40:frucd_display.c ****     UG_PutString(10, 195, "STATE:");
 143              		.loc 1 40 0
 144 001e 0D4A     		ldr	r2, .L5+8
 145 0020 C321     		movs	r1, #195
 146 0022 0A20     		movs	r0, #10
 147 0024 FFF7FEFF 		bl	UG_PutString
 148              	.LVL9:
  41:frucd_display.c ****     UG_PutString(10, 240, "GLV V:");
 149              		.loc 1 41 0
 150 0028 0B4A     		ldr	r2, .L5+12
 151 002a F021     		movs	r1, #240
 152 002c 0A20     		movs	r0, #10
 153 002e FFF7FEFF 		bl	UG_PutString
 154              	.LVL10:
  42:frucd_display.c ****     UG_PutString(339, 195, "MC T:");
 155              		.loc 1 42 0
 156 0032 5420     		movs	r0, #84
 157 0034 094A     		ldr	r2, .L5+16
 158 0036 C321     		movs	r1, #195
 159 0038 FF30     		adds	r0, r0, #255
 160 003a FFF7FEFF 		bl	UG_PutString
 161              	.LVL11:
  43:frucd_display.c ****     UG_PutString(300, 240, "MOTOR T:");
 162              		.loc 1 43 0
 163 003e 9620     		movs	r0, #150
 164 0040 074A     		ldr	r2, .L5+20
 165 0042 F021     		movs	r1, #240
 166 0044 4000     		lsls	r0, r0, #1
 167 0046 FFF7FEFF 		bl	UG_PutString
 168              	.LVL12:
  44:frucd_display.c ****     
  45:frucd_display.c ****     
  46:frucd_display.c ****     
  47:frucd_display.c **** }
 169              		.loc 1 47 0
 170              		@ sp needed
 171 004a 10BD     		pop	{r4, pc}
 172              	.L6:
 173              		.align	2
 174              	.L5:
 175 004c 00000000 		.word	.LC0
 176 0050 09000000 		.word	.LC2
 177 0054 14000000 		.word	.LC4
 178 0058 1B000000 		.word	.LC6
 179 005c 22000000 		.word	.LC8
 180 0060 28000000 		.word	.LC10
ARM GAS  C:\Users\leoja\AppData\Local\Temp\ccYOCOnJ.s 			page 5


 181              		.cfi_endproc
 182              	.LFE36:
 183              		.size	debugTemplate, .-debugTemplate
 184              		.section	.text.driveTemplate,"ax",%progbits
 185              		.align	1
 186              		.global	driveTemplate
 187              		.code	16
 188              		.thumb_func
 189              		.type	driveTemplate, %function
 190              	driveTemplate:
 191              	.LFB37:
  48:frucd_display.c **** void driveTemplate(){
 192              		.loc 1 48 0
 193              		.cfi_startproc
 194              		@ args = 0, pretend = 0, frame = 0
 195              		@ frame_needed = 0, uses_anonymous_args = 0
 196 0000 10B5     		push	{r4, lr}
 197              		.cfi_def_cfa_offset 8
 198              		.cfi_offset 4, -8
 199              		.cfi_offset 14, -4
  49:frucd_display.c ****     UG_FillScreen(C_BLACK);
 200              		.loc 1 49 0
 201 0002 0020     		movs	r0, #0
 202 0004 FFF7FEFF 		bl	UG_FillScreen
 203              	.LVL13:
  50:frucd_display.c ****     UG_PutString(68, 10, "PACK SOC");
 204              		.loc 1 50 0
 205 0008 0B4A     		ldr	r2, .L8
 206 000a 0A21     		movs	r1, #10
 207 000c 4420     		movs	r0, #68
 208 000e FFF7FEFF 		bl	UG_PutString
 209              	.LVL14:
  51:frucd_display.c ****     UG_PutString(297, 10, "MAX PACK T");
 210              		.loc 1 51 0
 211 0012 2A20     		movs	r0, #42
 212 0014 094A     		ldr	r2, .L8+4
 213 0016 0A21     		movs	r1, #10
 214 0018 FF30     		adds	r0, r0, #255
 215 001a FFF7FEFF 		bl	UG_PutString
 216              	.LVL15:
  52:frucd_display.c ****     UG_PutString(5, 180, "STATE:");
 217              		.loc 1 52 0
 218 001e 084A     		ldr	r2, .L8+8
 219 0020 B421     		movs	r1, #180
 220 0022 0520     		movs	r0, #5
 221 0024 FFF7FEFF 		bl	UG_PutString
 222              	.LVL16:
  53:frucd_display.c ****     UG_PutString(275, 180, "GLV V:");
 223              		.loc 1 53 0
 224 0028 1420     		movs	r0, #20
 225 002a 064A     		ldr	r2, .L8+12
 226 002c B421     		movs	r1, #180
 227 002e FF30     		adds	r0, r0, #255
 228 0030 FFF7FEFF 		bl	UG_PutString
 229              	.LVL17:
  54:frucd_display.c ****     
  55:frucd_display.c **** }
ARM GAS  C:\Users\leoja\AppData\Local\Temp\ccYOCOnJ.s 			page 6


 230              		.loc 1 55 0
 231              		@ sp needed
 232 0034 10BD     		pop	{r4, pc}
 233              	.L9:
 234 0036 C046     		.align	2
 235              	.L8:
 236 0038 00000000 		.word	.LC0
 237 003c 09000000 		.word	.LC2
 238 0040 14000000 		.word	.LC4
 239 0044 1B000000 		.word	.LC6
 240              		.cfi_endproc
 241              	.LFE37:
 242              		.size	driveTemplate, .-driveTemplate
 243              		.section	.text.disp_SOC,"ax",%progbits
 244              		.align	1
 245              		.global	disp_SOC
 246              		.code	16
 247              		.thumb_func
 248              		.type	disp_SOC, %function
 249              	disp_SOC:
 250              	.LFB38:
  56:frucd_display.c **** /*
  57:frucd_display.c ****  * BEGIN: functions to show data on dash
  58:frucd_display.c ****  * - handle variety of digit counts
  59:frucd_display.c ****  * - color decision logic is in here
  60:frucd_display.c ****  */
  61:frucd_display.c **** 
  62:frucd_display.c **** 
  63:frucd_display.c **** 
  64:frucd_display.c **** /* Left in non-generalized functions for future reference*/
  65:frucd_display.c **** 
  66:frucd_display.c **** 
  67:frucd_display.c **** /*
  68:frucd_display.c **** void disp_SOC(uint8_t data) {
  69:frucd_display.c ****     UG_FontSelect(&FONT_32X53);
  70:frucd_display.c ****     UG_COLOR color;
  71:frucd_display.c ****     if (data == 100) {
  72:frucd_display.c ****         // handle 100% case
  73:frucd_display.c ****         color = C_GREEN;
  74:frucd_display.c ****         if (color != last_SOC_color) {
  75:frucd_display.c ****             // only draw rectangle if color changed
  76:frucd_display.c ****             UG_FillFrame(30, 35, 210, 170, color);
  77:frucd_display.c ****             last_SOC_color = color;
  78:frucd_display.c ****         }
  79:frucd_display.c ****         UG_PutColorString(55, 80, "100%", C_BLACK, C_GREEN);
  80:frucd_display.c ****     } else {
  81:frucd_display.c ****         // handle other cases
  82:frucd_display.c ****         char data_s[4];
  83:frucd_display.c ****         sprintf(data_s, "%d", data);
  84:frucd_display.c ****         if (data >= 10) {
  85:frucd_display.c ****             // handle 2 digit cases
  86:frucd_display.c ****             // choose color
  87:frucd_display.c ****             if (data > 75) {
  88:frucd_display.c ****                 color = C_GREEN;
  89:frucd_display.c ****             } else if (data > 50) {
  90:frucd_display.c ****                 color = C_YELLOW;
  91:frucd_display.c ****             } else if (data > 25) {
ARM GAS  C:\Users\leoja\AppData\Local\Temp\ccYOCOnJ.s 			page 7


  92:frucd_display.c ****                 color = C_ORANGE;
  93:frucd_display.c ****             } else {
  94:frucd_display.c ****                 color = C_RED;
  95:frucd_display.c ****             }
  96:frucd_display.c ****             data_s[2] = '%';
  97:frucd_display.c ****             data_s[3] = '\0';
  98:frucd_display.c ****             if (color != last_SOC_color) {
  99:frucd_display.c ****                 // only draw rectangle if color changed
 100:frucd_display.c ****                 UG_FillFrame(30, 35, 210, 170, color);
 101:frucd_display.c ****                 last_SOC_color = color;
 102:frucd_display.c ****             }
 103:frucd_display.c ****             UG_PutColorString(70, 80, data_s, C_BLACK, color);
 104:frucd_display.c ****         } else {
 105:frucd_display.c ****             // handle 1 digit cases
 106:frucd_display.c ****             data_s[1] = '%';
 107:frucd_display.c ****             data_s[2] = '\0';
 108:frucd_display.c ****             color = C_RED;
 109:frucd_display.c ****             
 110:frucd_display.c ****             
 111:frucd_display.c ****             
 112:frucd_display.c ****             
 113:frucd_display.c ****             //why is this here?
 114:frucd_display.c ****             UG_FillFrame(30, 35, 210, 170, C_BLACK);
 115:frucd_display.c ****             
 116:frucd_display.c ****             
 117:frucd_display.c ****             
 118:frucd_display.c ****             
 119:frucd_display.c ****             
 120:frucd_display.c ****             
 121:frucd_display.c ****             
 122:frucd_display.c ****             UG_FillFrame(30, 35, 210, 170, color);
 123:frucd_display.c ****             UG_PutColorString(90, 80, data_s, C_BLACK, color);
 124:frucd_display.c ****         }   
 125:frucd_display.c ****     }
 126:frucd_display.c ****     UG_FontSelect(&FONT_12X16);
 127:frucd_display.c **** }
 128:frucd_display.c **** 
 129:frucd_display.c **** 
 130:frucd_display.c **** */
 131:frucd_display.c **** 
 132:frucd_display.c **** 
 133:frucd_display.c **** // size is big if 1, small if not
 134:frucd_display.c **** void disp_SOC(uint8_t data, uint16_t x1, uint16_t y1, uint16_t x2, uint16_t y2, uint8_t size) {
 251              		.loc 1 134 0
 252              		.cfi_startproc
 253              		@ args = 8, pretend = 0, frame = 32
 254              		@ frame_needed = 0, uses_anonymous_args = 0
 255              	.LVL18:
 256 0000 F0B5     		push	{r4, r5, r6, r7, lr}
 257              		.cfi_def_cfa_offset 20
 258              		.cfi_offset 4, -20
 259              		.cfi_offset 5, -16
 260              		.cfi_offset 6, -12
 261              		.cfi_offset 7, -8
 262              		.cfi_offset 14, -4
 263 0002 8BB0     		sub	sp, sp, #44
 264              		.cfi_def_cfa_offset 64
ARM GAS  C:\Users\leoja\AppData\Local\Temp\ccYOCOnJ.s 			page 8


 265              		.loc 1 134 0
 266 0004 0493     		str	r3, [sp, #16]
 267 0006 10AB     		add	r3, sp, #64
 268              	.LVL19:
 269 0008 1B88     		ldrh	r3, [r3]
 270              	.LVL20:
 271 000a 0391     		str	r1, [sp, #12]
 272 000c 0593     		str	r3, [sp, #20]
 273 000e 11AB     		add	r3, sp, #68
 274              	.LVL21:
 275 0010 1978     		ldrb	r1, [r3]
 276              	.LVL22:
 135:frucd_display.c ****     int stringSize;
 136:frucd_display.c ****     int xFont, yFont;
 137:frucd_display.c ****     int horizFontSize = 12 + 20*size;
 277              		.loc 1 137 0
 278 0012 1423     		movs	r3, #20
 279              	.LVL23:
 280 0014 4B43     		muls	r3, r1
 134:frucd_display.c ****     int stringSize;
 281              		.loc 1 134 0
 282 0016 1400     		movs	r4, r2
 283 0018 0500     		movs	r5, r0
 284              		.loc 1 137 0
 285 001a 0C33     		adds	r3, r3, #12
 286              	.LVL24:
 138:frucd_display.c ****     if (data >= 100) {
 139:frucd_display.c ****         stringSize = 4;
 287              		.loc 1 139 0
 288 001c 0422     		movs	r2, #4
 289              	.LVL25:
 138:frucd_display.c ****     if (data >= 100) {
 290              		.loc 1 138 0
 291 001e 6328     		cmp	r0, #99
 292 0020 04D8     		bhi	.L11
 140:frucd_display.c ****     }else if (data >= 10){
 141:frucd_display.c ****         stringSize = 3;
 142:frucd_display.c ****     }else{
 143:frucd_display.c ****         stringSize = 2;
 293              		.loc 1 143 0
 294 0022 0532     		adds	r2, r2, #5
 295 0024 8242     		cmp	r2, r0
 296 0026 9241     		sbcs	r2, r2, r2
 297 0028 5242     		rsbs	r2, r2, #0
 298 002a 0232     		adds	r2, r2, #2
 299              	.L11:
 300              	.LVL26:
 144:frucd_display.c ****     }
 145:frucd_display.c ****     
 146:frucd_display.c ****     xFont = (x1 + x2)/2 - ((horizFontSize*stringSize)/2);
 301              		.loc 1 146 0
 302 002c 5343     		muls	r3, r2
 303              	.LVL27:
 304 002e 0398     		ldr	r0, [sp, #12]
 305              	.LVL28:
 306 0030 049E     		ldr	r6, [sp, #16]
 307 0032 5B10     		asrs	r3, r3, #1
ARM GAS  C:\Users\leoja\AppData\Local\Temp\ccYOCOnJ.s 			page 9


 308 0034 8619     		adds	r6, r0, r6
 309 0036 7010     		asrs	r0, r6, #1
 310 0038 C61A     		subs	r6, r0, r3
 311              	.LVL29:
 147:frucd_display.c ****     yFont = (y1 + y2)/2 - 5 - (size*17);    
 312              		.loc 1 147 0
 313 003a 059B     		ldr	r3, [sp, #20]
 314 003c E718     		adds	r7, r4, r3
 315 003e 7F10     		asrs	r7, r7, #1
 316 0040 7B1F     		subs	r3, r7, #5
 317 0042 1127     		movs	r7, #17
 318 0044 7F42     		rsbs	r7, r7, #0
 319 0046 4F43     		muls	r7, r1
 320 0048 DF19     		adds	r7, r3, r7
 321              	.LVL30:
 148:frucd_display.c ****     if(size == 1){
 322              		.loc 1 148 0
 323 004a 0129     		cmp	r1, #1
 324 004c 02D1     		bne	.L12
 149:frucd_display.c ****         UG_FontSelect(&FONT_32X53);
 325              		.loc 1 149 0
 326 004e 3C48     		ldr	r0, .L29
 327 0050 FFF7FEFF 		bl	UG_FontSelect
 328              	.LVL31:
 329              	.L12:
 330 0054 3BB2     		sxth	r3, r7
 331 0056 0693     		str	r3, [sp, #24]
 332 0058 33B2     		sxth	r3, r6
 333 005a 0793     		str	r3, [sp, #28]
 150:frucd_display.c ****        
 151:frucd_display.c ****     }
 152:frucd_display.c ****         
 153:frucd_display.c ****     UG_COLOR color;
 154:frucd_display.c ****     if (data == 100) {
 334              		.loc 1 154 0
 335 005c 642D     		cmp	r5, #100
 336 005e 19D1     		bne	.L13
 337              	.LVL32:
 155:frucd_display.c ****         // handle 100% case
 156:frucd_display.c ****         color = C_GREEN;
 157:frucd_display.c ****         if (color != last_SOC_color) {
 338              		.loc 1 157 0
 339 0060 FF25     		movs	r5, #255
 340 0062 384E     		ldr	r6, .L29+4
 341              	.LVL33:
 342 0064 2D02     		lsls	r5, r5, #8
 343 0066 3368     		ldr	r3, [r6]
 344 0068 AB42     		cmp	r3, r5
 345 006a 0DD0     		beq	.L14
 158:frucd_display.c ****             // only draw rectangle if color changed
 159:frucd_display.c ****             UG_FillFrame(x1, y1, x2, y2, color);
 346              		.loc 1 159 0
 347 006c 6B46     		mov	r3, sp
 348 006e 6846     		mov	r0, sp
 349 0070 1422     		movs	r2, #20
 350 0072 9B5E     		ldrsh	r3, [r3, r2]
 351 0074 6A46     		mov	r2, sp
ARM GAS  C:\Users\leoja\AppData\Local\Temp\ccYOCOnJ.s 			page 10


 352 0076 1021     		movs	r1, #16
 353 0078 525E     		ldrsh	r2, [r2, r1]
 354 007a 21B2     		sxth	r1, r4
 355 007c 0C24     		movs	r4, #12
 356 007e 005F     		ldrsh	r0, [r0, r4]
 357 0080 0095     		str	r5, [sp]
 358 0082 FFF7FEFF 		bl	UG_FillFrame
 359              	.LVL34:
 160:frucd_display.c ****             last_SOC_color = color;
 360              		.loc 1 160 0
 361 0086 3560     		str	r5, [r6]
 362              	.L14:
 161:frucd_display.c ****         }
 162:frucd_display.c ****         
 163:frucd_display.c ****         UG_PutColorString(xFont, yFont, "100%", C_BLACK, C_GREEN);
 363              		.loc 1 163 0
 364 0088 FF23     		movs	r3, #255
 365 008a 1B02     		lsls	r3, r3, #8
 366 008c 0093     		str	r3, [sp]
 367 008e 2E4A     		ldr	r2, .L29+8
 368 0090 0023     		movs	r3, #0
 369 0092 4CE0     		b	.L26
 370              	.LVL35:
 371              	.L13:
 372              	.LBB2:
 164:frucd_display.c ****     } else {
 165:frucd_display.c ****         // handle other cases
 166:frucd_display.c ****         char data_s[4];
 167:frucd_display.c ****         sprintf(data_s, "%d", data);
 373              		.loc 1 167 0
 374 0094 09AF     		add	r7, sp, #36
 375              	.LVL36:
 376 0096 2A00     		movs	r2, r5
 377 0098 2C49     		ldr	r1, .L29+12
 378 009a 3800     		movs	r0, r7
 379 009c FFF7FEFF 		bl	sprintf
 380              	.LVL37:
 168:frucd_display.c ****         if (data >= 10) {
 381              		.loc 1 168 0
 382 00a0 092D     		cmp	r5, #9
 383 00a2 27D9     		bls	.L16
 169:frucd_display.c ****             // handle 2 digit cases
 170:frucd_display.c ****             // choose color
 171:frucd_display.c ****             if (data > 75) {
 384              		.loc 1 171 0
 385 00a4 4B2D     		cmp	r5, #75
 386 00a6 06D8     		bhi	.L23
 172:frucd_display.c ****                 color = C_GREEN;
 173:frucd_display.c ****             } else if (data > 50) {
 387              		.loc 1 173 0
 388 00a8 322D     		cmp	r5, #50
 389 00aa 07D8     		bhi	.L24
 174:frucd_display.c ****                 color = C_YELLOW;
 175:frucd_display.c ****             } else if (data > 25) {
 390              		.loc 1 175 0
 391 00ac 192D     		cmp	r5, #25
 392 00ae 07D8     		bhi	.L25
ARM GAS  C:\Users\leoja\AppData\Local\Temp\ccYOCOnJ.s 			page 11


 176:frucd_display.c ****                 color = C_ORANGE;
 177:frucd_display.c ****             } else {
 178:frucd_display.c ****                 color = C_RED;
 393              		.loc 1 178 0
 394 00b0 FF25     		movs	r5, #255
 395 00b2 2D04     		lsls	r5, r5, #16
 396 00b4 05E0     		b	.L17
 397              	.L23:
 172:frucd_display.c ****             } else if (data > 50) {
 398              		.loc 1 172 0
 399 00b6 FF25     		movs	r5, #255
 400 00b8 2D02     		lsls	r5, r5, #8
 401 00ba 02E0     		b	.L17
 402              	.L24:
 174:frucd_display.c ****                 color = C_YELLOW;
 403              		.loc 1 174 0
 404 00bc 244D     		ldr	r5, .L29+16
 405 00be 00E0     		b	.L17
 406              	.L25:
 176:frucd_display.c ****                 color = C_ORANGE;
 407              		.loc 1 176 0
 408 00c0 244D     		ldr	r5, .L29+20
 409              	.L17:
 410              	.LVL38:
 179:frucd_display.c ****             }
 180:frucd_display.c ****             data_s[2] = '%';
 411              		.loc 1 180 0
 412 00c2 2522     		movs	r2, #37
 413 00c4 09AB     		add	r3, sp, #36
 414 00c6 9A70     		strb	r2, [r3, #2]
 181:frucd_display.c ****             data_s[3] = '\0';
 415              		.loc 1 181 0
 416 00c8 0022     		movs	r2, #0
 182:frucd_display.c ****             if (color != last_SOC_color) {
 417              		.loc 1 182 0
 418 00ca 1E4E     		ldr	r6, .L29+4
 419              	.LVL39:
 181:frucd_display.c ****             data_s[3] = '\0';
 420              		.loc 1 181 0
 421 00cc DA70     		strb	r2, [r3, #3]
 422              		.loc 1 182 0
 423 00ce 3368     		ldr	r3, [r6]
 424 00d0 9D42     		cmp	r5, r3
 425 00d2 0DD0     		beq	.L18
 183:frucd_display.c ****                 // only draw rectangle if color changed
 184:frucd_display.c ****                 UG_FillFrame(x1, y1, x2, y2, color);
 426              		.loc 1 184 0
 427 00d4 6B46     		mov	r3, sp
 428 00d6 6846     		mov	r0, sp
 429 00d8 1422     		movs	r2, #20
 430 00da 9B5E     		ldrsh	r3, [r3, r2]
 431 00dc 6A46     		mov	r2, sp
 432 00de 1021     		movs	r1, #16
 433 00e0 525E     		ldrsh	r2, [r2, r1]
 434 00e2 21B2     		sxth	r1, r4
 435 00e4 0C24     		movs	r4, #12
 436 00e6 005F     		ldrsh	r0, [r0, r4]
ARM GAS  C:\Users\leoja\AppData\Local\Temp\ccYOCOnJ.s 			page 12


 437              	.LVL40:
 438 00e8 0095     		str	r5, [sp]
 439 00ea FFF7FEFF 		bl	UG_FillFrame
 440              	.LVL41:
 185:frucd_display.c ****                 last_SOC_color = color;
 441              		.loc 1 185 0
 442 00ee 3560     		str	r5, [r6]
 443              	.L18:
 186:frucd_display.c ****             }
 187:frucd_display.c ****             UG_PutColorString(xFont, yFont, data_s, C_BLACK, color);
 444              		.loc 1 187 0
 445 00f0 0095     		str	r5, [sp]
 446 00f2 1AE0     		b	.L27
 447              	.LVL42:
 448              	.L16:
 188:frucd_display.c ****         } else {
 189:frucd_display.c ****             // handle 1 digit cases
 190:frucd_display.c ****             data_s[1] = '%';
 449              		.loc 1 190 0
 450 00f4 2523     		movs	r3, #37
 451 00f6 7B70     		strb	r3, [r7, #1]
 191:frucd_display.c ****             data_s[2] = '\0';
 452              		.loc 1 191 0
 453 00f8 0023     		movs	r3, #0
 192:frucd_display.c ****             color = C_RED;
 193:frucd_display.c ****             if (color != last_SOC_color) {
 454              		.loc 1 193 0
 455 00fa FF25     		movs	r5, #255
 456 00fc 114E     		ldr	r6, .L29+4
 457              	.LVL43:
 191:frucd_display.c ****             data_s[2] = '\0';
 458              		.loc 1 191 0
 459 00fe BB70     		strb	r3, [r7, #2]
 460              	.LVL44:
 461              		.loc 1 193 0
 462 0100 3368     		ldr	r3, [r6]
 463 0102 2D04     		lsls	r5, r5, #16
 464 0104 AB42     		cmp	r3, r5
 465 0106 0DD0     		beq	.L20
 194:frucd_display.c ****             // only draw rectangle if color changed
 195:frucd_display.c ****                 UG_FillFrame(x1, y1, x2, y2, color);
 466              		.loc 1 195 0
 467 0108 6B46     		mov	r3, sp
 468 010a 6846     		mov	r0, sp
 469 010c 1422     		movs	r2, #20
 470 010e 9B5E     		ldrsh	r3, [r3, r2]
 471 0110 6A46     		mov	r2, sp
 472 0112 1021     		movs	r1, #16
 473 0114 525E     		ldrsh	r2, [r2, r1]
 474 0116 21B2     		sxth	r1, r4
 475 0118 0C24     		movs	r4, #12
 476 011a 005F     		ldrsh	r0, [r0, r4]
 477              	.LVL45:
 478 011c 0095     		str	r5, [sp]
 479 011e FFF7FEFF 		bl	UG_FillFrame
 480              	.LVL46:
 196:frucd_display.c ****                 last_SOC_color = color;
ARM GAS  C:\Users\leoja\AppData\Local\Temp\ccYOCOnJ.s 			page 13


 481              		.loc 1 196 0
 482 0122 3560     		str	r5, [r6]
 483              	.L20:
 197:frucd_display.c ****             }
 198:frucd_display.c ****            
 199:frucd_display.c ****             UG_PutColorString(xFont, yFont, data_s, C_BLACK, color);
 484              		.loc 1 199 0
 485 0124 FF23     		movs	r3, #255
 486 0126 1B04     		lsls	r3, r3, #16
 487 0128 0093     		str	r3, [sp]
 488              	.LVL47:
 489              	.L27:
 490 012a 0023     		movs	r3, #0
 491 012c 3A00     		movs	r2, r7
 492              	.L26:
 493 012e 0699     		ldr	r1, [sp, #24]
 494 0130 0798     		ldr	r0, [sp, #28]
 495 0132 FFF7FEFF 		bl	UG_PutColorString
 496              	.LVL48:
 497              	.LBE2:
 200:frucd_display.c ****         }   
 201:frucd_display.c ****     }
 202:frucd_display.c ****     UG_FontSelect(&FONT_12X16);
 498              		.loc 1 202 0
 499 0136 0848     		ldr	r0, .L29+24
 500 0138 FFF7FEFF 		bl	UG_FontSelect
 501              	.LVL49:
 203:frucd_display.c **** }
 502              		.loc 1 203 0
 503 013c 0BB0     		add	sp, sp, #44
 504              		@ sp needed
 505 013e F0BD     		pop	{r4, r5, r6, r7, pc}
 506              	.L30:
 507              		.align	2
 508              	.L29:
 509 0140 00000000 		.word	FONT_32X53
 510 0144 00000000 		.word	last_SOC_color
 511 0148 31000000 		.word	.LC18
 512 014c 36000000 		.word	.LC20
 513 0150 00FFFF00 		.word	16776960
 514 0154 00A5FF00 		.word	16753920
 515 0158 00000000 		.word	FONT_12X16
 516              		.cfi_endproc
 517              	.LFE38:
 518              		.size	disp_SOC, .-disp_SOC
 519              		.section	.text.disp_max_pack_temp,"ax",%progbits
 520              		.align	1
 521              		.global	disp_max_pack_temp
 522              		.code	16
 523              		.thumb_func
 524              		.type	disp_max_pack_temp, %function
 525              	disp_max_pack_temp:
 526              	.LFB39:
 204:frucd_display.c **** 
 205:frucd_display.c **** /*
 206:frucd_display.c **** 
 207:frucd_display.c **** void disp_max_pack_temp(uint8_t data) {
ARM GAS  C:\Users\leoja\AppData\Local\Temp\ccYOCOnJ.s 			page 14


 208:frucd_display.c ****     // choose color
 209:frucd_display.c ****     UG_COLOR color;
 210:frucd_display.c ****     if (data < 45) {
 211:frucd_display.c ****         color = C_GREEN;
 212:frucd_display.c ****     } else if (data < 50) {
 213:frucd_display.c ****         color = C_YELLOW;
 214:frucd_display.c ****     } else if (data < 55) {
 215:frucd_display.c ****         color = C_ORANGE;
 216:frucd_display.c ****     } else {
 217:frucd_display.c ****         color = C_RED;
 218:frucd_display.c **** 
 219:frucd_display.c ****         UG_FillFrame(270, 35, 450, 170, C_BLACK);
 220:frucd_display.c ****         UG_FillFrame(270, 35, 450, 170, color);
 221:frucd_display.c ****         
 222:frucd_display.c ****     }
 223:frucd_display.c ****     
 224:frucd_display.c ****     if (color != last_max_pack_temp_color) {
 225:frucd_display.c ****         // only draw rectangle if color changed
 226:frucd_display.c ****         UG_FillFrame(270, 35, 450, 170, color);
 227:frucd_display.c ****         last_max_pack_temp_color = color;
 228:frucd_display.c ****     }
 229:frucd_display.c ****     UG_FontSelect(&FONT_32X53);
 230:frucd_display.c ****     char data_s[4];
 231:frucd_display.c ****     sprintf(data_s, "%d", data);
 232:frucd_display.c ****     data_s[2] = 'C';
 233:frucd_display.c ****     data_s[3] = '\0';
 234:frucd_display.c ****     UG_PutColorString(310, 80, data_s, C_BLACK, color);
 235:frucd_display.c ****     UG_FontSelect(&FONT_12X16);
 236:frucd_display.c **** }
 237:frucd_display.c **** 
 238:frucd_display.c **** */
 239:frucd_display.c **** 
 240:frucd_display.c **** 
 241:frucd_display.c **** void disp_max_pack_temp(uint8_t data, uint16_t x1, uint16_t y1, uint16_t x2, uint16_t y2, uint8_t s
 527              		.loc 1 241 0
 528              		.cfi_startproc
 529              		@ args = 8, pretend = 0, frame = 40
 530              		@ frame_needed = 0, uses_anonymous_args = 0
 531              	.LVL50:
 532 0000 F0B5     		push	{r4, r5, r6, r7, lr}
 533              		.cfi_def_cfa_offset 20
 534              		.cfi_offset 4, -20
 535              		.cfi_offset 5, -16
 536              		.cfi_offset 6, -12
 537              		.cfi_offset 7, -8
 538              		.cfi_offset 14, -4
 539 0002 8DB0     		sub	sp, sp, #52
 540              		.cfi_def_cfa_offset 72
 541              		.loc 1 241 0
 542 0004 0593     		str	r3, [sp, #20]
 543 0006 12AB     		add	r3, sp, #72
 544              	.LVL51:
 545 0008 1B88     		ldrh	r3, [r3]
 546              	.LVL52:
 547 000a 0492     		str	r2, [sp, #16]
 548 000c 0693     		str	r3, [sp, #24]
 549 000e 13AB     		add	r3, sp, #76
ARM GAS  C:\Users\leoja\AppData\Local\Temp\ccYOCOnJ.s 			page 15


 550              	.LVL53:
 551 0010 1A78     		ldrb	r2, [r3]
 552              	.LVL54:
 242:frucd_display.c ****     int xFont, yFont;
 243:frucd_display.c ****     int horizFontSize = 12 + 20*size;
 244:frucd_display.c ****     int stringSize;
 245:frucd_display.c ****     stringSize = 3;
 246:frucd_display.c ****     xFont = (x1 + x2)/2 - ((horizFontSize*stringSize)/2);
 553              		.loc 1 246 0
 554 0012 1423     		movs	r3, #20
 555              	.LVL55:
 241:frucd_display.c ****     int xFont, yFont;
 556              		.loc 1 241 0
 557 0014 0391     		str	r1, [sp, #12]
 558              		.loc 1 246 0
 559 0016 0321     		movs	r1, #3
 560              	.LVL56:
 561 0018 5343     		muls	r3, r2
 562 001a 0C33     		adds	r3, r3, #12
 563              	.LVL57:
 564 001c 4B43     		muls	r3, r1
 565              	.LVL58:
 241:frucd_display.c ****     int xFont, yFont;
 566              		.loc 1 241 0
 567 001e 0290     		str	r0, [sp, #8]
 568              		.loc 1 246 0
 569 0020 0399     		ldr	r1, [sp, #12]
 570 0022 0598     		ldr	r0, [sp, #20]
 571              	.LVL59:
 572 0024 5B10     		asrs	r3, r3, #1
 573 0026 0818     		adds	r0, r1, r0
 574 0028 4010     		asrs	r0, r0, #1
 575 002a C31A     		subs	r3, r0, r3
 247:frucd_display.c ****     yFont = (y1 + y2)/2 - 5 - (size*17);    
 576              		.loc 1 247 0
 577 002c 0699     		ldr	r1, [sp, #24]
 246:frucd_display.c ****     yFont = (y1 + y2)/2 - 5 - (size*17);    
 578              		.loc 1 246 0
 579 002e 0893     		str	r3, [sp, #32]
 580              	.LVL60:
 581              		.loc 1 247 0
 582 0030 049B     		ldr	r3, [sp, #16]
 583              	.LVL61:
 584 0032 5B18     		adds	r3, r3, r1
 585 0034 1121     		movs	r1, #17
 586 0036 4942     		rsbs	r1, r1, #0
 587 0038 5143     		muls	r1, r2
 588 003a 5B10     		asrs	r3, r3, #1
 589 003c 053B     		subs	r3, r3, #5
 590 003e 5B18     		adds	r3, r3, r1
 591 0040 0993     		str	r3, [sp, #36]
 592              	.LVL62:
 248:frucd_display.c ****     if(size == 1){
 593              		.loc 1 248 0
 594 0042 012A     		cmp	r2, #1
 595 0044 02D1     		bne	.L32
 249:frucd_display.c ****         UG_FontSelect(&FONT_32X53);
ARM GAS  C:\Users\leoja\AppData\Local\Temp\ccYOCOnJ.s 			page 16


 596              		.loc 1 249 0
 597 0046 2B48     		ldr	r0, .L38
 598 0048 FFF7FEFF 		bl	UG_FontSelect
 599              	.LVL63:
 600              	.L32:
 250:frucd_display.c ****     }
 251:frucd_display.c ****     
 252:frucd_display.c ****     // choose color
 253:frucd_display.c ****     UG_COLOR color;
 254:frucd_display.c ****     if (data < 45) {
 601              		.loc 1 254 0
 602 004c 029B     		ldr	r3, [sp, #8]
 603 004e 2C2B     		cmp	r3, #44
 604 0050 21D9     		bls	.L35
 255:frucd_display.c ****         color = C_GREEN;
 256:frucd_display.c ****     } else if (data < 50) {
 605              		.loc 1 256 0
 606 0052 312B     		cmp	r3, #49
 607 0054 22D9     		bls	.L36
 257:frucd_display.c ****         color = C_YELLOW;
 258:frucd_display.c ****     } else if (data < 55) {
 608              		.loc 1 258 0
 609 0056 362B     		cmp	r3, #54
 610 0058 22D9     		bls	.L37
 611              	.LVL64:
 259:frucd_display.c ****         color = C_ORANGE;
 260:frucd_display.c ****     } else {
 261:frucd_display.c ****         color = C_RED; 
 262:frucd_display.c ****         
 263:frucd_display.c ****         UG_FillFrame(x1, y1, x2, y2, C_BLACK);
 612              		.loc 1 263 0
 613 005a 6B46     		mov	r3, sp
 614 005c 0C25     		movs	r5, #12
 615 005e 5D5F     		ldrsh	r5, [r3, r5]
 616 0060 6B46     		mov	r3, sp
 617 0062 1026     		movs	r6, #16
 618 0064 9E5F     		ldrsh	r6, [r3, r6]
 619 0066 6B46     		mov	r3, sp
 620 0068 1427     		movs	r7, #20
 621 006a DF5F     		ldrsh	r7, [r3, r7]
 622 006c 6B46     		mov	r3, sp
 264:frucd_display.c ****         UG_FillFrame(x1, y1, x2, y2, color);
 623              		.loc 1 264 0
 624 006e FF24     		movs	r4, #255
 263:frucd_display.c ****         UG_FillFrame(x1, y1, x2, y2, color);
 625              		.loc 1 263 0
 626 0070 1822     		movs	r2, #24
 627 0072 9B5E     		ldrsh	r3, [r3, r2]
 628 0074 0022     		movs	r2, #0
 629 0076 3100     		movs	r1, r6
 630 0078 0092     		str	r2, [sp]
 631 007a 2800     		movs	r0, r5
 632 007c 3A00     		movs	r2, r7
 633              		.loc 1 264 0
 634 007e 2404     		lsls	r4, r4, #16
 263:frucd_display.c ****         UG_FillFrame(x1, y1, x2, y2, color);
 635              		.loc 1 263 0
ARM GAS  C:\Users\leoja\AppData\Local\Temp\ccYOCOnJ.s 			page 17


 636 0080 0793     		str	r3, [sp, #28]
 637 0082 FFF7FEFF 		bl	UG_FillFrame
 638              	.LVL65:
 639              		.loc 1 264 0
 640 0086 0094     		str	r4, [sp]
 641 0088 079B     		ldr	r3, [sp, #28]
 642 008a 3A00     		movs	r2, r7
 643 008c 3100     		movs	r1, r6
 644 008e 2800     		movs	r0, r5
 645 0090 FFF7FEFF 		bl	UG_FillFrame
 646              	.LVL66:
 647 0094 05E0     		b	.L33
 648              	.LVL67:
 649              	.L35:
 255:frucd_display.c ****     } else if (data < 50) {
 650              		.loc 1 255 0
 651 0096 FF24     		movs	r4, #255
 652 0098 2402     		lsls	r4, r4, #8
 653 009a 02E0     		b	.L33
 654              	.L36:
 257:frucd_display.c ****     } else if (data < 55) {
 655              		.loc 1 257 0
 656 009c 164C     		ldr	r4, .L38+4
 657 009e 00E0     		b	.L33
 658              	.L37:
 259:frucd_display.c ****     } else {
 659              		.loc 1 259 0
 660 00a0 164C     		ldr	r4, .L38+8
 661              	.L33:
 662              	.LVL68:
 265:frucd_display.c ****     
 266:frucd_display.c ****     }
 267:frucd_display.c **** 
 268:frucd_display.c ****    
 269:frucd_display.c ****     
 270:frucd_display.c ****    
 271:frucd_display.c ****     if (color != last_max_pack_temp_color) {
 663              		.loc 1 271 0
 664 00a2 174D     		ldr	r5, .L38+12
 665 00a4 2B68     		ldr	r3, [r5]
 666 00a6 9C42     		cmp	r4, r3
 667 00a8 0FD0     		beq	.L34
 272:frucd_display.c ****         UG_FillFrame(x1, y1, x2, y2, color);
 668              		.loc 1 272 0
 669 00aa 6B46     		mov	r3, sp
 670 00ac 1822     		movs	r2, #24
 671 00ae 9B5E     		ldrsh	r3, [r3, r2]
 672 00b0 6A46     		mov	r2, sp
 673 00b2 1421     		movs	r1, #20
 674 00b4 525E     		ldrsh	r2, [r2, r1]
 675 00b6 6946     		mov	r1, sp
 676 00b8 1020     		movs	r0, #16
 677 00ba 095E     		ldrsh	r1, [r1, r0]
 678 00bc 6846     		mov	r0, sp
 679 00be 0C26     		movs	r6, #12
 680 00c0 805F     		ldrsh	r0, [r0, r6]
 681 00c2 0094     		str	r4, [sp]
ARM GAS  C:\Users\leoja\AppData\Local\Temp\ccYOCOnJ.s 			page 18


 682 00c4 FFF7FEFF 		bl	UG_FillFrame
 683              	.LVL69:
 273:frucd_display.c ****         last_max_pack_temp_color = color;
 684              		.loc 1 273 0
 685 00c8 2C60     		str	r4, [r5]
 686              	.L34:
 274:frucd_display.c ****     }
 275:frucd_display.c **** 
 276:frucd_display.c ****     char data_s[4];
 277:frucd_display.c ****     sprintf(data_s, "%d C", data);
 687              		.loc 1 277 0
 688 00ca 029A     		ldr	r2, [sp, #8]
 689 00cc 0D49     		ldr	r1, .L38+16
 690 00ce 0BA8     		add	r0, sp, #44
 691 00d0 FFF7FEFF 		bl	sprintf
 692              	.LVL70:
 278:frucd_display.c ****    // data_s[2] = 'C';
 279:frucd_display.c ****     //data_s[3] = '\0';
 280:frucd_display.c ****     UG_PutColorString(xFont, yFont, data_s, C_BLACK, color);
 693              		.loc 1 280 0
 694 00d4 6B46     		mov	r3, sp
 695 00d6 2421     		movs	r1, #36
 696 00d8 595E     		ldrsh	r1, [r3, r1]
 697 00da 6B46     		mov	r3, sp
 698 00dc 0BAA     		add	r2, sp, #44
 699 00de 2020     		movs	r0, #32
 700 00e0 185E     		ldrsh	r0, [r3, r0]
 701 00e2 0023     		movs	r3, #0
 702 00e4 0094     		str	r4, [sp]
 703 00e6 FFF7FEFF 		bl	UG_PutColorString
 704              	.LVL71:
 281:frucd_display.c ****     UG_FontSelect(&FONT_12X16);
 705              		.loc 1 281 0
 706 00ea 0748     		ldr	r0, .L38+20
 707 00ec FFF7FEFF 		bl	UG_FontSelect
 708              	.LVL72:
 282:frucd_display.c **** }
 709              		.loc 1 282 0
 710 00f0 0DB0     		add	sp, sp, #52
 711              		@ sp needed
 712              	.LVL73:
 713 00f2 F0BD     		pop	{r4, r5, r6, r7, pc}
 714              	.L39:
 715              		.align	2
 716              	.L38:
 717 00f4 00000000 		.word	FONT_32X53
 718 00f8 00FFFF00 		.word	16776960
 719 00fc 00A5FF00 		.word	16753920
 720 0100 00000000 		.word	last_max_pack_temp_color
 721 0104 39000000 		.word	.LC25
 722 0108 00000000 		.word	FONT_12X16
 723              		.cfi_endproc
 724              	.LFE39:
 725              		.size	disp_max_pack_temp, .-disp_max_pack_temp
 726              		.section	.text.disp_state,"ax",%progbits
 727              		.align	1
 728              		.global	disp_state
ARM GAS  C:\Users\leoja\AppData\Local\Temp\ccYOCOnJ.s 			page 19


 729              		.code	16
 730              		.thumb_func
 731              		.type	disp_state, %function
 732              	disp_state:
 733              	.LFB40:
 283:frucd_display.c **** 
 284:frucd_display.c **** 
 285:frucd_display.c **** /*
 286:frucd_display.c **** 
 287:frucd_display.c **** void disp_state(uint8_t state) { // TODO
 288:frucd_display.c ****     UG_COLOR color;
 289:frucd_display.c ****     // check fault bit
 290:frucd_display.c ****     if (state & 0x80) {
 291:frucd_display.c ****         // *************** FAULTS ***************
 292:frucd_display.c ****         uint8 fault = state & 0x7f; // mask off fault bit
 293:frucd_display.c ****         switch(fault) {
 294:frucd_display.c ****             case NONE: // STARTUP (effectively)
 295:frucd_display.c ****                 // not obtainable via CAN
 296:frucd_display.c ****                 // would only show when hardcoded on startup
 297:frucd_display.c ****                 color = C_YELLOW;
 298:frucd_display.c ****                 if (color != last_state_color) {
 299:frucd_display.c ****                     // only draw rectangle if color changed
 300:frucd_display.c ****                     UG_FillFrame(95, 185, 240, 215, color);
 301:frucd_display.c ****                     last_state_color = color;
 302:frucd_display.c ****                 }
 303:frucd_display.c ****                 UG_PutColorString(100, 195, " STARTUP  ", C_BLACK, color);
 304:frucd_display.c ****                 break;
 305:frucd_display.c ****             case DRIVE_REQUEST_FROM_LV:
 306:frucd_display.c ****                 color = C_RED;
 307:frucd_display.c ****                 if (color != last_state_color) {
 308:frucd_display.c ****                     // only draw rectangle if color changed
 309:frucd_display.c ****                     UG_FillFrame(95, 185, 240, 215, color);
 310:frucd_display.c ****                     last_state_color = color;
 311:frucd_display.c ****                 }
 312:frucd_display.c ****                 UG_PutColorString(100, 195, "DRV FRM LV", C_BLACK, color);
 313:frucd_display.c ****                 break;
 314:frucd_display.c ****             case CONSERVATIVE_TIMER_MAXED:
 315:frucd_display.c ****                 color = C_RED;
 316:frucd_display.c ****                 if (color != last_state_color) {
 317:frucd_display.c ****                     // only draw rectangle if color changed
 318:frucd_display.c ****                     UG_FillFrame(95, 185, 240, 215, color);
 319:frucd_display.c ****                     last_state_color = color;
 320:frucd_display.c ****                 }
 321:frucd_display.c ****                 UG_PutColorString(100, 195, "PRE TM OUT", C_BLACK, color);
 322:frucd_display.c ****                 break;
 323:frucd_display.c ****             case BRAKE_NOT_PRESSED:
 324:frucd_display.c ****                 color = C_RED;
 325:frucd_display.c ****                 if (color != last_state_color) {
 326:frucd_display.c ****                     // only draw rectangle if color changed
 327:frucd_display.c ****                     UG_FillFrame(95, 185, 240, 215, color);
 328:frucd_display.c ****                     last_state_color = color;
 329:frucd_display.c ****                 }
 330:frucd_display.c ****                 UG_PutColorString(100, 195, "BR NOT PRS", C_BLACK, color);
 331:frucd_display.c ****                 break;
 332:frucd_display.c ****             case HV_DISABLED_WHILE_DRIVING:
 333:frucd_display.c ****                 color = C_RED;
 334:frucd_display.c ****                 if (color != last_state_color) {
ARM GAS  C:\Users\leoja\AppData\Local\Temp\ccYOCOnJ.s 			page 20


 335:frucd_display.c ****                     // only draw rectangle if color changed
 336:frucd_display.c ****                     UG_FillFrame(95, 185, 240, 215, color);
 337:frucd_display.c ****                     last_state_color = color;
 338:frucd_display.c ****                 }
 339:frucd_display.c ****                 UG_PutColorString(100, 195, "HV OFF DRV", C_BLACK, color);
 340:frucd_display.c ****                 break;
 341:frucd_display.c ****             case SENSOR_DISCREPANCY:
 342:frucd_display.c ****                 color = C_RED;
 343:frucd_display.c ****                 if (color != last_state_color) {
 344:frucd_display.c ****                     // only draw rectangle if color changed
 345:frucd_display.c ****                     UG_FillFrame(95, 185, 240, 215, color);
 346:frucd_display.c ****                     last_state_color = color;
 347:frucd_display.c ****                 }
 348:frucd_display.c ****                 UG_PutColorString(100, 195, "SNSR DSCRP", C_BLACK, color);
 349:frucd_display.c ****                 break;
 350:frucd_display.c ****             case BRAKE_IMPLAUSIBLE:
 351:frucd_display.c ****                 color = C_YELLOW;
 352:frucd_display.c ****                 if (color != last_state_color) {
 353:frucd_display.c ****                     // only draw rectangle if color changed
 354:frucd_display.c ****                     UG_FillFrame(95, 185, 240, 215, color);
 355:frucd_display.c ****                     last_state_color = color;
 356:frucd_display.c ****                 }
 357:frucd_display.c ****                 UG_PutColorString(100, 195, "BSPD TRIPD", C_BLACK, color); //whitespace to clear
 358:frucd_display.c ****                 break;
 359:frucd_display.c ****             case ESTOP:
 360:frucd_display.c ****                 color = C_RED;
 361:frucd_display.c ****                 if (color != last_state_color) {
 362:frucd_display.c ****                     // only draw rectangle if color changed
 363:frucd_display.c ****                     UG_FillFrame(95, 185, 240, 215, color);
 364:frucd_display.c ****                     last_state_color = color;
 365:frucd_display.c ****                 }
 366:frucd_display.c ****                 UG_PutColorString(100, 195, "SHTDWN OPN", C_BLACK, color); //whitespace to clear
 367:frucd_display.c ****                 break;
 368:frucd_display.c ****         }
 369:frucd_display.c ****         
 370:frucd_display.c ****     } else {
 371:frucd_display.c ****         // *************** NO FAULTS ***************
 372:frucd_display.c ****         color = C_GREEN;
 373:frucd_display.c ****         if (color != last_state_color) {
 374:frucd_display.c ****             // only draw rectangle if color changed
 375:frucd_display.c ****             UG_FillFrame(95, 185, 240, 215, color);
 376:frucd_display.c ****             last_state_color = color;
 377:frucd_display.c ****         }
 378:frucd_display.c ****         switch(state) {
 379:frucd_display.c ****             case LV:
 380:frucd_display.c ****                 UG_PutColorString(100, 195, "    LV    ", C_BLACK, color);
 381:frucd_display.c ****                 break;
 382:frucd_display.c ****             case PRECHARGING:
 383:frucd_display.c ****                 UG_PutColorString(100, 195, "PRECHARGE ", C_BLACK, color);
 384:frucd_display.c ****                 break;
 385:frucd_display.c ****             case HV_ENABLED:
 386:frucd_display.c ****                 UG_PutColorString(100, 195, "HV ENABLED", C_BLACK, color);
 387:frucd_display.c ****                 break;
 388:frucd_display.c ****             case DRIVE:
 389:frucd_display.c ****                 UG_PutColorString(100, 195, "  DRIVE   ", C_BLACK, color);
 390:frucd_display.c ****                 break;
 391:frucd_display.c ****         }
ARM GAS  C:\Users\leoja\AppData\Local\Temp\ccYOCOnJ.s 			page 21


 392:frucd_display.c ****     }
 393:frucd_display.c **** }
 394:frucd_display.c **** 
 395:frucd_display.c **** 
 396:frucd_display.c **** */
 397:frucd_display.c **** 
 398:frucd_display.c **** 
 399:frucd_display.c **** void disp_state(uint8_t state, uint16_t x1, uint16_t y1, uint16_t x2, uint16_t y2, uint8_t size) { 
 734              		.loc 1 399 0
 735              		.cfi_startproc
 736              		@ args = 8, pretend = 0, frame = 24
 737              		@ frame_needed = 0, uses_anonymous_args = 0
 738              	.LVL74:
 739 0000 F0B5     		push	{r4, r5, r6, r7, lr}
 740              		.cfi_def_cfa_offset 20
 741              		.cfi_offset 4, -20
 742              		.cfi_offset 5, -16
 743              		.cfi_offset 6, -12
 744              		.cfi_offset 7, -8
 745              		.cfi_offset 14, -4
 746 0002 89B0     		sub	sp, sp, #36
 747              		.cfi_def_cfa_offset 56
 748              		.loc 1 399 0
 749 0004 0593     		str	r3, [sp, #20]
 750 0006 0EAB     		add	r3, sp, #56
 751              	.LVL75:
 752 0008 1C88     		ldrh	r4, [r3]
 753 000a 0FAB     		add	r3, sp, #60
 754              	.LVL76:
 755 000c 0492     		str	r2, [sp, #16]
 756 000e 1A78     		ldrb	r2, [r3]
 757              	.LVL77:
 400:frucd_display.c ****     int xFont, yFont;
 401:frucd_display.c ****     int horizFontSize = 12 + 20*size;
 402:frucd_display.c ****     int stringSize;
 403:frucd_display.c ****     stringSize = 10;
 404:frucd_display.c ****     xFont = (x1 + x2)/2 - ((horizFontSize*stringSize)/2);
 758              		.loc 1 404 0
 759 0010 1423     		movs	r3, #20
 760              	.LVL78:
 399:frucd_display.c ****     int xFont, yFont;
 761              		.loc 1 399 0
 762 0012 0391     		str	r1, [sp, #12]
 763              		.loc 1 404 0
 764 0014 0A21     		movs	r1, #10
 765              	.LVL79:
 405:frucd_display.c ****     yFont = (y1 + y2)/2 - 5 - (size*17);    
 766              		.loc 1 405 0
 767 0016 1127     		movs	r7, #17
 404:frucd_display.c ****     yFont = (y1 + y2)/2 - 5 - (size*17);    
 768              		.loc 1 404 0
 769 0018 5343     		muls	r3, r2
 770 001a 0C33     		adds	r3, r3, #12
 771              	.LVL80:
 772 001c 4B43     		muls	r3, r1
 773              	.LVL81:
 399:frucd_display.c ****     int xFont, yFont;
ARM GAS  C:\Users\leoja\AppData\Local\Temp\ccYOCOnJ.s 			page 22


 774              		.loc 1 399 0
 775 001e 0600     		movs	r6, r0
 404:frucd_display.c ****     yFont = (y1 + y2)/2 - 5 - (size*17);    
 776              		.loc 1 404 0
 777 0020 0399     		ldr	r1, [sp, #12]
 778 0022 0598     		ldr	r0, [sp, #20]
 779              	.LVL82:
 780 0024 5B10     		asrs	r3, r3, #1
 781 0026 0918     		adds	r1, r1, r0
 782 0028 4910     		asrs	r1, r1, #1
 783 002a CB1A     		subs	r3, r1, r3
 784 002c 0693     		str	r3, [sp, #24]
 785              	.LVL83:
 786              		.loc 1 405 0
 787 002e 7F42     		rsbs	r7, r7, #0
 788 0030 049B     		ldr	r3, [sp, #16]
 789              	.LVL84:
 790 0032 5743     		muls	r7, r2
 791 0034 1B19     		adds	r3, r3, r4
 792 0036 5B10     		asrs	r3, r3, #1
 793 0038 053B     		subs	r3, r3, #5
 794 003a DB19     		adds	r3, r3, r7
 795 003c 0793     		str	r3, [sp, #28]
 796              	.LVL85:
 406:frucd_display.c ****     if(size == 1){
 797              		.loc 1 406 0
 798 003e 012A     		cmp	r2, #1
 799 0040 02D1     		bne	.L41
 407:frucd_display.c ****         UG_FontSelect(&FONT_32X53);
 800              		.loc 1 407 0
 801 0042 8D48     		ldr	r0, .L69
 802 0044 FFF7FEFF 		bl	UG_FontSelect
 803              	.LVL86:
 804              	.L41:
 408:frucd_display.c ****         
 409:frucd_display.c ****     }
 410:frucd_display.c ****     UG_COLOR color;
 411:frucd_display.c ****     // check fault bit
 412:frucd_display.c ****     if (state & 0x80) {
 805              		.loc 1 412 0
 806 0048 73B2     		sxtb	r3, r6
 807 004a 002B     		cmp	r3, #0
 808 004c 00DB     		blt	.LCB717
 809 004e DEE0     		b	.L42	@long jump
 810              	.LCB717:
 811              	.LVL87:
 812              	.LBB3:
 413:frucd_display.c ****         // *************** FAULTS ***************
 414:frucd_display.c ****         uint8 fault = state & 0x7f; // mask off fault bit
 415:frucd_display.c ****         switch(fault) {
 813              		.loc 1 415 0
 814 0050 7F20     		movs	r0, #127
 815 0052 3040     		ands	r0, r6
 816 0054 0728     		cmp	r0, #7
 817 0056 00D9     		bls	.LCB724
 818 0058 08E1     		b	.L43	@long jump
 819              	.LCB724:
ARM GAS  C:\Users\leoja\AppData\Local\Temp\ccYOCOnJ.s 			page 23


 820 005a 6B46     		mov	r3, sp
 821 005c 1C27     		movs	r7, #28
 822 005e DF5F     		ldrsh	r7, [r3, r7]
 823 0060 6B46     		mov	r3, sp
 824 0062 864D     		ldr	r5, .L69+4
 825 0064 1826     		movs	r6, #24
 826 0066 9E5F     		ldrsh	r6, [r3, r6]
 827              	.LVL88:
 416:frucd_display.c ****             case NONE: // STARTUP (effectively)
 417:frucd_display.c ****                 // not obtainable via CAN
 418:frucd_display.c ****                 // would only show when hardcoded on startup
 419:frucd_display.c ****                 color = C_YELLOW;
 420:frucd_display.c ****                 if (color != last_state_color) {
 421:frucd_display.c ****                     // only draw rectangle if color changed
 422:frucd_display.c ****                     UG_FillFrame(x1, y1, x2, y2, color);
 423:frucd_display.c ****                     last_state_color = color;
 424:frucd_display.c ****                 }
 425:frucd_display.c ****                 UG_PutColorString(xFont, yFont, " STARTUP  ", C_BLACK, color);
 426:frucd_display.c ****                 break;
 427:frucd_display.c ****             case DRIVE_REQUEST_FROM_LV:
 428:frucd_display.c ****                 color = C_RED;
 429:frucd_display.c ****                 if (color != last_state_color) {
 430:frucd_display.c ****                     // only draw rectangle if color changed
 431:frucd_display.c ****                     UG_FillFrame(x1, y1, x2, y2, color);
 432:frucd_display.c ****                     last_state_color = color;
 433:frucd_display.c ****                 }
 434:frucd_display.c ****                 UG_PutColorString(xFont, yFont, "DRV FRM LV", C_BLACK, color);
 435:frucd_display.c ****                 break;
 436:frucd_display.c ****             case CONSERVATIVE_TIMER_MAXED:
 437:frucd_display.c ****                 color = C_RED;
 438:frucd_display.c ****                 if (color != last_state_color) {
 439:frucd_display.c ****                     // only draw rectangle if color changed
 440:frucd_display.c ****                     UG_FillFrame(x1, y1, x2, y2, color);
 441:frucd_display.c ****                     last_state_color = color;
 442:frucd_display.c ****                 }
 443:frucd_display.c ****                 UG_PutColorString(xFont, yFont, "PRE TM OUT", C_BLACK, color);
 444:frucd_display.c ****                 break;
 445:frucd_display.c ****             case BRAKE_NOT_PRESSED:
 446:frucd_display.c ****                 color = C_RED;
 447:frucd_display.c ****                 if (color != last_state_color) {
 448:frucd_display.c ****                     // only draw rectangle if color changed
 449:frucd_display.c ****                     UG_FillFrame(x1, y1, x2, y2, color);
 450:frucd_display.c ****                     last_state_color = color;
 451:frucd_display.c ****                 }
 452:frucd_display.c ****                 UG_PutColorString(xFont, yFont, "BR NOT PRS", C_BLACK, color);
 453:frucd_display.c ****                 break;
 454:frucd_display.c ****             case HV_DISABLED_WHILE_DRIVING:
 455:frucd_display.c ****                 color = C_RED;
 456:frucd_display.c ****                 if (color != last_state_color) {
 457:frucd_display.c ****                     // only draw rectangle if color changed
 458:frucd_display.c ****                     UG_FillFrame(x1, y1, x2, y2, color);
 459:frucd_display.c ****                     last_state_color = color;
 460:frucd_display.c ****                 }
 461:frucd_display.c ****                 UG_PutColorString(xFont, yFont, "HV OFF DRV", C_BLACK, color);
 462:frucd_display.c ****                 break;
 463:frucd_display.c ****             case SENSOR_DISCREPANCY:
 464:frucd_display.c ****                 color = C_RED;
ARM GAS  C:\Users\leoja\AppData\Local\Temp\ccYOCOnJ.s 			page 24


 465:frucd_display.c ****                 if (color != last_state_color) {
 466:frucd_display.c ****                     // only draw rectangle if color changed
 467:frucd_display.c ****                     UG_FillFrame(x1, y1, x2, y2, color);
 468:frucd_display.c ****                     last_state_color = color;
 469:frucd_display.c ****                 }
 470:frucd_display.c ****                 UG_PutColorString(xFont, yFont, "SNSR DSCRP", C_BLACK, color);
 471:frucd_display.c ****                 break;
 472:frucd_display.c ****             case BRAKE_IMPLAUSIBLE:
 473:frucd_display.c ****                 color = C_YELLOW;
 474:frucd_display.c ****                 if (color != last_state_color) {
 475:frucd_display.c ****                     // only draw rectangle if color changed
 476:frucd_display.c ****                     UG_FillFrame(x1, y1, x2, y2, color);
 477:frucd_display.c ****                     last_state_color = color;
 478:frucd_display.c ****                 }
 479:frucd_display.c ****                 UG_PutColorString(xFont, yFont, "BSPD TRIPD", C_BLACK, color); //whitespace to clea
 480:frucd_display.c ****                 break;
 481:frucd_display.c ****             case ESTOP:
 482:frucd_display.c ****                 color = C_RED;
 483:frucd_display.c ****                 if (color != last_state_color) {
 828              		.loc 1 483 0
 829 0068 2B68     		ldr	r3, [r5]
 830 006a 1A00     		movs	r2, r3
 415:frucd_display.c ****             case NONE: // STARTUP (effectively)
 831              		.loc 1 415 0
 832 006c FFF7FEFF 		bl	__gnu_thumb1_case_uqi
 833              	.L45:
 834 0070 04       		.byte	(.L44-.L45)/2
 835 0071 1B       		.byte	(.L46-.L45)/2
 836 0072 35       		.byte	(.L47-.L45)/2
 837 0073 4F       		.byte	(.L48-.L45)/2
 838 0074 69       		.byte	(.L49-.L45)/2
 839 0075 83       		.byte	(.L50-.L45)/2
 840 0076 9D       		.byte	(.L51-.L45)/2
 841 0077 B4       		.byte	(.L52-.L45)/2
 842              		.p2align 1
 843              	.L44:
 844              	.LVL89:
 420:frucd_display.c ****                     // only draw rectangle if color changed
 845              		.loc 1 420 0
 846 0078 814B     		ldr	r3, .L69+8
 847 007a 9A42     		cmp	r2, r3
 848 007c 0ED0     		beq	.L53
 422:frucd_display.c ****                     last_state_color = color;
 849              		.loc 1 422 0
 850 007e 6A46     		mov	r2, sp
 851 0080 1421     		movs	r1, #20
 852 0082 525E     		ldrsh	r2, [r2, r1]
 853 0084 6946     		mov	r1, sp
 854 0086 1020     		movs	r0, #16
 855 0088 095E     		ldrsh	r1, [r1, r0]
 856 008a 6846     		mov	r0, sp
 857 008c 23B2     		sxth	r3, r4
 858 008e 0C24     		movs	r4, #12
 859 0090 005F     		ldrsh	r0, [r0, r4]
 860 0092 7B4C     		ldr	r4, .L69+8
 861 0094 0094     		str	r4, [sp]
 862 0096 FFF7FEFF 		bl	UG_FillFrame
ARM GAS  C:\Users\leoja\AppData\Local\Temp\ccYOCOnJ.s 			page 25


 863              	.LVL90:
 423:frucd_display.c ****                 }
 864              		.loc 1 423 0
 865 009a 2C60     		str	r4, [r5]
 866              	.L53:
 425:frucd_display.c ****                 break;
 867              		.loc 1 425 0
 868 009c 784B     		ldr	r3, .L69+8
 869 009e 794A     		ldr	r2, .L69+12
 870 00a0 0093     		str	r3, [sp]
 871 00a2 0023     		movs	r3, #0
 872 00a4 B1E0     		b	.L68
 873              	.LVL91:
 874              	.L46:
 429:frucd_display.c ****                     // only draw rectangle if color changed
 875              		.loc 1 429 0
 876 00a6 FF23     		movs	r3, #255
 877 00a8 1B04     		lsls	r3, r3, #16
 878 00aa 9A42     		cmp	r2, r3
 879 00ac 0FD0     		beq	.L54
 431:frucd_display.c ****                     last_state_color = color;
 880              		.loc 1 431 0
 881 00ae 6A46     		mov	r2, sp
 882 00b0 1421     		movs	r1, #20
 883 00b2 525E     		ldrsh	r2, [r2, r1]
 884 00b4 6946     		mov	r1, sp
 885 00b6 1020     		movs	r0, #16
 886 00b8 095E     		ldrsh	r1, [r1, r0]
 887 00ba 6846     		mov	r0, sp
 888 00bc 23B2     		sxth	r3, r4
 889 00be 0C24     		movs	r4, #12
 890 00c0 005F     		ldrsh	r0, [r0, r4]
 891 00c2 FF24     		movs	r4, #255
 892 00c4 2404     		lsls	r4, r4, #16
 893 00c6 0094     		str	r4, [sp]
 894 00c8 FFF7FEFF 		bl	UG_FillFrame
 895              	.LVL92:
 432:frucd_display.c ****                 }
 896              		.loc 1 432 0
 897 00cc 2C60     		str	r4, [r5]
 898              	.L54:
 434:frucd_display.c ****                 break;
 899              		.loc 1 434 0
 900 00ce FF23     		movs	r3, #255
 901 00d0 1B04     		lsls	r3, r3, #16
 902 00d2 0093     		str	r3, [sp]
 903 00d4 6C4A     		ldr	r2, .L69+16
 904 00d6 0023     		movs	r3, #0
 905 00d8 97E0     		b	.L68
 906              	.LVL93:
 907              	.L47:
 438:frucd_display.c ****                     // only draw rectangle if color changed
 908              		.loc 1 438 0
 909 00da FF23     		movs	r3, #255
 910 00dc 1B04     		lsls	r3, r3, #16
 911 00de 9A42     		cmp	r2, r3
 912 00e0 0FD0     		beq	.L55
ARM GAS  C:\Users\leoja\AppData\Local\Temp\ccYOCOnJ.s 			page 26


 440:frucd_display.c ****                     last_state_color = color;
 913              		.loc 1 440 0
 914 00e2 6A46     		mov	r2, sp
 915 00e4 1421     		movs	r1, #20
 916 00e6 525E     		ldrsh	r2, [r2, r1]
 917 00e8 6946     		mov	r1, sp
 918 00ea 1020     		movs	r0, #16
 919 00ec 095E     		ldrsh	r1, [r1, r0]
 920 00ee 6846     		mov	r0, sp
 921 00f0 23B2     		sxth	r3, r4
 922 00f2 0C24     		movs	r4, #12
 923 00f4 005F     		ldrsh	r0, [r0, r4]
 924 00f6 FF24     		movs	r4, #255
 925 00f8 2404     		lsls	r4, r4, #16
 926 00fa 0094     		str	r4, [sp]
 927 00fc FFF7FEFF 		bl	UG_FillFrame
 928              	.LVL94:
 441:frucd_display.c ****                 }
 929              		.loc 1 441 0
 930 0100 2C60     		str	r4, [r5]
 931              	.L55:
 443:frucd_display.c ****                 break;
 932              		.loc 1 443 0
 933 0102 FF23     		movs	r3, #255
 934 0104 1B04     		lsls	r3, r3, #16
 935 0106 0093     		str	r3, [sp]
 936 0108 604A     		ldr	r2, .L69+20
 937 010a 0023     		movs	r3, #0
 938 010c 7DE0     		b	.L68
 939              	.LVL95:
 940              	.L48:
 447:frucd_display.c ****                     // only draw rectangle if color changed
 941              		.loc 1 447 0
 942 010e FF23     		movs	r3, #255
 943 0110 1B04     		lsls	r3, r3, #16
 944 0112 9A42     		cmp	r2, r3
 945 0114 0FD0     		beq	.L56
 449:frucd_display.c ****                     last_state_color = color;
 946              		.loc 1 449 0
 947 0116 6A46     		mov	r2, sp
 948 0118 1421     		movs	r1, #20
 949 011a 525E     		ldrsh	r2, [r2, r1]
 950 011c 6946     		mov	r1, sp
 951 011e 1020     		movs	r0, #16
 952 0120 095E     		ldrsh	r1, [r1, r0]
 953 0122 6846     		mov	r0, sp
 954 0124 23B2     		sxth	r3, r4
 955 0126 0C24     		movs	r4, #12
 956 0128 005F     		ldrsh	r0, [r0, r4]
 957 012a FF24     		movs	r4, #255
 958 012c 2404     		lsls	r4, r4, #16
 959 012e 0094     		str	r4, [sp]
 960 0130 FFF7FEFF 		bl	UG_FillFrame
 961              	.LVL96:
 450:frucd_display.c ****                 }
 962              		.loc 1 450 0
 963 0134 2C60     		str	r4, [r5]
ARM GAS  C:\Users\leoja\AppData\Local\Temp\ccYOCOnJ.s 			page 27


 964              	.L56:
 452:frucd_display.c ****                 break;
 965              		.loc 1 452 0
 966 0136 FF23     		movs	r3, #255
 967 0138 1B04     		lsls	r3, r3, #16
 968 013a 0093     		str	r3, [sp]
 969 013c 544A     		ldr	r2, .L69+24
 970 013e 0023     		movs	r3, #0
 971 0140 63E0     		b	.L68
 972              	.LVL97:
 973              	.L49:
 456:frucd_display.c ****                     // only draw rectangle if color changed
 974              		.loc 1 456 0
 975 0142 FF23     		movs	r3, #255
 976 0144 1B04     		lsls	r3, r3, #16
 977 0146 9A42     		cmp	r2, r3
 978 0148 0FD0     		beq	.L57
 458:frucd_display.c ****                     last_state_color = color;
 979              		.loc 1 458 0
 980 014a 6A46     		mov	r2, sp
 981 014c 1421     		movs	r1, #20
 982 014e 525E     		ldrsh	r2, [r2, r1]
 983 0150 6946     		mov	r1, sp
 984 0152 1020     		movs	r0, #16
 985 0154 095E     		ldrsh	r1, [r1, r0]
 986 0156 6846     		mov	r0, sp
 987 0158 23B2     		sxth	r3, r4
 988 015a 0C24     		movs	r4, #12
 989 015c 005F     		ldrsh	r0, [r0, r4]
 990 015e FF24     		movs	r4, #255
 991 0160 2404     		lsls	r4, r4, #16
 992 0162 0094     		str	r4, [sp]
 993 0164 FFF7FEFF 		bl	UG_FillFrame
 994              	.LVL98:
 459:frucd_display.c ****                 }
 995              		.loc 1 459 0
 996 0168 2C60     		str	r4, [r5]
 997              	.L57:
 461:frucd_display.c ****                 break;
 998              		.loc 1 461 0
 999 016a FF23     		movs	r3, #255
 1000 016c 1B04     		lsls	r3, r3, #16
 1001 016e 0093     		str	r3, [sp]
 1002 0170 484A     		ldr	r2, .L69+28
 1003 0172 0023     		movs	r3, #0
 1004 0174 49E0     		b	.L68
 1005              	.LVL99:
 1006              	.L50:
 465:frucd_display.c ****                     // only draw rectangle if color changed
 1007              		.loc 1 465 0
 1008 0176 FF23     		movs	r3, #255
 1009 0178 1B04     		lsls	r3, r3, #16
 1010 017a 9A42     		cmp	r2, r3
 1011 017c 0FD0     		beq	.L58
 467:frucd_display.c ****                     last_state_color = color;
 1012              		.loc 1 467 0
 1013 017e 6A46     		mov	r2, sp
ARM GAS  C:\Users\leoja\AppData\Local\Temp\ccYOCOnJ.s 			page 28


 1014 0180 1421     		movs	r1, #20
 1015 0182 525E     		ldrsh	r2, [r2, r1]
 1016 0184 6946     		mov	r1, sp
 1017 0186 1020     		movs	r0, #16
 1018 0188 095E     		ldrsh	r1, [r1, r0]
 1019 018a 6846     		mov	r0, sp
 1020 018c 23B2     		sxth	r3, r4
 1021 018e 0C24     		movs	r4, #12
 1022 0190 005F     		ldrsh	r0, [r0, r4]
 1023 0192 FF24     		movs	r4, #255
 1024 0194 2404     		lsls	r4, r4, #16
 1025 0196 0094     		str	r4, [sp]
 1026 0198 FFF7FEFF 		bl	UG_FillFrame
 1027              	.LVL100:
 468:frucd_display.c ****                 }
 1028              		.loc 1 468 0
 1029 019c 2C60     		str	r4, [r5]
 1030              	.L58:
 470:frucd_display.c ****                 break;
 1031              		.loc 1 470 0
 1032 019e FF23     		movs	r3, #255
 1033 01a0 1B04     		lsls	r3, r3, #16
 1034 01a2 0093     		str	r3, [sp]
 1035 01a4 3C4A     		ldr	r2, .L69+32
 1036 01a6 0023     		movs	r3, #0
 1037 01a8 2FE0     		b	.L68
 1038              	.LVL101:
 1039              	.L51:
 474:frucd_display.c ****                     // only draw rectangle if color changed
 1040              		.loc 1 474 0
 1041 01aa 354B     		ldr	r3, .L69+8
 1042 01ac 9A42     		cmp	r2, r3
 1043 01ae 0ED0     		beq	.L59
 476:frucd_display.c ****                     last_state_color = color;
 1044              		.loc 1 476 0
 1045 01b0 6A46     		mov	r2, sp
 1046 01b2 1421     		movs	r1, #20
 1047 01b4 525E     		ldrsh	r2, [r2, r1]
 1048 01b6 6946     		mov	r1, sp
 1049 01b8 1020     		movs	r0, #16
 1050 01ba 095E     		ldrsh	r1, [r1, r0]
 1051 01bc 6846     		mov	r0, sp
 1052 01be 23B2     		sxth	r3, r4
 1053 01c0 0C24     		movs	r4, #12
 1054 01c2 005F     		ldrsh	r0, [r0, r4]
 1055 01c4 2E4C     		ldr	r4, .L69+8
 1056 01c6 0094     		str	r4, [sp]
 1057 01c8 FFF7FEFF 		bl	UG_FillFrame
 1058              	.LVL102:
 477:frucd_display.c ****                 }
 1059              		.loc 1 477 0
 1060 01cc 2C60     		str	r4, [r5]
 1061              	.L59:
 479:frucd_display.c ****                 break;
 1062              		.loc 1 479 0
 1063 01ce 2C4B     		ldr	r3, .L69+8
 1064 01d0 324A     		ldr	r2, .L69+36
ARM GAS  C:\Users\leoja\AppData\Local\Temp\ccYOCOnJ.s 			page 29


 1065 01d2 0093     		str	r3, [sp]
 1066 01d4 0023     		movs	r3, #0
 1067 01d6 18E0     		b	.L68
 1068              	.LVL103:
 1069              	.L52:
 1070              		.loc 1 483 0
 1071 01d8 FF23     		movs	r3, #255
 1072 01da 1B04     		lsls	r3, r3, #16
 1073 01dc 9A42     		cmp	r2, r3
 1074 01de 0FD0     		beq	.L60
 484:frucd_display.c ****                     // only draw rectangle if color changed
 485:frucd_display.c ****                     UG_FillFrame(x1, y1, x2, y2, color);
 1075              		.loc 1 485 0
 1076 01e0 6A46     		mov	r2, sp
 1077 01e2 1421     		movs	r1, #20
 1078 01e4 525E     		ldrsh	r2, [r2, r1]
 1079 01e6 6946     		mov	r1, sp
 1080 01e8 1020     		movs	r0, #16
 1081 01ea 095E     		ldrsh	r1, [r1, r0]
 1082 01ec 6846     		mov	r0, sp
 1083 01ee 23B2     		sxth	r3, r4
 1084 01f0 0C24     		movs	r4, #12
 1085 01f2 005F     		ldrsh	r0, [r0, r4]
 1086 01f4 FF24     		movs	r4, #255
 1087 01f6 2404     		lsls	r4, r4, #16
 1088 01f8 0094     		str	r4, [sp]
 1089 01fa FFF7FEFF 		bl	UG_FillFrame
 1090              	.LVL104:
 486:frucd_display.c ****                     last_state_color = color;
 1091              		.loc 1 486 0
 1092 01fe 2C60     		str	r4, [r5]
 1093              	.L60:
 487:frucd_display.c ****                 }
 488:frucd_display.c ****                 UG_PutColorString(xFont, yFont, "SHTDWN OPN", C_BLACK, color); //whitespace to clea
 1094              		.loc 1 488 0
 1095 0200 FF23     		movs	r3, #255
 1096 0202 1B04     		lsls	r3, r3, #16
 1097 0204 0093     		str	r3, [sp]
 1098 0206 0023     		movs	r3, #0
 1099 0208 254A     		ldr	r2, .L69+40
 1100              	.LVL105:
 1101              	.L68:
 1102 020a 3900     		movs	r1, r7
 1103 020c 2BE0     		b	.L67
 1104              	.L42:
 1105              	.LVL106:
 1106              	.LBE3:
 489:frucd_display.c ****                 break;
 490:frucd_display.c ****         }
 491:frucd_display.c ****         
 492:frucd_display.c ****     } else {
 493:frucd_display.c ****         // *************** NO FAULTS ***************
 494:frucd_display.c ****         color = C_GREEN;
 495:frucd_display.c ****         if (color != last_state_color) {
 1107              		.loc 1 495 0
 1108 020e FF27     		movs	r7, #255
 1109 0210 1A4D     		ldr	r5, .L69+4
ARM GAS  C:\Users\leoja\AppData\Local\Temp\ccYOCOnJ.s 			page 30


 1110 0212 3F02     		lsls	r7, r7, #8
 1111 0214 2B68     		ldr	r3, [r5]
 1112 0216 BB42     		cmp	r3, r7
 1113 0218 0DD0     		beq	.L61
 496:frucd_display.c ****             // only draw rectangle if color changed
 497:frucd_display.c ****             UG_FillFrame(x1, y1, x2, y2, color);
 1114              		.loc 1 497 0
 1115 021a 6A46     		mov	r2, sp
 1116 021c 1421     		movs	r1, #20
 1117 021e 525E     		ldrsh	r2, [r2, r1]
 1118 0220 6946     		mov	r1, sp
 1119 0222 1020     		movs	r0, #16
 1120 0224 095E     		ldrsh	r1, [r1, r0]
 1121 0226 6846     		mov	r0, sp
 1122 0228 23B2     		sxth	r3, r4
 1123 022a 0C24     		movs	r4, #12
 1124 022c 005F     		ldrsh	r0, [r0, r4]
 1125 022e 0097     		str	r7, [sp]
 1126 0230 FFF7FEFF 		bl	UG_FillFrame
 1127              	.LVL107:
 498:frucd_display.c ****             last_state_color = color;
 1128              		.loc 1 498 0
 1129 0234 2F60     		str	r7, [r5]
 1130              	.L61:
 499:frucd_display.c ****         }
 500:frucd_display.c ****         switch(state) {
 1131              		.loc 1 500 0
 1132 0236 032E     		cmp	r6, #3
 1133 0238 18D8     		bhi	.L43
 1134 023a 6B46     		mov	r3, sp
 1135 023c 1C21     		movs	r1, #28
 1136 023e 595E     		ldrsh	r1, [r3, r1]
 1137 0240 6B46     		mov	r3, sp
 1138 0242 3000     		movs	r0, r6
 1139 0244 1826     		movs	r6, #24
 1140 0246 9E5F     		ldrsh	r6, [r3, r6]
 1141 0248 FF23     		movs	r3, #255
 1142 024a 1B02     		lsls	r3, r3, #8
 501:frucd_display.c ****             case LV:
 502:frucd_display.c ****                 UG_PutColorString(xFont, yFont, "    LV    ", C_BLACK, color);
 503:frucd_display.c ****                 break;
 504:frucd_display.c ****             case PRECHARGING:
 505:frucd_display.c ****                 UG_PutColorString(xFont, yFont, "PRECHARGE ", C_BLACK, color);
 506:frucd_display.c ****                 break;
 507:frucd_display.c ****             case HV_ENABLED:
 508:frucd_display.c ****                 UG_PutColorString(xFont, yFont, "HV ENABLED", C_BLACK, color);
 509:frucd_display.c ****                 break;
 510:frucd_display.c ****             case DRIVE:
 511:frucd_display.c ****                 UG_PutColorString(xFont, yFont, "  DRIVE   ", C_BLACK, color);
 1143              		.loc 1 511 0
 1144 024c 0093     		str	r3, [sp]
 1145 024e 0023     		movs	r3, #0
 500:frucd_display.c ****             case LV:
 1146              		.loc 1 500 0
 1147 0250 FFF7FEFF 		bl	__gnu_thumb1_case_uqi
 1148              	.L63:
 1149 0254 02       		.byte	(.L62-.L63)/2
ARM GAS  C:\Users\leoja\AppData\Local\Temp\ccYOCOnJ.s 			page 31


 1150 0255 04       		.byte	(.L64-.L63)/2
 1151 0256 06       		.byte	(.L65-.L63)/2
 1152 0257 08       		.byte	(.L66-.L63)/2
 1153              		.p2align 1
 1154              	.L62:
 502:frucd_display.c ****                 break;
 1155              		.loc 1 502 0
 1156 0258 124A     		ldr	r2, .L69+44
 1157 025a 04E0     		b	.L67
 1158              	.L64:
 505:frucd_display.c ****                 break;
 1159              		.loc 1 505 0
 1160 025c 124A     		ldr	r2, .L69+48
 1161 025e 02E0     		b	.L67
 1162              	.L65:
 508:frucd_display.c ****                 break;
 1163              		.loc 1 508 0
 1164 0260 124A     		ldr	r2, .L69+52
 1165 0262 00E0     		b	.L67
 1166              	.L66:
 1167              		.loc 1 511 0
 1168 0264 124A     		ldr	r2, .L69+56
 1169              	.LVL108:
 1170              	.L67:
 1171 0266 3000     		movs	r0, r6
 1172 0268 FFF7FEFF 		bl	UG_PutColorString
 1173              	.LVL109:
 1174              	.L43:
 512:frucd_display.c ****                 break;
 513:frucd_display.c ****         }
 514:frucd_display.c ****     }
 515:frucd_display.c ****      UG_FontSelect(&FONT_12X16);
 1175              		.loc 1 515 0
 1176 026c 1148     		ldr	r0, .L69+60
 1177 026e FFF7FEFF 		bl	UG_FontSelect
 1178              	.LVL110:
 516:frucd_display.c **** }
 1179              		.loc 1 516 0
 1180 0272 09B0     		add	sp, sp, #36
 1181              		@ sp needed
 1182 0274 F0BD     		pop	{r4, r5, r6, r7, pc}
 1183              	.L70:
 1184 0276 C046     		.align	2
 1185              	.L69:
 1186 0278 00000000 		.word	FONT_32X53
 1187 027c 00000000 		.word	last_state_color
 1188 0280 00FFFF00 		.word	16776960
 1189 0284 3E000000 		.word	.LC30
 1190 0288 49000000 		.word	.LC32
 1191 028c 54000000 		.word	.LC34
 1192 0290 5F000000 		.word	.LC36
 1193 0294 6A000000 		.word	.LC38
 1194 0298 75000000 		.word	.LC40
 1195 029c 80000000 		.word	.LC42
 1196 02a0 8B000000 		.word	.LC44
 1197 02a4 96000000 		.word	.LC46
 1198 02a8 A1000000 		.word	.LC48
ARM GAS  C:\Users\leoja\AppData\Local\Temp\ccYOCOnJ.s 			page 32


 1199 02ac AC000000 		.word	.LC50
 1200 02b0 B7000000 		.word	.LC52
 1201 02b4 00000000 		.word	FONT_12X16
 1202              		.cfi_endproc
 1203              	.LFE40:
 1204              		.size	disp_state, .-disp_state
 1205              		.global	__aeabi_uidiv
 1206              		.section	.text.disp_glv_v,"ax",%progbits
 1207              		.align	1
 1208              		.global	disp_glv_v
 1209              		.code	16
 1210              		.thumb_func
 1211              		.type	disp_glv_v, %function
 1212              	disp_glv_v:
 1213              	.LFB41:
 517:frucd_display.c **** 
 518:frucd_display.c **** /*
 519:frucd_display.c **** 
 520:frucd_display.c **** void disp_glv_v(uint32_t data) {
 521:frucd_display.c ****     // translate from voltage divider measurement to true voltage
 522:frucd_display.c ****     // y = 0.4295x + 18.254
 523:frucd_display.c ****     data *= 859;
 524:frucd_display.c ****     data /= 2000; // 0.4295
 525:frucd_display.c ****     data += 18;
 526:frucd_display.c ****     UG_COLOR color;
 527:frucd_display.c ****     if (data > 1150) {
 528:frucd_display.c ****         color = C_GREEN;
 529:frucd_display.c ****     } else if (data > 1100) {
 530:frucd_display.c ****         color = C_YELLOW;
 531:frucd_display.c ****     } else if (data > 1050) {
 532:frucd_display.c ****         color = C_ORANGE;
 533:frucd_display.c ****     } else {
 534:frucd_display.c ****         color = C_RED;
 535:frucd_display.c ****     }
 536:frucd_display.c ****     if (color != last_glv_v_color) {
 537:frucd_display.c ****         // only draw rectangle if color changed
 538:frucd_display.c ****         UG_FillFrame(95, 230, 182, 260, color);
 539:frucd_display.c ****         last_glv_v_color = color;
 540:frucd_display.c ****     }
 541:frucd_display.c ****     char data_s[7];
 542:frucd_display.c ****     sprintf(data_s, "%d", data);
 543:frucd_display.c ****     // handle 3 digit cases; 2 and 1 are practically impossible
 544:frucd_display.c ****     if (data < 1000) {
 545:frucd_display.c ****         data_s[3] = data_s[2];
 546:frucd_display.c ****         data_s[2] = data_s[1];
 547:frucd_display.c ****         data_s[1] = data_s[0];  
 548:frucd_display.c ****         data_s[0] = ' ';
 549:frucd_display.c ****     }
 550:frucd_display.c ****     // shift over fractional part
 551:frucd_display.c ****     data_s[4] = data_s[3];
 552:frucd_display.c ****     data_s[3] = data_s[2];
 553:frucd_display.c ****     // add syntax
 554:frucd_display.c ****     data_s[2] = '.';
 555:frucd_display.c ****     data_s[5] = 'V';
 556:frucd_display.c ****     data_s[6] = '\0';
 557:frucd_display.c ****     UG_PutColorString(100, 240, data_s, C_BLACK, color);
 558:frucd_display.c **** }
ARM GAS  C:\Users\leoja\AppData\Local\Temp\ccYOCOnJ.s 			page 33


 559:frucd_display.c **** 
 560:frucd_display.c **** */
 561:frucd_display.c **** 
 562:frucd_display.c **** 
 563:frucd_display.c **** void disp_glv_v(uint32_t data, uint16_t x1, uint16_t y1, uint16_t x2, uint16_t y2, uint8_t size) { 
 1214              		.loc 1 563 0
 1215              		.cfi_startproc
 1216              		@ args = 8, pretend = 0, frame = 32
 1217              		@ frame_needed = 0, uses_anonymous_args = 0
 1218              	.LVL111:
 1219 0000 F0B5     		push	{r4, r5, r6, r7, lr}
 1220              		.cfi_def_cfa_offset 20
 1221              		.cfi_offset 4, -20
 1222              		.cfi_offset 5, -16
 1223              		.cfi_offset 6, -12
 1224              		.cfi_offset 7, -8
 1225              		.cfi_offset 14, -4
 1226 0002 8BB0     		sub	sp, sp, #44
 1227              		.cfi_def_cfa_offset 64
 1228              		.loc 1 563 0
 1229 0004 0493     		str	r3, [sp, #16]
 1230 0006 10AB     		add	r3, sp, #64
 1231              	.LVL112:
 1232 0008 1B88     		ldrh	r3, [r3]
 1233              	.LVL113:
 1234 000a 0392     		str	r2, [sp, #12]
 1235 000c 0593     		str	r3, [sp, #20]
 1236 000e 11AB     		add	r3, sp, #68
 1237              	.LVL114:
 1238 0010 1A78     		ldrb	r2, [r3]
 1239              	.LVL115:
 564:frucd_display.c ****     int xFont, yFont;
 565:frucd_display.c ****     int horizFontSize = 12 + 20*size;
 566:frucd_display.c ****     int stringSize;
 567:frucd_display.c ****     stringSize = 6;
 568:frucd_display.c ****     xFont = (x1 + x2)/2 - ((horizFontSize*stringSize)/2);
 1240              		.loc 1 568 0
 1241 0012 1423     		movs	r3, #20
 1242              	.LVL116:
 563:frucd_display.c ****     int xFont, yFont;
 1243              		.loc 1 563 0
 1244 0014 0E00     		movs	r6, r1
 1245              		.loc 1 568 0
 1246 0016 0621     		movs	r1, #6
 1247              	.LVL117:
 1248 0018 5343     		muls	r3, r2
 1249 001a 0C33     		adds	r3, r3, #12
 1250              	.LVL118:
 1251 001c 4B43     		muls	r3, r1
 1252              	.LVL119:
 1253 001e 0499     		ldr	r1, [sp, #16]
 563:frucd_display.c ****     int xFont, yFont;
 1254              		.loc 1 563 0
 1255 0020 0400     		movs	r4, r0
 1256              		.loc 1 568 0
 1257 0022 7018     		adds	r0, r6, r1
 1258              	.LVL120:
ARM GAS  C:\Users\leoja\AppData\Local\Temp\ccYOCOnJ.s 			page 34


 1259 0024 5B10     		asrs	r3, r3, #1
 1260 0026 4010     		asrs	r0, r0, #1
 1261 0028 C31A     		subs	r3, r0, r3
 569:frucd_display.c ****     yFont = (y1 + y2)/2 - 5 - (size*17);    
 1262              		.loc 1 569 0
 1263 002a 0599     		ldr	r1, [sp, #20]
 568:frucd_display.c ****     yFont = (y1 + y2)/2 - 5 - (size*17);    
 1264              		.loc 1 568 0
 1265 002c 0693     		str	r3, [sp, #24]
 1266              	.LVL121:
 1267              		.loc 1 569 0
 1268 002e 039B     		ldr	r3, [sp, #12]
 1269              	.LVL122:
 1270 0030 5B18     		adds	r3, r3, r1
 1271 0032 1121     		movs	r1, #17
 1272 0034 4942     		rsbs	r1, r1, #0
 1273 0036 5143     		muls	r1, r2
 1274 0038 5B10     		asrs	r3, r3, #1
 1275 003a 053B     		subs	r3, r3, #5
 1276 003c 5B18     		adds	r3, r3, r1
 1277 003e 0793     		str	r3, [sp, #28]
 1278              	.LVL123:
 570:frucd_display.c ****     
 571:frucd_display.c ****     
 572:frucd_display.c ****     if(size == 1){
 1279              		.loc 1 572 0
 1280 0040 012A     		cmp	r2, #1
 1281 0042 02D1     		bne	.L72
 573:frucd_display.c ****         UG_FontSelect(&FONT_32X53);  
 1282              		.loc 1 573 0
 1283 0044 2C48     		ldr	r0, .L79
 1284 0046 FFF7FEFF 		bl	UG_FontSelect
 1285              	.LVL124:
 1286              	.L72:
 574:frucd_display.c ****     }
 575:frucd_display.c ****     // translate from voltage divider measurement to true voltage
 576:frucd_display.c ****     // y = 0.4295x + 18.254
 577:frucd_display.c ****     data *= 859;
 578:frucd_display.c ****     data /= 2000; // 0.4295
 1287              		.loc 1 578 0
 1288 004a FA21     		movs	r1, #250
 577:frucd_display.c ****     data /= 2000; // 0.4295
 1289              		.loc 1 577 0
 1290 004c 2B48     		ldr	r0, .L79+4
 1291              		.loc 1 578 0
 1292 004e C900     		lsls	r1, r1, #3
 577:frucd_display.c ****     data /= 2000; // 0.4295
 1293              		.loc 1 577 0
 1294 0050 6043     		muls	r0, r4
 1295              	.LVL125:
 1296              		.loc 1 578 0
 1297 0052 FFF7FEFF 		bl	__aeabi_uidiv
 1298              	.LVL126:
 579:frucd_display.c ****     data += 18;
 580:frucd_display.c ****     UG_COLOR color;
 581:frucd_display.c ****     if (data > 1150) {
 1299              		.loc 1 581 0
ARM GAS  C:\Users\leoja\AppData\Local\Temp\ccYOCOnJ.s 			page 35


 1300 0056 2A4B     		ldr	r3, .L79+8
 579:frucd_display.c ****     data += 18;
 1301              		.loc 1 579 0
 1302 0058 1230     		adds	r0, r0, #18
 1303              	.LVL127:
 1304 005a 0500     		movs	r5, r0
 1305              	.LVL128:
 1306              		.loc 1 581 0
 1307 005c 9842     		cmp	r0, r3
 1308 005e 08D8     		bhi	.L76
 582:frucd_display.c ****         color = C_GREEN;
 583:frucd_display.c ****     } else if (data > 1100) {
 1309              		.loc 1 583 0
 1310 0060 284B     		ldr	r3, .L79+12
 1311 0062 9842     		cmp	r0, r3
 1312 0064 08D8     		bhi	.L77
 584:frucd_display.c ****         color = C_YELLOW;
 585:frucd_display.c ****     } else if (data > 1050) {
 1313              		.loc 1 585 0
 1314 0066 284B     		ldr	r3, .L79+16
 1315 0068 9842     		cmp	r0, r3
 1316 006a 07D8     		bhi	.L78
 586:frucd_display.c ****         color = C_ORANGE;
 587:frucd_display.c ****     } else {
 588:frucd_display.c ****         color = C_RED;
 1317              		.loc 1 588 0
 1318 006c FF24     		movs	r4, #255
 1319 006e 2404     		lsls	r4, r4, #16
 1320 0070 05E0     		b	.L73
 1321              	.L76:
 582:frucd_display.c ****     } else if (data > 1100) {
 1322              		.loc 1 582 0
 1323 0072 FF24     		movs	r4, #255
 1324 0074 2402     		lsls	r4, r4, #8
 1325 0076 02E0     		b	.L73
 1326              	.L77:
 584:frucd_display.c ****         color = C_YELLOW;
 1327              		.loc 1 584 0
 1328 0078 244C     		ldr	r4, .L79+20
 1329 007a 00E0     		b	.L73
 1330              	.L78:
 586:frucd_display.c ****         color = C_ORANGE;
 1331              		.loc 1 586 0
 1332 007c 244C     		ldr	r4, .L79+24
 1333              	.L73:
 1334              	.LVL129:
 589:frucd_display.c ****     }
 590:frucd_display.c ****     if (color != last_glv_v_color) {
 1335              		.loc 1 590 0
 1336 007e 254F     		ldr	r7, .L79+28
 1337 0080 3B68     		ldr	r3, [r7]
 1338 0082 9C42     		cmp	r4, r3
 1339 0084 0DD0     		beq	.L74
 591:frucd_display.c ****         // only draw rectangle if color changed
 592:frucd_display.c ****         UG_FillFrame(x1, y1, x2, y2, color);
 1340              		.loc 1 592 0
 1341 0086 6B46     		mov	r3, sp
ARM GAS  C:\Users\leoja\AppData\Local\Temp\ccYOCOnJ.s 			page 36


 1342 0088 1422     		movs	r2, #20
 1343 008a 9B5E     		ldrsh	r3, [r3, r2]
 1344 008c 6A46     		mov	r2, sp
 1345 008e 1021     		movs	r1, #16
 1346 0090 525E     		ldrsh	r2, [r2, r1]
 1347 0092 6946     		mov	r1, sp
 1348 0094 0C20     		movs	r0, #12
 1349 0096 095E     		ldrsh	r1, [r1, r0]
 1350              	.LVL130:
 1351 0098 30B2     		sxth	r0, r6
 1352 009a 0094     		str	r4, [sp]
 1353 009c FFF7FEFF 		bl	UG_FillFrame
 1354              	.LVL131:
 593:frucd_display.c ****         last_glv_v_color = color;
 1355              		.loc 1 593 0
 1356 00a0 3C60     		str	r4, [r7]
 1357              	.L74:
 594:frucd_display.c ****     }
 595:frucd_display.c ****     char data_s[7];
 596:frucd_display.c ****     sprintf(data_s, "%d", data);
 1358              		.loc 1 596 0
 1359 00a2 08AE     		add	r6, sp, #32
 1360 00a4 2A00     		movs	r2, r5
 1361 00a6 1C49     		ldr	r1, .L79+32
 1362 00a8 3000     		movs	r0, r6
 1363 00aa FFF7FEFF 		bl	sprintf
 1364              	.LVL132:
 597:frucd_display.c ****     // handle 3 digit cases; 2 and 1 are practically impossible
 598:frucd_display.c ****     if (data < 1000) {
 1365              		.loc 1 598 0
 1366 00ae 1B4B     		ldr	r3, .L79+36
 1367 00b0 9D42     		cmp	r5, r3
 1368 00b2 07D8     		bhi	.L75
 599:frucd_display.c ****         data_s[3] = data_s[2];
 1369              		.loc 1 599 0
 1370 00b4 B378     		ldrb	r3, [r6, #2]
 1371 00b6 F370     		strb	r3, [r6, #3]
 600:frucd_display.c ****         data_s[2] = data_s[1];
 1372              		.loc 1 600 0
 1373 00b8 7378     		ldrb	r3, [r6, #1]
 1374 00ba B370     		strb	r3, [r6, #2]
 601:frucd_display.c ****         data_s[1] = data_s[0];  
 1375              		.loc 1 601 0
 1376 00bc 3378     		ldrb	r3, [r6]
 1377 00be 7370     		strb	r3, [r6, #1]
 602:frucd_display.c ****         data_s[0] = ' ';
 1378              		.loc 1 602 0
 1379 00c0 2023     		movs	r3, #32
 1380 00c2 3370     		strb	r3, [r6]
 1381              	.L75:
 603:frucd_display.c ****     }
 604:frucd_display.c ****     // shift over fractional part
 605:frucd_display.c ****     data_s[4] = data_s[3];
 1382              		.loc 1 605 0
 1383 00c4 F378     		ldrb	r3, [r6, #3]
 606:frucd_display.c ****     data_s[3] = data_s[2];
 607:frucd_display.c ****     // add syntax
ARM GAS  C:\Users\leoja\AppData\Local\Temp\ccYOCOnJ.s 			page 37


 608:frucd_display.c ****     data_s[2] = '.';
 609:frucd_display.c ****     data_s[5] = 'V';
 610:frucd_display.c ****     data_s[6] = '\0';
 611:frucd_display.c ****     UG_PutColorString(xFont, yFont, data_s, C_BLACK, color);
 1384              		.loc 1 611 0
 1385 00c6 6A46     		mov	r2, sp
 605:frucd_display.c ****     data_s[3] = data_s[2];
 1386              		.loc 1 605 0
 1387 00c8 3371     		strb	r3, [r6, #4]
 606:frucd_display.c ****     data_s[3] = data_s[2];
 1388              		.loc 1 606 0
 1389 00ca B378     		ldrb	r3, [r6, #2]
 1390              		.loc 1 611 0
 1391 00cc 1C21     		movs	r1, #28
 1392 00ce 515E     		ldrsh	r1, [r2, r1]
 606:frucd_display.c ****     data_s[3] = data_s[2];
 1393              		.loc 1 606 0
 1394 00d0 F370     		strb	r3, [r6, #3]
 608:frucd_display.c ****     data_s[5] = 'V';
 1395              		.loc 1 608 0
 1396 00d2 2E23     		movs	r3, #46
 1397 00d4 B370     		strb	r3, [r6, #2]
 609:frucd_display.c ****     data_s[6] = '\0';
 1398              		.loc 1 609 0
 1399 00d6 2833     		adds	r3, r3, #40
 1400 00d8 7371     		strb	r3, [r6, #5]
 1401              		.loc 1 611 0
 1402 00da 6A46     		mov	r2, sp
 610:frucd_display.c ****     UG_PutColorString(xFont, yFont, data_s, C_BLACK, color);
 1403              		.loc 1 610 0
 1404 00dc 0023     		movs	r3, #0
 1405              		.loc 1 611 0
 1406 00de 1820     		movs	r0, #24
 1407 00e0 105E     		ldrsh	r0, [r2, r0]
 610:frucd_display.c ****     UG_PutColorString(xFont, yFont, data_s, C_BLACK, color);
 1408              		.loc 1 610 0
 1409 00e2 B371     		strb	r3, [r6, #6]
 1410              		.loc 1 611 0
 1411 00e4 3200     		movs	r2, r6
 1412 00e6 0094     		str	r4, [sp]
 1413 00e8 FFF7FEFF 		bl	UG_PutColorString
 1414              	.LVL133:
 612:frucd_display.c ****     UG_FontSelect(&FONT_12X16);
 1415              		.loc 1 612 0
 1416 00ec 0C48     		ldr	r0, .L79+40
 1417 00ee FFF7FEFF 		bl	UG_FontSelect
 1418              	.LVL134:
 613:frucd_display.c **** }
 1419              		.loc 1 613 0
 1420 00f2 0BB0     		add	sp, sp, #44
 1421              		@ sp needed
 1422              	.LVL135:
 1423              	.LVL136:
 1424 00f4 F0BD     		pop	{r4, r5, r6, r7, pc}
 1425              	.L80:
 1426 00f6 C046     		.align	2
 1427              	.L79:
ARM GAS  C:\Users\leoja\AppData\Local\Temp\ccYOCOnJ.s 			page 38


 1428 00f8 00000000 		.word	FONT_32X53
 1429 00fc 5B030000 		.word	859
 1430 0100 7E040000 		.word	1150
 1431 0104 4C040000 		.word	1100
 1432 0108 1A040000 		.word	1050
 1433 010c 00FFFF00 		.word	16776960
 1434 0110 00A5FF00 		.word	16753920
 1435 0114 00000000 		.word	last_glv_v_color
 1436 0118 36000000 		.word	.LC20
 1437 011c E7030000 		.word	999
 1438 0120 00000000 		.word	FONT_12X16
 1439              		.cfi_endproc
 1440              	.LFE41:
 1441              		.size	disp_glv_v, .-disp_glv_v
 1442              		.section	.text.disp_gen_temp,"ax",%progbits
 1443              		.align	1
 1444              		.global	disp_gen_temp
 1445              		.code	16
 1446              		.thumb_func
 1447              		.type	disp_gen_temp, %function
 1448              	disp_gen_temp:
 1449              	.LFB44:
 614:frucd_display.c **** 
 615:frucd_display.c **** 
 616:frucd_display.c **** /*
 617:frucd_display.c **** void disp_mc_temp(uint16_t data) {
 618:frucd_display.c ****     if (data >= 100) {
 619:frucd_display.c ****         // handle 3 digit cases
 620:frucd_display.c ****         UG_FillFrame(410, 185, 470, 215, C_GREEN);
 621:frucd_display.c ****         char data_s[5];
 622:frucd_display.c ****         sprintf(data_s, "%d", data);
 623:frucd_display.c ****         data_s[3] = 'C';
 624:frucd_display.c ****         data_s[4] = '\0';
 625:frucd_display.c ****         UG_PutColorString(415, 195, data_s, C_BLACK, C_GREEN);
 626:frucd_display.c ****     } else {
 627:frucd_display.c ****         // handle 2 digit cases
 628:frucd_display.c ****         UG_FillFrame(410, 185, 470, 215, C_GREEN);
 629:frucd_display.c ****         char data_s[4];
 630:frucd_display.c ****         sprintf(data_s, "%d", data);
 631:frucd_display.c ****         data_s[2] = 'C';
 632:frucd_display.c ****         data_s[3] = '\0';
 633:frucd_display.c ****         UG_PutColorString(422, 195, data_s, C_BLACK, C_GREEN);
 634:frucd_display.c ****     }
 635:frucd_display.c **** }
 636:frucd_display.c **** */
 637:frucd_display.c **** 
 638:frucd_display.c **** void disp_mc_temp(uint16_t data, uint16_t x1, uint16_t y1, uint16_t x2, uint16_t y2, uint8_t size){
 639:frucd_display.c ****     disp_gen_temp(data, x1, y1, x2, y2, size);
 640:frucd_display.c **** }
 641:frucd_display.c **** /*
 642:frucd_display.c **** void disp_motor_temp(uint16_t data) {
 643:frucd_display.c ****     if (data >= 100) {
 644:frucd_display.c ****         // handle 3 digit cases
 645:frucd_display.c ****         UG_FillFrame(410, 230, 470, 260, C_GREEN);
 646:frucd_display.c ****         char data_s[5];
 647:frucd_display.c ****         sprintf(data_s, "%d", data);
 648:frucd_display.c ****         data_s[3] = 'C';
ARM GAS  C:\Users\leoja\AppData\Local\Temp\ccYOCOnJ.s 			page 39


 649:frucd_display.c ****         data_s[4] = '\0';
 650:frucd_display.c ****         UG_PutColorString(415, 240, data_s, C_BLACK, C_GREEN);
 651:frucd_display.c ****     } else {
 652:frucd_display.c ****         // handle 2 digit cases
 653:frucd_display.c ****         UG_FillFrame(410, 230, 470, 260, C_GREEN);
 654:frucd_display.c ****         char data_s[4];
 655:frucd_display.c ****         sprintf(data_s, "%d", data);
 656:frucd_display.c ****         data_s[2] = 'C';
 657:frucd_display.c ****         data_s[3] = '\0';
 658:frucd_display.c ****         UG_PutColorString(422, 240, data_s, C_BLACK, C_GREEN);
 659:frucd_display.c ****     }
 660:frucd_display.c **** }
 661:frucd_display.c **** */
 662:frucd_display.c **** 
 663:frucd_display.c **** void disp_motor_temp(uint16_t data, uint16_t x1, uint16_t y1, uint16_t x2, uint16_t y2, uint8_t siz
 664:frucd_display.c ****     disp_gen_temp(data, x1, y1, x2, y2, size);
 665:frucd_display.c **** }
 666:frucd_display.c **** 
 667:frucd_display.c **** 
 668:frucd_display.c **** 
 669:frucd_display.c **** void disp_gen_temp(uint16_t data, uint16_t x1, uint16_t y1, uint16_t x2, uint16_t y2, uint8_t size)
 1450              		.loc 1 669 0
 1451              		.cfi_startproc
 1452              		@ args = 8, pretend = 0, frame = 24
 1453              		@ frame_needed = 0, uses_anonymous_args = 0
 1454              	.LVL137:
 1455 0000 F0B5     		push	{r4, r5, r6, r7, lr}
 1456              		.cfi_def_cfa_offset 20
 1457              		.cfi_offset 4, -20
 1458              		.cfi_offset 5, -16
 1459              		.cfi_offset 6, -12
 1460              		.cfi_offset 7, -8
 1461              		.cfi_offset 14, -4
 1462 0002 1500     		movs	r5, r2
 670:frucd_display.c ****     int xFont, yFont;
 671:frucd_display.c ****     int horizFontSize = 12 + 20*size;
 672:frucd_display.c ****     int stringSize;
 673:frucd_display.c ****     if (data >= 100) {
 674:frucd_display.c ****         stringSize = 4;
 675:frucd_display.c ****     }else{
 676:frucd_display.c ****         stringSize = 3;
 1463              		.loc 1 676 0
 1464 0004 6322     		movs	r2, #99
 1465              	.LVL138:
 669:frucd_display.c ****     int xFont, yFont;
 1466              		.loc 1 669 0
 1467 0006 89B0     		sub	sp, sp, #36
 1468              		.cfi_def_cfa_offset 56
 669:frucd_display.c ****     int xFont, yFont;
 1469              		.loc 1 669 0
 1470 0008 1E00     		movs	r6, r3
 1471 000a 0EAB     		add	r3, sp, #56
 1472              	.LVL139:
 1473 000c 1F88     		ldrh	r7, [r3]
 1474 000e 0FAB     		add	r3, sp, #60
 1475              	.LVL140:
 1476 0010 0C00     		movs	r4, r1
ARM GAS  C:\Users\leoja\AppData\Local\Temp\ccYOCOnJ.s 			page 40


 1477 0012 1978     		ldrb	r1, [r3]
 1478              	.LVL141:
 671:frucd_display.c ****     int stringSize;
 1479              		.loc 1 671 0
 1480 0014 1423     		movs	r3, #20
 1481              	.LVL142:
 1482              		.loc 1 676 0
 1483 0016 8242     		cmp	r2, r0
 1484 0018 9241     		sbcs	r2, r2, r2
 671:frucd_display.c ****     int stringSize;
 1485              		.loc 1 671 0
 1486 001a 4B43     		muls	r3, r1
 1487              		.loc 1 676 0
 1488 001c 5242     		rsbs	r2, r2, #0
 1489 001e 0332     		adds	r2, r2, #3
 671:frucd_display.c ****     int stringSize;
 1490              		.loc 1 671 0
 1491 0020 0C33     		adds	r3, r3, #12
 1492              	.LVL143:
 677:frucd_display.c ****     }
 678:frucd_display.c ****     xFont = (x1 + x2)/2 - ((horizFontSize*stringSize)/2);
 1493              		.loc 1 678 0
 1494 0022 5343     		muls	r3, r2
 1495              	.LVL144:
 679:frucd_display.c ****     yFont = (y1 + y2)/2 - 5 - (size*17);    
 1496              		.loc 1 679 0
 1497 0024 1122     		movs	r2, #17
 1498              	.LVL145:
 669:frucd_display.c ****     int xFont, yFont;
 1499              		.loc 1 669 0
 1500 0026 0390     		str	r0, [sp, #12]
 678:frucd_display.c ****     yFont = (y1 + y2)/2 - 5 - (size*17);    
 1501              		.loc 1 678 0
 1502 0028 A019     		adds	r0, r4, r6
 1503              	.LVL146:
 1504 002a 4010     		asrs	r0, r0, #1
 1505 002c 5B10     		asrs	r3, r3, #1
 1506              		.loc 1 679 0
 1507 002e 5242     		rsbs	r2, r2, #0
 678:frucd_display.c ****     yFont = (y1 + y2)/2 - 5 - (size*17);    
 1508              		.loc 1 678 0
 1509 0030 C31A     		subs	r3, r0, r3
 1510              		.loc 1 679 0
 1511 0032 4A43     		muls	r2, r1
 678:frucd_display.c ****     yFont = (y1 + y2)/2 - 5 - (size*17);    
 1512              		.loc 1 678 0
 1513 0034 0493     		str	r3, [sp, #16]
 1514              	.LVL147:
 1515              		.loc 1 679 0
 1516 0036 EB19     		adds	r3, r5, r7
 1517              	.LVL148:
 1518 0038 5B10     		asrs	r3, r3, #1
 1519 003a 053B     		subs	r3, r3, #5
 1520 003c 9B18     		adds	r3, r3, r2
 1521 003e 0593     		str	r3, [sp, #20]
 1522              	.LVL149:
 680:frucd_display.c ****     if(size == 1){
ARM GAS  C:\Users\leoja\AppData\Local\Temp\ccYOCOnJ.s 			page 41


 1523              		.loc 1 680 0
 1524 0040 0129     		cmp	r1, #1
 1525 0042 02D1     		bne	.L83
 681:frucd_display.c ****         UG_FontSelect(&FONT_32X53);
 1526              		.loc 1 681 0
 1527 0044 1B48     		ldr	r0, .L88
 1528 0046 FFF7FEFF 		bl	UG_FontSelect
 1529              	.LVL150:
 1530              	.L83:
 1531 004a 20B2     		sxth	r0, r4
 1532 004c 6C46     		mov	r4, sp
 1533 004e 29B2     		sxth	r1, r5
 1534 0050 FF25     		movs	r5, #255
 1535 0052 32B2     		sxth	r2, r6
 1536 0054 3BB2     		sxth	r3, r7
 1537 0056 1426     		movs	r6, #20
 1538 0058 A75F     		ldrsh	r7, [r4, r6]
 1539 005a 1026     		movs	r6, #16
 1540 005c A65F     		ldrsh	r6, [r4, r6]
 1541 005e 2D02     		lsls	r5, r5, #8
 1542 0060 3400     		movs	r4, r6
 682:frucd_display.c ****         
 683:frucd_display.c ****     }
 684:frucd_display.c ****     if (data >= 100) {
 1543              		.loc 1 684 0
 1544 0062 039E     		ldr	r6, [sp, #12]
 1545              	.LBB4:
 685:frucd_display.c ****         // handle 3 digit cases
 686:frucd_display.c ****         UG_FillFrame(x1, y1, x2, y2, C_GREEN);
 1546              		.loc 1 686 0
 1547 0064 0095     		str	r5, [sp]
 1548              	.LBE4:
 684:frucd_display.c ****         // handle 3 digit cases
 1549              		.loc 1 684 0
 1550 0066 632E     		cmp	r6, #99
 1551 0068 0CD9     		bls	.L84
 1552              	.LBB5:
 687:frucd_display.c ****         char data_s[5];
 688:frucd_display.c ****         sprintf(data_s, "%d", data);
 1553              		.loc 1 688 0
 1554 006a 06AE     		add	r6, sp, #24
 686:frucd_display.c ****         char data_s[5];
 1555              		.loc 1 686 0
 1556 006c FFF7FEFF 		bl	UG_FillFrame
 1557              	.LVL151:
 1558              		.loc 1 688 0
 1559 0070 039A     		ldr	r2, [sp, #12]
 1560 0072 1149     		ldr	r1, .L88+4
 1561 0074 3000     		movs	r0, r6
 1562 0076 FFF7FEFF 		bl	sprintf
 1563              	.LVL152:
 689:frucd_display.c ****         data_s[3] = 'C';
 1564              		.loc 1 689 0
 1565 007a 4323     		movs	r3, #67
 1566 007c F370     		strb	r3, [r6, #3]
 690:frucd_display.c ****         data_s[4] = '\0';
 1567              		.loc 1 690 0
ARM GAS  C:\Users\leoja\AppData\Local\Temp\ccYOCOnJ.s 			page 42


 1568 007e 0023     		movs	r3, #0
 1569 0080 3371     		strb	r3, [r6, #4]
 1570 0082 0BE0     		b	.L87
 1571              	.L84:
 1572              	.LBE5:
 1573              	.LBB6:
 691:frucd_display.c ****         UG_PutColorString(xFont, yFont, data_s, C_BLACK, C_GREEN);
 692:frucd_display.c ****     } else {
 693:frucd_display.c ****         // handle 2 digit cases
 694:frucd_display.c ****         UG_FillFrame(x1, y1, x2, y2, C_GREEN);
 695:frucd_display.c ****         char data_s[4];
 696:frucd_display.c ****         sprintf(data_s, "%d", data);
 1574              		.loc 1 696 0
 1575 0084 06AE     		add	r6, sp, #24
 694:frucd_display.c ****         char data_s[4];
 1576              		.loc 1 694 0
 1577 0086 FFF7FEFF 		bl	UG_FillFrame
 1578              	.LVL153:
 1579              		.loc 1 696 0
 1580 008a 039A     		ldr	r2, [sp, #12]
 1581 008c 0A49     		ldr	r1, .L88+4
 1582 008e 3000     		movs	r0, r6
 1583 0090 FFF7FEFF 		bl	sprintf
 1584              	.LVL154:
 697:frucd_display.c ****         data_s[2] = 'C';
 1585              		.loc 1 697 0
 1586 0094 4323     		movs	r3, #67
 1587 0096 B370     		strb	r3, [r6, #2]
 698:frucd_display.c ****         data_s[3] = '\0';
 1588              		.loc 1 698 0
 1589 0098 0023     		movs	r3, #0
 1590 009a F370     		strb	r3, [r6, #3]
 1591              	.L87:
 699:frucd_display.c ****         UG_PutColorString(xFont, yFont, data_s, C_BLACK, C_GREEN);
 1592              		.loc 1 699 0
 1593 009c 3200     		movs	r2, r6
 1594 009e 3900     		movs	r1, r7
 1595 00a0 2000     		movs	r0, r4
 1596 00a2 0095     		str	r5, [sp]
 1597 00a4 FFF7FEFF 		bl	UG_PutColorString
 1598              	.LVL155:
 1599              	.LBE6:
 700:frucd_display.c ****     }
 701:frucd_display.c ****      UG_FontSelect(&FONT_12X16);
 1600              		.loc 1 701 0
 1601 00a8 0448     		ldr	r0, .L88+8
 1602 00aa FFF7FEFF 		bl	UG_FontSelect
 1603              	.LVL156:
 702:frucd_display.c **** }
 1604              		.loc 1 702 0
 1605 00ae 09B0     		add	sp, sp, #36
 1606              		@ sp needed
 1607 00b0 F0BD     		pop	{r4, r5, r6, r7, pc}
 1608              	.L89:
 1609 00b2 C046     		.align	2
 1610              	.L88:
 1611 00b4 00000000 		.word	FONT_32X53
ARM GAS  C:\Users\leoja\AppData\Local\Temp\ccYOCOnJ.s 			page 43


 1612 00b8 36000000 		.word	.LC20
 1613 00bc 00000000 		.word	FONT_12X16
 1614              		.cfi_endproc
 1615              	.LFE44:
 1616              		.size	disp_gen_temp, .-disp_gen_temp
 1617              		.section	.text.disp_motor_temp,"ax",%progbits
 1618              		.align	1
 1619              		.global	disp_motor_temp
 1620              		.code	16
 1621              		.thumb_func
 1622              		.type	disp_motor_temp, %function
 1623              	disp_motor_temp:
 1624              	.LFB43:
 663:frucd_display.c ****     disp_gen_temp(data, x1, y1, x2, y2, size);
 1625              		.loc 1 663 0
 1626              		.cfi_startproc
 1627              		@ args = 8, pretend = 0, frame = 0
 1628              		@ frame_needed = 0, uses_anonymous_args = 0
 1629              	.LVL157:
 1630 0000 37B5     		push	{r0, r1, r2, r4, r5, lr}
 1631              		.cfi_def_cfa_offset 24
 1632              		.cfi_offset 0, -24
 1633              		.cfi_offset 1, -20
 1634              		.cfi_offset 2, -16
 1635              		.cfi_offset 4, -12
 1636              		.cfi_offset 5, -8
 1637              		.cfi_offset 14, -4
 663:frucd_display.c ****     disp_gen_temp(data, x1, y1, x2, y2, size);
 1638              		.loc 1 663 0
 1639 0002 06AC     		add	r4, sp, #24
 1640              	.LVL158:
 1641 0004 07AD     		add	r5, sp, #28
 1642              	.LVL159:
 1643 0006 2D78     		ldrb	r5, [r5]
 1644              	.LVL160:
 1645 0008 2488     		ldrh	r4, [r4]
 1646              	.LVL161:
 664:frucd_display.c **** }
 1647              		.loc 1 664 0
 1648 000a 0195     		str	r5, [sp, #4]
 1649 000c 0094     		str	r4, [sp]
 1650 000e FFF7FEFF 		bl	disp_gen_temp
 1651              	.LVL162:
 665:frucd_display.c **** 
 1652              		.loc 1 665 0
 1653              		@ sp needed
 1654 0012 37BD     		pop	{r0, r1, r2, r4, r5, pc}
 1655              		.cfi_endproc
 1656              	.LFE43:
 1657              		.size	disp_motor_temp, .-disp_motor_temp
 1658              		.section	.text.disp_mc_temp,"ax",%progbits
 1659              		.align	1
 1660              		.global	disp_mc_temp
 1661              		.code	16
 1662              		.thumb_func
 1663              		.type	disp_mc_temp, %function
 1664              	disp_mc_temp:
ARM GAS  C:\Users\leoja\AppData\Local\Temp\ccYOCOnJ.s 			page 44


 1665              	.LFB47:
 1666              		.cfi_startproc
 1667              		@ args = 8, pretend = 0, frame = 0
 1668              		@ frame_needed = 0, uses_anonymous_args = 0
 1669 0000 37B5     		push	{r0, r1, r2, r4, r5, lr}
 1670              		.cfi_def_cfa_offset 24
 1671              		.cfi_offset 0, -24
 1672              		.cfi_offset 1, -20
 1673              		.cfi_offset 2, -16
 1674              		.cfi_offset 4, -12
 1675              		.cfi_offset 5, -8
 1676              		.cfi_offset 14, -4
 1677 0002 06AC     		add	r4, sp, #24
 1678 0004 07AD     		add	r5, sp, #28
 1679 0006 2D78     		ldrb	r5, [r5]
 1680 0008 2488     		ldrh	r4, [r4]
 1681 000a 0195     		str	r5, [sp, #4]
 1682 000c 0094     		str	r4, [sp]
 1683 000e FFF7FEFF 		bl	disp_gen_temp
 1684              		@ sp needed
 1685 0012 37BD     		pop	{r0, r1, r2, r4, r5, pc}
 1686              		.cfi_endproc
 1687              	.LFE47:
 1688              		.size	disp_mc_temp, .-disp_mc_temp
 1689              		.section	.text.disp_gen_voltage,"ax",%progbits
 1690              		.align	1
 1691              		.global	disp_gen_voltage
 1692              		.code	16
 1693              		.thumb_func
 1694              		.type	disp_gen_voltage, %function
 1695              	disp_gen_voltage:
 1696              	.LFB45:
 703:frucd_display.c **** 
 704:frucd_display.c **** void disp_gen_voltage(uint16_t data, uint16_t x1, uint16_t y1, uint16_t x2, uint16_t y2, uint8_t si
 1697              		.loc 1 704 0
 1698              		.cfi_startproc
 1699              		@ args = 8, pretend = 0, frame = 24
 1700              		@ frame_needed = 0, uses_anonymous_args = 0
 1701              	.LVL163:
 1702              		.loc 1 704 0
 1703 0000 F0B5     		push	{r4, r5, r6, r7, lr}
 1704              		.cfi_def_cfa_offset 20
 1705              		.cfi_offset 4, -20
 1706              		.cfi_offset 5, -16
 1707              		.cfi_offset 6, -12
 1708              		.cfi_offset 7, -8
 1709              		.cfi_offset 14, -4
 1710 0002 89B0     		sub	sp, sp, #36
 1711              		.cfi_def_cfa_offset 56
 1712              		.loc 1 704 0
 1713 0004 1D00     		movs	r5, r3
 1714 0006 0EAB     		add	r3, sp, #56
 1715              	.LVL164:
 1716 0008 1E88     		ldrh	r6, [r3]
 1717 000a 0FAB     		add	r3, sp, #60
 1718              	.LVL165:
 1719 000c 1400     		movs	r4, r2
ARM GAS  C:\Users\leoja\AppData\Local\Temp\ccYOCOnJ.s 			page 45


 1720 000e 1A78     		ldrb	r2, [r3]
 1721              	.LVL166:
 705:frucd_display.c ****     int xFont, yFont;
 706:frucd_display.c ****     int horizFontSize = 12 + 20*size;
 707:frucd_display.c ****     int stringSize;
 708:frucd_display.c ****     stringSize = 6;
 709:frucd_display.c ****    
 710:frucd_display.c ****     xFont = (x1 + x2)/2 - ((horizFontSize*stringSize)/2);
 1722              		.loc 1 710 0
 1723 0010 1423     		movs	r3, #20
 1724              	.LVL167:
 704:frucd_display.c ****     int xFont, yFont;
 1725              		.loc 1 704 0
 1726 0012 0391     		str	r1, [sp, #12]
 1727              		.loc 1 710 0
 1728 0014 0621     		movs	r1, #6
 1729              	.LVL168:
 1730 0016 5343     		muls	r3, r2
 1731 0018 0C33     		adds	r3, r3, #12
 1732              	.LVL169:
 1733 001a 4B43     		muls	r3, r1
 1734              	.LVL170:
 1735 001c 0399     		ldr	r1, [sp, #12]
 704:frucd_display.c ****     int xFont, yFont;
 1736              		.loc 1 704 0
 1737 001e 0700     		movs	r7, r0
 1738              		.loc 1 710 0
 1739 0020 4819     		adds	r0, r1, r5
 1740              	.LVL171:
 711:frucd_display.c ****     yFont = (y1 + y2)/2 - 5 - (size*17);    
 1741              		.loc 1 711 0
 1742 0022 1121     		movs	r1, #17
 710:frucd_display.c ****     yFont = (y1 + y2)/2 - 5 - (size*17);    
 1743              		.loc 1 710 0
 1744 0024 5B10     		asrs	r3, r3, #1
 1745 0026 4010     		asrs	r0, r0, #1
 1746              		.loc 1 711 0
 1747 0028 4942     		rsbs	r1, r1, #0
 710:frucd_display.c ****     yFont = (y1 + y2)/2 - 5 - (size*17);    
 1748              		.loc 1 710 0
 1749 002a C31A     		subs	r3, r0, r3
 1750              		.loc 1 711 0
 1751 002c 5143     		muls	r1, r2
 710:frucd_display.c ****     yFont = (y1 + y2)/2 - 5 - (size*17);    
 1752              		.loc 1 710 0
 1753 002e 0493     		str	r3, [sp, #16]
 1754              	.LVL172:
 1755              		.loc 1 711 0
 1756 0030 A319     		adds	r3, r4, r6
 1757              	.LVL173:
 1758 0032 5B10     		asrs	r3, r3, #1
 1759 0034 053B     		subs	r3, r3, #5
 1760 0036 5B18     		adds	r3, r3, r1
 1761 0038 0593     		str	r3, [sp, #20]
 1762              	.LVL174:
 712:frucd_display.c ****     if(size == 1){
 1763              		.loc 1 712 0
ARM GAS  C:\Users\leoja\AppData\Local\Temp\ccYOCOnJ.s 			page 46


 1764 003a 012A     		cmp	r2, #1
 1765 003c 02D1     		bne	.L93
 713:frucd_display.c ****         UG_FontSelect(&FONT_32X53);
 1766              		.loc 1 713 0
 1767 003e 1D48     		ldr	r0, .L95
 1768 0040 FFF7FEFF 		bl	UG_FontSelect
 1769              	.LVL175:
 1770              	.L93:
 714:frucd_display.c ****         
 715:frucd_display.c ****     }
 716:frucd_display.c ****     UG_FillFrame(x1, y1, x2, y2, C_GREEN);
 1771              		.loc 1 716 0
 1772 0044 6846     		mov	r0, sp
 1773 0046 21B2     		sxth	r1, r4
 1774 0048 0C24     		movs	r4, #12
 1775 004a 005F     		ldrsh	r0, [r0, r4]
 1776 004c FF24     		movs	r4, #255
 1777 004e 2402     		lsls	r4, r4, #8
 1778 0050 33B2     		sxth	r3, r6
 1779 0052 2AB2     		sxth	r2, r5
 1780 0054 0094     		str	r4, [sp]
 717:frucd_display.c ****     char data_s[7];
 718:frucd_display.c ****     sprintf(data_s, "%d", data);
 1781              		.loc 1 718 0
 1782 0056 06AC     		add	r4, sp, #24
 716:frucd_display.c ****     char data_s[7];
 1783              		.loc 1 716 0
 1784 0058 FFF7FEFF 		bl	UG_FillFrame
 1785              	.LVL176:
 1786              		.loc 1 718 0
 1787 005c 3A00     		movs	r2, r7
 1788 005e 1649     		ldr	r1, .L95+4
 1789 0060 2000     		movs	r0, r4
 1790 0062 FFF7FEFF 		bl	sprintf
 1791              	.LVL177:
 719:frucd_display.c ****     // handle 3 digit cases; 2 and 1 are practically impossible
 720:frucd_display.c ****     if (data < 1000) {
 1792              		.loc 1 720 0
 1793 0066 154B     		ldr	r3, .L95+8
 1794 0068 9F42     		cmp	r7, r3
 1795 006a 07D8     		bhi	.L94
 721:frucd_display.c ****         data_s[3] = data_s[2];
 1796              		.loc 1 721 0
 1797 006c A378     		ldrb	r3, [r4, #2]
 1798 006e E370     		strb	r3, [r4, #3]
 722:frucd_display.c ****         data_s[2] = data_s[1];
 1799              		.loc 1 722 0
 1800 0070 6378     		ldrb	r3, [r4, #1]
 1801 0072 A370     		strb	r3, [r4, #2]
 723:frucd_display.c ****         data_s[1] = data_s[0];  
 1802              		.loc 1 723 0
 1803 0074 2378     		ldrb	r3, [r4]
 1804 0076 6370     		strb	r3, [r4, #1]
 724:frucd_display.c ****         data_s[0] = ' ';
 1805              		.loc 1 724 0
 1806 0078 2023     		movs	r3, #32
 1807 007a 2370     		strb	r3, [r4]
ARM GAS  C:\Users\leoja\AppData\Local\Temp\ccYOCOnJ.s 			page 47


 1808              	.L94:
 725:frucd_display.c ****     }
 726:frucd_display.c ****     // shift over fractional part
 727:frucd_display.c ****     data_s[4] = data_s[3];
 728:frucd_display.c ****     data_s[3] = data_s[2];
 729:frucd_display.c ****     // add syntax
 730:frucd_display.c ****     data_s[2] = '.';
 731:frucd_display.c ****     data_s[5] = 'V';
 732:frucd_display.c ****     data_s[6] = '\0';
 733:frucd_display.c ****     UG_PutColorString(xFont, yFont, data_s, C_BLACK, C_GREEN);
 1809              		.loc 1 733 0
 1810 007c 6A46     		mov	r2, sp
 727:frucd_display.c ****     data_s[3] = data_s[2];
 1811              		.loc 1 727 0
 1812 007e E378     		ldrb	r3, [r4, #3]
 1813              		.loc 1 733 0
 1814 0080 1421     		movs	r1, #20
 1815 0082 515E     		ldrsh	r1, [r2, r1]
 727:frucd_display.c ****     data_s[3] = data_s[2];
 1816              		.loc 1 727 0
 1817 0084 2371     		strb	r3, [r4, #4]
 728:frucd_display.c ****     // add syntax
 1818              		.loc 1 728 0
 1819 0086 A378     		ldrb	r3, [r4, #2]
 1820              		.loc 1 733 0
 1821 0088 6A46     		mov	r2, sp
 728:frucd_display.c ****     // add syntax
 1822              		.loc 1 728 0
 1823 008a E370     		strb	r3, [r4, #3]
 730:frucd_display.c ****     data_s[5] = 'V';
 1824              		.loc 1 730 0
 1825 008c 2E23     		movs	r3, #46
 1826              		.loc 1 733 0
 1827 008e 1020     		movs	r0, #16
 1828 0090 105E     		ldrsh	r0, [r2, r0]
 730:frucd_display.c ****     data_s[5] = 'V';
 1829              		.loc 1 730 0
 1830 0092 A370     		strb	r3, [r4, #2]
 1831              		.loc 1 733 0
 1832 0094 FF22     		movs	r2, #255
 731:frucd_display.c ****     data_s[6] = '\0';
 1833              		.loc 1 731 0
 1834 0096 2833     		adds	r3, r3, #40
 1835 0098 6371     		strb	r3, [r4, #5]
 732:frucd_display.c ****     UG_PutColorString(xFont, yFont, data_s, C_BLACK, C_GREEN);
 1836              		.loc 1 732 0
 1837 009a 0023     		movs	r3, #0
 1838              		.loc 1 733 0
 1839 009c 1202     		lsls	r2, r2, #8
 732:frucd_display.c ****     UG_PutColorString(xFont, yFont, data_s, C_BLACK, C_GREEN);
 1840              		.loc 1 732 0
 1841 009e A371     		strb	r3, [r4, #6]
 1842              		.loc 1 733 0
 1843 00a0 0092     		str	r2, [sp]
 1844 00a2 2200     		movs	r2, r4
 1845 00a4 FFF7FEFF 		bl	UG_PutColorString
 1846              	.LVL178:
ARM GAS  C:\Users\leoja\AppData\Local\Temp\ccYOCOnJ.s 			page 48


 734:frucd_display.c ****     
 735:frucd_display.c ****     UG_FontSelect(&FONT_12X16);
 1847              		.loc 1 735 0
 1848 00a8 0548     		ldr	r0, .L95+12
 1849 00aa FFF7FEFF 		bl	UG_FontSelect
 1850              	.LVL179:
 736:frucd_display.c **** }
 1851              		.loc 1 736 0
 1852 00ae 09B0     		add	sp, sp, #36
 1853              		@ sp needed
 1854 00b0 F0BD     		pop	{r4, r5, r6, r7, pc}
 1855              	.L96:
 1856 00b2 C046     		.align	2
 1857              	.L95:
 1858 00b4 00000000 		.word	FONT_32X53
 1859 00b8 36000000 		.word	.LC20
 1860 00bc E7030000 		.word	999
 1861 00c0 00000000 		.word	FONT_12X16
 1862              		.cfi_endproc
 1863              	.LFE45:
 1864              		.size	disp_gen_voltage, .-disp_gen_voltage
 1865              		.comm	last_motor_temp_color,4,4
 1866              		.comm	last_mc_temp_color,4,4
 1867              		.comm	last_glv_v_color,4,4
 1868              		.comm	last_state_color,4,4
 1869              		.comm	last_max_pack_temp_color,4,4
 1870              		.comm	last_SOC_color,4,4
 1871              		.comm	gui1963,120,4
 1872              		.section	.rodata.str1.1,"aMS",%progbits,1
 1873              	.LC0:
 1874 0000 5041434B 		.ascii	"PACK SOC\000"
 1874      20534F43 
 1874      00
 1875              	.LC2:
 1876 0009 4D415820 		.ascii	"MAX PACK T\000"
 1876      5041434B 
 1876      205400
 1877              	.LC4:
 1878 0014 53544154 		.ascii	"STATE:\000"
 1878      453A00
 1879              	.LC6:
 1880 001b 474C5620 		.ascii	"GLV V:\000"
 1880      563A00
 1881              	.LC8:
 1882 0022 4D432054 		.ascii	"MC T:\000"
 1882      3A00
 1883              	.LC10:
 1884 0028 4D4F544F 		.ascii	"MOTOR T:\000"
 1884      5220543A 
 1884      00
 1885              	.LC18:
 1886 0031 31303025 		.ascii	"100%\000"
 1886      00
 1887              	.LC20:
 1888 0036 256400   		.ascii	"%d\000"
 1889              	.LC25:
 1890 0039 25642043 		.ascii	"%d C\000"
ARM GAS  C:\Users\leoja\AppData\Local\Temp\ccYOCOnJ.s 			page 49


 1890      00
 1891              	.LC30:
 1892 003e 20535441 		.ascii	" STARTUP  \000"
 1892      52545550 
 1892      202000
 1893              	.LC32:
 1894 0049 44525620 		.ascii	"DRV FRM LV\000"
 1894      46524D20 
 1894      4C5600
 1895              	.LC34:
 1896 0054 50524520 		.ascii	"PRE TM OUT\000"
 1896      544D204F 
 1896      555400
 1897              	.LC36:
 1898 005f 4252204E 		.ascii	"BR NOT PRS\000"
 1898      4F542050 
 1898      525300
 1899              	.LC38:
 1900 006a 4856204F 		.ascii	"HV OFF DRV\000"
 1900      46462044 
 1900      525600
 1901              	.LC40:
 1902 0075 534E5352 		.ascii	"SNSR DSCRP\000"
 1902      20445343 
 1902      525000
 1903              	.LC42:
 1904 0080 42535044 		.ascii	"BSPD TRIPD\000"
 1904      20545249 
 1904      504400
 1905              	.LC44:
 1906 008b 53485444 		.ascii	"SHTDWN OPN\000"
 1906      574E204F 
 1906      504E00
 1907              	.LC46:
 1908 0096 20202020 		.ascii	"    LV    \000"
 1908      4C562020 
 1908      202000
 1909              	.LC48:
 1910 00a1 50524543 		.ascii	"PRECHARGE \000"
 1910      48415247 
 1910      452000
 1911              	.LC50:
 1912 00ac 48562045 		.ascii	"HV ENABLED\000"
 1912      4E41424C 
 1912      454400
 1913              	.LC52:
 1914 00b7 20204452 		.ascii	"  DRIVE   \000"
 1914      49564520 
 1914      202000
 1915              		.text
 1916              	.Letext0:
 1917              		.file 2 "c:\\program files (x86)\\cypress\\psoc creator\\4.4\\psoc creator\\import\\gnu\\arm\\5.4.
 1918              		.file 3 "c:\\program files (x86)\\cypress\\psoc creator\\4.4\\psoc creator\\import\\gnu\\arm\\5.4.
 1919              		.file 4 "Generated_Source\\PSoC4/cytypes.h"
 1920              		.file 5 "data.h"
 1921              		.file 6 "ugui_config.h"
 1922              		.file 7 "ugui.h"
ARM GAS  C:\Users\leoja\AppData\Local\Temp\ccYOCOnJ.s 			page 50


 1923              		.file 8 "ugui_SSD1963.h"
 1924              		.file 9 "frucd_display.h"
 1925              		.file 10 "Generated_Source\\PSoC4/CyLib.h"
 1926              		.file 11 "c:\\program files (x86)\\cypress\\psoc creator\\4.4\\psoc creator\\import\\gnu\\arm\\5.4
 1927              		.section	.debug_info,"",%progbits
 1928              	.Ldebug_info0:
 1929 0000 59150000 		.4byte	0x1559
 1930 0004 0400     		.2byte	0x4
 1931 0006 00000000 		.4byte	.Ldebug_abbrev0
 1932 000a 04       		.byte	0x4
 1933 000b 01       		.uleb128 0x1
 1934 000c 0B050000 		.4byte	.LASF134
 1935 0010 0C       		.byte	0xc
 1936 0011 01060000 		.4byte	.LASF135
 1937 0015 C7000000 		.4byte	.LASF136
 1938 0019 18000000 		.4byte	.Ldebug_ranges0+0x18
 1939 001d 00000000 		.4byte	0
 1940 0021 00000000 		.4byte	.Ldebug_line0
 1941 0025 02       		.uleb128 0x2
 1942 0026 98030000 		.4byte	.LASF0
 1943 002a 02       		.byte	0x2
 1944 002b 1B       		.byte	0x1b
 1945 002c 30000000 		.4byte	0x30
 1946 0030 03       		.uleb128 0x3
 1947 0031 01       		.byte	0x1
 1948 0032 06       		.byte	0x6
 1949 0033 E2050000 		.4byte	.LASF2
 1950 0037 02       		.uleb128 0x2
 1951 0038 4E040000 		.4byte	.LASF1
 1952 003c 02       		.byte	0x2
 1953 003d 1D       		.byte	0x1d
 1954 003e 42000000 		.4byte	0x42
 1955 0042 03       		.uleb128 0x3
 1956 0043 01       		.byte	0x1
 1957 0044 08       		.byte	0x8
 1958 0045 CE040000 		.4byte	.LASF3
 1959 0049 02       		.uleb128 0x2
 1960 004a 3E030000 		.4byte	.LASF4
 1961 004e 02       		.byte	0x2
 1962 004f 29       		.byte	0x29
 1963 0050 54000000 		.4byte	0x54
 1964 0054 03       		.uleb128 0x3
 1965 0055 02       		.byte	0x2
 1966 0056 05       		.byte	0x5
 1967 0057 FF030000 		.4byte	.LASF5
 1968 005b 02       		.uleb128 0x2
 1969 005c BF010000 		.4byte	.LASF6
 1970 0060 02       		.byte	0x2
 1971 0061 2B       		.byte	0x2b
 1972 0062 66000000 		.4byte	0x66
 1973 0066 03       		.uleb128 0x3
 1974 0067 02       		.byte	0x2
 1975 0068 07       		.byte	0x7
 1976 0069 EE050000 		.4byte	.LASF7
 1977 006d 03       		.uleb128 0x3
 1978 006e 04       		.byte	0x4
 1979 006f 05       		.byte	0x5
ARM GAS  C:\Users\leoja\AppData\Local\Temp\ccYOCOnJ.s 			page 51


 1980 0070 1A040000 		.4byte	.LASF8
 1981 0074 02       		.uleb128 0x2
 1982 0075 DC040000 		.4byte	.LASF9
 1983 0079 02       		.byte	0x2
 1984 007a 41       		.byte	0x41
 1985 007b 7F000000 		.4byte	0x7f
 1986 007f 03       		.uleb128 0x3
 1987 0080 04       		.byte	0x4
 1988 0081 07       		.byte	0x7
 1989 0082 6C040000 		.4byte	.LASF10
 1990 0086 03       		.uleb128 0x3
 1991 0087 08       		.byte	0x8
 1992 0088 05       		.byte	0x5
 1993 0089 17030000 		.4byte	.LASF11
 1994 008d 03       		.uleb128 0x3
 1995 008e 08       		.byte	0x8
 1996 008f 07       		.byte	0x7
 1997 0090 98010000 		.4byte	.LASF12
 1998 0094 04       		.uleb128 0x4
 1999 0095 04       		.byte	0x4
 2000 0096 05       		.byte	0x5
 2001 0097 696E7400 		.ascii	"int\000"
 2002 009b 03       		.uleb128 0x3
 2003 009c 04       		.byte	0x4
 2004 009d 07       		.byte	0x7
 2005 009e 48000000 		.4byte	.LASF13
 2006 00a2 02       		.uleb128 0x2
 2007 00a3 48010000 		.4byte	.LASF14
 2008 00a7 03       		.byte	0x3
 2009 00a8 14       		.byte	0x14
 2010 00a9 25000000 		.4byte	0x25
 2011 00ad 02       		.uleb128 0x2
 2012 00ae F6020000 		.4byte	.LASF15
 2013 00b2 03       		.byte	0x3
 2014 00b3 18       		.byte	0x18
 2015 00b4 37000000 		.4byte	0x37
 2016 00b8 02       		.uleb128 0x2
 2017 00b9 85010000 		.4byte	.LASF16
 2018 00bd 03       		.byte	0x3
 2019 00be 20       		.byte	0x20
 2020 00bf 49000000 		.4byte	0x49
 2021 00c3 02       		.uleb128 0x2
 2022 00c4 C9030000 		.4byte	.LASF17
 2023 00c8 03       		.byte	0x3
 2024 00c9 24       		.byte	0x24
 2025 00ca 5B000000 		.4byte	0x5b
 2026 00ce 02       		.uleb128 0x2
 2027 00cf 3F010000 		.4byte	.LASF18
 2028 00d3 03       		.byte	0x3
 2029 00d4 30       		.byte	0x30
 2030 00d5 74000000 		.4byte	0x74
 2031 00d9 05       		.uleb128 0x5
 2032 00da 11060000 		.4byte	.LASF19
 2033 00de 04       		.byte	0x4
 2034 00df FB01     		.2byte	0x1fb
 2035 00e1 42000000 		.4byte	0x42
 2036 00e5 03       		.uleb128 0x3
ARM GAS  C:\Users\leoja\AppData\Local\Temp\ccYOCOnJ.s 			page 52


 2037 00e6 04       		.byte	0x4
 2038 00e7 04       		.byte	0x4
 2039 00e8 5C010000 		.4byte	.LASF20
 2040 00ec 03       		.uleb128 0x3
 2041 00ed 08       		.byte	0x8
 2042 00ee 04       		.byte	0x4
 2043 00ef 17060000 		.4byte	.LASF21
 2044 00f3 03       		.uleb128 0x3
 2045 00f4 01       		.byte	0x1
 2046 00f5 08       		.byte	0x8
 2047 00f6 B0020000 		.4byte	.LASF22
 2048 00fa 03       		.uleb128 0x3
 2049 00fb 08       		.byte	0x8
 2050 00fc 04       		.byte	0x4
 2051 00fd B5030000 		.4byte	.LASF23
 2052 0101 03       		.uleb128 0x3
 2053 0102 04       		.byte	0x4
 2054 0103 07       		.byte	0x7
 2055 0104 63040000 		.4byte	.LASF24
 2056 0108 06       		.uleb128 0x6
 2057 0109 04       		.byte	0x4
 2058 010a 07       		.uleb128 0x7
 2059 010b 04       		.byte	0x4
 2060 010c F3000000 		.4byte	0xf3
 2061 0110 07       		.uleb128 0x7
 2062 0111 04       		.byte	0x4
 2063 0112 42000000 		.4byte	0x42
 2064 0116 08       		.uleb128 0x8
 2065 0117 01       		.byte	0x1
 2066 0118 42000000 		.4byte	0x42
 2067 011c 05       		.byte	0x5
 2068 011d 09       		.byte	0x9
 2069 011e 40010000 		.4byte	0x140
 2070 0122 09       		.uleb128 0x9
 2071 0123 4C5600   		.ascii	"LV\000"
 2072 0126 00       		.byte	0
 2073 0127 0A       		.uleb128 0xa
 2074 0128 86030000 		.4byte	.LASF25
 2075 012c 01       		.byte	0x1
 2076 012d 0A       		.uleb128 0xa
 2077 012e 95020000 		.4byte	.LASF26
 2078 0132 02       		.byte	0x2
 2079 0133 0A       		.uleb128 0xa
 2080 0134 7F010000 		.4byte	.LASF27
 2081 0138 03       		.byte	0x3
 2082 0139 0A       		.uleb128 0xa
 2083 013a 05050000 		.4byte	.LASF28
 2084 013e 80       		.byte	0x80
 2085 013f 00       		.byte	0
 2086 0140 08       		.uleb128 0x8
 2087 0141 01       		.byte	0x1
 2088 0142 42000000 		.4byte	0x42
 2089 0146 05       		.byte	0x5
 2090 0147 11       		.byte	0x11
 2091 0148 7D010000 		.4byte	0x17d
 2092 014c 0A       		.uleb128 0xa
 2093 014d 62000000 		.4byte	.LASF29
ARM GAS  C:\Users\leoja\AppData\Local\Temp\ccYOCOnJ.s 			page 53


 2094 0151 00       		.byte	0
 2095 0152 0A       		.uleb128 0xa
 2096 0153 2C060000 		.4byte	.LASF30
 2097 0157 01       		.byte	0x1
 2098 0158 0A       		.uleb128 0xa
 2099 0159 B5020000 		.4byte	.LASF31
 2100 015d 02       		.byte	0x2
 2101 015e 0A       		.uleb128 0xa
 2102 015f 0F020000 		.4byte	.LASF32
 2103 0163 03       		.byte	0x3
 2104 0164 0A       		.uleb128 0xa
 2105 0165 49020000 		.4byte	.LASF33
 2106 0169 04       		.byte	0x4
 2107 016a 0A       		.uleb128 0xa
 2108 016b 7E000000 		.4byte	.LASF34
 2109 016f 05       		.byte	0x5
 2110 0170 0A       		.uleb128 0xa
 2111 0171 A8000000 		.4byte	.LASF35
 2112 0175 06       		.byte	0x6
 2113 0176 0A       		.uleb128 0xa
 2114 0177 63020000 		.4byte	.LASF36
 2115 017b 07       		.byte	0x7
 2116 017c 00       		.byte	0
 2117 017d 02       		.uleb128 0x2
 2118 017e 92030000 		.4byte	.LASF37
 2119 0182 06       		.byte	0x6
 2120 0183 26       		.byte	0x26
 2121 0184 AD000000 		.4byte	0xad
 2122 0188 02       		.uleb128 0x2
 2123 0189 0B030000 		.4byte	.LASF38
 2124 018d 06       		.byte	0x6
 2125 018e 27       		.byte	0x27
 2126 018f A2000000 		.4byte	0xa2
 2127 0193 02       		.uleb128 0x2
 2128 0194 41000000 		.4byte	.LASF39
 2129 0198 06       		.byte	0x6
 2130 0199 28       		.byte	0x28
 2131 019a C3000000 		.4byte	0xc3
 2132 019e 02       		.uleb128 0x2
 2133 019f DF010000 		.4byte	.LASF40
 2134 01a3 06       		.byte	0x6
 2135 01a4 29       		.byte	0x29
 2136 01a5 B8000000 		.4byte	0xb8
 2137 01a9 02       		.uleb128 0x2
 2138 01aa 4F010000 		.4byte	.LASF41
 2139 01ae 06       		.byte	0x6
 2140 01af 2A       		.byte	0x2a
 2141 01b0 CE000000 		.4byte	0xce
 2142 01b4 08       		.uleb128 0x8
 2143 01b5 01       		.byte	0x1
 2144 01b6 42000000 		.4byte	0x42
 2145 01ba 07       		.byte	0x7
 2146 01bb 1F       		.byte	0x1f
 2147 01bc CD010000 		.4byte	0x1cd
 2148 01c0 0A       		.uleb128 0xa
 2149 01c1 5D060000 		.4byte	.LASF42
 2150 01c5 00       		.byte	0
ARM GAS  C:\Users\leoja\AppData\Local\Temp\ccYOCOnJ.s 			page 54


 2151 01c6 0A       		.uleb128 0xa
 2152 01c7 0F000000 		.4byte	.LASF43
 2153 01cb 01       		.byte	0x1
 2154 01cc 00       		.byte	0
 2155 01cd 02       		.uleb128 0x2
 2156 01ce 9E000000 		.4byte	.LASF44
 2157 01d2 07       		.byte	0x7
 2158 01d3 22       		.byte	0x22
 2159 01d4 B4010000 		.4byte	0x1b4
 2160 01d8 0B       		.uleb128 0xb
 2161 01d9 14       		.byte	0x14
 2162 01da 07       		.byte	0x7
 2163 01db 24       		.byte	0x24
 2164 01dc 33020000 		.4byte	0x233
 2165 01e0 0C       		.uleb128 0xc
 2166 01e1 7000     		.ascii	"p\000"
 2167 01e3 07       		.byte	0x7
 2168 01e4 26       		.byte	0x26
 2169 01e5 10010000 		.4byte	0x110
 2170 01e9 00       		.byte	0
 2171 01ea 0D       		.uleb128 0xd
 2172 01eb D4020000 		.4byte	.LASF45
 2173 01ef 07       		.byte	0x7
 2174 01f0 27       		.byte	0x27
 2175 01f1 CD010000 		.4byte	0x1cd
 2176 01f5 04       		.byte	0x4
 2177 01f6 0D       		.uleb128 0xd
 2178 01f7 3E020000 		.4byte	.LASF46
 2179 01fb 07       		.byte	0x7
 2180 01fc 28       		.byte	0x28
 2181 01fd 9E010000 		.4byte	0x19e
 2182 0201 06       		.byte	0x6
 2183 0202 0D       		.uleb128 0xd
 2184 0203 F3030000 		.4byte	.LASF47
 2185 0207 07       		.byte	0x7
 2186 0208 29       		.byte	0x29
 2187 0209 9E010000 		.4byte	0x19e
 2188 020d 08       		.byte	0x8
 2189 020e 0D       		.uleb128 0xd
 2190 020f 7B030000 		.4byte	.LASF48
 2191 0213 07       		.byte	0x7
 2192 0214 2A       		.byte	0x2a
 2193 0215 93010000 		.4byte	0x193
 2194 0219 0A       		.byte	0xa
 2195 021a 0D       		.uleb128 0xd
 2196 021b 3D040000 		.4byte	.LASF49
 2197 021f 07       		.byte	0x7
 2198 0220 2B       		.byte	0x2b
 2199 0221 93010000 		.4byte	0x193
 2200 0225 0C       		.byte	0xc
 2201 0226 0D       		.uleb128 0xd
 2202 0227 A1030000 		.4byte	.LASF50
 2203 022b 07       		.byte	0x7
 2204 022c 2C       		.byte	0x2c
 2205 022d 33020000 		.4byte	0x233
 2206 0231 10       		.byte	0x10
 2207 0232 00       		.byte	0
ARM GAS  C:\Users\leoja\AppData\Local\Temp\ccYOCOnJ.s 			page 55


 2208 0233 07       		.uleb128 0x7
 2209 0234 04       		.byte	0x4
 2210 0235 7D010000 		.4byte	0x17d
 2211 0239 02       		.uleb128 0x2
 2212 023a 46040000 		.4byte	.LASF51
 2213 023e 07       		.byte	0x7
 2214 023f 2D       		.byte	0x2d
 2215 0240 D8010000 		.4byte	0x1d8
 2216 0244 02       		.uleb128 0x2
 2217 0245 48030000 		.4byte	.LASF52
 2218 0249 07       		.byte	0x7
 2219 024a 66       		.byte	0x66
 2220 024b 4F020000 		.4byte	0x24f
 2221 024f 0E       		.uleb128 0xe
 2222 0250 42060000 		.4byte	.LASF62
 2223 0254 20       		.byte	0x20
 2224 0255 07       		.byte	0x7
 2225 0256 F7       		.byte	0xf7
 2226 0257 C9020000 		.4byte	0x2c9
 2227 025b 0D       		.uleb128 0xd
 2228 025c B2050000 		.4byte	.LASF53
 2229 0260 07       		.byte	0x7
 2230 0261 F9       		.byte	0xf9
 2231 0262 7D010000 		.4byte	0x17d
 2232 0266 00       		.byte	0
 2233 0267 0D       		.uleb128 0xd
 2234 0268 2C000000 		.4byte	.LASF54
 2235 026c 07       		.byte	0x7
 2236 026d FA       		.byte	0xfa
 2237 026e 7D010000 		.4byte	0x17d
 2238 0272 01       		.byte	0x1
 2239 0273 0D       		.uleb128 0xd
 2240 0274 91000000 		.4byte	.LASF55
 2241 0278 07       		.byte	0x7
 2242 0279 FB       		.byte	0xfb
 2243 027a 6E040000 		.4byte	0x46e
 2244 027e 04       		.byte	0x4
 2245 027f 0D       		.uleb128 0xd
 2246 0280 51060000 		.4byte	.LASF56
 2247 0284 07       		.byte	0x7
 2248 0285 FC       		.byte	0xfc
 2249 0286 B7030000 		.4byte	0x3b7
 2250 028a 08       		.byte	0x8
 2251 028b 0D       		.uleb128 0xd
 2252 028c D3050000 		.4byte	.LASF57
 2253 0290 07       		.byte	0x7
 2254 0291 FD       		.byte	0xfd
 2255 0292 B7030000 		.4byte	0x3b7
 2256 0296 10       		.byte	0x10
 2257 0297 0D       		.uleb128 0xd
 2258 0298 C9040000 		.4byte	.LASF58
 2259 029c 07       		.byte	0x7
 2260 029d FE       		.byte	0xfe
 2261 029e 7D010000 		.4byte	0x17d
 2262 02a2 18       		.byte	0x18
 2263 02a3 0C       		.uleb128 0xc
 2264 02a4 696400   		.ascii	"id\000"
ARM GAS  C:\Users\leoja\AppData\Local\Temp\ccYOCOnJ.s 			page 56


 2265 02a7 07       		.byte	0x7
 2266 02a8 FF       		.byte	0xff
 2267 02a9 7D010000 		.4byte	0x17d
 2268 02ad 19       		.byte	0x19
 2269 02ae 0F       		.uleb128 0xf
 2270 02af 62010000 		.4byte	.LASF59
 2271 02b3 07       		.byte	0x7
 2272 02b4 0001     		.2byte	0x100
 2273 02b6 7D010000 		.4byte	0x17d
 2274 02ba 1A       		.byte	0x1a
 2275 02bb 0F       		.uleb128 0xf
 2276 02bc F1020000 		.4byte	.LASF60
 2277 02c0 07       		.byte	0x7
 2278 02c1 0101     		.2byte	0x101
 2279 02c3 08010000 		.4byte	0x108
 2280 02c7 1C       		.byte	0x1c
 2281 02c8 00       		.byte	0
 2282 02c9 02       		.uleb128 0x2
 2283 02ca 23040000 		.4byte	.LASF61
 2284 02ce 07       		.byte	0x7
 2285 02cf 67       		.byte	0x67
 2286 02d0 D4020000 		.4byte	0x2d4
 2287 02d4 10       		.uleb128 0x10
 2288 02d5 75000000 		.4byte	.LASF63
 2289 02d9 44       		.byte	0x44
 2290 02da 07       		.byte	0x7
 2291 02db 4101     		.2byte	0x141
 2292 02dd 77030000 		.4byte	0x377
 2293 02e1 0F       		.uleb128 0xf
 2294 02e2 D8010000 		.4byte	.LASF64
 2295 02e6 07       		.byte	0x7
 2296 02e7 4301     		.2byte	0x143
 2297 02e9 7D010000 		.4byte	0x17d
 2298 02ed 00       		.byte	0
 2299 02ee 0F       		.uleb128 0xf
 2300 02ef 26010000 		.4byte	.LASF65
 2301 02f3 07       		.byte	0x7
 2302 02f4 4401     		.2byte	0x144
 2303 02f6 68040000 		.4byte	0x468
 2304 02fa 04       		.byte	0x4
 2305 02fb 0F       		.uleb128 0xf
 2306 02fc B2050000 		.4byte	.LASF53
 2307 0300 07       		.byte	0x7
 2308 0301 4501     		.2byte	0x145
 2309 0303 7D010000 		.4byte	0x17d
 2310 0307 08       		.byte	0x8
 2311 0308 11       		.uleb128 0x11
 2312 0309 666300   		.ascii	"fc\000"
 2313 030c 07       		.byte	0x7
 2314 030d 4601     		.2byte	0x146
 2315 030f 77030000 		.4byte	0x377
 2316 0313 0C       		.byte	0xc
 2317 0314 11       		.uleb128 0x11
 2318 0315 626300   		.ascii	"bc\000"
 2319 0318 07       		.byte	0x7
 2320 0319 4701     		.2byte	0x147
 2321 031b 77030000 		.4byte	0x377
ARM GAS  C:\Users\leoja\AppData\Local\Temp\ccYOCOnJ.s 			page 57


 2322 031f 10       		.byte	0x10
 2323 0320 11       		.uleb128 0x11
 2324 0321 787300   		.ascii	"xs\000"
 2325 0324 07       		.byte	0x7
 2326 0325 4801     		.2byte	0x148
 2327 0327 9E010000 		.4byte	0x19e
 2328 032b 14       		.byte	0x14
 2329 032c 11       		.uleb128 0x11
 2330 032d 797300   		.ascii	"ys\000"
 2331 0330 07       		.byte	0x7
 2332 0331 4901     		.2byte	0x149
 2333 0333 9E010000 		.4byte	0x19e
 2334 0337 16       		.byte	0x16
 2335 0338 11       		.uleb128 0x11
 2336 0339 786500   		.ascii	"xe\000"
 2337 033c 07       		.byte	0x7
 2338 033d 4A01     		.2byte	0x14a
 2339 033f 9E010000 		.4byte	0x19e
 2340 0343 18       		.byte	0x18
 2341 0344 11       		.uleb128 0x11
 2342 0345 796500   		.ascii	"ye\000"
 2343 0348 07       		.byte	0x7
 2344 0349 4B01     		.2byte	0x14b
 2345 034b 9E010000 		.4byte	0x19e
 2346 034f 1A       		.byte	0x1a
 2347 0350 0F       		.uleb128 0xf
 2348 0351 AC050000 		.4byte	.LASF66
 2349 0355 07       		.byte	0x7
 2350 0356 4C01     		.2byte	0x14c
 2351 0358 7D010000 		.4byte	0x17d
 2352 035c 1C       		.byte	0x1c
 2353 035d 0F       		.uleb128 0xf
 2354 035e 39010000 		.4byte	.LASF67
 2355 0362 07       		.byte	0x7
 2356 0363 4D01     		.2byte	0x14d
 2357 0365 FE040000 		.4byte	0x4fe
 2358 0369 20       		.byte	0x20
 2359 036a 11       		.uleb128 0x11
 2360 036b 636200   		.ascii	"cb\000"
 2361 036e 07       		.byte	0x7
 2362 036f 4E01     		.2byte	0x14e
 2363 0371 1B050000 		.4byte	0x51b
 2364 0375 40       		.byte	0x40
 2365 0376 00       		.byte	0
 2366 0377 02       		.uleb128 0x2
 2367 0378 38000000 		.4byte	.LASF68
 2368 037c 07       		.byte	0x7
 2369 037d 6A       		.byte	0x6a
 2370 037e A9010000 		.4byte	0x1a9
 2371 0382 0B       		.uleb128 0xb
 2372 0383 08       		.byte	0x8
 2373 0384 07       		.byte	0x7
 2374 0385 A7       		.byte	0xa7
 2375 0386 B7030000 		.4byte	0x3b7
 2376 038a 0C       		.uleb128 0xc
 2377 038b 787300   		.ascii	"xs\000"
 2378 038e 07       		.byte	0x7
ARM GAS  C:\Users\leoja\AppData\Local\Temp\ccYOCOnJ.s 			page 58


 2379 038f A9       		.byte	0xa9
 2380 0390 9E010000 		.4byte	0x19e
 2381 0394 00       		.byte	0
 2382 0395 0C       		.uleb128 0xc
 2383 0396 797300   		.ascii	"ys\000"
 2384 0399 07       		.byte	0x7
 2385 039a AA       		.byte	0xaa
 2386 039b 9E010000 		.4byte	0x19e
 2387 039f 02       		.byte	0x2
 2388 03a0 0C       		.uleb128 0xc
 2389 03a1 786500   		.ascii	"xe\000"
 2390 03a4 07       		.byte	0x7
 2391 03a5 AB       		.byte	0xab
 2392 03a6 9E010000 		.4byte	0x19e
 2393 03aa 04       		.byte	0x4
 2394 03ab 0C       		.uleb128 0xc
 2395 03ac 796500   		.ascii	"ye\000"
 2396 03af 07       		.byte	0x7
 2397 03b0 AC       		.byte	0xac
 2398 03b1 9E010000 		.4byte	0x19e
 2399 03b5 06       		.byte	0x6
 2400 03b6 00       		.byte	0
 2401 03b7 02       		.uleb128 0x2
 2402 03b8 DE020000 		.4byte	.LASF69
 2403 03bc 07       		.byte	0x7
 2404 03bd AD       		.byte	0xad
 2405 03be 82030000 		.4byte	0x382
 2406 03c2 07       		.uleb128 0x7
 2407 03c3 04       		.byte	0x4
 2408 03c4 C8030000 		.4byte	0x3c8
 2409 03c8 12       		.uleb128 0x12
 2410 03c9 39020000 		.4byte	0x239
 2411 03cd 0B       		.uleb128 0xb
 2412 03ce 08       		.byte	0x8
 2413 03cf 07       		.byte	0x7
 2414 03d0 D6       		.byte	0xd6
 2415 03d1 11040000 		.4byte	0x411
 2416 03d5 0D       		.uleb128 0xd
 2417 03d6 C9040000 		.4byte	.LASF58
 2418 03da 07       		.byte	0x7
 2419 03db D8       		.byte	0xd8
 2420 03dc 7D010000 		.4byte	0x17d
 2421 03e0 00       		.byte	0
 2422 03e1 0C       		.uleb128 0xc
 2423 03e2 696400   		.ascii	"id\000"
 2424 03e5 07       		.byte	0x7
 2425 03e6 D9       		.byte	0xd9
 2426 03e7 7D010000 		.4byte	0x17d
 2427 03eb 01       		.byte	0x1
 2428 03ec 0D       		.uleb128 0xd
 2429 03ed 57030000 		.4byte	.LASF70
 2430 03f1 07       		.byte	0x7
 2431 03f2 DA       		.byte	0xda
 2432 03f3 7D010000 		.4byte	0x17d
 2433 03f7 02       		.byte	0x2
 2434 03f8 0D       		.uleb128 0xd
 2435 03f9 62010000 		.4byte	.LASF59
ARM GAS  C:\Users\leoja\AppData\Local\Temp\ccYOCOnJ.s 			page 59


 2436 03fd 07       		.byte	0x7
 2437 03fe DB       		.byte	0xdb
 2438 03ff 7D010000 		.4byte	0x17d
 2439 0403 03       		.byte	0x3
 2440 0404 0C       		.uleb128 0xc
 2441 0405 73726300 		.ascii	"src\000"
 2442 0409 07       		.byte	0x7
 2443 040a DC       		.byte	0xdc
 2444 040b 08010000 		.4byte	0x108
 2445 040f 04       		.byte	0x4
 2446 0410 00       		.byte	0
 2447 0411 02       		.uleb128 0x2
 2448 0412 E6020000 		.4byte	.LASF71
 2449 0416 07       		.byte	0x7
 2450 0417 DD       		.byte	0xdd
 2451 0418 CD030000 		.4byte	0x3cd
 2452 041c 0B       		.uleb128 0xb
 2453 041d 06       		.byte	0x6
 2454 041e 07       		.byte	0x7
 2455 041f E8       		.byte	0xe8
 2456 0420 47040000 		.4byte	0x447
 2457 0424 0D       		.uleb128 0xd
 2458 0425 B2050000 		.4byte	.LASF53
 2459 0429 07       		.byte	0x7
 2460 042a EA       		.byte	0xea
 2461 042b 7D010000 		.4byte	0x17d
 2462 042f 00       		.byte	0
 2463 0430 0C       		.uleb128 0xc
 2464 0431 787000   		.ascii	"xp\000"
 2465 0434 07       		.byte	0x7
 2466 0435 EB       		.byte	0xeb
 2467 0436 9E010000 		.4byte	0x19e
 2468 043a 02       		.byte	0x2
 2469 043b 0C       		.uleb128 0xc
 2470 043c 797000   		.ascii	"yp\000"
 2471 043f 07       		.byte	0x7
 2472 0440 EC       		.byte	0xec
 2473 0441 9E010000 		.4byte	0x19e
 2474 0445 04       		.byte	0x4
 2475 0446 00       		.byte	0
 2476 0447 02       		.uleb128 0x2
 2477 0448 D9050000 		.4byte	.LASF72
 2478 044c 07       		.byte	0x7
 2479 044d ED       		.byte	0xed
 2480 044e 1C040000 		.4byte	0x41c
 2481 0452 13       		.uleb128 0x13
 2482 0453 62040000 		.4byte	0x462
 2483 0457 14       		.uleb128 0x14
 2484 0458 62040000 		.4byte	0x462
 2485 045c 14       		.uleb128 0x14
 2486 045d 68040000 		.4byte	0x468
 2487 0461 00       		.byte	0
 2488 0462 07       		.uleb128 0x7
 2489 0463 04       		.byte	0x4
 2490 0464 C9020000 		.4byte	0x2c9
 2491 0468 07       		.uleb128 0x7
 2492 0469 04       		.byte	0x4
ARM GAS  C:\Users\leoja\AppData\Local\Temp\ccYOCOnJ.s 			page 60


 2493 046a 44020000 		.4byte	0x244
 2494 046e 07       		.uleb128 0x7
 2495 046f 04       		.byte	0x4
 2496 0470 52040000 		.4byte	0x452
 2497 0474 15       		.uleb128 0x15
 2498 0475 20       		.byte	0x20
 2499 0476 07       		.byte	0x7
 2500 0477 3201     		.2byte	0x132
 2501 0479 FE040000 		.4byte	0x4fe
 2502 047d 11       		.uleb128 0x11
 2503 047e 73747200 		.ascii	"str\000"
 2504 0482 07       		.byte	0x7
 2505 0483 3401     		.2byte	0x134
 2506 0485 0A010000 		.4byte	0x10a
 2507 0489 00       		.byte	0
 2508 048a 0F       		.uleb128 0xf
 2509 048b 5E040000 		.4byte	.LASF73
 2510 048f 07       		.byte	0x7
 2511 0490 3501     		.2byte	0x135
 2512 0492 C2030000 		.4byte	0x3c2
 2513 0496 04       		.byte	0x4
 2514 0497 0F       		.uleb128 0xf
 2515 0498 E7040000 		.4byte	.LASF74
 2516 049c 07       		.byte	0x7
 2517 049d 3601     		.2byte	0x136
 2518 049f 88010000 		.4byte	0x188
 2519 04a3 08       		.byte	0x8
 2520 04a4 0F       		.uleb128 0xf
 2521 04a5 A8020000 		.4byte	.LASF75
 2522 04a9 07       		.byte	0x7
 2523 04aa 3701     		.2byte	0x137
 2524 04ac 88010000 		.4byte	0x188
 2525 04b0 09       		.byte	0x9
 2526 04b1 0F       		.uleb128 0xf
 2527 04b2 4B060000 		.4byte	.LASF76
 2528 04b6 07       		.byte	0x7
 2529 04b7 3801     		.2byte	0x138
 2530 04b9 7D010000 		.4byte	0x17d
 2531 04bd 0A       		.byte	0xa
 2532 04be 11       		.uleb128 0x11
 2533 04bf 666300   		.ascii	"fc\000"
 2534 04c2 07       		.byte	0x7
 2535 04c3 3901     		.2byte	0x139
 2536 04c5 77030000 		.4byte	0x377
 2537 04c9 0C       		.byte	0xc
 2538 04ca 11       		.uleb128 0x11
 2539 04cb 626300   		.ascii	"bc\000"
 2540 04ce 07       		.byte	0x7
 2541 04cf 3A01     		.2byte	0x13a
 2542 04d1 77030000 		.4byte	0x377
 2543 04d5 10       		.byte	0x10
 2544 04d6 11       		.uleb128 0x11
 2545 04d7 69666300 		.ascii	"ifc\000"
 2546 04db 07       		.byte	0x7
 2547 04dc 3B01     		.2byte	0x13b
 2548 04de 77030000 		.4byte	0x377
 2549 04e2 14       		.byte	0x14
ARM GAS  C:\Users\leoja\AppData\Local\Temp\ccYOCOnJ.s 			page 61


 2550 04e3 11       		.uleb128 0x11
 2551 04e4 69626300 		.ascii	"ibc\000"
 2552 04e8 07       		.byte	0x7
 2553 04e9 3C01     		.2byte	0x13c
 2554 04eb 77030000 		.4byte	0x377
 2555 04ef 18       		.byte	0x18
 2556 04f0 0F       		.uleb128 0xf
 2557 04f1 74030000 		.4byte	.LASF77
 2558 04f5 07       		.byte	0x7
 2559 04f6 3D01     		.2byte	0x13d
 2560 04f8 7D010000 		.4byte	0x17d
 2561 04fc 1C       		.byte	0x1c
 2562 04fd 00       		.byte	0
 2563 04fe 05       		.uleb128 0x5
 2564 04ff DA030000 		.4byte	.LASF78
 2565 0503 07       		.byte	0x7
 2566 0504 3E01     		.2byte	0x13e
 2567 0506 74040000 		.4byte	0x474
 2568 050a 13       		.uleb128 0x13
 2569 050b 15050000 		.4byte	0x515
 2570 050f 14       		.uleb128 0x14
 2571 0510 15050000 		.4byte	0x515
 2572 0514 00       		.byte	0
 2573 0515 07       		.uleb128 0x7
 2574 0516 04       		.byte	0x4
 2575 0517 11040000 		.4byte	0x411
 2576 051b 07       		.uleb128 0x7
 2577 051c 04       		.byte	0x4
 2578 051d 0A050000 		.4byte	0x50a
 2579 0521 15       		.uleb128 0x15
 2580 0522 08       		.byte	0x8
 2581 0523 07       		.byte	0x7
 2582 0524 2002     		.2byte	0x220
 2583 0526 45050000 		.4byte	0x545
 2584 052a 0F       		.uleb128 0xf
 2585 052b 04030000 		.4byte	.LASF79
 2586 052f 07       		.byte	0x7
 2587 0530 2202     		.2byte	0x222
 2588 0532 08010000 		.4byte	0x108
 2589 0536 00       		.byte	0
 2590 0537 0F       		.uleb128 0xf
 2591 0538 B2050000 		.4byte	.LASF53
 2592 053c 07       		.byte	0x7
 2593 053d 2302     		.2byte	0x223
 2594 053f 7D010000 		.4byte	0x17d
 2595 0543 04       		.byte	0x4
 2596 0544 00       		.byte	0
 2597 0545 05       		.uleb128 0x5
 2598 0546 E3030000 		.4byte	.LASF80
 2599 054a 07       		.byte	0x7
 2600 054b 2402     		.2byte	0x224
 2601 054d 21050000 		.4byte	0x521
 2602 0551 15       		.uleb128 0x15
 2603 0552 14       		.byte	0x14
 2604 0553 07       		.byte	0x7
 2605 0554 3C02     		.2byte	0x23c
 2606 0556 C3050000 		.4byte	0x5c3
ARM GAS  C:\Users\leoja\AppData\Local\Temp\ccYOCOnJ.s 			page 62


 2607 055a 0F       		.uleb128 0xf
 2608 055b ED030000 		.4byte	.LASF81
 2609 055f 07       		.byte	0x7
 2610 0560 3E02     		.2byte	0x23e
 2611 0562 9E010000 		.4byte	0x19e
 2612 0566 00       		.byte	0
 2613 0567 0F       		.uleb128 0xf
 2614 0568 F1010000 		.4byte	.LASF82
 2615 056c 07       		.byte	0x7
 2616 056d 3F02     		.2byte	0x23f
 2617 056f 9E010000 		.4byte	0x19e
 2618 0573 02       		.byte	0x2
 2619 0574 0F       		.uleb128 0xf
 2620 0575 FD040000 		.4byte	.LASF83
 2621 0579 07       		.byte	0x7
 2622 057a 4002     		.2byte	0x240
 2623 057c 9E010000 		.4byte	0x19e
 2624 0580 04       		.byte	0x4
 2625 0581 0F       		.uleb128 0xf
 2626 0582 A0020000 		.4byte	.LASF84
 2627 0586 07       		.byte	0x7
 2628 0587 4102     		.2byte	0x241
 2629 0589 9E010000 		.4byte	0x19e
 2630 058d 06       		.byte	0x6
 2631 058e 0F       		.uleb128 0xf
 2632 058f 56010000 		.4byte	.LASF85
 2633 0593 07       		.byte	0x7
 2634 0594 4202     		.2byte	0x242
 2635 0596 9E010000 		.4byte	0x19e
 2636 059a 08       		.byte	0x8
 2637 059b 0F       		.uleb128 0xf
 2638 059c 67000000 		.4byte	.LASF86
 2639 05a0 07       		.byte	0x7
 2640 05a1 4302     		.2byte	0x243
 2641 05a3 9E010000 		.4byte	0x19e
 2642 05a7 0A       		.byte	0xa
 2643 05a8 0F       		.uleb128 0xf
 2644 05a9 E6010000 		.4byte	.LASF87
 2645 05ad 07       		.byte	0x7
 2646 05ae 4402     		.2byte	0x244
 2647 05b0 77030000 		.4byte	0x377
 2648 05b4 0C       		.byte	0xc
 2649 05b5 0F       		.uleb128 0xf
 2650 05b6 74010000 		.4byte	.LASF88
 2651 05ba 07       		.byte	0x7
 2652 05bb 4502     		.2byte	0x245
 2653 05bd 77030000 		.4byte	0x377
 2654 05c1 10       		.byte	0x10
 2655 05c2 00       		.byte	0
 2656 05c3 15       		.uleb128 0x15
 2657 05c4 78       		.byte	0x78
 2658 05c5 07       		.byte	0x7
 2659 05c6 3302     		.2byte	0x233
 2660 05c8 9D060000 		.4byte	0x69d
 2661 05cc 0F       		.uleb128 0xf
 2662 05cd 52030000 		.4byte	.LASF89
 2663 05d1 07       		.byte	0x7
ARM GAS  C:\Users\leoja\AppData\Local\Temp\ccYOCOnJ.s 			page 63


 2664 05d2 3502     		.2byte	0x235
 2665 05d4 B2060000 		.4byte	0x6b2
 2666 05d8 00       		.byte	0
 2667 05d9 0F       		.uleb128 0xf
 2668 05da 11030000 		.4byte	.LASF90
 2669 05de 07       		.byte	0x7
 2670 05df 3602     		.2byte	0x236
 2671 05e1 9E010000 		.4byte	0x19e
 2672 05e5 04       		.byte	0x4
 2673 05e6 0F       		.uleb128 0xf
 2674 05e7 98000000 		.4byte	.LASF91
 2675 05eb 07       		.byte	0x7
 2676 05ec 3702     		.2byte	0x237
 2677 05ee 9E010000 		.4byte	0x19e
 2678 05f2 06       		.byte	0x6
 2679 05f3 0F       		.uleb128 0xf
 2680 05f4 FE020000 		.4byte	.LASF92
 2681 05f8 07       		.byte	0x7
 2682 05f9 3802     		.2byte	0x238
 2683 05fb 47040000 		.4byte	0x447
 2684 05ff 08       		.byte	0x8
 2685 0600 0F       		.uleb128 0xf
 2686 0601 2D010000 		.4byte	.LASF93
 2687 0605 07       		.byte	0x7
 2688 0606 3902     		.2byte	0x239
 2689 0608 62040000 		.4byte	0x462
 2690 060c 10       		.byte	0x10
 2691 060d 0F       		.uleb128 0xf
 2692 060e CA010000 		.4byte	.LASF94
 2693 0612 07       		.byte	0x7
 2694 0613 3A02     		.2byte	0x23a
 2695 0615 62040000 		.4byte	0x462
 2696 0619 14       		.byte	0x14
 2697 061a 0F       		.uleb128 0xf
 2698 061b 68010000 		.4byte	.LASF95
 2699 061f 07       		.byte	0x7
 2700 0620 3B02     		.2byte	0x23b
 2701 0622 62040000 		.4byte	0x462
 2702 0626 18       		.byte	0x18
 2703 0627 0F       		.uleb128 0xf
 2704 0628 6D000000 		.4byte	.LASF96
 2705 062c 07       		.byte	0x7
 2706 062d 4602     		.2byte	0x246
 2707 062f 51050000 		.4byte	0x551
 2708 0633 1C       		.byte	0x1c
 2709 0634 0F       		.uleb128 0xf
 2710 0635 5E040000 		.4byte	.LASF73
 2711 0639 07       		.byte	0x7
 2712 063a 4702     		.2byte	0x247
 2713 063c 39020000 		.4byte	0x239
 2714 0640 30       		.byte	0x30
 2715 0641 0F       		.uleb128 0xf
 2716 0642 7A060000 		.4byte	.LASF97
 2717 0646 07       		.byte	0x7
 2718 0647 4802     		.2byte	0x248
 2719 0649 88010000 		.4byte	0x188
 2720 064d 44       		.byte	0x44
ARM GAS  C:\Users\leoja\AppData\Local\Temp\ccYOCOnJ.s 			page 64


 2721 064e 0F       		.uleb128 0xf
 2722 064f 55000000 		.4byte	.LASF98
 2723 0653 07       		.byte	0x7
 2724 0654 4902     		.2byte	0x249
 2725 0656 88010000 		.4byte	0x188
 2726 065a 45       		.byte	0x45
 2727 065b 0F       		.uleb128 0xf
 2728 065c E6010000 		.4byte	.LASF87
 2729 0660 07       		.byte	0x7
 2730 0661 4A02     		.2byte	0x24a
 2731 0663 77030000 		.4byte	0x377
 2732 0667 48       		.byte	0x48
 2733 0668 0F       		.uleb128 0xf
 2734 0669 74010000 		.4byte	.LASF88
 2735 066d 07       		.byte	0x7
 2736 066e 4B02     		.2byte	0x24b
 2737 0670 77030000 		.4byte	0x377
 2738 0674 4C       		.byte	0x4c
 2739 0675 0F       		.uleb128 0xf
 2740 0676 1E000000 		.4byte	.LASF99
 2741 067a 07       		.byte	0x7
 2742 067b 4C02     		.2byte	0x24c
 2743 067d 77030000 		.4byte	0x377
 2744 0681 50       		.byte	0x50
 2745 0682 0F       		.uleb128 0xf
 2746 0683 B2050000 		.4byte	.LASF53
 2747 0687 07       		.byte	0x7
 2748 0688 4D02     		.2byte	0x24d
 2749 068a 7D010000 		.4byte	0x17d
 2750 068e 54       		.byte	0x54
 2751 068f 0F       		.uleb128 0xf
 2752 0690 04030000 		.4byte	.LASF79
 2753 0694 07       		.byte	0x7
 2754 0695 4E02     		.2byte	0x24e
 2755 0697 B8060000 		.4byte	0x6b8
 2756 069b 58       		.byte	0x58
 2757 069c 00       		.byte	0
 2758 069d 13       		.uleb128 0x13
 2759 069e B2060000 		.4byte	0x6b2
 2760 06a2 14       		.uleb128 0x14
 2761 06a3 9E010000 		.4byte	0x19e
 2762 06a7 14       		.uleb128 0x14
 2763 06a8 9E010000 		.4byte	0x19e
 2764 06ac 14       		.uleb128 0x14
 2765 06ad 77030000 		.4byte	0x377
 2766 06b1 00       		.byte	0
 2767 06b2 07       		.uleb128 0x7
 2768 06b3 04       		.byte	0x4
 2769 06b4 9D060000 		.4byte	0x69d
 2770 06b8 16       		.uleb128 0x16
 2771 06b9 45050000 		.4byte	0x545
 2772 06bd C8060000 		.4byte	0x6c8
 2773 06c1 17       		.uleb128 0x17
 2774 06c2 01010000 		.4byte	0x101
 2775 06c6 03       		.byte	0x3
 2776 06c7 00       		.byte	0
 2777 06c8 05       		.uleb128 0x5
ARM GAS  C:\Users\leoja\AppData\Local\Temp\ccYOCOnJ.s 			page 65


 2778 06c9 CC050000 		.4byte	.LASF100
 2779 06cd 07       		.byte	0x7
 2780 06ce 4F02     		.2byte	0x24f
 2781 06d0 C3050000 		.4byte	0x5c3
 2782 06d4 18       		.uleb128 0x18
 2783 06d5 AF010000 		.4byte	.LASF101
 2784 06d9 01       		.byte	0x1
 2785 06da 0A       		.byte	0xa
 2786 06db 00000000 		.4byte	.LFB35
 2787 06df 70000000 		.4byte	.LFE35-.LFB35
 2788 06e3 01       		.uleb128 0x1
 2789 06e4 9C       		.byte	0x9c
 2790 06e5 C4070000 		.4byte	0x7c4
 2791 06e9 19       		.uleb128 0x19
 2792 06ea 08000000 		.4byte	.LVL0
 2793 06ee 0A150000 		.4byte	0x150a
 2794 06f2 00070000 		.4byte	0x700
 2795 06f6 1A       		.uleb128 0x1a
 2796 06f7 01       		.uleb128 0x1
 2797 06f8 50       		.byte	0x50
 2798 06f9 05       		.uleb128 0x5
 2799 06fa 0C       		.byte	0xc
 2800 06fb FFFFFF00 		.4byte	0xffffff
 2801 06ff 00       		.byte	0
 2802 0700 19       		.uleb128 0x19
 2803 0701 1E000000 		.4byte	.LVL1
 2804 0705 16150000 		.4byte	0x1516
 2805 0709 2B070000 		.4byte	0x72b
 2806 070d 1A       		.uleb128 0x1a
 2807 070e 01       		.uleb128 0x1
 2808 070f 50       		.byte	0x50
 2809 0710 01       		.uleb128 0x1
 2810 0711 30       		.byte	0x30
 2811 0712 1A       		.uleb128 0x1a
 2812 0713 01       		.uleb128 0x1
 2813 0714 51       		.byte	0x51
 2814 0715 01       		.uleb128 0x1
 2815 0716 30       		.byte	0x30
 2816 0717 1A       		.uleb128 0x1a
 2817 0718 01       		.uleb128 0x1
 2818 0719 52       		.byte	0x52
 2819 071a 01       		.uleb128 0x1
 2820 071b 3A       		.byte	0x3a
 2821 071c 1A       		.uleb128 0x1a
 2822 071d 01       		.uleb128 0x1
 2823 071e 53       		.byte	0x53
 2824 071f 01       		.uleb128 0x1
 2825 0720 3A       		.byte	0x3a
 2826 0721 1A       		.uleb128 0x1a
 2827 0722 02       		.uleb128 0x2
 2828 0723 7D       		.byte	0x7d
 2829 0724 00       		.sleb128 0
 2830 0725 04       		.uleb128 0x4
 2831 0726 08       		.byte	0x8
 2832 0727 FF       		.byte	0xff
 2833 0728 40       		.byte	0x40
 2834 0729 24       		.byte	0x24
ARM GAS  C:\Users\leoja\AppData\Local\Temp\ccYOCOnJ.s 			page 66


 2835 072a 00       		.byte	0
 2836 072b 19       		.uleb128 0x19
 2837 072c 32000000 		.4byte	.LVL2
 2838 0730 16150000 		.4byte	0x1516
 2839 0734 56070000 		.4byte	0x756
 2840 0738 1A       		.uleb128 0x1a
 2841 0739 01       		.uleb128 0x1
 2842 073a 50       		.byte	0x50
 2843 073b 01       		.uleb128 0x1
 2844 073c 30       		.byte	0x30
 2845 073d 1A       		.uleb128 0x1a
 2846 073e 01       		.uleb128 0x1
 2847 073f 51       		.byte	0x51
 2848 0740 02       		.uleb128 0x2
 2849 0741 75       		.byte	0x75
 2850 0742 00       		.sleb128 0
 2851 0743 1A       		.uleb128 0x1a
 2852 0744 01       		.uleb128 0x1
 2853 0745 52       		.byte	0x52
 2854 0746 01       		.uleb128 0x1
 2855 0747 3A       		.byte	0x3a
 2856 0748 1A       		.uleb128 0x1a
 2857 0749 01       		.uleb128 0x1
 2858 074a 53       		.byte	0x53
 2859 074b 02       		.uleb128 0x2
 2860 074c 77       		.byte	0x77
 2861 074d 00       		.sleb128 0
 2862 074e 1A       		.uleb128 0x1a
 2863 074f 02       		.uleb128 0x2
 2864 0750 7D       		.byte	0x7d
 2865 0751 00       		.sleb128 0
 2866 0752 02       		.uleb128 0x2
 2867 0753 08       		.byte	0x8
 2868 0754 FF       		.byte	0xff
 2869 0755 00       		.byte	0
 2870 0756 19       		.uleb128 0x19
 2871 0757 4C000000 		.4byte	.LVL3
 2872 075b 16150000 		.4byte	0x1516
 2873 075f 82070000 		.4byte	0x782
 2874 0763 1A       		.uleb128 0x1a
 2875 0764 01       		.uleb128 0x1
 2876 0765 50       		.byte	0x50
 2877 0766 02       		.uleb128 0x2
 2878 0767 74       		.byte	0x74
 2879 0768 00       		.sleb128 0
 2880 0769 1A       		.uleb128 0x1a
 2881 076a 01       		.uleb128 0x1
 2882 076b 51       		.byte	0x51
 2883 076c 01       		.uleb128 0x1
 2884 076d 30       		.byte	0x30
 2885 076e 1A       		.uleb128 0x1a
 2886 076f 01       		.uleb128 0x1
 2887 0770 52       		.byte	0x52
 2888 0771 02       		.uleb128 0x2
 2889 0772 76       		.byte	0x76
 2890 0773 00       		.sleb128 0
 2891 0774 1A       		.uleb128 0x1a
ARM GAS  C:\Users\leoja\AppData\Local\Temp\ccYOCOnJ.s 			page 67


 2892 0775 01       		.uleb128 0x1
 2893 0776 53       		.byte	0x53
 2894 0777 01       		.uleb128 0x1
 2895 0778 3A       		.byte	0x3a
 2896 0779 1A       		.uleb128 0x1a
 2897 077a 02       		.uleb128 0x2
 2898 077b 7D       		.byte	0x7d
 2899 077c 00       		.sleb128 0
 2900 077d 03       		.uleb128 0x3
 2901 077e 0A       		.byte	0xa
 2902 077f 00FF     		.2byte	0xff00
 2903 0781 00       		.byte	0
 2904 0782 19       		.uleb128 0x19
 2905 0783 5C000000 		.4byte	.LVL4
 2906 0787 16150000 		.4byte	0x1516
 2907 078b B2070000 		.4byte	0x7b2
 2908 078f 1A       		.uleb128 0x1a
 2909 0790 01       		.uleb128 0x1
 2910 0791 50       		.byte	0x50
 2911 0792 02       		.uleb128 0x2
 2912 0793 74       		.byte	0x74
 2913 0794 00       		.sleb128 0
 2914 0795 1A       		.uleb128 0x1a
 2915 0796 01       		.uleb128 0x1
 2916 0797 51       		.byte	0x51
 2917 0798 02       		.uleb128 0x2
 2918 0799 75       		.byte	0x75
 2919 079a 00       		.sleb128 0
 2920 079b 1A       		.uleb128 0x1a
 2921 079c 01       		.uleb128 0x1
 2922 079d 52       		.byte	0x52
 2923 079e 02       		.uleb128 0x2
 2924 079f 76       		.byte	0x76
 2925 07a0 00       		.sleb128 0
 2926 07a1 1A       		.uleb128 0x1a
 2927 07a2 01       		.uleb128 0x1
 2928 07a3 53       		.byte	0x53
 2929 07a4 02       		.uleb128 0x2
 2930 07a5 77       		.byte	0x77
 2931 07a6 00       		.sleb128 0
 2932 07a7 1A       		.uleb128 0x1a
 2933 07a8 02       		.uleb128 0x2
 2934 07a9 7D       		.byte	0x7d
 2935 07aa 00       		.sleb128 0
 2936 07ab 05       		.uleb128 0x5
 2937 07ac 0C       		.byte	0xc
 2938 07ad 00FFFF00 		.4byte	0xffff00
 2939 07b1 00       		.byte	0
 2940 07b2 1B       		.uleb128 0x1b
 2941 07b3 64000000 		.4byte	.LVL5
 2942 07b7 22150000 		.4byte	0x1522
 2943 07bb 1A       		.uleb128 0x1a
 2944 07bc 01       		.uleb128 0x1
 2945 07bd 50       		.byte	0x50
 2946 07be 03       		.uleb128 0x3
 2947 07bf 0A       		.byte	0xa
 2948 07c0 2C01     		.2byte	0x12c
ARM GAS  C:\Users\leoja\AppData\Local\Temp\ccYOCOnJ.s 			page 68


 2949 07c2 00       		.byte	0
 2950 07c3 00       		.byte	0
 2951 07c4 18       		.uleb128 0x18
 2952 07c5 7E040000 		.4byte	.LASF102
 2953 07c9 01       		.byte	0x1
 2954 07ca 24       		.byte	0x24
 2955 07cb 00000000 		.4byte	.LFB36
 2956 07cf 64000000 		.4byte	.LFE36-.LFB36
 2957 07d3 01       		.uleb128 0x1
 2958 07d4 9C       		.byte	0x9c
 2959 07d5 BA080000 		.4byte	0x8ba
 2960 07d9 19       		.uleb128 0x19
 2961 07da 08000000 		.4byte	.LVL6
 2962 07de 0A150000 		.4byte	0x150a
 2963 07e2 EC070000 		.4byte	0x7ec
 2964 07e6 1A       		.uleb128 0x1a
 2965 07e7 01       		.uleb128 0x1
 2966 07e8 50       		.byte	0x50
 2967 07e9 01       		.uleb128 0x1
 2968 07ea 30       		.byte	0x30
 2969 07eb 00       		.byte	0
 2970 07ec 19       		.uleb128 0x19
 2971 07ed 12000000 		.4byte	.LVL7
 2972 07f1 2D150000 		.4byte	0x152d
 2973 07f5 0E080000 		.4byte	0x80e
 2974 07f9 1A       		.uleb128 0x1a
 2975 07fa 01       		.uleb128 0x1
 2976 07fb 50       		.byte	0x50
 2977 07fc 02       		.uleb128 0x2
 2978 07fd 08       		.byte	0x8
 2979 07fe 44       		.byte	0x44
 2980 07ff 1A       		.uleb128 0x1a
 2981 0800 01       		.uleb128 0x1
 2982 0801 51       		.byte	0x51
 2983 0802 01       		.uleb128 0x1
 2984 0803 3A       		.byte	0x3a
 2985 0804 1A       		.uleb128 0x1a
 2986 0805 01       		.uleb128 0x1
 2987 0806 52       		.byte	0x52
 2988 0807 05       		.uleb128 0x5
 2989 0808 03       		.byte	0x3
 2990 0809 00000000 		.4byte	.LC0
 2991 080d 00       		.byte	0
 2992 080e 19       		.uleb128 0x19
 2993 080f 1E000000 		.4byte	.LVL8
 2994 0813 2D150000 		.4byte	0x152d
 2995 0817 31080000 		.4byte	0x831
 2996 081b 1A       		.uleb128 0x1a
 2997 081c 01       		.uleb128 0x1
 2998 081d 50       		.byte	0x50
 2999 081e 03       		.uleb128 0x3
 3000 081f 0A       		.byte	0xa
 3001 0820 2901     		.2byte	0x129
 3002 0822 1A       		.uleb128 0x1a
 3003 0823 01       		.uleb128 0x1
 3004 0824 51       		.byte	0x51
 3005 0825 01       		.uleb128 0x1
ARM GAS  C:\Users\leoja\AppData\Local\Temp\ccYOCOnJ.s 			page 69


 3006 0826 3A       		.byte	0x3a
 3007 0827 1A       		.uleb128 0x1a
 3008 0828 01       		.uleb128 0x1
 3009 0829 52       		.byte	0x52
 3010 082a 05       		.uleb128 0x5
 3011 082b 03       		.byte	0x3
 3012 082c 09000000 		.4byte	.LC2
 3013 0830 00       		.byte	0
 3014 0831 19       		.uleb128 0x19
 3015 0832 28000000 		.4byte	.LVL9
 3016 0836 2D150000 		.4byte	0x152d
 3017 083a 53080000 		.4byte	0x853
 3018 083e 1A       		.uleb128 0x1a
 3019 083f 01       		.uleb128 0x1
 3020 0840 50       		.byte	0x50
 3021 0841 01       		.uleb128 0x1
 3022 0842 3A       		.byte	0x3a
 3023 0843 1A       		.uleb128 0x1a
 3024 0844 01       		.uleb128 0x1
 3025 0845 51       		.byte	0x51
 3026 0846 02       		.uleb128 0x2
 3027 0847 08       		.byte	0x8
 3028 0848 C3       		.byte	0xc3
 3029 0849 1A       		.uleb128 0x1a
 3030 084a 01       		.uleb128 0x1
 3031 084b 52       		.byte	0x52
 3032 084c 05       		.uleb128 0x5
 3033 084d 03       		.byte	0x3
 3034 084e 14000000 		.4byte	.LC4
 3035 0852 00       		.byte	0
 3036 0853 19       		.uleb128 0x19
 3037 0854 32000000 		.4byte	.LVL10
 3038 0858 2D150000 		.4byte	0x152d
 3039 085c 75080000 		.4byte	0x875
 3040 0860 1A       		.uleb128 0x1a
 3041 0861 01       		.uleb128 0x1
 3042 0862 50       		.byte	0x50
 3043 0863 01       		.uleb128 0x1
 3044 0864 3A       		.byte	0x3a
 3045 0865 1A       		.uleb128 0x1a
 3046 0866 01       		.uleb128 0x1
 3047 0867 51       		.byte	0x51
 3048 0868 02       		.uleb128 0x2
 3049 0869 08       		.byte	0x8
 3050 086a F0       		.byte	0xf0
 3051 086b 1A       		.uleb128 0x1a
 3052 086c 01       		.uleb128 0x1
 3053 086d 52       		.byte	0x52
 3054 086e 05       		.uleb128 0x5
 3055 086f 03       		.byte	0x3
 3056 0870 1B000000 		.4byte	.LC6
 3057 0874 00       		.byte	0
 3058 0875 19       		.uleb128 0x19
 3059 0876 3E000000 		.4byte	.LVL11
 3060 087a 2D150000 		.4byte	0x152d
 3061 087e 99080000 		.4byte	0x899
 3062 0882 1A       		.uleb128 0x1a
ARM GAS  C:\Users\leoja\AppData\Local\Temp\ccYOCOnJ.s 			page 70


 3063 0883 01       		.uleb128 0x1
 3064 0884 50       		.byte	0x50
 3065 0885 03       		.uleb128 0x3
 3066 0886 0A       		.byte	0xa
 3067 0887 5301     		.2byte	0x153
 3068 0889 1A       		.uleb128 0x1a
 3069 088a 01       		.uleb128 0x1
 3070 088b 51       		.byte	0x51
 3071 088c 02       		.uleb128 0x2
 3072 088d 08       		.byte	0x8
 3073 088e C3       		.byte	0xc3
 3074 088f 1A       		.uleb128 0x1a
 3075 0890 01       		.uleb128 0x1
 3076 0891 52       		.byte	0x52
 3077 0892 05       		.uleb128 0x5
 3078 0893 03       		.byte	0x3
 3079 0894 22000000 		.4byte	.LC8
 3080 0898 00       		.byte	0
 3081 0899 1B       		.uleb128 0x1b
 3082 089a 4A000000 		.4byte	.LVL12
 3083 089e 2D150000 		.4byte	0x152d
 3084 08a2 1A       		.uleb128 0x1a
 3085 08a3 01       		.uleb128 0x1
 3086 08a4 50       		.byte	0x50
 3087 08a5 03       		.uleb128 0x3
 3088 08a6 0A       		.byte	0xa
 3089 08a7 2C01     		.2byte	0x12c
 3090 08a9 1A       		.uleb128 0x1a
 3091 08aa 01       		.uleb128 0x1
 3092 08ab 51       		.byte	0x51
 3093 08ac 02       		.uleb128 0x2
 3094 08ad 08       		.byte	0x8
 3095 08ae F0       		.byte	0xf0
 3096 08af 1A       		.uleb128 0x1a
 3097 08b0 01       		.uleb128 0x1
 3098 08b1 52       		.byte	0x52
 3099 08b2 05       		.uleb128 0x5
 3100 08b3 03       		.byte	0x3
 3101 08b4 28000000 		.4byte	.LC10
 3102 08b8 00       		.byte	0
 3103 08b9 00       		.byte	0
 3104 08ba 18       		.uleb128 0x18
 3105 08bb EF040000 		.4byte	.LASF103
 3106 08bf 01       		.byte	0x1
 3107 08c0 30       		.byte	0x30
 3108 08c1 00000000 		.4byte	.LFB37
 3109 08c5 48000000 		.4byte	.LFE37-.LFB37
 3110 08c9 01       		.uleb128 0x1
 3111 08ca 9C       		.byte	0x9c
 3112 08cb 6A090000 		.4byte	0x96a
 3113 08cf 19       		.uleb128 0x19
 3114 08d0 08000000 		.4byte	.LVL13
 3115 08d4 0A150000 		.4byte	0x150a
 3116 08d8 E2080000 		.4byte	0x8e2
 3117 08dc 1A       		.uleb128 0x1a
 3118 08dd 01       		.uleb128 0x1
 3119 08de 50       		.byte	0x50
ARM GAS  C:\Users\leoja\AppData\Local\Temp\ccYOCOnJ.s 			page 71


 3120 08df 01       		.uleb128 0x1
 3121 08e0 30       		.byte	0x30
 3122 08e1 00       		.byte	0
 3123 08e2 19       		.uleb128 0x19
 3124 08e3 12000000 		.4byte	.LVL14
 3125 08e7 2D150000 		.4byte	0x152d
 3126 08eb 04090000 		.4byte	0x904
 3127 08ef 1A       		.uleb128 0x1a
 3128 08f0 01       		.uleb128 0x1
 3129 08f1 50       		.byte	0x50
 3130 08f2 02       		.uleb128 0x2
 3131 08f3 08       		.byte	0x8
 3132 08f4 44       		.byte	0x44
 3133 08f5 1A       		.uleb128 0x1a
 3134 08f6 01       		.uleb128 0x1
 3135 08f7 51       		.byte	0x51
 3136 08f8 01       		.uleb128 0x1
 3137 08f9 3A       		.byte	0x3a
 3138 08fa 1A       		.uleb128 0x1a
 3139 08fb 01       		.uleb128 0x1
 3140 08fc 52       		.byte	0x52
 3141 08fd 05       		.uleb128 0x5
 3142 08fe 03       		.byte	0x3
 3143 08ff 00000000 		.4byte	.LC0
 3144 0903 00       		.byte	0
 3145 0904 19       		.uleb128 0x19
 3146 0905 1E000000 		.4byte	.LVL15
 3147 0909 2D150000 		.4byte	0x152d
 3148 090d 27090000 		.4byte	0x927
 3149 0911 1A       		.uleb128 0x1a
 3150 0912 01       		.uleb128 0x1
 3151 0913 50       		.byte	0x50
 3152 0914 03       		.uleb128 0x3
 3153 0915 0A       		.byte	0xa
 3154 0916 2901     		.2byte	0x129
 3155 0918 1A       		.uleb128 0x1a
 3156 0919 01       		.uleb128 0x1
 3157 091a 51       		.byte	0x51
 3158 091b 01       		.uleb128 0x1
 3159 091c 3A       		.byte	0x3a
 3160 091d 1A       		.uleb128 0x1a
 3161 091e 01       		.uleb128 0x1
 3162 091f 52       		.byte	0x52
 3163 0920 05       		.uleb128 0x5
 3164 0921 03       		.byte	0x3
 3165 0922 09000000 		.4byte	.LC2
 3166 0926 00       		.byte	0
 3167 0927 19       		.uleb128 0x19
 3168 0928 28000000 		.4byte	.LVL16
 3169 092c 2D150000 		.4byte	0x152d
 3170 0930 49090000 		.4byte	0x949
 3171 0934 1A       		.uleb128 0x1a
 3172 0935 01       		.uleb128 0x1
 3173 0936 50       		.byte	0x50
 3174 0937 01       		.uleb128 0x1
 3175 0938 35       		.byte	0x35
 3176 0939 1A       		.uleb128 0x1a
ARM GAS  C:\Users\leoja\AppData\Local\Temp\ccYOCOnJ.s 			page 72


 3177 093a 01       		.uleb128 0x1
 3178 093b 51       		.byte	0x51
 3179 093c 02       		.uleb128 0x2
 3180 093d 08       		.byte	0x8
 3181 093e B4       		.byte	0xb4
 3182 093f 1A       		.uleb128 0x1a
 3183 0940 01       		.uleb128 0x1
 3184 0941 52       		.byte	0x52
 3185 0942 05       		.uleb128 0x5
 3186 0943 03       		.byte	0x3
 3187 0944 14000000 		.4byte	.LC4
 3188 0948 00       		.byte	0
 3189 0949 1B       		.uleb128 0x1b
 3190 094a 34000000 		.4byte	.LVL17
 3191 094e 2D150000 		.4byte	0x152d
 3192 0952 1A       		.uleb128 0x1a
 3193 0953 01       		.uleb128 0x1
 3194 0954 50       		.byte	0x50
 3195 0955 03       		.uleb128 0x3
 3196 0956 0A       		.byte	0xa
 3197 0957 1301     		.2byte	0x113
 3198 0959 1A       		.uleb128 0x1a
 3199 095a 01       		.uleb128 0x1
 3200 095b 51       		.byte	0x51
 3201 095c 02       		.uleb128 0x2
 3202 095d 08       		.byte	0x8
 3203 095e B4       		.byte	0xb4
 3204 095f 1A       		.uleb128 0x1a
 3205 0960 01       		.uleb128 0x1
 3206 0961 52       		.byte	0x52
 3207 0962 05       		.uleb128 0x5
 3208 0963 03       		.byte	0x3
 3209 0964 1B000000 		.4byte	.LC6
 3210 0968 00       		.byte	0
 3211 0969 00       		.byte	0
 3212 096a 1C       		.uleb128 0x1c
 3213 096b B8050000 		.4byte	.LASF111
 3214 096f 01       		.byte	0x1
 3215 0970 86       		.byte	0x86
 3216 0971 00000000 		.4byte	.LFB38
 3217 0975 5C010000 		.4byte	.LFE38-.LFB38
 3218 0979 01       		.uleb128 0x1
 3219 097a 9C       		.byte	0x9c
 3220 097b 130B0000 		.4byte	0xb13
 3221 097f 1D       		.uleb128 0x1d
 3222 0980 F1020000 		.4byte	.LASF60
 3223 0984 01       		.byte	0x1
 3224 0985 86       		.byte	0x86
 3225 0986 AD000000 		.4byte	0xad
 3226 098a 00000000 		.4byte	.LLST0
 3227 098e 1E       		.uleb128 0x1e
 3228 098f 783100   		.ascii	"x1\000"
 3229 0992 01       		.byte	0x1
 3230 0993 86       		.byte	0x86
 3231 0994 C3000000 		.4byte	0xc3
 3232 0998 21000000 		.4byte	.LLST1
 3233 099c 1E       		.uleb128 0x1e
ARM GAS  C:\Users\leoja\AppData\Local\Temp\ccYOCOnJ.s 			page 73


 3234 099d 793100   		.ascii	"y1\000"
 3235 09a0 01       		.byte	0x1
 3236 09a1 86       		.byte	0x86
 3237 09a2 C3000000 		.4byte	0xc3
 3238 09a6 42000000 		.4byte	.LLST2
 3239 09aa 1E       		.uleb128 0x1e
 3240 09ab 783200   		.ascii	"x2\000"
 3241 09ae 01       		.byte	0x1
 3242 09af 86       		.byte	0x86
 3243 09b0 C3000000 		.4byte	0xc3
 3244 09b4 63000000 		.4byte	.LLST3
 3245 09b8 1E       		.uleb128 0x1e
 3246 09b9 793200   		.ascii	"y2\000"
 3247 09bc 01       		.byte	0x1
 3248 09bd 86       		.byte	0x86
 3249 09be C3000000 		.4byte	0xc3
 3250 09c2 84000000 		.4byte	.LLST4
 3251 09c6 1D       		.uleb128 0x1d
 3252 09c7 5E030000 		.4byte	.LASF104
 3253 09cb 01       		.byte	0x1
 3254 09cc 86       		.byte	0x86
 3255 09cd AD000000 		.4byte	0xad
 3256 09d1 B0000000 		.4byte	.LLST5
 3257 09d5 1F       		.uleb128 0x1f
 3258 09d6 C1050000 		.4byte	.LASF105
 3259 09da 01       		.byte	0x1
 3260 09db 87       		.byte	0x87
 3261 09dc 94000000 		.4byte	0x94
 3262 09e0 F4000000 		.4byte	.LLST6
 3263 09e4 1F       		.uleb128 0x1f
 3264 09e5 58040000 		.4byte	.LASF106
 3265 09e9 01       		.byte	0x1
 3266 09ea 88       		.byte	0x88
 3267 09eb 94000000 		.4byte	0x94
 3268 09ef 07010000 		.4byte	.LLST7
 3269 09f3 1F       		.uleb128 0x1f
 3270 09f4 CE020000 		.4byte	.LASF107
 3271 09f8 01       		.byte	0x1
 3272 09f9 88       		.byte	0x88
 3273 09fa 94000000 		.4byte	0x94
 3274 09fe 30010000 		.4byte	.LLST8
 3275 0a02 1F       		.uleb128 0x1f
 3276 0a03 AA040000 		.4byte	.LASF108
 3277 0a07 01       		.byte	0x1
 3278 0a08 89       		.byte	0x89
 3279 0a09 94000000 		.4byte	0x94
 3280 0a0d 83010000 		.4byte	.LLST9
 3281 0a11 1F       		.uleb128 0x1f
 3282 0a12 F7010000 		.4byte	.LASF109
 3283 0a16 01       		.byte	0x1
 3284 0a17 99       		.byte	0x99
 3285 0a18 77030000 		.4byte	0x377
 3286 0a1c BD010000 		.4byte	.LLST10
 3287 0a20 20       		.uleb128 0x20
 3288 0a21 94000000 		.4byte	.LBB2
 3289 0a25 A2000000 		.4byte	.LBE2-.LBB2
 3290 0a29 D30A0000 		.4byte	0xad3
ARM GAS  C:\Users\leoja\AppData\Local\Temp\ccYOCOnJ.s 			page 74


 3291 0a2d 21       		.uleb128 0x21
 3292 0a2e 08000000 		.4byte	.LASF110
 3293 0a32 01       		.byte	0x1
 3294 0a33 A6       		.byte	0xa6
 3295 0a34 130B0000 		.4byte	0xb13
 3296 0a38 02       		.uleb128 0x2
 3297 0a39 91       		.byte	0x91
 3298 0a3a 64       		.sleb128 -28
 3299 0a3b 19       		.uleb128 0x19
 3300 0a3c A0000000 		.4byte	.LVL37
 3301 0a40 39150000 		.4byte	0x1539
 3302 0a44 5E0A0000 		.4byte	0xa5e
 3303 0a48 1A       		.uleb128 0x1a
 3304 0a49 01       		.uleb128 0x1
 3305 0a4a 50       		.byte	0x50
 3306 0a4b 02       		.uleb128 0x2
 3307 0a4c 77       		.byte	0x77
 3308 0a4d 00       		.sleb128 0
 3309 0a4e 1A       		.uleb128 0x1a
 3310 0a4f 01       		.uleb128 0x1
 3311 0a50 51       		.byte	0x51
 3312 0a51 05       		.uleb128 0x5
 3313 0a52 03       		.byte	0x3
 3314 0a53 36000000 		.4byte	.LC20
 3315 0a57 1A       		.uleb128 0x1a
 3316 0a58 01       		.uleb128 0x1
 3317 0a59 52       		.byte	0x52
 3318 0a5a 02       		.uleb128 0x2
 3319 0a5b 75       		.byte	0x75
 3320 0a5c 00       		.sleb128 0
 3321 0a5d 00       		.byte	0
 3322 0a5e 19       		.uleb128 0x19
 3323 0a5f EE000000 		.4byte	.LVL41
 3324 0a63 16150000 		.4byte	0x1516
 3325 0a67 8B0A0000 		.4byte	0xa8b
 3326 0a6b 1A       		.uleb128 0x1a
 3327 0a6c 01       		.uleb128 0x1
 3328 0a6d 50       		.byte	0x50
 3329 0a6e 04       		.uleb128 0x4
 3330 0a6f 7D       		.byte	0x7d
 3331 0a70 0C       		.sleb128 12
 3332 0a71 94       		.byte	0x94
 3333 0a72 02       		.byte	0x2
 3334 0a73 1A       		.uleb128 0x1a
 3335 0a74 01       		.uleb128 0x1
 3336 0a75 52       		.byte	0x52
 3337 0a76 04       		.uleb128 0x4
 3338 0a77 7D       		.byte	0x7d
 3339 0a78 10       		.sleb128 16
 3340 0a79 94       		.byte	0x94
 3341 0a7a 02       		.byte	0x2
 3342 0a7b 1A       		.uleb128 0x1a
 3343 0a7c 01       		.uleb128 0x1
 3344 0a7d 53       		.byte	0x53
 3345 0a7e 04       		.uleb128 0x4
 3346 0a7f 7D       		.byte	0x7d
 3347 0a80 14       		.sleb128 20
ARM GAS  C:\Users\leoja\AppData\Local\Temp\ccYOCOnJ.s 			page 75


 3348 0a81 94       		.byte	0x94
 3349 0a82 02       		.byte	0x2
 3350 0a83 1A       		.uleb128 0x1a
 3351 0a84 02       		.uleb128 0x2
 3352 0a85 7D       		.byte	0x7d
 3353 0a86 00       		.sleb128 0
 3354 0a87 02       		.uleb128 0x2
 3355 0a88 75       		.byte	0x75
 3356 0a89 00       		.sleb128 0
 3357 0a8a 00       		.byte	0
 3358 0a8b 19       		.uleb128 0x19
 3359 0a8c 22010000 		.4byte	.LVL46
 3360 0a90 16150000 		.4byte	0x1516
 3361 0a94 B80A0000 		.4byte	0xab8
 3362 0a98 1A       		.uleb128 0x1a
 3363 0a99 01       		.uleb128 0x1
 3364 0a9a 50       		.byte	0x50
 3365 0a9b 04       		.uleb128 0x4
 3366 0a9c 7D       		.byte	0x7d
 3367 0a9d 0C       		.sleb128 12
 3368 0a9e 94       		.byte	0x94
 3369 0a9f 02       		.byte	0x2
 3370 0aa0 1A       		.uleb128 0x1a
 3371 0aa1 01       		.uleb128 0x1
 3372 0aa2 52       		.byte	0x52
 3373 0aa3 04       		.uleb128 0x4
 3374 0aa4 7D       		.byte	0x7d
 3375 0aa5 10       		.sleb128 16
 3376 0aa6 94       		.byte	0x94
 3377 0aa7 02       		.byte	0x2
 3378 0aa8 1A       		.uleb128 0x1a
 3379 0aa9 01       		.uleb128 0x1
 3380 0aaa 53       		.byte	0x53
 3381 0aab 04       		.uleb128 0x4
 3382 0aac 7D       		.byte	0x7d
 3383 0aad 14       		.sleb128 20
 3384 0aae 94       		.byte	0x94
 3385 0aaf 02       		.byte	0x2
 3386 0ab0 1A       		.uleb128 0x1a
 3387 0ab1 02       		.uleb128 0x2
 3388 0ab2 7D       		.byte	0x7d
 3389 0ab3 00       		.sleb128 0
 3390 0ab4 02       		.uleb128 0x2
 3391 0ab5 75       		.byte	0x75
 3392 0ab6 00       		.sleb128 0
 3393 0ab7 00       		.byte	0
 3394 0ab8 1B       		.uleb128 0x1b
 3395 0ab9 36010000 		.4byte	.LVL48
 3396 0abd 44150000 		.4byte	0x1544
 3397 0ac1 1A       		.uleb128 0x1a
 3398 0ac2 01       		.uleb128 0x1
 3399 0ac3 50       		.byte	0x50
 3400 0ac4 04       		.uleb128 0x4
 3401 0ac5 91       		.byte	0x91
 3402 0ac6 5C       		.sleb128 -36
 3403 0ac7 94       		.byte	0x94
 3404 0ac8 02       		.byte	0x2
ARM GAS  C:\Users\leoja\AppData\Local\Temp\ccYOCOnJ.s 			page 76


 3405 0ac9 1A       		.uleb128 0x1a
 3406 0aca 01       		.uleb128 0x1
 3407 0acb 51       		.byte	0x51
 3408 0acc 04       		.uleb128 0x4
 3409 0acd 91       		.byte	0x91
 3410 0ace 58       		.sleb128 -40
 3411 0acf 94       		.byte	0x94
 3412 0ad0 02       		.byte	0x2
 3413 0ad1 00       		.byte	0
 3414 0ad2 00       		.byte	0
 3415 0ad3 22       		.uleb128 0x22
 3416 0ad4 54000000 		.4byte	.LVL31
 3417 0ad8 50150000 		.4byte	0x1550
 3418 0adc 19       		.uleb128 0x19
 3419 0add 86000000 		.4byte	.LVL34
 3420 0ae1 16150000 		.4byte	0x1516
 3421 0ae5 090B0000 		.4byte	0xb09
 3422 0ae9 1A       		.uleb128 0x1a
 3423 0aea 01       		.uleb128 0x1
 3424 0aeb 50       		.byte	0x50
 3425 0aec 04       		.uleb128 0x4
 3426 0aed 7D       		.byte	0x7d
 3427 0aee 0C       		.sleb128 12
 3428 0aef 94       		.byte	0x94
 3429 0af0 02       		.byte	0x2
 3430 0af1 1A       		.uleb128 0x1a
 3431 0af2 01       		.uleb128 0x1
 3432 0af3 52       		.byte	0x52
 3433 0af4 04       		.uleb128 0x4
 3434 0af5 7D       		.byte	0x7d
 3435 0af6 10       		.sleb128 16
 3436 0af7 94       		.byte	0x94
 3437 0af8 02       		.byte	0x2
 3438 0af9 1A       		.uleb128 0x1a
 3439 0afa 01       		.uleb128 0x1
 3440 0afb 53       		.byte	0x53
 3441 0afc 04       		.uleb128 0x4
 3442 0afd 7D       		.byte	0x7d
 3443 0afe 14       		.sleb128 20
 3444 0aff 94       		.byte	0x94
 3445 0b00 02       		.byte	0x2
 3446 0b01 1A       		.uleb128 0x1a
 3447 0b02 02       		.uleb128 0x2
 3448 0b03 7D       		.byte	0x7d
 3449 0b04 00       		.sleb128 0
 3450 0b05 02       		.uleb128 0x2
 3451 0b06 75       		.byte	0x75
 3452 0b07 00       		.sleb128 0
 3453 0b08 00       		.byte	0
 3454 0b09 22       		.uleb128 0x22
 3455 0b0a 3C010000 		.4byte	.LVL49
 3456 0b0e 50150000 		.4byte	0x1550
 3457 0b12 00       		.byte	0
 3458 0b13 16       		.uleb128 0x16
 3459 0b14 F3000000 		.4byte	0xf3
 3460 0b18 230B0000 		.4byte	0xb23
 3461 0b1c 17       		.uleb128 0x17
ARM GAS  C:\Users\leoja\AppData\Local\Temp\ccYOCOnJ.s 			page 77


 3462 0b1d 01010000 		.4byte	0x101
 3463 0b21 03       		.byte	0x3
 3464 0b22 00       		.byte	0
 3465 0b23 1C       		.uleb128 0x1c
 3466 0b24 97040000 		.4byte	.LASF112
 3467 0b28 01       		.byte	0x1
 3468 0b29 F1       		.byte	0xf1
 3469 0b2a 00000000 		.4byte	.LFB39
 3470 0b2e 0C010000 		.4byte	.LFE39-.LFB39
 3471 0b32 01       		.uleb128 0x1
 3472 0b33 9C       		.byte	0x9c
 3473 0b34 DE0C0000 		.4byte	0xcde
 3474 0b38 1D       		.uleb128 0x1d
 3475 0b39 F1020000 		.4byte	.LASF60
 3476 0b3d 01       		.byte	0x1
 3477 0b3e F1       		.byte	0xf1
 3478 0b3f AD000000 		.4byte	0xad
 3479 0b43 ED010000 		.4byte	.LLST11
 3480 0b47 1E       		.uleb128 0x1e
 3481 0b48 783100   		.ascii	"x1\000"
 3482 0b4b 01       		.byte	0x1
 3483 0b4c F1       		.byte	0xf1
 3484 0b4d C3000000 		.4byte	0xc3
 3485 0b51 0E020000 		.4byte	.LLST12
 3486 0b55 1E       		.uleb128 0x1e
 3487 0b56 793100   		.ascii	"y1\000"
 3488 0b59 01       		.byte	0x1
 3489 0b5a F1       		.byte	0xf1
 3490 0b5b C3000000 		.4byte	0xc3
 3491 0b5f 2F020000 		.4byte	.LLST13
 3492 0b63 1E       		.uleb128 0x1e
 3493 0b64 783200   		.ascii	"x2\000"
 3494 0b67 01       		.byte	0x1
 3495 0b68 F1       		.byte	0xf1
 3496 0b69 C3000000 		.4byte	0xc3
 3497 0b6d 50020000 		.4byte	.LLST14
 3498 0b71 1E       		.uleb128 0x1e
 3499 0b72 793200   		.ascii	"y2\000"
 3500 0b75 01       		.byte	0x1
 3501 0b76 F1       		.byte	0xf1
 3502 0b77 C3000000 		.4byte	0xc3
 3503 0b7b 71020000 		.4byte	.LLST15
 3504 0b7f 1D       		.uleb128 0x1d
 3505 0b80 5E030000 		.4byte	.LASF104
 3506 0b84 01       		.byte	0x1
 3507 0b85 F1       		.byte	0xf1
 3508 0b86 AD000000 		.4byte	0xad
 3509 0b8a 9D020000 		.4byte	.LLST16
 3510 0b8e 1F       		.uleb128 0x1f
 3511 0b8f 58040000 		.4byte	.LASF106
 3512 0b93 01       		.byte	0x1
 3513 0b94 F2       		.byte	0xf2
 3514 0b95 94000000 		.4byte	0x94
 3515 0b99 E1020000 		.4byte	.LLST17
 3516 0b9d 1F       		.uleb128 0x1f
 3517 0b9e CE020000 		.4byte	.LASF107
 3518 0ba2 01       		.byte	0x1
ARM GAS  C:\Users\leoja\AppData\Local\Temp\ccYOCOnJ.s 			page 78


 3519 0ba3 F2       		.byte	0xf2
 3520 0ba4 94000000 		.4byte	0x94
 3521 0ba8 00030000 		.4byte	.LLST18
 3522 0bac 1F       		.uleb128 0x1f
 3523 0bad AA040000 		.4byte	.LASF108
 3524 0bb1 01       		.byte	0x1
 3525 0bb2 F3       		.byte	0xf3
 3526 0bb3 94000000 		.4byte	0x94
 3527 0bb7 1F030000 		.4byte	.LLST19
 3528 0bbb 23       		.uleb128 0x23
 3529 0bbc C1050000 		.4byte	.LASF105
 3530 0bc0 01       		.byte	0x1
 3531 0bc1 F4       		.byte	0xf4
 3532 0bc2 94000000 		.4byte	0x94
 3533 0bc6 03       		.byte	0x3
 3534 0bc7 1F       		.uleb128 0x1f
 3535 0bc8 F7010000 		.4byte	.LASF109
 3536 0bcc 01       		.byte	0x1
 3537 0bcd FD       		.byte	0xfd
 3538 0bce 77030000 		.4byte	0x377
 3539 0bd2 6A030000 		.4byte	.LLST20
 3540 0bd6 24       		.uleb128 0x24
 3541 0bd7 08000000 		.4byte	.LASF110
 3542 0bdb 01       		.byte	0x1
 3543 0bdc 1401     		.2byte	0x114
 3544 0bde 130B0000 		.4byte	0xb13
 3545 0be2 02       		.uleb128 0x2
 3546 0be3 91       		.byte	0x91
 3547 0be4 64       		.sleb128 -28
 3548 0be5 22       		.uleb128 0x22
 3549 0be6 4C000000 		.4byte	.LVL63
 3550 0bea 50150000 		.4byte	0x1550
 3551 0bee 19       		.uleb128 0x19
 3552 0bef 86000000 		.4byte	.LVL65
 3553 0bf3 16150000 		.4byte	0x1516
 3554 0bf7 1C0C0000 		.4byte	0xc1c
 3555 0bfb 1A       		.uleb128 0x1a
 3556 0bfc 01       		.uleb128 0x1
 3557 0bfd 50       		.byte	0x50
 3558 0bfe 02       		.uleb128 0x2
 3559 0bff 75       		.byte	0x75
 3560 0c00 00       		.sleb128 0
 3561 0c01 1A       		.uleb128 0x1a
 3562 0c02 01       		.uleb128 0x1
 3563 0c03 51       		.byte	0x51
 3564 0c04 02       		.uleb128 0x2
 3565 0c05 76       		.byte	0x76
 3566 0c06 00       		.sleb128 0
 3567 0c07 1A       		.uleb128 0x1a
 3568 0c08 01       		.uleb128 0x1
 3569 0c09 52       		.byte	0x52
 3570 0c0a 02       		.uleb128 0x2
 3571 0c0b 77       		.byte	0x77
 3572 0c0c 00       		.sleb128 0
 3573 0c0d 1A       		.uleb128 0x1a
 3574 0c0e 01       		.uleb128 0x1
 3575 0c0f 53       		.byte	0x53
ARM GAS  C:\Users\leoja\AppData\Local\Temp\ccYOCOnJ.s 			page 79


 3576 0c10 04       		.uleb128 0x4
 3577 0c11 91       		.byte	0x91
 3578 0c12 54       		.sleb128 -44
 3579 0c13 94       		.byte	0x94
 3580 0c14 02       		.byte	0x2
 3581 0c15 1A       		.uleb128 0x1a
 3582 0c16 02       		.uleb128 0x2
 3583 0c17 7D       		.byte	0x7d
 3584 0c18 00       		.sleb128 0
 3585 0c19 01       		.uleb128 0x1
 3586 0c1a 30       		.byte	0x30
 3587 0c1b 00       		.byte	0
 3588 0c1c 19       		.uleb128 0x19
 3589 0c1d 94000000 		.4byte	.LVL66
 3590 0c21 16150000 		.4byte	0x1516
 3591 0c25 4B0C0000 		.4byte	0xc4b
 3592 0c29 1A       		.uleb128 0x1a
 3593 0c2a 01       		.uleb128 0x1
 3594 0c2b 50       		.byte	0x50
 3595 0c2c 02       		.uleb128 0x2
 3596 0c2d 75       		.byte	0x75
 3597 0c2e 00       		.sleb128 0
 3598 0c2f 1A       		.uleb128 0x1a
 3599 0c30 01       		.uleb128 0x1
 3600 0c31 51       		.byte	0x51
 3601 0c32 02       		.uleb128 0x2
 3602 0c33 76       		.byte	0x76
 3603 0c34 00       		.sleb128 0
 3604 0c35 1A       		.uleb128 0x1a
 3605 0c36 01       		.uleb128 0x1
 3606 0c37 52       		.byte	0x52
 3607 0c38 02       		.uleb128 0x2
 3608 0c39 77       		.byte	0x77
 3609 0c3a 00       		.sleb128 0
 3610 0c3b 1A       		.uleb128 0x1a
 3611 0c3c 01       		.uleb128 0x1
 3612 0c3d 53       		.byte	0x53
 3613 0c3e 04       		.uleb128 0x4
 3614 0c3f 91       		.byte	0x91
 3615 0c40 54       		.sleb128 -44
 3616 0c41 94       		.byte	0x94
 3617 0c42 02       		.byte	0x2
 3618 0c43 1A       		.uleb128 0x1a
 3619 0c44 02       		.uleb128 0x2
 3620 0c45 7D       		.byte	0x7d
 3621 0c46 00       		.sleb128 0
 3622 0c47 02       		.uleb128 0x2
 3623 0c48 74       		.byte	0x74
 3624 0c49 00       		.sleb128 0
 3625 0c4a 00       		.byte	0
 3626 0c4b 19       		.uleb128 0x19
 3627 0c4c C8000000 		.4byte	.LVL69
 3628 0c50 16150000 		.4byte	0x1516
 3629 0c54 800C0000 		.4byte	0xc80
 3630 0c58 1A       		.uleb128 0x1a
 3631 0c59 01       		.uleb128 0x1
 3632 0c5a 50       		.byte	0x50
ARM GAS  C:\Users\leoja\AppData\Local\Temp\ccYOCOnJ.s 			page 80


 3633 0c5b 04       		.uleb128 0x4
 3634 0c5c 7D       		.byte	0x7d
 3635 0c5d 0C       		.sleb128 12
 3636 0c5e 94       		.byte	0x94
 3637 0c5f 02       		.byte	0x2
 3638 0c60 1A       		.uleb128 0x1a
 3639 0c61 01       		.uleb128 0x1
 3640 0c62 51       		.byte	0x51
 3641 0c63 04       		.uleb128 0x4
 3642 0c64 7D       		.byte	0x7d
 3643 0c65 10       		.sleb128 16
 3644 0c66 94       		.byte	0x94
 3645 0c67 02       		.byte	0x2
 3646 0c68 1A       		.uleb128 0x1a
 3647 0c69 01       		.uleb128 0x1
 3648 0c6a 52       		.byte	0x52
 3649 0c6b 04       		.uleb128 0x4
 3650 0c6c 7D       		.byte	0x7d
 3651 0c6d 14       		.sleb128 20
 3652 0c6e 94       		.byte	0x94
 3653 0c6f 02       		.byte	0x2
 3654 0c70 1A       		.uleb128 0x1a
 3655 0c71 01       		.uleb128 0x1
 3656 0c72 53       		.byte	0x53
 3657 0c73 04       		.uleb128 0x4
 3658 0c74 7D       		.byte	0x7d
 3659 0c75 18       		.sleb128 24
 3660 0c76 94       		.byte	0x94
 3661 0c77 02       		.byte	0x2
 3662 0c78 1A       		.uleb128 0x1a
 3663 0c79 02       		.uleb128 0x2
 3664 0c7a 7D       		.byte	0x7d
 3665 0c7b 00       		.sleb128 0
 3666 0c7c 02       		.uleb128 0x2
 3667 0c7d 74       		.byte	0x74
 3668 0c7e 00       		.sleb128 0
 3669 0c7f 00       		.byte	0
 3670 0c80 19       		.uleb128 0x19
 3671 0c81 D4000000 		.4byte	.LVL70
 3672 0c85 39150000 		.4byte	0x1539
 3673 0c89 A40C0000 		.4byte	0xca4
 3674 0c8d 1A       		.uleb128 0x1a
 3675 0c8e 01       		.uleb128 0x1
 3676 0c8f 50       		.byte	0x50
 3677 0c90 02       		.uleb128 0x2
 3678 0c91 91       		.byte	0x91
 3679 0c92 64       		.sleb128 -28
 3680 0c93 1A       		.uleb128 0x1a
 3681 0c94 01       		.uleb128 0x1
 3682 0c95 51       		.byte	0x51
 3683 0c96 05       		.uleb128 0x5
 3684 0c97 03       		.byte	0x3
 3685 0c98 39000000 		.4byte	.LC25
 3686 0c9c 1A       		.uleb128 0x1a
 3687 0c9d 01       		.uleb128 0x1
 3688 0c9e 52       		.byte	0x52
 3689 0c9f 03       		.uleb128 0x3
ARM GAS  C:\Users\leoja\AppData\Local\Temp\ccYOCOnJ.s 			page 81


 3690 0ca0 91       		.byte	0x91
 3691 0ca1 40       		.sleb128 -64
 3692 0ca2 06       		.byte	0x6
 3693 0ca3 00       		.byte	0
 3694 0ca4 19       		.uleb128 0x19
 3695 0ca5 EA000000 		.4byte	.LVL71
 3696 0ca9 44150000 		.4byte	0x1544
 3697 0cad D40C0000 		.4byte	0xcd4
 3698 0cb1 1A       		.uleb128 0x1a
 3699 0cb2 01       		.uleb128 0x1
 3700 0cb3 50       		.byte	0x50
 3701 0cb4 04       		.uleb128 0x4
 3702 0cb5 7D       		.byte	0x7d
 3703 0cb6 20       		.sleb128 32
 3704 0cb7 94       		.byte	0x94
 3705 0cb8 02       		.byte	0x2
 3706 0cb9 1A       		.uleb128 0x1a
 3707 0cba 01       		.uleb128 0x1
 3708 0cbb 51       		.byte	0x51
 3709 0cbc 04       		.uleb128 0x4
 3710 0cbd 7D       		.byte	0x7d
 3711 0cbe 24       		.sleb128 36
 3712 0cbf 94       		.byte	0x94
 3713 0cc0 02       		.byte	0x2
 3714 0cc1 1A       		.uleb128 0x1a
 3715 0cc2 01       		.uleb128 0x1
 3716 0cc3 52       		.byte	0x52
 3717 0cc4 02       		.uleb128 0x2
 3718 0cc5 91       		.byte	0x91
 3719 0cc6 64       		.sleb128 -28
 3720 0cc7 1A       		.uleb128 0x1a
 3721 0cc8 01       		.uleb128 0x1
 3722 0cc9 53       		.byte	0x53
 3723 0cca 01       		.uleb128 0x1
 3724 0ccb 30       		.byte	0x30
 3725 0ccc 1A       		.uleb128 0x1a
 3726 0ccd 02       		.uleb128 0x2
 3727 0cce 7D       		.byte	0x7d
 3728 0ccf 00       		.sleb128 0
 3729 0cd0 02       		.uleb128 0x2
 3730 0cd1 74       		.byte	0x74
 3731 0cd2 00       		.sleb128 0
 3732 0cd3 00       		.byte	0
 3733 0cd4 22       		.uleb128 0x22
 3734 0cd5 F0000000 		.4byte	.LVL72
 3735 0cd9 50150000 		.4byte	0x1550
 3736 0cdd 00       		.byte	0
 3737 0cde 25       		.uleb128 0x25
 3738 0cdf 74020000 		.4byte	.LASF113
 3739 0ce3 01       		.byte	0x1
 3740 0ce4 8F01     		.2byte	0x18f
 3741 0ce6 00000000 		.4byte	.LFB40
 3742 0cea B8020000 		.4byte	.LFE40-.LFB40
 3743 0cee 01       		.uleb128 0x1
 3744 0cef 9C       		.byte	0x9c
 3745 0cf0 730F0000 		.4byte	0xf73
 3746 0cf4 26       		.uleb128 0x26
ARM GAS  C:\Users\leoja\AppData\Local\Temp\ccYOCOnJ.s 			page 82


 3747 0cf5 B2050000 		.4byte	.LASF53
 3748 0cf9 01       		.byte	0x1
 3749 0cfa 8F01     		.2byte	0x18f
 3750 0cfc AD000000 		.4byte	0xad
 3751 0d00 8C030000 		.4byte	.LLST21
 3752 0d04 27       		.uleb128 0x27
 3753 0d05 783100   		.ascii	"x1\000"
 3754 0d08 01       		.byte	0x1
 3755 0d09 8F01     		.2byte	0x18f
 3756 0d0b C3000000 		.4byte	0xc3
 3757 0d0f AD030000 		.4byte	.LLST22
 3758 0d13 27       		.uleb128 0x27
 3759 0d14 793100   		.ascii	"y1\000"
 3760 0d17 01       		.byte	0x1
 3761 0d18 8F01     		.2byte	0x18f
 3762 0d1a C3000000 		.4byte	0xc3
 3763 0d1e CE030000 		.4byte	.LLST23
 3764 0d22 27       		.uleb128 0x27
 3765 0d23 783200   		.ascii	"x2\000"
 3766 0d26 01       		.byte	0x1
 3767 0d27 8F01     		.2byte	0x18f
 3768 0d29 C3000000 		.4byte	0xc3
 3769 0d2d EF030000 		.4byte	.LLST24
 3770 0d31 27       		.uleb128 0x27
 3771 0d32 793200   		.ascii	"y2\000"
 3772 0d35 01       		.byte	0x1
 3773 0d36 8F01     		.2byte	0x18f
 3774 0d38 C3000000 		.4byte	0xc3
 3775 0d3c 10040000 		.4byte	.LLST25
 3776 0d40 26       		.uleb128 0x26
 3777 0d41 5E030000 		.4byte	.LASF104
 3778 0d45 01       		.byte	0x1
 3779 0d46 8F01     		.2byte	0x18f
 3780 0d48 AD000000 		.4byte	0xad
 3781 0d4c 3C040000 		.4byte	.LLST26
 3782 0d50 28       		.uleb128 0x28
 3783 0d51 58040000 		.4byte	.LASF106
 3784 0d55 01       		.byte	0x1
 3785 0d56 9001     		.2byte	0x190
 3786 0d58 94000000 		.4byte	0x94
 3787 0d5c 74040000 		.4byte	.LLST27
 3788 0d60 28       		.uleb128 0x28
 3789 0d61 CE020000 		.4byte	.LASF107
 3790 0d65 01       		.byte	0x1
 3791 0d66 9001     		.2byte	0x190
 3792 0d68 94000000 		.4byte	0x94
 3793 0d6c 93040000 		.4byte	.LLST28
 3794 0d70 28       		.uleb128 0x28
 3795 0d71 AA040000 		.4byte	.LASF108
 3796 0d75 01       		.byte	0x1
 3797 0d76 9101     		.2byte	0x191
 3798 0d78 94000000 		.4byte	0x94
 3799 0d7c B2040000 		.4byte	.LLST29
 3800 0d80 29       		.uleb128 0x29
 3801 0d81 C1050000 		.4byte	.LASF105
 3802 0d85 01       		.byte	0x1
 3803 0d86 9201     		.2byte	0x192
ARM GAS  C:\Users\leoja\AppData\Local\Temp\ccYOCOnJ.s 			page 83


 3804 0d88 94000000 		.4byte	0x94
 3805 0d8c 0A       		.byte	0xa
 3806 0d8d 28       		.uleb128 0x28
 3807 0d8e F7010000 		.4byte	.LASF109
 3808 0d92 01       		.byte	0x1
 3809 0d93 9A01     		.2byte	0x19a
 3810 0d95 77030000 		.4byte	0x377
 3811 0d99 FD040000 		.4byte	.LLST30
 3812 0d9d 20       		.uleb128 0x20
 3813 0d9e 50000000 		.4byte	.LBB3
 3814 0da2 BE010000 		.4byte	.LBE3-.LBB3
 3815 0da6 1F0F0000 		.4byte	0xf1f
 3816 0daa 28       		.uleb128 0x28
 3817 0dab 57060000 		.4byte	.LASF114
 3818 0daf 01       		.byte	0x1
 3819 0db0 9E01     		.2byte	0x19e
 3820 0db2 D9000000 		.4byte	0xd9
 3821 0db6 51050000 		.4byte	.LLST31
 3822 0dba 19       		.uleb128 0x19
 3823 0dbb 9A000000 		.4byte	.LVL90
 3824 0dbf 16150000 		.4byte	0x1516
 3825 0dc3 E70D0000 		.4byte	0xde7
 3826 0dc7 1A       		.uleb128 0x1a
 3827 0dc8 01       		.uleb128 0x1
 3828 0dc9 50       		.byte	0x50
 3829 0dca 04       		.uleb128 0x4
 3830 0dcb 7D       		.byte	0x7d
 3831 0dcc 0C       		.sleb128 12
 3832 0dcd 94       		.byte	0x94
 3833 0dce 02       		.byte	0x2
 3834 0dcf 1A       		.uleb128 0x1a
 3835 0dd0 01       		.uleb128 0x1
 3836 0dd1 51       		.byte	0x51
 3837 0dd2 04       		.uleb128 0x4
 3838 0dd3 7D       		.byte	0x7d
 3839 0dd4 10       		.sleb128 16
 3840 0dd5 94       		.byte	0x94
 3841 0dd6 02       		.byte	0x2
 3842 0dd7 1A       		.uleb128 0x1a
 3843 0dd8 01       		.uleb128 0x1
 3844 0dd9 52       		.byte	0x52
 3845 0dda 04       		.uleb128 0x4
 3846 0ddb 7D       		.byte	0x7d
 3847 0ddc 14       		.sleb128 20
 3848 0ddd 94       		.byte	0x94
 3849 0dde 02       		.byte	0x2
 3850 0ddf 1A       		.uleb128 0x1a
 3851 0de0 02       		.uleb128 0x2
 3852 0de1 7D       		.byte	0x7d
 3853 0de2 00       		.sleb128 0
 3854 0de3 02       		.uleb128 0x2
 3855 0de4 74       		.byte	0x74
 3856 0de5 00       		.sleb128 0
 3857 0de6 00       		.byte	0
 3858 0de7 19       		.uleb128 0x19
 3859 0de8 CC000000 		.4byte	.LVL92
 3860 0dec 16150000 		.4byte	0x1516
ARM GAS  C:\Users\leoja\AppData\Local\Temp\ccYOCOnJ.s 			page 84


 3861 0df0 140E0000 		.4byte	0xe14
 3862 0df4 1A       		.uleb128 0x1a
 3863 0df5 01       		.uleb128 0x1
 3864 0df6 50       		.byte	0x50
 3865 0df7 04       		.uleb128 0x4
 3866 0df8 7D       		.byte	0x7d
 3867 0df9 0C       		.sleb128 12
 3868 0dfa 94       		.byte	0x94
 3869 0dfb 02       		.byte	0x2
 3870 0dfc 1A       		.uleb128 0x1a
 3871 0dfd 01       		.uleb128 0x1
 3872 0dfe 51       		.byte	0x51
 3873 0dff 04       		.uleb128 0x4
 3874 0e00 7D       		.byte	0x7d
 3875 0e01 10       		.sleb128 16
 3876 0e02 94       		.byte	0x94
 3877 0e03 02       		.byte	0x2
 3878 0e04 1A       		.uleb128 0x1a
 3879 0e05 01       		.uleb128 0x1
 3880 0e06 52       		.byte	0x52
 3881 0e07 04       		.uleb128 0x4
 3882 0e08 7D       		.byte	0x7d
 3883 0e09 14       		.sleb128 20
 3884 0e0a 94       		.byte	0x94
 3885 0e0b 02       		.byte	0x2
 3886 0e0c 1A       		.uleb128 0x1a
 3887 0e0d 02       		.uleb128 0x2
 3888 0e0e 7D       		.byte	0x7d
 3889 0e0f 00       		.sleb128 0
 3890 0e10 02       		.uleb128 0x2
 3891 0e11 74       		.byte	0x74
 3892 0e12 00       		.sleb128 0
 3893 0e13 00       		.byte	0
 3894 0e14 19       		.uleb128 0x19
 3895 0e15 00010000 		.4byte	.LVL94
 3896 0e19 16150000 		.4byte	0x1516
 3897 0e1d 410E0000 		.4byte	0xe41
 3898 0e21 1A       		.uleb128 0x1a
 3899 0e22 01       		.uleb128 0x1
 3900 0e23 50       		.byte	0x50
 3901 0e24 04       		.uleb128 0x4
 3902 0e25 7D       		.byte	0x7d
 3903 0e26 0C       		.sleb128 12
 3904 0e27 94       		.byte	0x94
 3905 0e28 02       		.byte	0x2
 3906 0e29 1A       		.uleb128 0x1a
 3907 0e2a 01       		.uleb128 0x1
 3908 0e2b 51       		.byte	0x51
 3909 0e2c 04       		.uleb128 0x4
 3910 0e2d 7D       		.byte	0x7d
 3911 0e2e 10       		.sleb128 16
 3912 0e2f 94       		.byte	0x94
 3913 0e30 02       		.byte	0x2
 3914 0e31 1A       		.uleb128 0x1a
 3915 0e32 01       		.uleb128 0x1
 3916 0e33 52       		.byte	0x52
 3917 0e34 04       		.uleb128 0x4
ARM GAS  C:\Users\leoja\AppData\Local\Temp\ccYOCOnJ.s 			page 85


 3918 0e35 7D       		.byte	0x7d
 3919 0e36 14       		.sleb128 20
 3920 0e37 94       		.byte	0x94
 3921 0e38 02       		.byte	0x2
 3922 0e39 1A       		.uleb128 0x1a
 3923 0e3a 02       		.uleb128 0x2
 3924 0e3b 7D       		.byte	0x7d
 3925 0e3c 00       		.sleb128 0
 3926 0e3d 02       		.uleb128 0x2
 3927 0e3e 74       		.byte	0x74
 3928 0e3f 00       		.sleb128 0
 3929 0e40 00       		.byte	0
 3930 0e41 19       		.uleb128 0x19
 3931 0e42 34010000 		.4byte	.LVL96
 3932 0e46 16150000 		.4byte	0x1516
 3933 0e4a 6E0E0000 		.4byte	0xe6e
 3934 0e4e 1A       		.uleb128 0x1a
 3935 0e4f 01       		.uleb128 0x1
 3936 0e50 50       		.byte	0x50
 3937 0e51 04       		.uleb128 0x4
 3938 0e52 7D       		.byte	0x7d
 3939 0e53 0C       		.sleb128 12
 3940 0e54 94       		.byte	0x94
 3941 0e55 02       		.byte	0x2
 3942 0e56 1A       		.uleb128 0x1a
 3943 0e57 01       		.uleb128 0x1
 3944 0e58 51       		.byte	0x51
 3945 0e59 04       		.uleb128 0x4
 3946 0e5a 7D       		.byte	0x7d
 3947 0e5b 10       		.sleb128 16
 3948 0e5c 94       		.byte	0x94
 3949 0e5d 02       		.byte	0x2
 3950 0e5e 1A       		.uleb128 0x1a
 3951 0e5f 01       		.uleb128 0x1
 3952 0e60 52       		.byte	0x52
 3953 0e61 04       		.uleb128 0x4
 3954 0e62 7D       		.byte	0x7d
 3955 0e63 14       		.sleb128 20
 3956 0e64 94       		.byte	0x94
 3957 0e65 02       		.byte	0x2
 3958 0e66 1A       		.uleb128 0x1a
 3959 0e67 02       		.uleb128 0x2
 3960 0e68 7D       		.byte	0x7d
 3961 0e69 00       		.sleb128 0
 3962 0e6a 02       		.uleb128 0x2
 3963 0e6b 74       		.byte	0x74
 3964 0e6c 00       		.sleb128 0
 3965 0e6d 00       		.byte	0
 3966 0e6e 19       		.uleb128 0x19
 3967 0e6f 68010000 		.4byte	.LVL98
 3968 0e73 16150000 		.4byte	0x1516
 3969 0e77 9B0E0000 		.4byte	0xe9b
 3970 0e7b 1A       		.uleb128 0x1a
 3971 0e7c 01       		.uleb128 0x1
 3972 0e7d 50       		.byte	0x50
 3973 0e7e 04       		.uleb128 0x4
 3974 0e7f 7D       		.byte	0x7d
ARM GAS  C:\Users\leoja\AppData\Local\Temp\ccYOCOnJ.s 			page 86


 3975 0e80 0C       		.sleb128 12
 3976 0e81 94       		.byte	0x94
 3977 0e82 02       		.byte	0x2
 3978 0e83 1A       		.uleb128 0x1a
 3979 0e84 01       		.uleb128 0x1
 3980 0e85 51       		.byte	0x51
 3981 0e86 04       		.uleb128 0x4
 3982 0e87 7D       		.byte	0x7d
 3983 0e88 10       		.sleb128 16
 3984 0e89 94       		.byte	0x94
 3985 0e8a 02       		.byte	0x2
 3986 0e8b 1A       		.uleb128 0x1a
 3987 0e8c 01       		.uleb128 0x1
 3988 0e8d 52       		.byte	0x52
 3989 0e8e 04       		.uleb128 0x4
 3990 0e8f 7D       		.byte	0x7d
 3991 0e90 14       		.sleb128 20
 3992 0e91 94       		.byte	0x94
 3993 0e92 02       		.byte	0x2
 3994 0e93 1A       		.uleb128 0x1a
 3995 0e94 02       		.uleb128 0x2
 3996 0e95 7D       		.byte	0x7d
 3997 0e96 00       		.sleb128 0
 3998 0e97 02       		.uleb128 0x2
 3999 0e98 74       		.byte	0x74
 4000 0e99 00       		.sleb128 0
 4001 0e9a 00       		.byte	0
 4002 0e9b 19       		.uleb128 0x19
 4003 0e9c 9C010000 		.4byte	.LVL100
 4004 0ea0 16150000 		.4byte	0x1516
 4005 0ea4 C80E0000 		.4byte	0xec8
 4006 0ea8 1A       		.uleb128 0x1a
 4007 0ea9 01       		.uleb128 0x1
 4008 0eaa 50       		.byte	0x50
 4009 0eab 04       		.uleb128 0x4
 4010 0eac 7D       		.byte	0x7d
 4011 0ead 0C       		.sleb128 12
 4012 0eae 94       		.byte	0x94
 4013 0eaf 02       		.byte	0x2
 4014 0eb0 1A       		.uleb128 0x1a
 4015 0eb1 01       		.uleb128 0x1
 4016 0eb2 51       		.byte	0x51
 4017 0eb3 04       		.uleb128 0x4
 4018 0eb4 7D       		.byte	0x7d
 4019 0eb5 10       		.sleb128 16
 4020 0eb6 94       		.byte	0x94
 4021 0eb7 02       		.byte	0x2
 4022 0eb8 1A       		.uleb128 0x1a
 4023 0eb9 01       		.uleb128 0x1
 4024 0eba 52       		.byte	0x52
 4025 0ebb 04       		.uleb128 0x4
 4026 0ebc 7D       		.byte	0x7d
 4027 0ebd 14       		.sleb128 20
 4028 0ebe 94       		.byte	0x94
 4029 0ebf 02       		.byte	0x2
 4030 0ec0 1A       		.uleb128 0x1a
 4031 0ec1 02       		.uleb128 0x2
ARM GAS  C:\Users\leoja\AppData\Local\Temp\ccYOCOnJ.s 			page 87


 4032 0ec2 7D       		.byte	0x7d
 4033 0ec3 00       		.sleb128 0
 4034 0ec4 02       		.uleb128 0x2
 4035 0ec5 74       		.byte	0x74
 4036 0ec6 00       		.sleb128 0
 4037 0ec7 00       		.byte	0
 4038 0ec8 19       		.uleb128 0x19
 4039 0ec9 CC010000 		.4byte	.LVL102
 4040 0ecd 16150000 		.4byte	0x1516
 4041 0ed1 F50E0000 		.4byte	0xef5
 4042 0ed5 1A       		.uleb128 0x1a
 4043 0ed6 01       		.uleb128 0x1
 4044 0ed7 50       		.byte	0x50
 4045 0ed8 04       		.uleb128 0x4
 4046 0ed9 7D       		.byte	0x7d
 4047 0eda 0C       		.sleb128 12
 4048 0edb 94       		.byte	0x94
 4049 0edc 02       		.byte	0x2
 4050 0edd 1A       		.uleb128 0x1a
 4051 0ede 01       		.uleb128 0x1
 4052 0edf 51       		.byte	0x51
 4053 0ee0 04       		.uleb128 0x4
 4054 0ee1 7D       		.byte	0x7d
 4055 0ee2 10       		.sleb128 16
 4056 0ee3 94       		.byte	0x94
 4057 0ee4 02       		.byte	0x2
 4058 0ee5 1A       		.uleb128 0x1a
 4059 0ee6 01       		.uleb128 0x1
 4060 0ee7 52       		.byte	0x52
 4061 0ee8 04       		.uleb128 0x4
 4062 0ee9 7D       		.byte	0x7d
 4063 0eea 14       		.sleb128 20
 4064 0eeb 94       		.byte	0x94
 4065 0eec 02       		.byte	0x2
 4066 0eed 1A       		.uleb128 0x1a
 4067 0eee 02       		.uleb128 0x2
 4068 0eef 7D       		.byte	0x7d
 4069 0ef0 00       		.sleb128 0
 4070 0ef1 02       		.uleb128 0x2
 4071 0ef2 74       		.byte	0x74
 4072 0ef3 00       		.sleb128 0
 4073 0ef4 00       		.byte	0
 4074 0ef5 1B       		.uleb128 0x1b
 4075 0ef6 FE010000 		.4byte	.LVL104
 4076 0efa 16150000 		.4byte	0x1516
 4077 0efe 1A       		.uleb128 0x1a
 4078 0eff 01       		.uleb128 0x1
 4079 0f00 50       		.byte	0x50
 4080 0f01 04       		.uleb128 0x4
 4081 0f02 7D       		.byte	0x7d
 4082 0f03 0C       		.sleb128 12
 4083 0f04 94       		.byte	0x94
 4084 0f05 02       		.byte	0x2
 4085 0f06 1A       		.uleb128 0x1a
 4086 0f07 01       		.uleb128 0x1
 4087 0f08 51       		.byte	0x51
 4088 0f09 04       		.uleb128 0x4
ARM GAS  C:\Users\leoja\AppData\Local\Temp\ccYOCOnJ.s 			page 88


 4089 0f0a 7D       		.byte	0x7d
 4090 0f0b 10       		.sleb128 16
 4091 0f0c 94       		.byte	0x94
 4092 0f0d 02       		.byte	0x2
 4093 0f0e 1A       		.uleb128 0x1a
 4094 0f0f 01       		.uleb128 0x1
 4095 0f10 52       		.byte	0x52
 4096 0f11 04       		.uleb128 0x4
 4097 0f12 7D       		.byte	0x7d
 4098 0f13 14       		.sleb128 20
 4099 0f14 94       		.byte	0x94
 4100 0f15 02       		.byte	0x2
 4101 0f16 1A       		.uleb128 0x1a
 4102 0f17 02       		.uleb128 0x2
 4103 0f18 7D       		.byte	0x7d
 4104 0f19 00       		.sleb128 0
 4105 0f1a 02       		.uleb128 0x2
 4106 0f1b 74       		.byte	0x74
 4107 0f1c 00       		.sleb128 0
 4108 0f1d 00       		.byte	0
 4109 0f1e 00       		.byte	0
 4110 0f1f 22       		.uleb128 0x22
 4111 0f20 48000000 		.4byte	.LVL86
 4112 0f24 50150000 		.4byte	0x1550
 4113 0f28 19       		.uleb128 0x19
 4114 0f29 34020000 		.4byte	.LVL107
 4115 0f2d 16150000 		.4byte	0x1516
 4116 0f31 550F0000 		.4byte	0xf55
 4117 0f35 1A       		.uleb128 0x1a
 4118 0f36 01       		.uleb128 0x1
 4119 0f37 50       		.byte	0x50
 4120 0f38 04       		.uleb128 0x4
 4121 0f39 7D       		.byte	0x7d
 4122 0f3a 0C       		.sleb128 12
 4123 0f3b 94       		.byte	0x94
 4124 0f3c 02       		.byte	0x2
 4125 0f3d 1A       		.uleb128 0x1a
 4126 0f3e 01       		.uleb128 0x1
 4127 0f3f 51       		.byte	0x51
 4128 0f40 04       		.uleb128 0x4
 4129 0f41 7D       		.byte	0x7d
 4130 0f42 10       		.sleb128 16
 4131 0f43 94       		.byte	0x94
 4132 0f44 02       		.byte	0x2
 4133 0f45 1A       		.uleb128 0x1a
 4134 0f46 01       		.uleb128 0x1
 4135 0f47 52       		.byte	0x52
 4136 0f48 04       		.uleb128 0x4
 4137 0f49 7D       		.byte	0x7d
 4138 0f4a 14       		.sleb128 20
 4139 0f4b 94       		.byte	0x94
 4140 0f4c 02       		.byte	0x2
 4141 0f4d 1A       		.uleb128 0x1a
 4142 0f4e 02       		.uleb128 0x2
 4143 0f4f 7D       		.byte	0x7d
 4144 0f50 00       		.sleb128 0
 4145 0f51 02       		.uleb128 0x2
ARM GAS  C:\Users\leoja\AppData\Local\Temp\ccYOCOnJ.s 			page 89


 4146 0f52 77       		.byte	0x77
 4147 0f53 00       		.sleb128 0
 4148 0f54 00       		.byte	0
 4149 0f55 19       		.uleb128 0x19
 4150 0f56 6C020000 		.4byte	.LVL109
 4151 0f5a 44150000 		.4byte	0x1544
 4152 0f5e 690F0000 		.4byte	0xf69
 4153 0f62 1A       		.uleb128 0x1a
 4154 0f63 01       		.uleb128 0x1
 4155 0f64 50       		.byte	0x50
 4156 0f65 02       		.uleb128 0x2
 4157 0f66 76       		.byte	0x76
 4158 0f67 00       		.sleb128 0
 4159 0f68 00       		.byte	0
 4160 0f69 22       		.uleb128 0x22
 4161 0f6a 72020000 		.4byte	.LVL110
 4162 0f6e 50150000 		.4byte	0x1550
 4163 0f72 00       		.byte	0
 4164 0f73 2A       		.uleb128 0x2a
 4165 0f74 69020000 		.4byte	.LASF115
 4166 0f78 01       		.byte	0x1
 4167 0f79 3302     		.2byte	0x233
 4168 0f7b 00000000 		.4byte	.LFB41
 4169 0f7f 24010000 		.4byte	.LFE41-.LFB41
 4170 0f83 01       		.uleb128 0x1
 4171 0f84 9C       		.byte	0x9c
 4172 0f85 DA100000 		.4byte	0x10da
 4173 0f89 26       		.uleb128 0x26
 4174 0f8a F1020000 		.4byte	.LASF60
 4175 0f8e 01       		.byte	0x1
 4176 0f8f 3302     		.2byte	0x233
 4177 0f91 CE000000 		.4byte	0xce
 4178 0f95 69050000 		.4byte	.LLST32
 4179 0f99 27       		.uleb128 0x27
 4180 0f9a 783100   		.ascii	"x1\000"
 4181 0f9d 01       		.byte	0x1
 4182 0f9e 3302     		.2byte	0x233
 4183 0fa0 C3000000 		.4byte	0xc3
 4184 0fa4 D1050000 		.4byte	.LLST33
 4185 0fa8 27       		.uleb128 0x27
 4186 0fa9 793100   		.ascii	"y1\000"
 4187 0fac 01       		.byte	0x1
 4188 0fad 3302     		.2byte	0x233
 4189 0faf C3000000 		.4byte	0xc3
 4190 0fb3 F2050000 		.4byte	.LLST34
 4191 0fb7 27       		.uleb128 0x27
 4192 0fb8 783200   		.ascii	"x2\000"
 4193 0fbb 01       		.byte	0x1
 4194 0fbc 3302     		.2byte	0x233
 4195 0fbe C3000000 		.4byte	0xc3
 4196 0fc2 13060000 		.4byte	.LLST35
 4197 0fc6 27       		.uleb128 0x27
 4198 0fc7 793200   		.ascii	"y2\000"
 4199 0fca 01       		.byte	0x1
 4200 0fcb 3302     		.2byte	0x233
 4201 0fcd C3000000 		.4byte	0xc3
 4202 0fd1 34060000 		.4byte	.LLST36
ARM GAS  C:\Users\leoja\AppData\Local\Temp\ccYOCOnJ.s 			page 90


 4203 0fd5 26       		.uleb128 0x26
 4204 0fd6 5E030000 		.4byte	.LASF104
 4205 0fda 01       		.byte	0x1
 4206 0fdb 3302     		.2byte	0x233
 4207 0fdd AD000000 		.4byte	0xad
 4208 0fe1 60060000 		.4byte	.LLST37
 4209 0fe5 28       		.uleb128 0x28
 4210 0fe6 58040000 		.4byte	.LASF106
 4211 0fea 01       		.byte	0x1
 4212 0feb 3402     		.2byte	0x234
 4213 0fed 94000000 		.4byte	0x94
 4214 0ff1 A4060000 		.4byte	.LLST38
 4215 0ff5 28       		.uleb128 0x28
 4216 0ff6 CE020000 		.4byte	.LASF107
 4217 0ffa 01       		.byte	0x1
 4218 0ffb 3402     		.2byte	0x234
 4219 0ffd 94000000 		.4byte	0x94
 4220 1001 C3060000 		.4byte	.LLST39
 4221 1005 28       		.uleb128 0x28
 4222 1006 AA040000 		.4byte	.LASF108
 4223 100a 01       		.byte	0x1
 4224 100b 3502     		.2byte	0x235
 4225 100d 94000000 		.4byte	0x94
 4226 1011 E2060000 		.4byte	.LLST40
 4227 1015 29       		.uleb128 0x29
 4228 1016 C1050000 		.4byte	.LASF105
 4229 101a 01       		.byte	0x1
 4230 101b 3602     		.2byte	0x236
 4231 101d 94000000 		.4byte	0x94
 4232 1021 06       		.byte	0x6
 4233 1022 28       		.uleb128 0x28
 4234 1023 F7010000 		.4byte	.LASF109
 4235 1027 01       		.byte	0x1
 4236 1028 4402     		.2byte	0x244
 4237 102a 77030000 		.4byte	0x377
 4238 102e 2D070000 		.4byte	.LLST41
 4239 1032 24       		.uleb128 0x24
 4240 1033 08000000 		.4byte	.LASF110
 4241 1037 01       		.byte	0x1
 4242 1038 5302     		.2byte	0x253
 4243 103a DA100000 		.4byte	0x10da
 4244 103e 02       		.uleb128 0x2
 4245 103f 91       		.byte	0x91
 4246 1040 60       		.sleb128 -32
 4247 1041 22       		.uleb128 0x22
 4248 1042 4A000000 		.4byte	.LVL124
 4249 1046 50150000 		.4byte	0x1550
 4250 104a 19       		.uleb128 0x19
 4251 104b A0000000 		.4byte	.LVL131
 4252 104f 16150000 		.4byte	0x1516
 4253 1053 7D100000 		.4byte	0x107d
 4254 1057 1A       		.uleb128 0x1a
 4255 1058 01       		.uleb128 0x1
 4256 1059 50       		.byte	0x50
 4257 105a 02       		.uleb128 0x2
 4258 105b 76       		.byte	0x76
 4259 105c 00       		.sleb128 0
ARM GAS  C:\Users\leoja\AppData\Local\Temp\ccYOCOnJ.s 			page 91


 4260 105d 1A       		.uleb128 0x1a
 4261 105e 01       		.uleb128 0x1
 4262 105f 51       		.byte	0x51
 4263 1060 04       		.uleb128 0x4
 4264 1061 7D       		.byte	0x7d
 4265 1062 0C       		.sleb128 12
 4266 1063 94       		.byte	0x94
 4267 1064 02       		.byte	0x2
 4268 1065 1A       		.uleb128 0x1a
 4269 1066 01       		.uleb128 0x1
 4270 1067 52       		.byte	0x52
 4271 1068 04       		.uleb128 0x4
 4272 1069 7D       		.byte	0x7d
 4273 106a 10       		.sleb128 16
 4274 106b 94       		.byte	0x94
 4275 106c 02       		.byte	0x2
 4276 106d 1A       		.uleb128 0x1a
 4277 106e 01       		.uleb128 0x1
 4278 106f 53       		.byte	0x53
 4279 1070 04       		.uleb128 0x4
 4280 1071 7D       		.byte	0x7d
 4281 1072 14       		.sleb128 20
 4282 1073 94       		.byte	0x94
 4283 1074 02       		.byte	0x2
 4284 1075 1A       		.uleb128 0x1a
 4285 1076 02       		.uleb128 0x2
 4286 1077 7D       		.byte	0x7d
 4287 1078 00       		.sleb128 0
 4288 1079 02       		.uleb128 0x2
 4289 107a 74       		.byte	0x74
 4290 107b 00       		.sleb128 0
 4291 107c 00       		.byte	0
 4292 107d 19       		.uleb128 0x19
 4293 107e AE000000 		.4byte	.LVL132
 4294 1082 39150000 		.4byte	0x1539
 4295 1086 A0100000 		.4byte	0x10a0
 4296 108a 1A       		.uleb128 0x1a
 4297 108b 01       		.uleb128 0x1
 4298 108c 50       		.byte	0x50
 4299 108d 02       		.uleb128 0x2
 4300 108e 76       		.byte	0x76
 4301 108f 00       		.sleb128 0
 4302 1090 1A       		.uleb128 0x1a
 4303 1091 01       		.uleb128 0x1
 4304 1092 51       		.byte	0x51
 4305 1093 05       		.uleb128 0x5
 4306 1094 03       		.byte	0x3
 4307 1095 36000000 		.4byte	.LC20
 4308 1099 1A       		.uleb128 0x1a
 4309 109a 01       		.uleb128 0x1
 4310 109b 52       		.byte	0x52
 4311 109c 02       		.uleb128 0x2
 4312 109d 75       		.byte	0x75
 4313 109e 00       		.sleb128 0
 4314 109f 00       		.byte	0
 4315 10a0 19       		.uleb128 0x19
 4316 10a1 EC000000 		.4byte	.LVL133
ARM GAS  C:\Users\leoja\AppData\Local\Temp\ccYOCOnJ.s 			page 92


 4317 10a5 44150000 		.4byte	0x1544
 4318 10a9 D0100000 		.4byte	0x10d0
 4319 10ad 1A       		.uleb128 0x1a
 4320 10ae 01       		.uleb128 0x1
 4321 10af 50       		.byte	0x50
 4322 10b0 04       		.uleb128 0x4
 4323 10b1 7D       		.byte	0x7d
 4324 10b2 18       		.sleb128 24
 4325 10b3 94       		.byte	0x94
 4326 10b4 02       		.byte	0x2
 4327 10b5 1A       		.uleb128 0x1a
 4328 10b6 01       		.uleb128 0x1
 4329 10b7 51       		.byte	0x51
 4330 10b8 04       		.uleb128 0x4
 4331 10b9 7D       		.byte	0x7d
 4332 10ba 1C       		.sleb128 28
 4333 10bb 94       		.byte	0x94
 4334 10bc 02       		.byte	0x2
 4335 10bd 1A       		.uleb128 0x1a
 4336 10be 01       		.uleb128 0x1
 4337 10bf 52       		.byte	0x52
 4338 10c0 02       		.uleb128 0x2
 4339 10c1 76       		.byte	0x76
 4340 10c2 00       		.sleb128 0
 4341 10c3 1A       		.uleb128 0x1a
 4342 10c4 01       		.uleb128 0x1
 4343 10c5 53       		.byte	0x53
 4344 10c6 01       		.uleb128 0x1
 4345 10c7 30       		.byte	0x30
 4346 10c8 1A       		.uleb128 0x1a
 4347 10c9 02       		.uleb128 0x2
 4348 10ca 7D       		.byte	0x7d
 4349 10cb 00       		.sleb128 0
 4350 10cc 02       		.uleb128 0x2
 4351 10cd 74       		.byte	0x74
 4352 10ce 00       		.sleb128 0
 4353 10cf 00       		.byte	0
 4354 10d0 22       		.uleb128 0x22
 4355 10d1 F2000000 		.4byte	.LVL134
 4356 10d5 50150000 		.4byte	0x1550
 4357 10d9 00       		.byte	0
 4358 10da 16       		.uleb128 0x16
 4359 10db F3000000 		.4byte	0xf3
 4360 10df EA100000 		.4byte	0x10ea
 4361 10e3 17       		.uleb128 0x17
 4362 10e4 01010000 		.4byte	0x101
 4363 10e8 06       		.byte	0x6
 4364 10e9 00       		.byte	0
 4365 10ea 25       		.uleb128 0x25
 4366 10eb 6C060000 		.4byte	.LASF116
 4367 10ef 01       		.byte	0x1
 4368 10f0 9D02     		.2byte	0x29d
 4369 10f2 00000000 		.4byte	.LFB44
 4370 10f6 C0000000 		.4byte	.LFE44-.LFB44
 4371 10fa 01       		.uleb128 0x1
 4372 10fb 9C       		.byte	0x9c
 4373 10fc 6A120000 		.4byte	0x126a
ARM GAS  C:\Users\leoja\AppData\Local\Temp\ccYOCOnJ.s 			page 93


 4374 1100 26       		.uleb128 0x26
 4375 1101 F1020000 		.4byte	.LASF60
 4376 1105 01       		.byte	0x1
 4377 1106 9D02     		.2byte	0x29d
 4378 1108 C3000000 		.4byte	0xc3
 4379 110c 40070000 		.4byte	.LLST42
 4380 1110 27       		.uleb128 0x27
 4381 1111 783100   		.ascii	"x1\000"
 4382 1114 01       		.byte	0x1
 4383 1115 9D02     		.2byte	0x29d
 4384 1117 C3000000 		.4byte	0xc3
 4385 111b 61070000 		.4byte	.LLST43
 4386 111f 27       		.uleb128 0x27
 4387 1120 793100   		.ascii	"y1\000"
 4388 1123 01       		.byte	0x1
 4389 1124 9D02     		.2byte	0x29d
 4390 1126 C3000000 		.4byte	0xc3
 4391 112a 82070000 		.4byte	.LLST44
 4392 112e 27       		.uleb128 0x27
 4393 112f 783200   		.ascii	"x2\000"
 4394 1132 01       		.byte	0x1
 4395 1133 9D02     		.2byte	0x29d
 4396 1135 C3000000 		.4byte	0xc3
 4397 1139 A3070000 		.4byte	.LLST45
 4398 113d 27       		.uleb128 0x27
 4399 113e 793200   		.ascii	"y2\000"
 4400 1141 01       		.byte	0x1
 4401 1142 9D02     		.2byte	0x29d
 4402 1144 C3000000 		.4byte	0xc3
 4403 1148 C4070000 		.4byte	.LLST46
 4404 114c 26       		.uleb128 0x26
 4405 114d 5E030000 		.4byte	.LASF104
 4406 1151 01       		.byte	0x1
 4407 1152 9D02     		.2byte	0x29d
 4408 1154 AD000000 		.4byte	0xad
 4409 1158 F0070000 		.4byte	.LLST47
 4410 115c 28       		.uleb128 0x28
 4411 115d 58040000 		.4byte	.LASF106
 4412 1161 01       		.byte	0x1
 4413 1162 9E02     		.2byte	0x29e
 4414 1164 94000000 		.4byte	0x94
 4415 1168 28080000 		.4byte	.LLST48
 4416 116c 28       		.uleb128 0x28
 4417 116d CE020000 		.4byte	.LASF107
 4418 1171 01       		.byte	0x1
 4419 1172 9E02     		.2byte	0x29e
 4420 1174 94000000 		.4byte	0x94
 4421 1178 47080000 		.4byte	.LLST49
 4422 117c 28       		.uleb128 0x28
 4423 117d AA040000 		.4byte	.LASF108
 4424 1181 01       		.byte	0x1
 4425 1182 9F02     		.2byte	0x29f
 4426 1184 94000000 		.4byte	0x94
 4427 1188 66080000 		.4byte	.LLST50
 4428 118c 28       		.uleb128 0x28
 4429 118d C1050000 		.4byte	.LASF105
 4430 1191 01       		.byte	0x1
ARM GAS  C:\Users\leoja\AppData\Local\Temp\ccYOCOnJ.s 			page 94


 4431 1192 A002     		.2byte	0x2a0
 4432 1194 94000000 		.4byte	0x94
 4433 1198 A0080000 		.4byte	.LLST51
 4434 119c 2B       		.uleb128 0x2b
 4435 119d 00000000 		.4byte	.Ldebug_ranges0+0
 4436 11a1 EA110000 		.4byte	0x11ea
 4437 11a5 24       		.uleb128 0x24
 4438 11a6 08000000 		.4byte	.LASF110
 4439 11aa 01       		.byte	0x1
 4440 11ab AF02     		.2byte	0x2af
 4441 11ad 6A120000 		.4byte	0x126a
 4442 11b1 02       		.uleb128 0x2
 4443 11b2 91       		.byte	0x91
 4444 11b3 60       		.sleb128 -32
 4445 11b4 19       		.uleb128 0x19
 4446 11b5 70000000 		.4byte	.LVL151
 4447 11b9 16150000 		.4byte	0x1516
 4448 11bd C9110000 		.4byte	0x11c9
 4449 11c1 1A       		.uleb128 0x1a
 4450 11c2 02       		.uleb128 0x2
 4451 11c3 7D       		.byte	0x7d
 4452 11c4 00       		.sleb128 0
 4453 11c5 02       		.uleb128 0x2
 4454 11c6 75       		.byte	0x75
 4455 11c7 00       		.sleb128 0
 4456 11c8 00       		.byte	0
 4457 11c9 1B       		.uleb128 0x1b
 4458 11ca 7A000000 		.4byte	.LVL152
 4459 11ce 39150000 		.4byte	0x1539
 4460 11d2 1A       		.uleb128 0x1a
 4461 11d3 01       		.uleb128 0x1
 4462 11d4 50       		.byte	0x50
 4463 11d5 02       		.uleb128 0x2
 4464 11d6 76       		.byte	0x76
 4465 11d7 00       		.sleb128 0
 4466 11d8 1A       		.uleb128 0x1a
 4467 11d9 01       		.uleb128 0x1
 4468 11da 51       		.byte	0x51
 4469 11db 05       		.uleb128 0x5
 4470 11dc 03       		.byte	0x3
 4471 11dd 36000000 		.4byte	.LC20
 4472 11e1 1A       		.uleb128 0x1a
 4473 11e2 01       		.uleb128 0x1
 4474 11e3 52       		.byte	0x52
 4475 11e4 03       		.uleb128 0x3
 4476 11e5 91       		.byte	0x91
 4477 11e6 54       		.sleb128 -44
 4478 11e7 06       		.byte	0x6
 4479 11e8 00       		.byte	0
 4480 11e9 00       		.byte	0
 4481 11ea 20       		.uleb128 0x20
 4482 11eb 84000000 		.4byte	.LBB6
 4483 11ef 24000000 		.4byte	.LBE6-.LBB6
 4484 11f3 57120000 		.4byte	0x1257
 4485 11f7 24       		.uleb128 0x24
 4486 11f8 08000000 		.4byte	.LASF110
 4487 11fc 01       		.byte	0x1
ARM GAS  C:\Users\leoja\AppData\Local\Temp\ccYOCOnJ.s 			page 95


 4488 11fd B702     		.2byte	0x2b7
 4489 11ff 130B0000 		.4byte	0xb13
 4490 1203 02       		.uleb128 0x2
 4491 1204 91       		.byte	0x91
 4492 1205 60       		.sleb128 -32
 4493 1206 22       		.uleb128 0x22
 4494 1207 8A000000 		.4byte	.LVL153
 4495 120b 16150000 		.4byte	0x1516
 4496 120f 19       		.uleb128 0x19
 4497 1210 94000000 		.4byte	.LVL154
 4498 1214 39150000 		.4byte	0x1539
 4499 1218 33120000 		.4byte	0x1233
 4500 121c 1A       		.uleb128 0x1a
 4501 121d 01       		.uleb128 0x1
 4502 121e 50       		.byte	0x50
 4503 121f 02       		.uleb128 0x2
 4504 1220 76       		.byte	0x76
 4505 1221 00       		.sleb128 0
 4506 1222 1A       		.uleb128 0x1a
 4507 1223 01       		.uleb128 0x1
 4508 1224 51       		.byte	0x51
 4509 1225 05       		.uleb128 0x5
 4510 1226 03       		.byte	0x3
 4511 1227 36000000 		.4byte	.LC20
 4512 122b 1A       		.uleb128 0x1a
 4513 122c 01       		.uleb128 0x1
 4514 122d 52       		.byte	0x52
 4515 122e 03       		.uleb128 0x3
 4516 122f 91       		.byte	0x91
 4517 1230 54       		.sleb128 -44
 4518 1231 06       		.byte	0x6
 4519 1232 00       		.byte	0
 4520 1233 1B       		.uleb128 0x1b
 4521 1234 A8000000 		.4byte	.LVL155
 4522 1238 44150000 		.4byte	0x1544
 4523 123c 1A       		.uleb128 0x1a
 4524 123d 01       		.uleb128 0x1
 4525 123e 50       		.byte	0x50
 4526 123f 02       		.uleb128 0x2
 4527 1240 74       		.byte	0x74
 4528 1241 00       		.sleb128 0
 4529 1242 1A       		.uleb128 0x1a
 4530 1243 01       		.uleb128 0x1
 4531 1244 51       		.byte	0x51
 4532 1245 02       		.uleb128 0x2
 4533 1246 77       		.byte	0x77
 4534 1247 00       		.sleb128 0
 4535 1248 1A       		.uleb128 0x1a
 4536 1249 01       		.uleb128 0x1
 4537 124a 52       		.byte	0x52
 4538 124b 02       		.uleb128 0x2
 4539 124c 76       		.byte	0x76
 4540 124d 00       		.sleb128 0
 4541 124e 1A       		.uleb128 0x1a
 4542 124f 02       		.uleb128 0x2
 4543 1250 7D       		.byte	0x7d
 4544 1251 00       		.sleb128 0
ARM GAS  C:\Users\leoja\AppData\Local\Temp\ccYOCOnJ.s 			page 96


 4545 1252 02       		.uleb128 0x2
 4546 1253 75       		.byte	0x75
 4547 1254 00       		.sleb128 0
 4548 1255 00       		.byte	0
 4549 1256 00       		.byte	0
 4550 1257 22       		.uleb128 0x22
 4551 1258 4A000000 		.4byte	.LVL150
 4552 125c 50150000 		.4byte	0x1550
 4553 1260 22       		.uleb128 0x22
 4554 1261 AE000000 		.4byte	.LVL156
 4555 1265 50150000 		.4byte	0x1550
 4556 1269 00       		.byte	0
 4557 126a 16       		.uleb128 0x16
 4558 126b F3000000 		.4byte	0xf3
 4559 126f 7A120000 		.4byte	0x127a
 4560 1273 17       		.uleb128 0x17
 4561 1274 01010000 		.4byte	0x101
 4562 1278 04       		.byte	0x4
 4563 1279 00       		.byte	0
 4564 127a 2C       		.uleb128 0x2c
 4565 127b 2D040000 		.4byte	.LASF137
 4566 127f 01       		.byte	0x1
 4567 1280 9702     		.2byte	0x297
 4568 1282 01       		.byte	0x1
 4569 1283 CC120000 		.4byte	0x12cc
 4570 1287 2D       		.uleb128 0x2d
 4571 1288 F1020000 		.4byte	.LASF60
 4572 128c 01       		.byte	0x1
 4573 128d 9702     		.2byte	0x297
 4574 128f C3000000 		.4byte	0xc3
 4575 1293 2E       		.uleb128 0x2e
 4576 1294 783100   		.ascii	"x1\000"
 4577 1297 01       		.byte	0x1
 4578 1298 9702     		.2byte	0x297
 4579 129a C3000000 		.4byte	0xc3
 4580 129e 2E       		.uleb128 0x2e
 4581 129f 793100   		.ascii	"y1\000"
 4582 12a2 01       		.byte	0x1
 4583 12a3 9702     		.2byte	0x297
 4584 12a5 C3000000 		.4byte	0xc3
 4585 12a9 2E       		.uleb128 0x2e
 4586 12aa 783200   		.ascii	"x2\000"
 4587 12ad 01       		.byte	0x1
 4588 12ae 9702     		.2byte	0x297
 4589 12b0 C3000000 		.4byte	0xc3
 4590 12b4 2E       		.uleb128 0x2e
 4591 12b5 793200   		.ascii	"y2\000"
 4592 12b8 01       		.byte	0x1
 4593 12b9 9702     		.2byte	0x297
 4594 12bb C3000000 		.4byte	0xc3
 4595 12bf 2D       		.uleb128 0x2d
 4596 12c0 5E030000 		.4byte	.LASF104
 4597 12c4 01       		.byte	0x1
 4598 12c5 9702     		.2byte	0x297
 4599 12c7 AD000000 		.4byte	0xad
 4600 12cb 00       		.byte	0
 4601 12cc 2F       		.uleb128 0x2f
ARM GAS  C:\Users\leoja\AppData\Local\Temp\ccYOCOnJ.s 			page 97


 4602 12cd 7A120000 		.4byte	0x127a
 4603 12d1 00000000 		.4byte	.LFB43
 4604 12d5 14000000 		.4byte	.LFE43-.LFB43
 4605 12d9 01       		.uleb128 0x1
 4606 12da 9C       		.byte	0x9c
 4607 12db 2E130000 		.4byte	0x132e
 4608 12df 30       		.uleb128 0x30
 4609 12e0 87120000 		.4byte	0x1287
 4610 12e4 E8080000 		.4byte	.LLST52
 4611 12e8 30       		.uleb128 0x30
 4612 12e9 93120000 		.4byte	0x1293
 4613 12ed 09090000 		.4byte	.LLST53
 4614 12f1 30       		.uleb128 0x30
 4615 12f2 9E120000 		.4byte	0x129e
 4616 12f6 2A090000 		.4byte	.LLST54
 4617 12fa 30       		.uleb128 0x30
 4618 12fb A9120000 		.4byte	0x12a9
 4619 12ff 4B090000 		.4byte	.LLST55
 4620 1303 30       		.uleb128 0x30
 4621 1304 B4120000 		.4byte	0x12b4
 4622 1308 6C090000 		.4byte	.LLST56
 4623 130c 30       		.uleb128 0x30
 4624 130d BF120000 		.4byte	0x12bf
 4625 1311 98090000 		.4byte	.LLST57
 4626 1315 1B       		.uleb128 0x1b
 4627 1316 12000000 		.4byte	.LVL162
 4628 131a EA100000 		.4byte	0x10ea
 4629 131e 1A       		.uleb128 0x1a
 4630 131f 02       		.uleb128 0x2
 4631 1320 7D       		.byte	0x7d
 4632 1321 00       		.sleb128 0
 4633 1322 02       		.uleb128 0x2
 4634 1323 74       		.byte	0x74
 4635 1324 00       		.sleb128 0
 4636 1325 1A       		.uleb128 0x1a
 4637 1326 02       		.uleb128 0x2
 4638 1327 7D       		.byte	0x7d
 4639 1328 04       		.sleb128 4
 4640 1329 02       		.uleb128 0x2
 4641 132a 75       		.byte	0x75
 4642 132b 00       		.sleb128 0
 4643 132c 00       		.byte	0
 4644 132d 00       		.byte	0
 4645 132e 25       		.uleb128 0x25
 4646 132f 63030000 		.4byte	.LASF117
 4647 1333 01       		.byte	0x1
 4648 1334 C002     		.2byte	0x2c0
 4649 1336 00000000 		.4byte	.LFB45
 4650 133a C4000000 		.4byte	.LFE45-.LFB45
 4651 133e 01       		.uleb128 0x1
 4652 133f 9C       		.byte	0x9c
 4653 1340 7D140000 		.4byte	0x147d
 4654 1344 26       		.uleb128 0x26
 4655 1345 F1020000 		.4byte	.LASF60
 4656 1349 01       		.byte	0x1
 4657 134a C002     		.2byte	0x2c0
 4658 134c C3000000 		.4byte	0xc3
ARM GAS  C:\Users\leoja\AppData\Local\Temp\ccYOCOnJ.s 			page 98


 4659 1350 DC090000 		.4byte	.LLST58
 4660 1354 27       		.uleb128 0x27
 4661 1355 783100   		.ascii	"x1\000"
 4662 1358 01       		.byte	0x1
 4663 1359 C002     		.2byte	0x2c0
 4664 135b C3000000 		.4byte	0xc3
 4665 135f FD090000 		.4byte	.LLST59
 4666 1363 27       		.uleb128 0x27
 4667 1364 793100   		.ascii	"y1\000"
 4668 1367 01       		.byte	0x1
 4669 1368 C002     		.2byte	0x2c0
 4670 136a C3000000 		.4byte	0xc3
 4671 136e 1E0A0000 		.4byte	.LLST60
 4672 1372 27       		.uleb128 0x27
 4673 1373 783200   		.ascii	"x2\000"
 4674 1376 01       		.byte	0x1
 4675 1377 C002     		.2byte	0x2c0
 4676 1379 C3000000 		.4byte	0xc3
 4677 137d 3F0A0000 		.4byte	.LLST61
 4678 1381 27       		.uleb128 0x27
 4679 1382 793200   		.ascii	"y2\000"
 4680 1385 01       		.byte	0x1
 4681 1386 C002     		.2byte	0x2c0
 4682 1388 C3000000 		.4byte	0xc3
 4683 138c 600A0000 		.4byte	.LLST62
 4684 1390 26       		.uleb128 0x26
 4685 1391 5E030000 		.4byte	.LASF104
 4686 1395 01       		.byte	0x1
 4687 1396 C002     		.2byte	0x2c0
 4688 1398 AD000000 		.4byte	0xad
 4689 139c 8C0A0000 		.4byte	.LLST63
 4690 13a0 28       		.uleb128 0x28
 4691 13a1 58040000 		.4byte	.LASF106
 4692 13a5 01       		.byte	0x1
 4693 13a6 C102     		.2byte	0x2c1
 4694 13a8 94000000 		.4byte	0x94
 4695 13ac C40A0000 		.4byte	.LLST64
 4696 13b0 28       		.uleb128 0x28
 4697 13b1 CE020000 		.4byte	.LASF107
 4698 13b5 01       		.byte	0x1
 4699 13b6 C102     		.2byte	0x2c1
 4700 13b8 94000000 		.4byte	0x94
 4701 13bc E30A0000 		.4byte	.LLST65
 4702 13c0 28       		.uleb128 0x28
 4703 13c1 AA040000 		.4byte	.LASF108
 4704 13c5 01       		.byte	0x1
 4705 13c6 C202     		.2byte	0x2c2
 4706 13c8 94000000 		.4byte	0x94
 4707 13cc 020B0000 		.4byte	.LLST66
 4708 13d0 29       		.uleb128 0x29
 4709 13d1 C1050000 		.4byte	.LASF105
 4710 13d5 01       		.byte	0x1
 4711 13d6 C302     		.2byte	0x2c3
 4712 13d8 94000000 		.4byte	0x94
 4713 13dc 06       		.byte	0x6
 4714 13dd 24       		.uleb128 0x24
 4715 13de 08000000 		.4byte	.LASF110
ARM GAS  C:\Users\leoja\AppData\Local\Temp\ccYOCOnJ.s 			page 99


 4716 13e2 01       		.byte	0x1
 4717 13e3 CD02     		.2byte	0x2cd
 4718 13e5 DA100000 		.4byte	0x10da
 4719 13e9 02       		.uleb128 0x2
 4720 13ea 91       		.byte	0x91
 4721 13eb 60       		.sleb128 -32
 4722 13ec 22       		.uleb128 0x22
 4723 13ed 44000000 		.4byte	.LVL175
 4724 13f1 50150000 		.4byte	0x1550
 4725 13f5 19       		.uleb128 0x19
 4726 13f6 5C000000 		.4byte	.LVL176
 4727 13fa 16150000 		.4byte	0x1516
 4728 13fe 1F140000 		.4byte	0x141f
 4729 1402 1A       		.uleb128 0x1a
 4730 1403 01       		.uleb128 0x1
 4731 1404 50       		.byte	0x50
 4732 1405 04       		.uleb128 0x4
 4733 1406 7D       		.byte	0x7d
 4734 1407 0C       		.sleb128 12
 4735 1408 94       		.byte	0x94
 4736 1409 02       		.byte	0x2
 4737 140a 1A       		.uleb128 0x1a
 4738 140b 01       		.uleb128 0x1
 4739 140c 52       		.byte	0x52
 4740 140d 02       		.uleb128 0x2
 4741 140e 75       		.byte	0x75
 4742 140f 00       		.sleb128 0
 4743 1410 1A       		.uleb128 0x1a
 4744 1411 01       		.uleb128 0x1
 4745 1412 53       		.byte	0x53
 4746 1413 02       		.uleb128 0x2
 4747 1414 76       		.byte	0x76
 4748 1415 00       		.sleb128 0
 4749 1416 1A       		.uleb128 0x1a
 4750 1417 02       		.uleb128 0x2
 4751 1418 7D       		.byte	0x7d
 4752 1419 00       		.sleb128 0
 4753 141a 03       		.uleb128 0x3
 4754 141b 0A       		.byte	0xa
 4755 141c 00FF     		.2byte	0xff00
 4756 141e 00       		.byte	0
 4757 141f 19       		.uleb128 0x19
 4758 1420 66000000 		.4byte	.LVL177
 4759 1424 39150000 		.4byte	0x1539
 4760 1428 42140000 		.4byte	0x1442
 4761 142c 1A       		.uleb128 0x1a
 4762 142d 01       		.uleb128 0x1
 4763 142e 50       		.byte	0x50
 4764 142f 02       		.uleb128 0x2
 4765 1430 74       		.byte	0x74
 4766 1431 00       		.sleb128 0
 4767 1432 1A       		.uleb128 0x1a
 4768 1433 01       		.uleb128 0x1
 4769 1434 51       		.byte	0x51
 4770 1435 05       		.uleb128 0x5
 4771 1436 03       		.byte	0x3
 4772 1437 36000000 		.4byte	.LC20
ARM GAS  C:\Users\leoja\AppData\Local\Temp\ccYOCOnJ.s 			page 100


 4773 143b 1A       		.uleb128 0x1a
 4774 143c 01       		.uleb128 0x1
 4775 143d 52       		.byte	0x52
 4776 143e 02       		.uleb128 0x2
 4777 143f 77       		.byte	0x77
 4778 1440 00       		.sleb128 0
 4779 1441 00       		.byte	0
 4780 1442 19       		.uleb128 0x19
 4781 1443 A8000000 		.4byte	.LVL178
 4782 1447 44150000 		.4byte	0x1544
 4783 144b 73140000 		.4byte	0x1473
 4784 144f 1A       		.uleb128 0x1a
 4785 1450 01       		.uleb128 0x1
 4786 1451 50       		.byte	0x50
 4787 1452 04       		.uleb128 0x4
 4788 1453 7D       		.byte	0x7d
 4789 1454 10       		.sleb128 16
 4790 1455 94       		.byte	0x94
 4791 1456 02       		.byte	0x2
 4792 1457 1A       		.uleb128 0x1a
 4793 1458 01       		.uleb128 0x1
 4794 1459 51       		.byte	0x51
 4795 145a 04       		.uleb128 0x4
 4796 145b 7D       		.byte	0x7d
 4797 145c 14       		.sleb128 20
 4798 145d 94       		.byte	0x94
 4799 145e 02       		.byte	0x2
 4800 145f 1A       		.uleb128 0x1a
 4801 1460 01       		.uleb128 0x1
 4802 1461 52       		.byte	0x52
 4803 1462 02       		.uleb128 0x2
 4804 1463 74       		.byte	0x74
 4805 1464 00       		.sleb128 0
 4806 1465 1A       		.uleb128 0x1a
 4807 1466 01       		.uleb128 0x1
 4808 1467 53       		.byte	0x53
 4809 1468 01       		.uleb128 0x1
 4810 1469 30       		.byte	0x30
 4811 146a 1A       		.uleb128 0x1a
 4812 146b 02       		.uleb128 0x2
 4813 146c 7D       		.byte	0x7d
 4814 146d 00       		.sleb128 0
 4815 146e 03       		.uleb128 0x3
 4816 146f 0A       		.byte	0xa
 4817 1470 00FF     		.2byte	0xff00
 4818 1472 00       		.byte	0
 4819 1473 22       		.uleb128 0x22
 4820 1474 AE000000 		.4byte	.LVL179
 4821 1478 50150000 		.4byte	0x1550
 4822 147c 00       		.byte	0
 4823 147d 31       		.uleb128 0x31
 4824 147e 8D010000 		.4byte	.LASF118
 4825 1482 07       		.byte	0x7
 4826 1483 51       		.byte	0x51
 4827 1484 C8030000 		.4byte	0x3c8
 4828 1488 31       		.uleb128 0x31
 4829 1489 8C040000 		.4byte	.LASF119
ARM GAS  C:\Users\leoja\AppData\Local\Temp\ccYOCOnJ.s 			page 101


 4830 148d 07       		.byte	0x7
 4831 148e 60       		.byte	0x60
 4832 148f C8030000 		.4byte	0x3c8
 4833 1493 32       		.uleb128 0x32
 4834 1494 D2030000 		.4byte	.LASF120
 4835 1498 08       		.byte	0x8
 4836 1499 33       		.byte	0x33
 4837 149a C8060000 		.4byte	0x6c8
 4838 149e 05       		.uleb128 0x5
 4839 149f 03       		.byte	0x3
 4840 14a0 00000000 		.4byte	gui1963
 4841 14a4 32       		.uleb128 0x32
 4842 14a5 2F020000 		.4byte	.LASF121
 4843 14a9 09       		.byte	0x9
 4844 14aa 0F       		.byte	0xf
 4845 14ab 77030000 		.4byte	0x377
 4846 14af 05       		.uleb128 0x5
 4847 14b0 03       		.byte	0x3
 4848 14b1 00000000 		.4byte	last_SOC_color
 4849 14b5 32       		.uleb128 0x32
 4850 14b6 25030000 		.4byte	.LASF122
 4851 14ba 09       		.byte	0x9
 4852 14bb 10       		.byte	0x10
 4853 14bc 77030000 		.4byte	0x377
 4854 14c0 05       		.uleb128 0x5
 4855 14c1 03       		.byte	0x3
 4856 14c2 00000000 		.4byte	last_max_pack_temp_color
 4857 14c6 32       		.uleb128 0x32
 4858 14c7 09040000 		.4byte	.LASF123
 4859 14cb 09       		.byte	0x9
 4860 14cc 11       		.byte	0x11
 4861 14cd 77030000 		.4byte	0x377
 4862 14d1 05       		.uleb128 0x5
 4863 14d2 03       		.byte	0x3
 4864 14d3 00000000 		.4byte	last_state_color
 4865 14d7 32       		.uleb128 0x32
 4866 14d8 B8040000 		.4byte	.LASF124
 4867 14dc 09       		.byte	0x9
 4868 14dd 12       		.byte	0x12
 4869 14de 77030000 		.4byte	0x377
 4870 14e2 05       		.uleb128 0x5
 4871 14e3 03       		.byte	0x3
 4872 14e4 00000000 		.4byte	last_glv_v_color
 4873 14e8 32       		.uleb128 0x32
 4874 14e9 99050000 		.4byte	.LASF125
 4875 14ed 09       		.byte	0x9
 4876 14ee 13       		.byte	0x13
 4877 14ef 77030000 		.4byte	0x377
 4878 14f3 05       		.uleb128 0x5
 4879 14f4 03       		.byte	0x3
 4880 14f5 00000000 		.4byte	last_mc_temp_color
 4881 14f9 32       		.uleb128 0x32
 4882 14fa 7F020000 		.4byte	.LASF126
 4883 14fe 09       		.byte	0x9
 4884 14ff 14       		.byte	0x14
 4885 1500 77030000 		.4byte	0x377
 4886 1504 05       		.uleb128 0x5
ARM GAS  C:\Users\leoja\AppData\Local\Temp\ccYOCOnJ.s 			page 102


 4887 1505 03       		.byte	0x3
 4888 1506 00000000 		.4byte	last_motor_temp_color
 4889 150a 33       		.uleb128 0x33
 4890 150b 21020000 		.4byte	.LASF127
 4891 150f 21020000 		.4byte	.LASF127
 4892 1513 07       		.byte	0x7
 4893 1514 EC02     		.2byte	0x2ec
 4894 1516 33       		.uleb128 0x33
 4895 1517 BA000000 		.4byte	.LASF128
 4896 151b BA000000 		.4byte	.LASF128
 4897 151f 07       		.byte	0x7
 4898 1520 ED02     		.2byte	0x2ed
 4899 1522 34       		.uleb128 0x34
 4900 1523 00000000 		.4byte	.LASF129
 4901 1527 00000000 		.4byte	.LASF129
 4902 152b 0A       		.byte	0xa
 4903 152c EC       		.byte	0xec
 4904 152d 33       		.uleb128 0x33
 4905 152e A8030000 		.4byte	.LASF130
 4906 1532 A8030000 		.4byte	.LASF130
 4907 1536 07       		.byte	0x7
 4908 1537 F702     		.2byte	0x2f7
 4909 1539 34       		.uleb128 0x34
 4910 153a C1030000 		.4byte	.LASF131
 4911 153e C1030000 		.4byte	.LASF131
 4912 1542 0B       		.byte	0xb
 4913 1543 E7       		.byte	0xe7
 4914 1544 33       		.uleb128 0x33
 4915 1545 FD010000 		.4byte	.LASF132
 4916 1549 FD010000 		.4byte	.LASF132
 4917 154d 07       		.byte	0x7
 4918 154e F802     		.2byte	0x2f8
 4919 1550 33       		.uleb128 0x33
 4920 1551 1E060000 		.4byte	.LASF133
 4921 1555 1E060000 		.4byte	.LASF133
 4922 1559 07       		.byte	0x7
 4923 155a EB02     		.2byte	0x2eb
 4924 155c 00       		.byte	0
 4925              		.section	.debug_abbrev,"",%progbits
 4926              	.Ldebug_abbrev0:
 4927 0000 01       		.uleb128 0x1
 4928 0001 11       		.uleb128 0x11
 4929 0002 01       		.byte	0x1
 4930 0003 25       		.uleb128 0x25
 4931 0004 0E       		.uleb128 0xe
 4932 0005 13       		.uleb128 0x13
 4933 0006 0B       		.uleb128 0xb
 4934 0007 03       		.uleb128 0x3
 4935 0008 0E       		.uleb128 0xe
 4936 0009 1B       		.uleb128 0x1b
 4937 000a 0E       		.uleb128 0xe
 4938 000b 55       		.uleb128 0x55
 4939 000c 17       		.uleb128 0x17
 4940 000d 11       		.uleb128 0x11
 4941 000e 01       		.uleb128 0x1
 4942 000f 10       		.uleb128 0x10
 4943 0010 17       		.uleb128 0x17
ARM GAS  C:\Users\leoja\AppData\Local\Temp\ccYOCOnJ.s 			page 103


 4944 0011 00       		.byte	0
 4945 0012 00       		.byte	0
 4946 0013 02       		.uleb128 0x2
 4947 0014 16       		.uleb128 0x16
 4948 0015 00       		.byte	0
 4949 0016 03       		.uleb128 0x3
 4950 0017 0E       		.uleb128 0xe
 4951 0018 3A       		.uleb128 0x3a
 4952 0019 0B       		.uleb128 0xb
 4953 001a 3B       		.uleb128 0x3b
 4954 001b 0B       		.uleb128 0xb
 4955 001c 49       		.uleb128 0x49
 4956 001d 13       		.uleb128 0x13
 4957 001e 00       		.byte	0
 4958 001f 00       		.byte	0
 4959 0020 03       		.uleb128 0x3
 4960 0021 24       		.uleb128 0x24
 4961 0022 00       		.byte	0
 4962 0023 0B       		.uleb128 0xb
 4963 0024 0B       		.uleb128 0xb
 4964 0025 3E       		.uleb128 0x3e
 4965 0026 0B       		.uleb128 0xb
 4966 0027 03       		.uleb128 0x3
 4967 0028 0E       		.uleb128 0xe
 4968 0029 00       		.byte	0
 4969 002a 00       		.byte	0
 4970 002b 04       		.uleb128 0x4
 4971 002c 24       		.uleb128 0x24
 4972 002d 00       		.byte	0
 4973 002e 0B       		.uleb128 0xb
 4974 002f 0B       		.uleb128 0xb
 4975 0030 3E       		.uleb128 0x3e
 4976 0031 0B       		.uleb128 0xb
 4977 0032 03       		.uleb128 0x3
 4978 0033 08       		.uleb128 0x8
 4979 0034 00       		.byte	0
 4980 0035 00       		.byte	0
 4981 0036 05       		.uleb128 0x5
 4982 0037 16       		.uleb128 0x16
 4983 0038 00       		.byte	0
 4984 0039 03       		.uleb128 0x3
 4985 003a 0E       		.uleb128 0xe
 4986 003b 3A       		.uleb128 0x3a
 4987 003c 0B       		.uleb128 0xb
 4988 003d 3B       		.uleb128 0x3b
 4989 003e 05       		.uleb128 0x5
 4990 003f 49       		.uleb128 0x49
 4991 0040 13       		.uleb128 0x13
 4992 0041 00       		.byte	0
 4993 0042 00       		.byte	0
 4994 0043 06       		.uleb128 0x6
 4995 0044 0F       		.uleb128 0xf
 4996 0045 00       		.byte	0
 4997 0046 0B       		.uleb128 0xb
 4998 0047 0B       		.uleb128 0xb
 4999 0048 00       		.byte	0
 5000 0049 00       		.byte	0
ARM GAS  C:\Users\leoja\AppData\Local\Temp\ccYOCOnJ.s 			page 104


 5001 004a 07       		.uleb128 0x7
 5002 004b 0F       		.uleb128 0xf
 5003 004c 00       		.byte	0
 5004 004d 0B       		.uleb128 0xb
 5005 004e 0B       		.uleb128 0xb
 5006 004f 49       		.uleb128 0x49
 5007 0050 13       		.uleb128 0x13
 5008 0051 00       		.byte	0
 5009 0052 00       		.byte	0
 5010 0053 08       		.uleb128 0x8
 5011 0054 04       		.uleb128 0x4
 5012 0055 01       		.byte	0x1
 5013 0056 0B       		.uleb128 0xb
 5014 0057 0B       		.uleb128 0xb
 5015 0058 49       		.uleb128 0x49
 5016 0059 13       		.uleb128 0x13
 5017 005a 3A       		.uleb128 0x3a
 5018 005b 0B       		.uleb128 0xb
 5019 005c 3B       		.uleb128 0x3b
 5020 005d 0B       		.uleb128 0xb
 5021 005e 01       		.uleb128 0x1
 5022 005f 13       		.uleb128 0x13
 5023 0060 00       		.byte	0
 5024 0061 00       		.byte	0
 5025 0062 09       		.uleb128 0x9
 5026 0063 28       		.uleb128 0x28
 5027 0064 00       		.byte	0
 5028 0065 03       		.uleb128 0x3
 5029 0066 08       		.uleb128 0x8
 5030 0067 1C       		.uleb128 0x1c
 5031 0068 0B       		.uleb128 0xb
 5032 0069 00       		.byte	0
 5033 006a 00       		.byte	0
 5034 006b 0A       		.uleb128 0xa
 5035 006c 28       		.uleb128 0x28
 5036 006d 00       		.byte	0
 5037 006e 03       		.uleb128 0x3
 5038 006f 0E       		.uleb128 0xe
 5039 0070 1C       		.uleb128 0x1c
 5040 0071 0B       		.uleb128 0xb
 5041 0072 00       		.byte	0
 5042 0073 00       		.byte	0
 5043 0074 0B       		.uleb128 0xb
 5044 0075 13       		.uleb128 0x13
 5045 0076 01       		.byte	0x1
 5046 0077 0B       		.uleb128 0xb
 5047 0078 0B       		.uleb128 0xb
 5048 0079 3A       		.uleb128 0x3a
 5049 007a 0B       		.uleb128 0xb
 5050 007b 3B       		.uleb128 0x3b
 5051 007c 0B       		.uleb128 0xb
 5052 007d 01       		.uleb128 0x1
 5053 007e 13       		.uleb128 0x13
 5054 007f 00       		.byte	0
 5055 0080 00       		.byte	0
 5056 0081 0C       		.uleb128 0xc
 5057 0082 0D       		.uleb128 0xd
ARM GAS  C:\Users\leoja\AppData\Local\Temp\ccYOCOnJ.s 			page 105


 5058 0083 00       		.byte	0
 5059 0084 03       		.uleb128 0x3
 5060 0085 08       		.uleb128 0x8
 5061 0086 3A       		.uleb128 0x3a
 5062 0087 0B       		.uleb128 0xb
 5063 0088 3B       		.uleb128 0x3b
 5064 0089 0B       		.uleb128 0xb
 5065 008a 49       		.uleb128 0x49
 5066 008b 13       		.uleb128 0x13
 5067 008c 38       		.uleb128 0x38
 5068 008d 0B       		.uleb128 0xb
 5069 008e 00       		.byte	0
 5070 008f 00       		.byte	0
 5071 0090 0D       		.uleb128 0xd
 5072 0091 0D       		.uleb128 0xd
 5073 0092 00       		.byte	0
 5074 0093 03       		.uleb128 0x3
 5075 0094 0E       		.uleb128 0xe
 5076 0095 3A       		.uleb128 0x3a
 5077 0096 0B       		.uleb128 0xb
 5078 0097 3B       		.uleb128 0x3b
 5079 0098 0B       		.uleb128 0xb
 5080 0099 49       		.uleb128 0x49
 5081 009a 13       		.uleb128 0x13
 5082 009b 38       		.uleb128 0x38
 5083 009c 0B       		.uleb128 0xb
 5084 009d 00       		.byte	0
 5085 009e 00       		.byte	0
 5086 009f 0E       		.uleb128 0xe
 5087 00a0 13       		.uleb128 0x13
 5088 00a1 01       		.byte	0x1
 5089 00a2 03       		.uleb128 0x3
 5090 00a3 0E       		.uleb128 0xe
 5091 00a4 0B       		.uleb128 0xb
 5092 00a5 0B       		.uleb128 0xb
 5093 00a6 3A       		.uleb128 0x3a
 5094 00a7 0B       		.uleb128 0xb
 5095 00a8 3B       		.uleb128 0x3b
 5096 00a9 0B       		.uleb128 0xb
 5097 00aa 01       		.uleb128 0x1
 5098 00ab 13       		.uleb128 0x13
 5099 00ac 00       		.byte	0
 5100 00ad 00       		.byte	0
 5101 00ae 0F       		.uleb128 0xf
 5102 00af 0D       		.uleb128 0xd
 5103 00b0 00       		.byte	0
 5104 00b1 03       		.uleb128 0x3
 5105 00b2 0E       		.uleb128 0xe
 5106 00b3 3A       		.uleb128 0x3a
 5107 00b4 0B       		.uleb128 0xb
 5108 00b5 3B       		.uleb128 0x3b
 5109 00b6 05       		.uleb128 0x5
 5110 00b7 49       		.uleb128 0x49
 5111 00b8 13       		.uleb128 0x13
 5112 00b9 38       		.uleb128 0x38
 5113 00ba 0B       		.uleb128 0xb
 5114 00bb 00       		.byte	0
ARM GAS  C:\Users\leoja\AppData\Local\Temp\ccYOCOnJ.s 			page 106


 5115 00bc 00       		.byte	0
 5116 00bd 10       		.uleb128 0x10
 5117 00be 13       		.uleb128 0x13
 5118 00bf 01       		.byte	0x1
 5119 00c0 03       		.uleb128 0x3
 5120 00c1 0E       		.uleb128 0xe
 5121 00c2 0B       		.uleb128 0xb
 5122 00c3 0B       		.uleb128 0xb
 5123 00c4 3A       		.uleb128 0x3a
 5124 00c5 0B       		.uleb128 0xb
 5125 00c6 3B       		.uleb128 0x3b
 5126 00c7 05       		.uleb128 0x5
 5127 00c8 01       		.uleb128 0x1
 5128 00c9 13       		.uleb128 0x13
 5129 00ca 00       		.byte	0
 5130 00cb 00       		.byte	0
 5131 00cc 11       		.uleb128 0x11
 5132 00cd 0D       		.uleb128 0xd
 5133 00ce 00       		.byte	0
 5134 00cf 03       		.uleb128 0x3
 5135 00d0 08       		.uleb128 0x8
 5136 00d1 3A       		.uleb128 0x3a
 5137 00d2 0B       		.uleb128 0xb
 5138 00d3 3B       		.uleb128 0x3b
 5139 00d4 05       		.uleb128 0x5
 5140 00d5 49       		.uleb128 0x49
 5141 00d6 13       		.uleb128 0x13
 5142 00d7 38       		.uleb128 0x38
 5143 00d8 0B       		.uleb128 0xb
 5144 00d9 00       		.byte	0
 5145 00da 00       		.byte	0
 5146 00db 12       		.uleb128 0x12
 5147 00dc 26       		.uleb128 0x26
 5148 00dd 00       		.byte	0
 5149 00de 49       		.uleb128 0x49
 5150 00df 13       		.uleb128 0x13
 5151 00e0 00       		.byte	0
 5152 00e1 00       		.byte	0
 5153 00e2 13       		.uleb128 0x13
 5154 00e3 15       		.uleb128 0x15
 5155 00e4 01       		.byte	0x1
 5156 00e5 27       		.uleb128 0x27
 5157 00e6 19       		.uleb128 0x19
 5158 00e7 01       		.uleb128 0x1
 5159 00e8 13       		.uleb128 0x13
 5160 00e9 00       		.byte	0
 5161 00ea 00       		.byte	0
 5162 00eb 14       		.uleb128 0x14
 5163 00ec 05       		.uleb128 0x5
 5164 00ed 00       		.byte	0
 5165 00ee 49       		.uleb128 0x49
 5166 00ef 13       		.uleb128 0x13
 5167 00f0 00       		.byte	0
 5168 00f1 00       		.byte	0
 5169 00f2 15       		.uleb128 0x15
 5170 00f3 13       		.uleb128 0x13
 5171 00f4 01       		.byte	0x1
ARM GAS  C:\Users\leoja\AppData\Local\Temp\ccYOCOnJ.s 			page 107


 5172 00f5 0B       		.uleb128 0xb
 5173 00f6 0B       		.uleb128 0xb
 5174 00f7 3A       		.uleb128 0x3a
 5175 00f8 0B       		.uleb128 0xb
 5176 00f9 3B       		.uleb128 0x3b
 5177 00fa 05       		.uleb128 0x5
 5178 00fb 01       		.uleb128 0x1
 5179 00fc 13       		.uleb128 0x13
 5180 00fd 00       		.byte	0
 5181 00fe 00       		.byte	0
 5182 00ff 16       		.uleb128 0x16
 5183 0100 01       		.uleb128 0x1
 5184 0101 01       		.byte	0x1
 5185 0102 49       		.uleb128 0x49
 5186 0103 13       		.uleb128 0x13
 5187 0104 01       		.uleb128 0x1
 5188 0105 13       		.uleb128 0x13
 5189 0106 00       		.byte	0
 5190 0107 00       		.byte	0
 5191 0108 17       		.uleb128 0x17
 5192 0109 21       		.uleb128 0x21
 5193 010a 00       		.byte	0
 5194 010b 49       		.uleb128 0x49
 5195 010c 13       		.uleb128 0x13
 5196 010d 2F       		.uleb128 0x2f
 5197 010e 0B       		.uleb128 0xb
 5198 010f 00       		.byte	0
 5199 0110 00       		.byte	0
 5200 0111 18       		.uleb128 0x18
 5201 0112 2E       		.uleb128 0x2e
 5202 0113 01       		.byte	0x1
 5203 0114 3F       		.uleb128 0x3f
 5204 0115 19       		.uleb128 0x19
 5205 0116 03       		.uleb128 0x3
 5206 0117 0E       		.uleb128 0xe
 5207 0118 3A       		.uleb128 0x3a
 5208 0119 0B       		.uleb128 0xb
 5209 011a 3B       		.uleb128 0x3b
 5210 011b 0B       		.uleb128 0xb
 5211 011c 11       		.uleb128 0x11
 5212 011d 01       		.uleb128 0x1
 5213 011e 12       		.uleb128 0x12
 5214 011f 06       		.uleb128 0x6
 5215 0120 40       		.uleb128 0x40
 5216 0121 18       		.uleb128 0x18
 5217 0122 9742     		.uleb128 0x2117
 5218 0124 19       		.uleb128 0x19
 5219 0125 01       		.uleb128 0x1
 5220 0126 13       		.uleb128 0x13
 5221 0127 00       		.byte	0
 5222 0128 00       		.byte	0
 5223 0129 19       		.uleb128 0x19
 5224 012a 898201   		.uleb128 0x4109
 5225 012d 01       		.byte	0x1
 5226 012e 11       		.uleb128 0x11
 5227 012f 01       		.uleb128 0x1
 5228 0130 31       		.uleb128 0x31
ARM GAS  C:\Users\leoja\AppData\Local\Temp\ccYOCOnJ.s 			page 108


 5229 0131 13       		.uleb128 0x13
 5230 0132 01       		.uleb128 0x1
 5231 0133 13       		.uleb128 0x13
 5232 0134 00       		.byte	0
 5233 0135 00       		.byte	0
 5234 0136 1A       		.uleb128 0x1a
 5235 0137 8A8201   		.uleb128 0x410a
 5236 013a 00       		.byte	0
 5237 013b 02       		.uleb128 0x2
 5238 013c 18       		.uleb128 0x18
 5239 013d 9142     		.uleb128 0x2111
 5240 013f 18       		.uleb128 0x18
 5241 0140 00       		.byte	0
 5242 0141 00       		.byte	0
 5243 0142 1B       		.uleb128 0x1b
 5244 0143 898201   		.uleb128 0x4109
 5245 0146 01       		.byte	0x1
 5246 0147 11       		.uleb128 0x11
 5247 0148 01       		.uleb128 0x1
 5248 0149 31       		.uleb128 0x31
 5249 014a 13       		.uleb128 0x13
 5250 014b 00       		.byte	0
 5251 014c 00       		.byte	0
 5252 014d 1C       		.uleb128 0x1c
 5253 014e 2E       		.uleb128 0x2e
 5254 014f 01       		.byte	0x1
 5255 0150 3F       		.uleb128 0x3f
 5256 0151 19       		.uleb128 0x19
 5257 0152 03       		.uleb128 0x3
 5258 0153 0E       		.uleb128 0xe
 5259 0154 3A       		.uleb128 0x3a
 5260 0155 0B       		.uleb128 0xb
 5261 0156 3B       		.uleb128 0x3b
 5262 0157 0B       		.uleb128 0xb
 5263 0158 27       		.uleb128 0x27
 5264 0159 19       		.uleb128 0x19
 5265 015a 11       		.uleb128 0x11
 5266 015b 01       		.uleb128 0x1
 5267 015c 12       		.uleb128 0x12
 5268 015d 06       		.uleb128 0x6
 5269 015e 40       		.uleb128 0x40
 5270 015f 18       		.uleb128 0x18
 5271 0160 9742     		.uleb128 0x2117
 5272 0162 19       		.uleb128 0x19
 5273 0163 01       		.uleb128 0x1
 5274 0164 13       		.uleb128 0x13
 5275 0165 00       		.byte	0
 5276 0166 00       		.byte	0
 5277 0167 1D       		.uleb128 0x1d
 5278 0168 05       		.uleb128 0x5
 5279 0169 00       		.byte	0
 5280 016a 03       		.uleb128 0x3
 5281 016b 0E       		.uleb128 0xe
 5282 016c 3A       		.uleb128 0x3a
 5283 016d 0B       		.uleb128 0xb
 5284 016e 3B       		.uleb128 0x3b
 5285 016f 0B       		.uleb128 0xb
ARM GAS  C:\Users\leoja\AppData\Local\Temp\ccYOCOnJ.s 			page 109


 5286 0170 49       		.uleb128 0x49
 5287 0171 13       		.uleb128 0x13
 5288 0172 02       		.uleb128 0x2
 5289 0173 17       		.uleb128 0x17
 5290 0174 00       		.byte	0
 5291 0175 00       		.byte	0
 5292 0176 1E       		.uleb128 0x1e
 5293 0177 05       		.uleb128 0x5
 5294 0178 00       		.byte	0
 5295 0179 03       		.uleb128 0x3
 5296 017a 08       		.uleb128 0x8
 5297 017b 3A       		.uleb128 0x3a
 5298 017c 0B       		.uleb128 0xb
 5299 017d 3B       		.uleb128 0x3b
 5300 017e 0B       		.uleb128 0xb
 5301 017f 49       		.uleb128 0x49
 5302 0180 13       		.uleb128 0x13
 5303 0181 02       		.uleb128 0x2
 5304 0182 17       		.uleb128 0x17
 5305 0183 00       		.byte	0
 5306 0184 00       		.byte	0
 5307 0185 1F       		.uleb128 0x1f
 5308 0186 34       		.uleb128 0x34
 5309 0187 00       		.byte	0
 5310 0188 03       		.uleb128 0x3
 5311 0189 0E       		.uleb128 0xe
 5312 018a 3A       		.uleb128 0x3a
 5313 018b 0B       		.uleb128 0xb
 5314 018c 3B       		.uleb128 0x3b
 5315 018d 0B       		.uleb128 0xb
 5316 018e 49       		.uleb128 0x49
 5317 018f 13       		.uleb128 0x13
 5318 0190 02       		.uleb128 0x2
 5319 0191 17       		.uleb128 0x17
 5320 0192 00       		.byte	0
 5321 0193 00       		.byte	0
 5322 0194 20       		.uleb128 0x20
 5323 0195 0B       		.uleb128 0xb
 5324 0196 01       		.byte	0x1
 5325 0197 11       		.uleb128 0x11
 5326 0198 01       		.uleb128 0x1
 5327 0199 12       		.uleb128 0x12
 5328 019a 06       		.uleb128 0x6
 5329 019b 01       		.uleb128 0x1
 5330 019c 13       		.uleb128 0x13
 5331 019d 00       		.byte	0
 5332 019e 00       		.byte	0
 5333 019f 21       		.uleb128 0x21
 5334 01a0 34       		.uleb128 0x34
 5335 01a1 00       		.byte	0
 5336 01a2 03       		.uleb128 0x3
 5337 01a3 0E       		.uleb128 0xe
 5338 01a4 3A       		.uleb128 0x3a
 5339 01a5 0B       		.uleb128 0xb
 5340 01a6 3B       		.uleb128 0x3b
 5341 01a7 0B       		.uleb128 0xb
 5342 01a8 49       		.uleb128 0x49
ARM GAS  C:\Users\leoja\AppData\Local\Temp\ccYOCOnJ.s 			page 110


 5343 01a9 13       		.uleb128 0x13
 5344 01aa 02       		.uleb128 0x2
 5345 01ab 18       		.uleb128 0x18
 5346 01ac 00       		.byte	0
 5347 01ad 00       		.byte	0
 5348 01ae 22       		.uleb128 0x22
 5349 01af 898201   		.uleb128 0x4109
 5350 01b2 00       		.byte	0
 5351 01b3 11       		.uleb128 0x11
 5352 01b4 01       		.uleb128 0x1
 5353 01b5 31       		.uleb128 0x31
 5354 01b6 13       		.uleb128 0x13
 5355 01b7 00       		.byte	0
 5356 01b8 00       		.byte	0
 5357 01b9 23       		.uleb128 0x23
 5358 01ba 34       		.uleb128 0x34
 5359 01bb 00       		.byte	0
 5360 01bc 03       		.uleb128 0x3
 5361 01bd 0E       		.uleb128 0xe
 5362 01be 3A       		.uleb128 0x3a
 5363 01bf 0B       		.uleb128 0xb
 5364 01c0 3B       		.uleb128 0x3b
 5365 01c1 0B       		.uleb128 0xb
 5366 01c2 49       		.uleb128 0x49
 5367 01c3 13       		.uleb128 0x13
 5368 01c4 1C       		.uleb128 0x1c
 5369 01c5 0B       		.uleb128 0xb
 5370 01c6 00       		.byte	0
 5371 01c7 00       		.byte	0
 5372 01c8 24       		.uleb128 0x24
 5373 01c9 34       		.uleb128 0x34
 5374 01ca 00       		.byte	0
 5375 01cb 03       		.uleb128 0x3
 5376 01cc 0E       		.uleb128 0xe
 5377 01cd 3A       		.uleb128 0x3a
 5378 01ce 0B       		.uleb128 0xb
 5379 01cf 3B       		.uleb128 0x3b
 5380 01d0 05       		.uleb128 0x5
 5381 01d1 49       		.uleb128 0x49
 5382 01d2 13       		.uleb128 0x13
 5383 01d3 02       		.uleb128 0x2
 5384 01d4 18       		.uleb128 0x18
 5385 01d5 00       		.byte	0
 5386 01d6 00       		.byte	0
 5387 01d7 25       		.uleb128 0x25
 5388 01d8 2E       		.uleb128 0x2e
 5389 01d9 01       		.byte	0x1
 5390 01da 3F       		.uleb128 0x3f
 5391 01db 19       		.uleb128 0x19
 5392 01dc 03       		.uleb128 0x3
 5393 01dd 0E       		.uleb128 0xe
 5394 01de 3A       		.uleb128 0x3a
 5395 01df 0B       		.uleb128 0xb
 5396 01e0 3B       		.uleb128 0x3b
 5397 01e1 05       		.uleb128 0x5
 5398 01e2 27       		.uleb128 0x27
 5399 01e3 19       		.uleb128 0x19
ARM GAS  C:\Users\leoja\AppData\Local\Temp\ccYOCOnJ.s 			page 111


 5400 01e4 11       		.uleb128 0x11
 5401 01e5 01       		.uleb128 0x1
 5402 01e6 12       		.uleb128 0x12
 5403 01e7 06       		.uleb128 0x6
 5404 01e8 40       		.uleb128 0x40
 5405 01e9 18       		.uleb128 0x18
 5406 01ea 9742     		.uleb128 0x2117
 5407 01ec 19       		.uleb128 0x19
 5408 01ed 01       		.uleb128 0x1
 5409 01ee 13       		.uleb128 0x13
 5410 01ef 00       		.byte	0
 5411 01f0 00       		.byte	0
 5412 01f1 26       		.uleb128 0x26
 5413 01f2 05       		.uleb128 0x5
 5414 01f3 00       		.byte	0
 5415 01f4 03       		.uleb128 0x3
 5416 01f5 0E       		.uleb128 0xe
 5417 01f6 3A       		.uleb128 0x3a
 5418 01f7 0B       		.uleb128 0xb
 5419 01f8 3B       		.uleb128 0x3b
 5420 01f9 05       		.uleb128 0x5
 5421 01fa 49       		.uleb128 0x49
 5422 01fb 13       		.uleb128 0x13
 5423 01fc 02       		.uleb128 0x2
 5424 01fd 17       		.uleb128 0x17
 5425 01fe 00       		.byte	0
 5426 01ff 00       		.byte	0
 5427 0200 27       		.uleb128 0x27
 5428 0201 05       		.uleb128 0x5
 5429 0202 00       		.byte	0
 5430 0203 03       		.uleb128 0x3
 5431 0204 08       		.uleb128 0x8
 5432 0205 3A       		.uleb128 0x3a
 5433 0206 0B       		.uleb128 0xb
 5434 0207 3B       		.uleb128 0x3b
 5435 0208 05       		.uleb128 0x5
 5436 0209 49       		.uleb128 0x49
 5437 020a 13       		.uleb128 0x13
 5438 020b 02       		.uleb128 0x2
 5439 020c 17       		.uleb128 0x17
 5440 020d 00       		.byte	0
 5441 020e 00       		.byte	0
 5442 020f 28       		.uleb128 0x28
 5443 0210 34       		.uleb128 0x34
 5444 0211 00       		.byte	0
 5445 0212 03       		.uleb128 0x3
 5446 0213 0E       		.uleb128 0xe
 5447 0214 3A       		.uleb128 0x3a
 5448 0215 0B       		.uleb128 0xb
 5449 0216 3B       		.uleb128 0x3b
 5450 0217 05       		.uleb128 0x5
 5451 0218 49       		.uleb128 0x49
 5452 0219 13       		.uleb128 0x13
 5453 021a 02       		.uleb128 0x2
 5454 021b 17       		.uleb128 0x17
 5455 021c 00       		.byte	0
 5456 021d 00       		.byte	0
ARM GAS  C:\Users\leoja\AppData\Local\Temp\ccYOCOnJ.s 			page 112


 5457 021e 29       		.uleb128 0x29
 5458 021f 34       		.uleb128 0x34
 5459 0220 00       		.byte	0
 5460 0221 03       		.uleb128 0x3
 5461 0222 0E       		.uleb128 0xe
 5462 0223 3A       		.uleb128 0x3a
 5463 0224 0B       		.uleb128 0xb
 5464 0225 3B       		.uleb128 0x3b
 5465 0226 05       		.uleb128 0x5
 5466 0227 49       		.uleb128 0x49
 5467 0228 13       		.uleb128 0x13
 5468 0229 1C       		.uleb128 0x1c
 5469 022a 0B       		.uleb128 0xb
 5470 022b 00       		.byte	0
 5471 022c 00       		.byte	0
 5472 022d 2A       		.uleb128 0x2a
 5473 022e 2E       		.uleb128 0x2e
 5474 022f 01       		.byte	0x1
 5475 0230 3F       		.uleb128 0x3f
 5476 0231 19       		.uleb128 0x19
 5477 0232 03       		.uleb128 0x3
 5478 0233 0E       		.uleb128 0xe
 5479 0234 3A       		.uleb128 0x3a
 5480 0235 0B       		.uleb128 0xb
 5481 0236 3B       		.uleb128 0x3b
 5482 0237 05       		.uleb128 0x5
 5483 0238 27       		.uleb128 0x27
 5484 0239 19       		.uleb128 0x19
 5485 023a 11       		.uleb128 0x11
 5486 023b 01       		.uleb128 0x1
 5487 023c 12       		.uleb128 0x12
 5488 023d 06       		.uleb128 0x6
 5489 023e 40       		.uleb128 0x40
 5490 023f 18       		.uleb128 0x18
 5491 0240 9642     		.uleb128 0x2116
 5492 0242 19       		.uleb128 0x19
 5493 0243 01       		.uleb128 0x1
 5494 0244 13       		.uleb128 0x13
 5495 0245 00       		.byte	0
 5496 0246 00       		.byte	0
 5497 0247 2B       		.uleb128 0x2b
 5498 0248 0B       		.uleb128 0xb
 5499 0249 01       		.byte	0x1
 5500 024a 55       		.uleb128 0x55
 5501 024b 17       		.uleb128 0x17
 5502 024c 01       		.uleb128 0x1
 5503 024d 13       		.uleb128 0x13
 5504 024e 00       		.byte	0
 5505 024f 00       		.byte	0
 5506 0250 2C       		.uleb128 0x2c
 5507 0251 2E       		.uleb128 0x2e
 5508 0252 01       		.byte	0x1
 5509 0253 3F       		.uleb128 0x3f
 5510 0254 19       		.uleb128 0x19
 5511 0255 03       		.uleb128 0x3
 5512 0256 0E       		.uleb128 0xe
 5513 0257 3A       		.uleb128 0x3a
ARM GAS  C:\Users\leoja\AppData\Local\Temp\ccYOCOnJ.s 			page 113


 5514 0258 0B       		.uleb128 0xb
 5515 0259 3B       		.uleb128 0x3b
 5516 025a 05       		.uleb128 0x5
 5517 025b 27       		.uleb128 0x27
 5518 025c 19       		.uleb128 0x19
 5519 025d 20       		.uleb128 0x20
 5520 025e 0B       		.uleb128 0xb
 5521 025f 01       		.uleb128 0x1
 5522 0260 13       		.uleb128 0x13
 5523 0261 00       		.byte	0
 5524 0262 00       		.byte	0
 5525 0263 2D       		.uleb128 0x2d
 5526 0264 05       		.uleb128 0x5
 5527 0265 00       		.byte	0
 5528 0266 03       		.uleb128 0x3
 5529 0267 0E       		.uleb128 0xe
 5530 0268 3A       		.uleb128 0x3a
 5531 0269 0B       		.uleb128 0xb
 5532 026a 3B       		.uleb128 0x3b
 5533 026b 05       		.uleb128 0x5
 5534 026c 49       		.uleb128 0x49
 5535 026d 13       		.uleb128 0x13
 5536 026e 00       		.byte	0
 5537 026f 00       		.byte	0
 5538 0270 2E       		.uleb128 0x2e
 5539 0271 05       		.uleb128 0x5
 5540 0272 00       		.byte	0
 5541 0273 03       		.uleb128 0x3
 5542 0274 08       		.uleb128 0x8
 5543 0275 3A       		.uleb128 0x3a
 5544 0276 0B       		.uleb128 0xb
 5545 0277 3B       		.uleb128 0x3b
 5546 0278 05       		.uleb128 0x5
 5547 0279 49       		.uleb128 0x49
 5548 027a 13       		.uleb128 0x13
 5549 027b 00       		.byte	0
 5550 027c 00       		.byte	0
 5551 027d 2F       		.uleb128 0x2f
 5552 027e 2E       		.uleb128 0x2e
 5553 027f 01       		.byte	0x1
 5554 0280 31       		.uleb128 0x31
 5555 0281 13       		.uleb128 0x13
 5556 0282 11       		.uleb128 0x11
 5557 0283 01       		.uleb128 0x1
 5558 0284 12       		.uleb128 0x12
 5559 0285 06       		.uleb128 0x6
 5560 0286 40       		.uleb128 0x40
 5561 0287 18       		.uleb128 0x18
 5562 0288 9742     		.uleb128 0x2117
 5563 028a 19       		.uleb128 0x19
 5564 028b 01       		.uleb128 0x1
 5565 028c 13       		.uleb128 0x13
 5566 028d 00       		.byte	0
 5567 028e 00       		.byte	0
 5568 028f 30       		.uleb128 0x30
 5569 0290 05       		.uleb128 0x5
 5570 0291 00       		.byte	0
ARM GAS  C:\Users\leoja\AppData\Local\Temp\ccYOCOnJ.s 			page 114


 5571 0292 31       		.uleb128 0x31
 5572 0293 13       		.uleb128 0x13
 5573 0294 02       		.uleb128 0x2
 5574 0295 17       		.uleb128 0x17
 5575 0296 00       		.byte	0
 5576 0297 00       		.byte	0
 5577 0298 31       		.uleb128 0x31
 5578 0299 34       		.uleb128 0x34
 5579 029a 00       		.byte	0
 5580 029b 03       		.uleb128 0x3
 5581 029c 0E       		.uleb128 0xe
 5582 029d 3A       		.uleb128 0x3a
 5583 029e 0B       		.uleb128 0xb
 5584 029f 3B       		.uleb128 0x3b
 5585 02a0 0B       		.uleb128 0xb
 5586 02a1 49       		.uleb128 0x49
 5587 02a2 13       		.uleb128 0x13
 5588 02a3 3F       		.uleb128 0x3f
 5589 02a4 19       		.uleb128 0x19
 5590 02a5 3C       		.uleb128 0x3c
 5591 02a6 19       		.uleb128 0x19
 5592 02a7 00       		.byte	0
 5593 02a8 00       		.byte	0
 5594 02a9 32       		.uleb128 0x32
 5595 02aa 34       		.uleb128 0x34
 5596 02ab 00       		.byte	0
 5597 02ac 03       		.uleb128 0x3
 5598 02ad 0E       		.uleb128 0xe
 5599 02ae 3A       		.uleb128 0x3a
 5600 02af 0B       		.uleb128 0xb
 5601 02b0 3B       		.uleb128 0x3b
 5602 02b1 0B       		.uleb128 0xb
 5603 02b2 49       		.uleb128 0x49
 5604 02b3 13       		.uleb128 0x13
 5605 02b4 3F       		.uleb128 0x3f
 5606 02b5 19       		.uleb128 0x19
 5607 02b6 02       		.uleb128 0x2
 5608 02b7 18       		.uleb128 0x18
 5609 02b8 00       		.byte	0
 5610 02b9 00       		.byte	0
 5611 02ba 33       		.uleb128 0x33
 5612 02bb 2E       		.uleb128 0x2e
 5613 02bc 00       		.byte	0
 5614 02bd 3F       		.uleb128 0x3f
 5615 02be 19       		.uleb128 0x19
 5616 02bf 3C       		.uleb128 0x3c
 5617 02c0 19       		.uleb128 0x19
 5618 02c1 6E       		.uleb128 0x6e
 5619 02c2 0E       		.uleb128 0xe
 5620 02c3 03       		.uleb128 0x3
 5621 02c4 0E       		.uleb128 0xe
 5622 02c5 3A       		.uleb128 0x3a
 5623 02c6 0B       		.uleb128 0xb
 5624 02c7 3B       		.uleb128 0x3b
 5625 02c8 05       		.uleb128 0x5
 5626 02c9 00       		.byte	0
 5627 02ca 00       		.byte	0
ARM GAS  C:\Users\leoja\AppData\Local\Temp\ccYOCOnJ.s 			page 115


 5628 02cb 34       		.uleb128 0x34
 5629 02cc 2E       		.uleb128 0x2e
 5630 02cd 00       		.byte	0
 5631 02ce 3F       		.uleb128 0x3f
 5632 02cf 19       		.uleb128 0x19
 5633 02d0 3C       		.uleb128 0x3c
 5634 02d1 19       		.uleb128 0x19
 5635 02d2 6E       		.uleb128 0x6e
 5636 02d3 0E       		.uleb128 0xe
 5637 02d4 03       		.uleb128 0x3
 5638 02d5 0E       		.uleb128 0xe
 5639 02d6 3A       		.uleb128 0x3a
 5640 02d7 0B       		.uleb128 0xb
 5641 02d8 3B       		.uleb128 0x3b
 5642 02d9 0B       		.uleb128 0xb
 5643 02da 00       		.byte	0
 5644 02db 00       		.byte	0
 5645 02dc 00       		.byte	0
 5646              		.section	.debug_loc,"",%progbits
 5647              	.Ldebug_loc0:
 5648              	.LLST0:
 5649 0000 00000000 		.4byte	.LVL18
 5650 0004 30000000 		.4byte	.LVL28
 5651 0008 0100     		.2byte	0x1
 5652 000a 50       		.byte	0x50
 5653 000b 30000000 		.4byte	.LVL28
 5654 000f 5C010000 		.4byte	.LFE38
 5655 0013 0400     		.2byte	0x4
 5656 0015 F3       		.byte	0xf3
 5657 0016 01       		.uleb128 0x1
 5658 0017 50       		.byte	0x50
 5659 0018 9F       		.byte	0x9f
 5660 0019 00000000 		.4byte	0
 5661 001d 00000000 		.4byte	0
 5662              	.LLST1:
 5663 0021 00000000 		.4byte	.LVL18
 5664 0025 12000000 		.4byte	.LVL22
 5665 0029 0100     		.2byte	0x1
 5666 002b 51       		.byte	0x51
 5667 002c 12000000 		.4byte	.LVL22
 5668 0030 5C010000 		.4byte	.LFE38
 5669 0034 0400     		.2byte	0x4
 5670 0036 F3       		.byte	0xf3
 5671 0037 01       		.uleb128 0x1
 5672 0038 51       		.byte	0x51
 5673 0039 9F       		.byte	0x9f
 5674 003a 00000000 		.4byte	0
 5675 003e 00000000 		.4byte	0
 5676              	.LLST2:
 5677 0042 00000000 		.4byte	.LVL18
 5678 0046 1E000000 		.4byte	.LVL25
 5679 004a 0100     		.2byte	0x1
 5680 004c 52       		.byte	0x52
 5681 004d 1E000000 		.4byte	.LVL25
 5682 0051 5C010000 		.4byte	.LFE38
 5683 0055 0400     		.2byte	0x4
 5684 0057 F3       		.byte	0xf3
ARM GAS  C:\Users\leoja\AppData\Local\Temp\ccYOCOnJ.s 			page 116


 5685 0058 01       		.uleb128 0x1
 5686 0059 52       		.byte	0x52
 5687 005a 9F       		.byte	0x9f
 5688 005b 00000000 		.4byte	0
 5689 005f 00000000 		.4byte	0
 5690              	.LLST3:
 5691 0063 00000000 		.4byte	.LVL18
 5692 0067 08000000 		.4byte	.LVL19
 5693 006b 0100     		.2byte	0x1
 5694 006d 53       		.byte	0x53
 5695 006e 08000000 		.4byte	.LVL19
 5696 0072 5C010000 		.4byte	.LFE38
 5697 0076 0400     		.2byte	0x4
 5698 0078 F3       		.byte	0xf3
 5699 0079 01       		.uleb128 0x1
 5700 007a 53       		.byte	0x53
 5701 007b 9F       		.byte	0x9f
 5702 007c 00000000 		.4byte	0
 5703 0080 00000000 		.4byte	0
 5704              	.LLST4:
 5705 0084 00000000 		.4byte	.LVL18
 5706 0088 08000000 		.4byte	.LVL19
 5707 008c 0200     		.2byte	0x2
 5708 008e 91       		.byte	0x91
 5709 008f 00       		.sleb128 0
 5710 0090 08000000 		.4byte	.LVL19
 5711 0094 0A000000 		.4byte	.LVL20
 5712 0098 0200     		.2byte	0x2
 5713 009a 73       		.byte	0x73
 5714 009b 00       		.sleb128 0
 5715 009c 0A000000 		.4byte	.LVL20
 5716 00a0 5C010000 		.4byte	.LFE38
 5717 00a4 0200     		.2byte	0x2
 5718 00a6 91       		.byte	0x91
 5719 00a7 00       		.sleb128 0
 5720 00a8 00000000 		.4byte	0
 5721 00ac 00000000 		.4byte	0
 5722              	.LLST5:
 5723 00b0 00000000 		.4byte	.LVL18
 5724 00b4 08000000 		.4byte	.LVL19
 5725 00b8 0200     		.2byte	0x2
 5726 00ba 91       		.byte	0x91
 5727 00bb 04       		.sleb128 4
 5728 00bc 08000000 		.4byte	.LVL19
 5729 00c0 0A000000 		.4byte	.LVL20
 5730 00c4 0200     		.2byte	0x2
 5731 00c6 73       		.byte	0x73
 5732 00c7 04       		.sleb128 4
 5733 00c8 0A000000 		.4byte	.LVL20
 5734 00cc 10000000 		.4byte	.LVL21
 5735 00d0 0200     		.2byte	0x2
 5736 00d2 91       		.byte	0x91
 5737 00d3 04       		.sleb128 4
 5738 00d4 10000000 		.4byte	.LVL21
 5739 00d8 14000000 		.4byte	.LVL23
 5740 00dc 0200     		.2byte	0x2
 5741 00de 73       		.byte	0x73
ARM GAS  C:\Users\leoja\AppData\Local\Temp\ccYOCOnJ.s 			page 117


 5742 00df 00       		.sleb128 0
 5743 00e0 14000000 		.4byte	.LVL23
 5744 00e4 5C010000 		.4byte	.LFE38
 5745 00e8 0200     		.2byte	0x2
 5746 00ea 91       		.byte	0x91
 5747 00eb 04       		.sleb128 4
 5748 00ec 00000000 		.4byte	0
 5749 00f0 00000000 		.4byte	0
 5750              	.LLST6:
 5751 00f4 2C000000 		.4byte	.LVL26
 5752 00f8 53000000 		.4byte	.LVL31-1
 5753 00fc 0100     		.2byte	0x1
 5754 00fe 52       		.byte	0x52
 5755 00ff 00000000 		.4byte	0
 5756 0103 00000000 		.4byte	0
 5757              	.LLST7:
 5758 0107 3A000000 		.4byte	.LVL29
 5759 010b 64000000 		.4byte	.LVL33
 5760 010f 0100     		.2byte	0x1
 5761 0111 56       		.byte	0x56
 5762 0112 94000000 		.4byte	.LVL35
 5763 0116 CC000000 		.4byte	.LVL39
 5764 011a 0100     		.2byte	0x1
 5765 011c 56       		.byte	0x56
 5766 011d F4000000 		.4byte	.LVL42
 5767 0121 FE000000 		.4byte	.LVL43
 5768 0125 0100     		.2byte	0x1
 5769 0127 56       		.byte	0x56
 5770 0128 00000000 		.4byte	0
 5771 012c 00000000 		.4byte	0
 5772              	.LLST8:
 5773 0130 4A000000 		.4byte	.LVL30
 5774 0134 96000000 		.4byte	.LVL36
 5775 0138 0100     		.2byte	0x1
 5776 013a 57       		.byte	0x57
 5777 013b 96000000 		.4byte	.LVL36
 5778 013f E8000000 		.4byte	.LVL40
 5779 0143 1600     		.2byte	0x16
 5780 0145 91       		.byte	0x91
 5781 0146 04       		.sleb128 4
 5782 0147 94       		.byte	0x94
 5783 0148 01       		.byte	0x1
 5784 0149 08       		.byte	0x8
 5785 014a FF       		.byte	0xff
 5786 014b 1A       		.byte	0x1a
 5787 014c 09       		.byte	0x9
 5788 014d EF       		.byte	0xef
 5789 014e 1E       		.byte	0x1e
 5790 014f 74       		.byte	0x74
 5791 0150 00       		.sleb128 0
 5792 0151 91       		.byte	0x91
 5793 0152 54       		.sleb128 -44
 5794 0153 06       		.byte	0x6
 5795 0154 22       		.byte	0x22
 5796 0155 31       		.byte	0x31
 5797 0156 26       		.byte	0x26
 5798 0157 22       		.byte	0x22
ARM GAS  C:\Users\leoja\AppData\Local\Temp\ccYOCOnJ.s 			page 118


 5799 0158 35       		.byte	0x35
 5800 0159 1C       		.byte	0x1c
 5801 015a 9F       		.byte	0x9f
 5802 015b F4000000 		.4byte	.LVL42
 5803 015f 1C010000 		.4byte	.LVL45
 5804 0163 1600     		.2byte	0x16
 5805 0165 91       		.byte	0x91
 5806 0166 04       		.sleb128 4
 5807 0167 94       		.byte	0x94
 5808 0168 01       		.byte	0x1
 5809 0169 08       		.byte	0x8
 5810 016a FF       		.byte	0xff
 5811 016b 1A       		.byte	0x1a
 5812 016c 09       		.byte	0x9
 5813 016d EF       		.byte	0xef
 5814 016e 1E       		.byte	0x1e
 5815 016f 74       		.byte	0x74
 5816 0170 00       		.sleb128 0
 5817 0171 91       		.byte	0x91
 5818 0172 54       		.sleb128 -44
 5819 0173 06       		.byte	0x6
 5820 0174 22       		.byte	0x22
 5821 0175 31       		.byte	0x31
 5822 0176 26       		.byte	0x26
 5823 0177 22       		.byte	0x22
 5824 0178 35       		.byte	0x35
 5825 0179 1C       		.byte	0x1c
 5826 017a 9F       		.byte	0x9f
 5827 017b 00000000 		.4byte	0
 5828 017f 00000000 		.4byte	0
 5829              	.LLST9:
 5830 0183 1C000000 		.4byte	.LVL24
 5831 0187 2E000000 		.4byte	.LVL27
 5832 018b 0100     		.2byte	0x1
 5833 018d 53       		.byte	0x53
 5834 018e 2E000000 		.4byte	.LVL27
 5835 0192 53000000 		.4byte	.LVL31-1
 5836 0196 0700     		.2byte	0x7
 5837 0198 71       		.byte	0x71
 5838 0199 00       		.sleb128 0
 5839 019a 44       		.byte	0x44
 5840 019b 1E       		.byte	0x1e
 5841 019c 23       		.byte	0x23
 5842 019d 0C       		.uleb128 0xc
 5843 019e 9F       		.byte	0x9f
 5844 019f 53000000 		.4byte	.LVL31-1
 5845 01a3 5C010000 		.4byte	.LFE38
 5846 01a7 0C00     		.2byte	0xc
 5847 01a9 91       		.byte	0x91
 5848 01aa 04       		.sleb128 4
 5849 01ab 94       		.byte	0x94
 5850 01ac 01       		.byte	0x1
 5851 01ad 08       		.byte	0x8
 5852 01ae FF       		.byte	0xff
 5853 01af 1A       		.byte	0x1a
 5854 01b0 44       		.byte	0x44
 5855 01b1 1E       		.byte	0x1e
ARM GAS  C:\Users\leoja\AppData\Local\Temp\ccYOCOnJ.s 			page 119


 5856 01b2 23       		.byte	0x23
 5857 01b3 0C       		.uleb128 0xc
 5858 01b4 9F       		.byte	0x9f
 5859 01b5 00000000 		.4byte	0
 5860 01b9 00000000 		.4byte	0
 5861              	.LLST10:
 5862 01bd 60000000 		.4byte	.LVL32
 5863 01c1 94000000 		.4byte	.LVL35
 5864 01c5 0400     		.2byte	0x4
 5865 01c7 0A       		.byte	0xa
 5866 01c8 00FF     		.2byte	0xff00
 5867 01ca 9F       		.byte	0x9f
 5868 01cb C2000000 		.4byte	.LVL38
 5869 01cf F4000000 		.4byte	.LVL42
 5870 01d3 0100     		.2byte	0x1
 5871 01d5 55       		.byte	0x55
 5872 01d6 00010000 		.4byte	.LVL44
 5873 01da 2A010000 		.4byte	.LVL47
 5874 01de 0500     		.2byte	0x5
 5875 01e0 08       		.byte	0x8
 5876 01e1 FF       		.byte	0xff
 5877 01e2 40       		.byte	0x40
 5878 01e3 24       		.byte	0x24
 5879 01e4 9F       		.byte	0x9f
 5880 01e5 00000000 		.4byte	0
 5881 01e9 00000000 		.4byte	0
 5882              	.LLST11:
 5883 01ed 00000000 		.4byte	.LVL50
 5884 01f1 24000000 		.4byte	.LVL59
 5885 01f5 0100     		.2byte	0x1
 5886 01f7 50       		.byte	0x50
 5887 01f8 24000000 		.4byte	.LVL59
 5888 01fc 0C010000 		.4byte	.LFE39
 5889 0200 0400     		.2byte	0x4
 5890 0202 F3       		.byte	0xf3
 5891 0203 01       		.uleb128 0x1
 5892 0204 50       		.byte	0x50
 5893 0205 9F       		.byte	0x9f
 5894 0206 00000000 		.4byte	0
 5895 020a 00000000 		.4byte	0
 5896              	.LLST12:
 5897 020e 00000000 		.4byte	.LVL50
 5898 0212 18000000 		.4byte	.LVL56
 5899 0216 0100     		.2byte	0x1
 5900 0218 51       		.byte	0x51
 5901 0219 18000000 		.4byte	.LVL56
 5902 021d 0C010000 		.4byte	.LFE39
 5903 0221 0400     		.2byte	0x4
 5904 0223 F3       		.byte	0xf3
 5905 0224 01       		.uleb128 0x1
 5906 0225 51       		.byte	0x51
 5907 0226 9F       		.byte	0x9f
 5908 0227 00000000 		.4byte	0
 5909 022b 00000000 		.4byte	0
 5910              	.LLST13:
 5911 022f 00000000 		.4byte	.LVL50
 5912 0233 12000000 		.4byte	.LVL54
ARM GAS  C:\Users\leoja\AppData\Local\Temp\ccYOCOnJ.s 			page 120


 5913 0237 0100     		.2byte	0x1
 5914 0239 52       		.byte	0x52
 5915 023a 12000000 		.4byte	.LVL54
 5916 023e 0C010000 		.4byte	.LFE39
 5917 0242 0400     		.2byte	0x4
 5918 0244 F3       		.byte	0xf3
 5919 0245 01       		.uleb128 0x1
 5920 0246 52       		.byte	0x52
 5921 0247 9F       		.byte	0x9f
 5922 0248 00000000 		.4byte	0
 5923 024c 00000000 		.4byte	0
 5924              	.LLST14:
 5925 0250 00000000 		.4byte	.LVL50
 5926 0254 08000000 		.4byte	.LVL51
 5927 0258 0100     		.2byte	0x1
 5928 025a 53       		.byte	0x53
 5929 025b 08000000 		.4byte	.LVL51
 5930 025f 0C010000 		.4byte	.LFE39
 5931 0263 0400     		.2byte	0x4
 5932 0265 F3       		.byte	0xf3
 5933 0266 01       		.uleb128 0x1
 5934 0267 53       		.byte	0x53
 5935 0268 9F       		.byte	0x9f
 5936 0269 00000000 		.4byte	0
 5937 026d 00000000 		.4byte	0
 5938              	.LLST15:
 5939 0271 00000000 		.4byte	.LVL50
 5940 0275 08000000 		.4byte	.LVL51
 5941 0279 0200     		.2byte	0x2
 5942 027b 91       		.byte	0x91
 5943 027c 00       		.sleb128 0
 5944 027d 08000000 		.4byte	.LVL51
 5945 0281 0A000000 		.4byte	.LVL52
 5946 0285 0200     		.2byte	0x2
 5947 0287 73       		.byte	0x73
 5948 0288 00       		.sleb128 0
 5949 0289 0A000000 		.4byte	.LVL52
 5950 028d 0C010000 		.4byte	.LFE39
 5951 0291 0200     		.2byte	0x2
 5952 0293 91       		.byte	0x91
 5953 0294 00       		.sleb128 0
 5954 0295 00000000 		.4byte	0
 5955 0299 00000000 		.4byte	0
 5956              	.LLST16:
 5957 029d 00000000 		.4byte	.LVL50
 5958 02a1 08000000 		.4byte	.LVL51
 5959 02a5 0200     		.2byte	0x2
 5960 02a7 91       		.byte	0x91
 5961 02a8 04       		.sleb128 4
 5962 02a9 08000000 		.4byte	.LVL51
 5963 02ad 0A000000 		.4byte	.LVL52
 5964 02b1 0200     		.2byte	0x2
 5965 02b3 73       		.byte	0x73
 5966 02b4 04       		.sleb128 4
 5967 02b5 0A000000 		.4byte	.LVL52
 5968 02b9 10000000 		.4byte	.LVL53
 5969 02bd 0200     		.2byte	0x2
ARM GAS  C:\Users\leoja\AppData\Local\Temp\ccYOCOnJ.s 			page 121


 5970 02bf 91       		.byte	0x91
 5971 02c0 04       		.sleb128 4
 5972 02c1 10000000 		.4byte	.LVL53
 5973 02c5 14000000 		.4byte	.LVL55
 5974 02c9 0200     		.2byte	0x2
 5975 02cb 73       		.byte	0x73
 5976 02cc 00       		.sleb128 0
 5977 02cd 14000000 		.4byte	.LVL55
 5978 02d1 0C010000 		.4byte	.LFE39
 5979 02d5 0200     		.2byte	0x2
 5980 02d7 91       		.byte	0x91
 5981 02d8 04       		.sleb128 4
 5982 02d9 00000000 		.4byte	0
 5983 02dd 00000000 		.4byte	0
 5984              	.LLST17:
 5985 02e1 30000000 		.4byte	.LVL60
 5986 02e5 32000000 		.4byte	.LVL61
 5987 02e9 0100     		.2byte	0x1
 5988 02eb 53       		.byte	0x53
 5989 02ec 32000000 		.4byte	.LVL61
 5990 02f0 0C010000 		.4byte	.LFE39
 5991 02f4 0200     		.2byte	0x2
 5992 02f6 91       		.byte	0x91
 5993 02f7 58       		.sleb128 -40
 5994 02f8 00000000 		.4byte	0
 5995 02fc 00000000 		.4byte	0
 5996              	.LLST18:
 5997 0300 42000000 		.4byte	.LVL62
 5998 0304 4B000000 		.4byte	.LVL63-1
 5999 0308 0100     		.2byte	0x1
 6000 030a 53       		.byte	0x53
 6001 030b 4B000000 		.4byte	.LVL63-1
 6002 030f 0C010000 		.4byte	.LFE39
 6003 0313 0200     		.2byte	0x2
 6004 0315 91       		.byte	0x91
 6005 0316 5C       		.sleb128 -36
 6006 0317 00000000 		.4byte	0
 6007 031b 00000000 		.4byte	0
 6008              	.LLST19:
 6009 031f 12000000 		.4byte	.LVL54
 6010 0323 1C000000 		.4byte	.LVL57
 6011 0327 0700     		.2byte	0x7
 6012 0329 72       		.byte	0x72
 6013 032a 00       		.sleb128 0
 6014 032b 44       		.byte	0x44
 6015 032c 1E       		.byte	0x1e
 6016 032d 23       		.byte	0x23
 6017 032e 0C       		.uleb128 0xc
 6018 032f 9F       		.byte	0x9f
 6019 0330 1C000000 		.4byte	.LVL57
 6020 0334 1E000000 		.4byte	.LVL58
 6021 0338 0100     		.2byte	0x1
 6022 033a 53       		.byte	0x53
 6023 033b 1E000000 		.4byte	.LVL58
 6024 033f 4B000000 		.4byte	.LVL63-1
 6025 0343 0700     		.2byte	0x7
 6026 0345 72       		.byte	0x72
ARM GAS  C:\Users\leoja\AppData\Local\Temp\ccYOCOnJ.s 			page 122


 6027 0346 00       		.sleb128 0
 6028 0347 44       		.byte	0x44
 6029 0348 1E       		.byte	0x1e
 6030 0349 23       		.byte	0x23
 6031 034a 0C       		.uleb128 0xc
 6032 034b 9F       		.byte	0x9f
 6033 034c 4B000000 		.4byte	.LVL63-1
 6034 0350 0C010000 		.4byte	.LFE39
 6035 0354 0C00     		.2byte	0xc
 6036 0356 91       		.byte	0x91
 6037 0357 04       		.sleb128 4
 6038 0358 94       		.byte	0x94
 6039 0359 01       		.byte	0x1
 6040 035a 08       		.byte	0x8
 6041 035b FF       		.byte	0xff
 6042 035c 1A       		.byte	0x1a
 6043 035d 44       		.byte	0x44
 6044 035e 1E       		.byte	0x1e
 6045 035f 23       		.byte	0x23
 6046 0360 0C       		.uleb128 0xc
 6047 0361 9F       		.byte	0x9f
 6048 0362 00000000 		.4byte	0
 6049 0366 00000000 		.4byte	0
 6050              	.LLST20:
 6051 036a 5A000000 		.4byte	.LVL64
 6052 036e 96000000 		.4byte	.LVL67
 6053 0372 0500     		.2byte	0x5
 6054 0374 08       		.byte	0x8
 6055 0375 FF       		.byte	0xff
 6056 0376 40       		.byte	0x40
 6057 0377 24       		.byte	0x24
 6058 0378 9F       		.byte	0x9f
 6059 0379 A2000000 		.4byte	.LVL68
 6060 037d F2000000 		.4byte	.LVL73
 6061 0381 0100     		.2byte	0x1
 6062 0383 54       		.byte	0x54
 6063 0384 00000000 		.4byte	0
 6064 0388 00000000 		.4byte	0
 6065              	.LLST21:
 6066 038c 00000000 		.4byte	.LVL74
 6067 0390 24000000 		.4byte	.LVL82
 6068 0394 0100     		.2byte	0x1
 6069 0396 50       		.byte	0x50
 6070 0397 24000000 		.4byte	.LVL82
 6071 039b B8020000 		.4byte	.LFE40
 6072 039f 0400     		.2byte	0x4
 6073 03a1 F3       		.byte	0xf3
 6074 03a2 01       		.uleb128 0x1
 6075 03a3 50       		.byte	0x50
 6076 03a4 9F       		.byte	0x9f
 6077 03a5 00000000 		.4byte	0
 6078 03a9 00000000 		.4byte	0
 6079              	.LLST22:
 6080 03ad 00000000 		.4byte	.LVL74
 6081 03b1 16000000 		.4byte	.LVL79
 6082 03b5 0100     		.2byte	0x1
 6083 03b7 51       		.byte	0x51
ARM GAS  C:\Users\leoja\AppData\Local\Temp\ccYOCOnJ.s 			page 123


 6084 03b8 16000000 		.4byte	.LVL79
 6085 03bc B8020000 		.4byte	.LFE40
 6086 03c0 0400     		.2byte	0x4
 6087 03c2 F3       		.byte	0xf3
 6088 03c3 01       		.uleb128 0x1
 6089 03c4 51       		.byte	0x51
 6090 03c5 9F       		.byte	0x9f
 6091 03c6 00000000 		.4byte	0
 6092 03ca 00000000 		.4byte	0
 6093              	.LLST23:
 6094 03ce 00000000 		.4byte	.LVL74
 6095 03d2 10000000 		.4byte	.LVL77
 6096 03d6 0100     		.2byte	0x1
 6097 03d8 52       		.byte	0x52
 6098 03d9 10000000 		.4byte	.LVL77
 6099 03dd B8020000 		.4byte	.LFE40
 6100 03e1 0400     		.2byte	0x4
 6101 03e3 F3       		.byte	0xf3
 6102 03e4 01       		.uleb128 0x1
 6103 03e5 52       		.byte	0x52
 6104 03e6 9F       		.byte	0x9f
 6105 03e7 00000000 		.4byte	0
 6106 03eb 00000000 		.4byte	0
 6107              	.LLST24:
 6108 03ef 00000000 		.4byte	.LVL74
 6109 03f3 08000000 		.4byte	.LVL75
 6110 03f7 0100     		.2byte	0x1
 6111 03f9 53       		.byte	0x53
 6112 03fa 08000000 		.4byte	.LVL75
 6113 03fe B8020000 		.4byte	.LFE40
 6114 0402 0400     		.2byte	0x4
 6115 0404 F3       		.byte	0xf3
 6116 0405 01       		.uleb128 0x1
 6117 0406 53       		.byte	0x53
 6118 0407 9F       		.byte	0x9f
 6119 0408 00000000 		.4byte	0
 6120 040c 00000000 		.4byte	0
 6121              	.LLST25:
 6122 0410 00000000 		.4byte	.LVL74
 6123 0414 08000000 		.4byte	.LVL75
 6124 0418 0200     		.2byte	0x2
 6125 041a 91       		.byte	0x91
 6126 041b 00       		.sleb128 0
 6127 041c 08000000 		.4byte	.LVL75
 6128 0420 0C000000 		.4byte	.LVL76
 6129 0424 0200     		.2byte	0x2
 6130 0426 73       		.byte	0x73
 6131 0427 00       		.sleb128 0
 6132 0428 0C000000 		.4byte	.LVL76
 6133 042c B8020000 		.4byte	.LFE40
 6134 0430 0200     		.2byte	0x2
 6135 0432 91       		.byte	0x91
 6136 0433 00       		.sleb128 0
 6137 0434 00000000 		.4byte	0
 6138 0438 00000000 		.4byte	0
 6139              	.LLST26:
 6140 043c 00000000 		.4byte	.LVL74
ARM GAS  C:\Users\leoja\AppData\Local\Temp\ccYOCOnJ.s 			page 124


 6141 0440 08000000 		.4byte	.LVL75
 6142 0444 0200     		.2byte	0x2
 6143 0446 91       		.byte	0x91
 6144 0447 04       		.sleb128 4
 6145 0448 08000000 		.4byte	.LVL75
 6146 044c 0C000000 		.4byte	.LVL76
 6147 0450 0200     		.2byte	0x2
 6148 0452 73       		.byte	0x73
 6149 0453 04       		.sleb128 4
 6150 0454 0C000000 		.4byte	.LVL76
 6151 0458 12000000 		.4byte	.LVL78
 6152 045c 0200     		.2byte	0x2
 6153 045e 73       		.byte	0x73
 6154 045f 00       		.sleb128 0
 6155 0460 12000000 		.4byte	.LVL78
 6156 0464 B8020000 		.4byte	.LFE40
 6157 0468 0200     		.2byte	0x2
 6158 046a 91       		.byte	0x91
 6159 046b 04       		.sleb128 4
 6160 046c 00000000 		.4byte	0
 6161 0470 00000000 		.4byte	0
 6162              	.LLST27:
 6163 0474 2E000000 		.4byte	.LVL83
 6164 0478 32000000 		.4byte	.LVL84
 6165 047c 0100     		.2byte	0x1
 6166 047e 53       		.byte	0x53
 6167 047f 32000000 		.4byte	.LVL84
 6168 0483 B8020000 		.4byte	.LFE40
 6169 0487 0200     		.2byte	0x2
 6170 0489 91       		.byte	0x91
 6171 048a 60       		.sleb128 -32
 6172 048b 00000000 		.4byte	0
 6173 048f 00000000 		.4byte	0
 6174              	.LLST28:
 6175 0493 3E000000 		.4byte	.LVL85
 6176 0497 47000000 		.4byte	.LVL86-1
 6177 049b 0100     		.2byte	0x1
 6178 049d 53       		.byte	0x53
 6179 049e 47000000 		.4byte	.LVL86-1
 6180 04a2 B8020000 		.4byte	.LFE40
 6181 04a6 0200     		.2byte	0x2
 6182 04a8 91       		.byte	0x91
 6183 04a9 64       		.sleb128 -28
 6184 04aa 00000000 		.4byte	0
 6185 04ae 00000000 		.4byte	0
 6186              	.LLST29:
 6187 04b2 10000000 		.4byte	.LVL77
 6188 04b6 1C000000 		.4byte	.LVL80
 6189 04ba 0700     		.2byte	0x7
 6190 04bc 72       		.byte	0x72
 6191 04bd 00       		.sleb128 0
 6192 04be 44       		.byte	0x44
 6193 04bf 1E       		.byte	0x1e
 6194 04c0 23       		.byte	0x23
 6195 04c1 0C       		.uleb128 0xc
 6196 04c2 9F       		.byte	0x9f
 6197 04c3 1C000000 		.4byte	.LVL80
ARM GAS  C:\Users\leoja\AppData\Local\Temp\ccYOCOnJ.s 			page 125


 6198 04c7 1E000000 		.4byte	.LVL81
 6199 04cb 0100     		.2byte	0x1
 6200 04cd 53       		.byte	0x53
 6201 04ce 1E000000 		.4byte	.LVL81
 6202 04d2 47000000 		.4byte	.LVL86-1
 6203 04d6 0700     		.2byte	0x7
 6204 04d8 72       		.byte	0x72
 6205 04d9 00       		.sleb128 0
 6206 04da 44       		.byte	0x44
 6207 04db 1E       		.byte	0x1e
 6208 04dc 23       		.byte	0x23
 6209 04dd 0C       		.uleb128 0xc
 6210 04de 9F       		.byte	0x9f
 6211 04df 47000000 		.4byte	.LVL86-1
 6212 04e3 B8020000 		.4byte	.LFE40
 6213 04e7 0C00     		.2byte	0xc
 6214 04e9 91       		.byte	0x91
 6215 04ea 04       		.sleb128 4
 6216 04eb 94       		.byte	0x94
 6217 04ec 01       		.byte	0x1
 6218 04ed 08       		.byte	0x8
 6219 04ee FF       		.byte	0xff
 6220 04ef 1A       		.byte	0x1a
 6221 04f0 44       		.byte	0x44
 6222 04f1 1E       		.byte	0x1e
 6223 04f2 23       		.byte	0x23
 6224 04f3 0C       		.uleb128 0xc
 6225 04f4 9F       		.byte	0x9f
 6226 04f5 00000000 		.4byte	0
 6227 04f9 00000000 		.4byte	0
 6228              	.LLST30:
 6229 04fd 78000000 		.4byte	.LVL89
 6230 0501 A6000000 		.4byte	.LVL91
 6231 0505 0600     		.2byte	0x6
 6232 0507 0C       		.byte	0xc
 6233 0508 00FFFF00 		.4byte	0xffff00
 6234 050c 9F       		.byte	0x9f
 6235 050d A6000000 		.4byte	.LVL91
 6236 0511 AA010000 		.4byte	.LVL101
 6237 0515 0500     		.2byte	0x5
 6238 0517 08       		.byte	0x8
 6239 0518 FF       		.byte	0xff
 6240 0519 40       		.byte	0x40
 6241 051a 24       		.byte	0x24
 6242 051b 9F       		.byte	0x9f
 6243 051c AA010000 		.4byte	.LVL101
 6244 0520 D8010000 		.4byte	.LVL103
 6245 0524 0600     		.2byte	0x6
 6246 0526 0C       		.byte	0xc
 6247 0527 00FFFF00 		.4byte	0xffff00
 6248 052b 9F       		.byte	0x9f
 6249 052c D8010000 		.4byte	.LVL103
 6250 0530 0A020000 		.4byte	.LVL105
 6251 0534 0500     		.2byte	0x5
 6252 0536 08       		.byte	0x8
 6253 0537 FF       		.byte	0xff
 6254 0538 40       		.byte	0x40
ARM GAS  C:\Users\leoja\AppData\Local\Temp\ccYOCOnJ.s 			page 126


 6255 0539 24       		.byte	0x24
 6256 053a 9F       		.byte	0x9f
 6257 053b 0E020000 		.4byte	.LVL106
 6258 053f 66020000 		.4byte	.LVL108
 6259 0543 0400     		.2byte	0x4
 6260 0545 0A       		.byte	0xa
 6261 0546 00FF     		.2byte	0xff00
 6262 0548 9F       		.byte	0x9f
 6263 0549 00000000 		.4byte	0
 6264 054d 00000000 		.4byte	0
 6265              	.LLST31:
 6266 0551 50000000 		.4byte	.LVL87
 6267 0555 68000000 		.4byte	.LVL88
 6268 0559 0600     		.2byte	0x6
 6269 055b 76       		.byte	0x76
 6270 055c 00       		.sleb128 0
 6271 055d 08       		.byte	0x8
 6272 055e 7F       		.byte	0x7f
 6273 055f 1A       		.byte	0x1a
 6274 0560 9F       		.byte	0x9f
 6275 0561 00000000 		.4byte	0
 6276 0565 00000000 		.4byte	0
 6277              	.LLST32:
 6278 0569 00000000 		.4byte	.LVL111
 6279 056d 24000000 		.4byte	.LVL120
 6280 0571 0100     		.2byte	0x1
 6281 0573 50       		.byte	0x50
 6282 0574 24000000 		.4byte	.LVL120
 6283 0578 52000000 		.4byte	.LVL125
 6284 057c 0100     		.2byte	0x1
 6285 057e 54       		.byte	0x54
 6286 057f 52000000 		.4byte	.LVL125
 6287 0583 55000000 		.4byte	.LVL126-1
 6288 0587 0100     		.2byte	0x1
 6289 0589 50       		.byte	0x50
 6290 058a 55000000 		.4byte	.LVL126-1
 6291 058e 56000000 		.4byte	.LVL126
 6292 0592 0700     		.2byte	0x7
 6293 0594 74       		.byte	0x74
 6294 0595 00       		.sleb128 0
 6295 0596 0A       		.byte	0xa
 6296 0597 5B03     		.2byte	0x35b
 6297 0599 1E       		.byte	0x1e
 6298 059a 9F       		.byte	0x9f
 6299 059b 56000000 		.4byte	.LVL126
 6300 059f 5A000000 		.4byte	.LVL127
 6301 05a3 0100     		.2byte	0x1
 6302 05a5 50       		.byte	0x50
 6303 05a6 5A000000 		.4byte	.LVL127
 6304 05aa 5C000000 		.4byte	.LVL128
 6305 05ae 0300     		.2byte	0x3
 6306 05b0 70       		.byte	0x70
 6307 05b1 6E       		.sleb128 -18
 6308 05b2 9F       		.byte	0x9f
 6309 05b3 5C000000 		.4byte	.LVL128
 6310 05b7 98000000 		.4byte	.LVL130
 6311 05bb 0100     		.2byte	0x1
ARM GAS  C:\Users\leoja\AppData\Local\Temp\ccYOCOnJ.s 			page 127


 6312 05bd 50       		.byte	0x50
 6313 05be 98000000 		.4byte	.LVL130
 6314 05c2 F4000000 		.4byte	.LVL136
 6315 05c6 0100     		.2byte	0x1
 6316 05c8 55       		.byte	0x55
 6317 05c9 00000000 		.4byte	0
 6318 05cd 00000000 		.4byte	0
 6319              	.LLST33:
 6320 05d1 00000000 		.4byte	.LVL111
 6321 05d5 18000000 		.4byte	.LVL117
 6322 05d9 0100     		.2byte	0x1
 6323 05db 51       		.byte	0x51
 6324 05dc 18000000 		.4byte	.LVL117
 6325 05e0 24010000 		.4byte	.LFE41
 6326 05e4 0400     		.2byte	0x4
 6327 05e6 F3       		.byte	0xf3
 6328 05e7 01       		.uleb128 0x1
 6329 05e8 51       		.byte	0x51
 6330 05e9 9F       		.byte	0x9f
 6331 05ea 00000000 		.4byte	0
 6332 05ee 00000000 		.4byte	0
 6333              	.LLST34:
 6334 05f2 00000000 		.4byte	.LVL111
 6335 05f6 12000000 		.4byte	.LVL115
 6336 05fa 0100     		.2byte	0x1
 6337 05fc 52       		.byte	0x52
 6338 05fd 12000000 		.4byte	.LVL115
 6339 0601 24010000 		.4byte	.LFE41
 6340 0605 0400     		.2byte	0x4
 6341 0607 F3       		.byte	0xf3
 6342 0608 01       		.uleb128 0x1
 6343 0609 52       		.byte	0x52
 6344 060a 9F       		.byte	0x9f
 6345 060b 00000000 		.4byte	0
 6346 060f 00000000 		.4byte	0
 6347              	.LLST35:
 6348 0613 00000000 		.4byte	.LVL111
 6349 0617 08000000 		.4byte	.LVL112
 6350 061b 0100     		.2byte	0x1
 6351 061d 53       		.byte	0x53
 6352 061e 08000000 		.4byte	.LVL112
 6353 0622 24010000 		.4byte	.LFE41
 6354 0626 0400     		.2byte	0x4
 6355 0628 F3       		.byte	0xf3
 6356 0629 01       		.uleb128 0x1
 6357 062a 53       		.byte	0x53
 6358 062b 9F       		.byte	0x9f
 6359 062c 00000000 		.4byte	0
 6360 0630 00000000 		.4byte	0
 6361              	.LLST36:
 6362 0634 00000000 		.4byte	.LVL111
 6363 0638 08000000 		.4byte	.LVL112
 6364 063c 0200     		.2byte	0x2
 6365 063e 91       		.byte	0x91
 6366 063f 00       		.sleb128 0
 6367 0640 08000000 		.4byte	.LVL112
 6368 0644 0A000000 		.4byte	.LVL113
ARM GAS  C:\Users\leoja\AppData\Local\Temp\ccYOCOnJ.s 			page 128


 6369 0648 0200     		.2byte	0x2
 6370 064a 73       		.byte	0x73
 6371 064b 00       		.sleb128 0
 6372 064c 0A000000 		.4byte	.LVL113
 6373 0650 24010000 		.4byte	.LFE41
 6374 0654 0200     		.2byte	0x2
 6375 0656 91       		.byte	0x91
 6376 0657 00       		.sleb128 0
 6377 0658 00000000 		.4byte	0
 6378 065c 00000000 		.4byte	0
 6379              	.LLST37:
 6380 0660 00000000 		.4byte	.LVL111
 6381 0664 08000000 		.4byte	.LVL112
 6382 0668 0200     		.2byte	0x2
 6383 066a 91       		.byte	0x91
 6384 066b 04       		.sleb128 4
 6385 066c 08000000 		.4byte	.LVL112
 6386 0670 0A000000 		.4byte	.LVL113
 6387 0674 0200     		.2byte	0x2
 6388 0676 73       		.byte	0x73
 6389 0677 04       		.sleb128 4
 6390 0678 0A000000 		.4byte	.LVL113
 6391 067c 10000000 		.4byte	.LVL114
 6392 0680 0200     		.2byte	0x2
 6393 0682 91       		.byte	0x91
 6394 0683 04       		.sleb128 4
 6395 0684 10000000 		.4byte	.LVL114
 6396 0688 14000000 		.4byte	.LVL116
 6397 068c 0200     		.2byte	0x2
 6398 068e 73       		.byte	0x73
 6399 068f 00       		.sleb128 0
 6400 0690 14000000 		.4byte	.LVL116
 6401 0694 24010000 		.4byte	.LFE41
 6402 0698 0200     		.2byte	0x2
 6403 069a 91       		.byte	0x91
 6404 069b 04       		.sleb128 4
 6405 069c 00000000 		.4byte	0
 6406 06a0 00000000 		.4byte	0
 6407              	.LLST38:
 6408 06a4 2E000000 		.4byte	.LVL121
 6409 06a8 30000000 		.4byte	.LVL122
 6410 06ac 0100     		.2byte	0x1
 6411 06ae 53       		.byte	0x53
 6412 06af 30000000 		.4byte	.LVL122
 6413 06b3 24010000 		.4byte	.LFE41
 6414 06b7 0200     		.2byte	0x2
 6415 06b9 91       		.byte	0x91
 6416 06ba 58       		.sleb128 -40
 6417 06bb 00000000 		.4byte	0
 6418 06bf 00000000 		.4byte	0
 6419              	.LLST39:
 6420 06c3 40000000 		.4byte	.LVL123
 6421 06c7 49000000 		.4byte	.LVL124-1
 6422 06cb 0100     		.2byte	0x1
 6423 06cd 53       		.byte	0x53
 6424 06ce 49000000 		.4byte	.LVL124-1
 6425 06d2 24010000 		.4byte	.LFE41
ARM GAS  C:\Users\leoja\AppData\Local\Temp\ccYOCOnJ.s 			page 129


 6426 06d6 0200     		.2byte	0x2
 6427 06d8 91       		.byte	0x91
 6428 06d9 5C       		.sleb128 -36
 6429 06da 00000000 		.4byte	0
 6430 06de 00000000 		.4byte	0
 6431              	.LLST40:
 6432 06e2 12000000 		.4byte	.LVL115
 6433 06e6 1C000000 		.4byte	.LVL118
 6434 06ea 0700     		.2byte	0x7
 6435 06ec 72       		.byte	0x72
 6436 06ed 00       		.sleb128 0
 6437 06ee 44       		.byte	0x44
 6438 06ef 1E       		.byte	0x1e
 6439 06f0 23       		.byte	0x23
 6440 06f1 0C       		.uleb128 0xc
 6441 06f2 9F       		.byte	0x9f
 6442 06f3 1C000000 		.4byte	.LVL118
 6443 06f7 1E000000 		.4byte	.LVL119
 6444 06fb 0100     		.2byte	0x1
 6445 06fd 53       		.byte	0x53
 6446 06fe 1E000000 		.4byte	.LVL119
 6447 0702 49000000 		.4byte	.LVL124-1
 6448 0706 0700     		.2byte	0x7
 6449 0708 72       		.byte	0x72
 6450 0709 00       		.sleb128 0
 6451 070a 44       		.byte	0x44
 6452 070b 1E       		.byte	0x1e
 6453 070c 23       		.byte	0x23
 6454 070d 0C       		.uleb128 0xc
 6455 070e 9F       		.byte	0x9f
 6456 070f 49000000 		.4byte	.LVL124-1
 6457 0713 24010000 		.4byte	.LFE41
 6458 0717 0C00     		.2byte	0xc
 6459 0719 91       		.byte	0x91
 6460 071a 04       		.sleb128 4
 6461 071b 94       		.byte	0x94
 6462 071c 01       		.byte	0x1
 6463 071d 08       		.byte	0x8
 6464 071e FF       		.byte	0xff
 6465 071f 1A       		.byte	0x1a
 6466 0720 44       		.byte	0x44
 6467 0721 1E       		.byte	0x1e
 6468 0722 23       		.byte	0x23
 6469 0723 0C       		.uleb128 0xc
 6470 0724 9F       		.byte	0x9f
 6471 0725 00000000 		.4byte	0
 6472 0729 00000000 		.4byte	0
 6473              	.LLST41:
 6474 072d 7E000000 		.4byte	.LVL129
 6475 0731 F4000000 		.4byte	.LVL135
 6476 0735 0100     		.2byte	0x1
 6477 0737 54       		.byte	0x54
 6478 0738 00000000 		.4byte	0
 6479 073c 00000000 		.4byte	0
 6480              	.LLST42:
 6481 0740 00000000 		.4byte	.LVL137
 6482 0744 2A000000 		.4byte	.LVL146
ARM GAS  C:\Users\leoja\AppData\Local\Temp\ccYOCOnJ.s 			page 130


 6483 0748 0100     		.2byte	0x1
 6484 074a 50       		.byte	0x50
 6485 074b 2A000000 		.4byte	.LVL146
 6486 074f C0000000 		.4byte	.LFE44
 6487 0753 0400     		.2byte	0x4
 6488 0755 F3       		.byte	0xf3
 6489 0756 01       		.uleb128 0x1
 6490 0757 50       		.byte	0x50
 6491 0758 9F       		.byte	0x9f
 6492 0759 00000000 		.4byte	0
 6493 075d 00000000 		.4byte	0
 6494              	.LLST43:
 6495 0761 00000000 		.4byte	.LVL137
 6496 0765 14000000 		.4byte	.LVL141
 6497 0769 0100     		.2byte	0x1
 6498 076b 51       		.byte	0x51
 6499 076c 14000000 		.4byte	.LVL141
 6500 0770 C0000000 		.4byte	.LFE44
 6501 0774 0400     		.2byte	0x4
 6502 0776 F3       		.byte	0xf3
 6503 0777 01       		.uleb128 0x1
 6504 0778 51       		.byte	0x51
 6505 0779 9F       		.byte	0x9f
 6506 077a 00000000 		.4byte	0
 6507 077e 00000000 		.4byte	0
 6508              	.LLST44:
 6509 0782 00000000 		.4byte	.LVL137
 6510 0786 06000000 		.4byte	.LVL138
 6511 078a 0100     		.2byte	0x1
 6512 078c 52       		.byte	0x52
 6513 078d 06000000 		.4byte	.LVL138
 6514 0791 C0000000 		.4byte	.LFE44
 6515 0795 0400     		.2byte	0x4
 6516 0797 F3       		.byte	0xf3
 6517 0798 01       		.uleb128 0x1
 6518 0799 52       		.byte	0x52
 6519 079a 9F       		.byte	0x9f
 6520 079b 00000000 		.4byte	0
 6521 079f 00000000 		.4byte	0
 6522              	.LLST45:
 6523 07a3 00000000 		.4byte	.LVL137
 6524 07a7 0C000000 		.4byte	.LVL139
 6525 07ab 0100     		.2byte	0x1
 6526 07ad 53       		.byte	0x53
 6527 07ae 0C000000 		.4byte	.LVL139
 6528 07b2 C0000000 		.4byte	.LFE44
 6529 07b6 0400     		.2byte	0x4
 6530 07b8 F3       		.byte	0xf3
 6531 07b9 01       		.uleb128 0x1
 6532 07ba 53       		.byte	0x53
 6533 07bb 9F       		.byte	0x9f
 6534 07bc 00000000 		.4byte	0
 6535 07c0 00000000 		.4byte	0
 6536              	.LLST46:
 6537 07c4 00000000 		.4byte	.LVL137
 6538 07c8 0C000000 		.4byte	.LVL139
 6539 07cc 0200     		.2byte	0x2
ARM GAS  C:\Users\leoja\AppData\Local\Temp\ccYOCOnJ.s 			page 131


 6540 07ce 91       		.byte	0x91
 6541 07cf 00       		.sleb128 0
 6542 07d0 0C000000 		.4byte	.LVL139
 6543 07d4 10000000 		.4byte	.LVL140
 6544 07d8 0200     		.2byte	0x2
 6545 07da 73       		.byte	0x73
 6546 07db 00       		.sleb128 0
 6547 07dc 10000000 		.4byte	.LVL140
 6548 07e0 C0000000 		.4byte	.LFE44
 6549 07e4 0200     		.2byte	0x2
 6550 07e6 91       		.byte	0x91
 6551 07e7 00       		.sleb128 0
 6552 07e8 00000000 		.4byte	0
 6553 07ec 00000000 		.4byte	0
 6554              	.LLST47:
 6555 07f0 00000000 		.4byte	.LVL137
 6556 07f4 0C000000 		.4byte	.LVL139
 6557 07f8 0200     		.2byte	0x2
 6558 07fa 91       		.byte	0x91
 6559 07fb 04       		.sleb128 4
 6560 07fc 0C000000 		.4byte	.LVL139
 6561 0800 10000000 		.4byte	.LVL140
 6562 0804 0200     		.2byte	0x2
 6563 0806 73       		.byte	0x73
 6564 0807 04       		.sleb128 4
 6565 0808 10000000 		.4byte	.LVL140
 6566 080c 16000000 		.4byte	.LVL142
 6567 0810 0200     		.2byte	0x2
 6568 0812 73       		.byte	0x73
 6569 0813 00       		.sleb128 0
 6570 0814 16000000 		.4byte	.LVL142
 6571 0818 C0000000 		.4byte	.LFE44
 6572 081c 0200     		.2byte	0x2
 6573 081e 91       		.byte	0x91
 6574 081f 04       		.sleb128 4
 6575 0820 00000000 		.4byte	0
 6576 0824 00000000 		.4byte	0
 6577              	.LLST48:
 6578 0828 36000000 		.4byte	.LVL147
 6579 082c 38000000 		.4byte	.LVL148
 6580 0830 0100     		.2byte	0x1
 6581 0832 53       		.byte	0x53
 6582 0833 38000000 		.4byte	.LVL148
 6583 0837 C0000000 		.4byte	.LFE44
 6584 083b 0200     		.2byte	0x2
 6585 083d 91       		.byte	0x91
 6586 083e 58       		.sleb128 -40
 6587 083f 00000000 		.4byte	0
 6588 0843 00000000 		.4byte	0
 6589              	.LLST49:
 6590 0847 40000000 		.4byte	.LVL149
 6591 084b 49000000 		.4byte	.LVL150-1
 6592 084f 0100     		.2byte	0x1
 6593 0851 53       		.byte	0x53
 6594 0852 49000000 		.4byte	.LVL150-1
 6595 0856 C0000000 		.4byte	.LFE44
 6596 085a 0200     		.2byte	0x2
ARM GAS  C:\Users\leoja\AppData\Local\Temp\ccYOCOnJ.s 			page 132


 6597 085c 91       		.byte	0x91
 6598 085d 5C       		.sleb128 -36
 6599 085e 00000000 		.4byte	0
 6600 0862 00000000 		.4byte	0
 6601              	.LLST50:
 6602 0866 22000000 		.4byte	.LVL143
 6603 086a 24000000 		.4byte	.LVL144
 6604 086e 0100     		.2byte	0x1
 6605 0870 53       		.byte	0x53
 6606 0871 24000000 		.4byte	.LVL144
 6607 0875 49000000 		.4byte	.LVL150-1
 6608 0879 0700     		.2byte	0x7
 6609 087b 71       		.byte	0x71
 6610 087c 00       		.sleb128 0
 6611 087d 44       		.byte	0x44
 6612 087e 1E       		.byte	0x1e
 6613 087f 23       		.byte	0x23
 6614 0880 0C       		.uleb128 0xc
 6615 0881 9F       		.byte	0x9f
 6616 0882 49000000 		.4byte	.LVL150-1
 6617 0886 C0000000 		.4byte	.LFE44
 6618 088a 0C00     		.2byte	0xc
 6619 088c 91       		.byte	0x91
 6620 088d 04       		.sleb128 4
 6621 088e 94       		.byte	0x94
 6622 088f 01       		.byte	0x1
 6623 0890 08       		.byte	0x8
 6624 0891 FF       		.byte	0xff
 6625 0892 1A       		.byte	0x1a
 6626 0893 44       		.byte	0x44
 6627 0894 1E       		.byte	0x1e
 6628 0895 23       		.byte	0x23
 6629 0896 0C       		.uleb128 0xc
 6630 0897 9F       		.byte	0x9f
 6631 0898 00000000 		.4byte	0
 6632 089c 00000000 		.4byte	0
 6633              	.LLST51:
 6634 08a0 22000000 		.4byte	.LVL143
 6635 08a4 26000000 		.4byte	.LVL145
 6636 08a8 0100     		.2byte	0x1
 6637 08aa 52       		.byte	0x52
 6638 08ab 26000000 		.4byte	.LVL145
 6639 08af 2A000000 		.4byte	.LVL146
 6640 08b3 1000     		.2byte	0x10
 6641 08b5 08       		.byte	0x8
 6642 08b6 63       		.byte	0x63
 6643 08b7 40       		.byte	0x40
 6644 08b8 4B       		.byte	0x4b
 6645 08b9 24       		.byte	0x24
 6646 08ba 22       		.byte	0x22
 6647 08bb 70       		.byte	0x70
 6648 08bc 00       		.sleb128 0
 6649 08bd 40       		.byte	0x40
 6650 08be 4B       		.byte	0x4b
 6651 08bf 24       		.byte	0x24
 6652 08c0 22       		.byte	0x22
 6653 08c1 2D       		.byte	0x2d
ARM GAS  C:\Users\leoja\AppData\Local\Temp\ccYOCOnJ.s 			page 133


 6654 08c2 23       		.byte	0x23
 6655 08c3 03       		.uleb128 0x3
 6656 08c4 9F       		.byte	0x9f
 6657 08c5 2A000000 		.4byte	.LVL146
 6658 08c9 C0000000 		.4byte	.LFE44
 6659 08cd 1100     		.2byte	0x11
 6660 08cf 08       		.byte	0x8
 6661 08d0 63       		.byte	0x63
 6662 08d1 40       		.byte	0x40
 6663 08d2 4B       		.byte	0x4b
 6664 08d3 24       		.byte	0x24
 6665 08d4 22       		.byte	0x22
 6666 08d5 91       		.byte	0x91
 6667 08d6 54       		.sleb128 -44
 6668 08d7 06       		.byte	0x6
 6669 08d8 40       		.byte	0x40
 6670 08d9 4B       		.byte	0x4b
 6671 08da 24       		.byte	0x24
 6672 08db 22       		.byte	0x22
 6673 08dc 2D       		.byte	0x2d
 6674 08dd 23       		.byte	0x23
 6675 08de 03       		.uleb128 0x3
 6676 08df 9F       		.byte	0x9f
 6677 08e0 00000000 		.4byte	0
 6678 08e4 00000000 		.4byte	0
 6679              	.LLST52:
 6680 08e8 00000000 		.4byte	.LVL157
 6681 08ec 11000000 		.4byte	.LVL162-1
 6682 08f0 0100     		.2byte	0x1
 6683 08f2 50       		.byte	0x50
 6684 08f3 11000000 		.4byte	.LVL162-1
 6685 08f7 14000000 		.4byte	.LFE43
 6686 08fb 0400     		.2byte	0x4
 6687 08fd F3       		.byte	0xf3
 6688 08fe 01       		.uleb128 0x1
 6689 08ff 50       		.byte	0x50
 6690 0900 9F       		.byte	0x9f
 6691 0901 00000000 		.4byte	0
 6692 0905 00000000 		.4byte	0
 6693              	.LLST53:
 6694 0909 00000000 		.4byte	.LVL157
 6695 090d 11000000 		.4byte	.LVL162-1
 6696 0911 0100     		.2byte	0x1
 6697 0913 51       		.byte	0x51
 6698 0914 11000000 		.4byte	.LVL162-1
 6699 0918 14000000 		.4byte	.LFE43
 6700 091c 0400     		.2byte	0x4
 6701 091e F3       		.byte	0xf3
 6702 091f 01       		.uleb128 0x1
 6703 0920 51       		.byte	0x51
 6704 0921 9F       		.byte	0x9f
 6705 0922 00000000 		.4byte	0
 6706 0926 00000000 		.4byte	0
 6707              	.LLST54:
 6708 092a 00000000 		.4byte	.LVL157
 6709 092e 11000000 		.4byte	.LVL162-1
 6710 0932 0100     		.2byte	0x1
ARM GAS  C:\Users\leoja\AppData\Local\Temp\ccYOCOnJ.s 			page 134


 6711 0934 52       		.byte	0x52
 6712 0935 11000000 		.4byte	.LVL162-1
 6713 0939 14000000 		.4byte	.LFE43
 6714 093d 0400     		.2byte	0x4
 6715 093f F3       		.byte	0xf3
 6716 0940 01       		.uleb128 0x1
 6717 0941 52       		.byte	0x52
 6718 0942 9F       		.byte	0x9f
 6719 0943 00000000 		.4byte	0
 6720 0947 00000000 		.4byte	0
 6721              	.LLST55:
 6722 094b 00000000 		.4byte	.LVL157
 6723 094f 11000000 		.4byte	.LVL162-1
 6724 0953 0100     		.2byte	0x1
 6725 0955 53       		.byte	0x53
 6726 0956 11000000 		.4byte	.LVL162-1
 6727 095a 14000000 		.4byte	.LFE43
 6728 095e 0400     		.2byte	0x4
 6729 0960 F3       		.byte	0xf3
 6730 0961 01       		.uleb128 0x1
 6731 0962 53       		.byte	0x53
 6732 0963 9F       		.byte	0x9f
 6733 0964 00000000 		.4byte	0
 6734 0968 00000000 		.4byte	0
 6735              	.LLST56:
 6736 096c 00000000 		.4byte	.LVL157
 6737 0970 04000000 		.4byte	.LVL158
 6738 0974 0200     		.2byte	0x2
 6739 0976 91       		.byte	0x91
 6740 0977 00       		.sleb128 0
 6741 0978 04000000 		.4byte	.LVL158
 6742 097c 0A000000 		.4byte	.LVL161
 6743 0980 0200     		.2byte	0x2
 6744 0982 74       		.byte	0x74
 6745 0983 00       		.sleb128 0
 6746 0984 0A000000 		.4byte	.LVL161
 6747 0988 14000000 		.4byte	.LFE43
 6748 098c 0200     		.2byte	0x2
 6749 098e 91       		.byte	0x91
 6750 098f 00       		.sleb128 0
 6751 0990 00000000 		.4byte	0
 6752 0994 00000000 		.4byte	0
 6753              	.LLST57:
 6754 0998 00000000 		.4byte	.LVL157
 6755 099c 04000000 		.4byte	.LVL158
 6756 09a0 0200     		.2byte	0x2
 6757 09a2 91       		.byte	0x91
 6758 09a3 04       		.sleb128 4
 6759 09a4 04000000 		.4byte	.LVL158
 6760 09a8 06000000 		.4byte	.LVL159
 6761 09ac 0200     		.2byte	0x2
 6762 09ae 74       		.byte	0x74
 6763 09af 04       		.sleb128 4
 6764 09b0 06000000 		.4byte	.LVL159
 6765 09b4 08000000 		.4byte	.LVL160
 6766 09b8 0200     		.2byte	0x2
 6767 09ba 75       		.byte	0x75
ARM GAS  C:\Users\leoja\AppData\Local\Temp\ccYOCOnJ.s 			page 135


 6768 09bb 00       		.sleb128 0
 6769 09bc 08000000 		.4byte	.LVL160
 6770 09c0 0A000000 		.4byte	.LVL161
 6771 09c4 0200     		.2byte	0x2
 6772 09c6 74       		.byte	0x74
 6773 09c7 04       		.sleb128 4
 6774 09c8 0A000000 		.4byte	.LVL161
 6775 09cc 14000000 		.4byte	.LFE43
 6776 09d0 0200     		.2byte	0x2
 6777 09d2 91       		.byte	0x91
 6778 09d3 04       		.sleb128 4
 6779 09d4 00000000 		.4byte	0
 6780 09d8 00000000 		.4byte	0
 6781              	.LLST58:
 6782 09dc 00000000 		.4byte	.LVL163
 6783 09e0 22000000 		.4byte	.LVL171
 6784 09e4 0100     		.2byte	0x1
 6785 09e6 50       		.byte	0x50
 6786 09e7 22000000 		.4byte	.LVL171
 6787 09eb C4000000 		.4byte	.LFE45
 6788 09ef 0400     		.2byte	0x4
 6789 09f1 F3       		.byte	0xf3
 6790 09f2 01       		.uleb128 0x1
 6791 09f3 50       		.byte	0x50
 6792 09f4 9F       		.byte	0x9f
 6793 09f5 00000000 		.4byte	0
 6794 09f9 00000000 		.4byte	0
 6795              	.LLST59:
 6796 09fd 00000000 		.4byte	.LVL163
 6797 0a01 16000000 		.4byte	.LVL168
 6798 0a05 0100     		.2byte	0x1
 6799 0a07 51       		.byte	0x51
 6800 0a08 16000000 		.4byte	.LVL168
 6801 0a0c C4000000 		.4byte	.LFE45
 6802 0a10 0400     		.2byte	0x4
 6803 0a12 F3       		.byte	0xf3
 6804 0a13 01       		.uleb128 0x1
 6805 0a14 51       		.byte	0x51
 6806 0a15 9F       		.byte	0x9f
 6807 0a16 00000000 		.4byte	0
 6808 0a1a 00000000 		.4byte	0
 6809              	.LLST60:
 6810 0a1e 00000000 		.4byte	.LVL163
 6811 0a22 10000000 		.4byte	.LVL166
 6812 0a26 0100     		.2byte	0x1
 6813 0a28 52       		.byte	0x52
 6814 0a29 10000000 		.4byte	.LVL166
 6815 0a2d C4000000 		.4byte	.LFE45
 6816 0a31 0400     		.2byte	0x4
 6817 0a33 F3       		.byte	0xf3
 6818 0a34 01       		.uleb128 0x1
 6819 0a35 52       		.byte	0x52
 6820 0a36 9F       		.byte	0x9f
 6821 0a37 00000000 		.4byte	0
 6822 0a3b 00000000 		.4byte	0
 6823              	.LLST61:
 6824 0a3f 00000000 		.4byte	.LVL163
ARM GAS  C:\Users\leoja\AppData\Local\Temp\ccYOCOnJ.s 			page 136


 6825 0a43 08000000 		.4byte	.LVL164
 6826 0a47 0100     		.2byte	0x1
 6827 0a49 53       		.byte	0x53
 6828 0a4a 08000000 		.4byte	.LVL164
 6829 0a4e C4000000 		.4byte	.LFE45
 6830 0a52 0400     		.2byte	0x4
 6831 0a54 F3       		.byte	0xf3
 6832 0a55 01       		.uleb128 0x1
 6833 0a56 53       		.byte	0x53
 6834 0a57 9F       		.byte	0x9f
 6835 0a58 00000000 		.4byte	0
 6836 0a5c 00000000 		.4byte	0
 6837              	.LLST62:
 6838 0a60 00000000 		.4byte	.LVL163
 6839 0a64 08000000 		.4byte	.LVL164
 6840 0a68 0200     		.2byte	0x2
 6841 0a6a 91       		.byte	0x91
 6842 0a6b 00       		.sleb128 0
 6843 0a6c 08000000 		.4byte	.LVL164
 6844 0a70 0C000000 		.4byte	.LVL165
 6845 0a74 0200     		.2byte	0x2
 6846 0a76 73       		.byte	0x73
 6847 0a77 00       		.sleb128 0
 6848 0a78 0C000000 		.4byte	.LVL165
 6849 0a7c C4000000 		.4byte	.LFE45
 6850 0a80 0200     		.2byte	0x2
 6851 0a82 91       		.byte	0x91
 6852 0a83 00       		.sleb128 0
 6853 0a84 00000000 		.4byte	0
 6854 0a88 00000000 		.4byte	0
 6855              	.LLST63:
 6856 0a8c 00000000 		.4byte	.LVL163
 6857 0a90 08000000 		.4byte	.LVL164
 6858 0a94 0200     		.2byte	0x2
 6859 0a96 91       		.byte	0x91
 6860 0a97 04       		.sleb128 4
 6861 0a98 08000000 		.4byte	.LVL164
 6862 0a9c 0C000000 		.4byte	.LVL165
 6863 0aa0 0200     		.2byte	0x2
 6864 0aa2 73       		.byte	0x73
 6865 0aa3 04       		.sleb128 4
 6866 0aa4 0C000000 		.4byte	.LVL165
 6867 0aa8 12000000 		.4byte	.LVL167
 6868 0aac 0200     		.2byte	0x2
 6869 0aae 73       		.byte	0x73
 6870 0aaf 00       		.sleb128 0
 6871 0ab0 12000000 		.4byte	.LVL167
 6872 0ab4 C4000000 		.4byte	.LFE45
 6873 0ab8 0200     		.2byte	0x2
 6874 0aba 91       		.byte	0x91
 6875 0abb 04       		.sleb128 4
 6876 0abc 00000000 		.4byte	0
 6877 0ac0 00000000 		.4byte	0
 6878              	.LLST64:
 6879 0ac4 30000000 		.4byte	.LVL172
 6880 0ac8 32000000 		.4byte	.LVL173
 6881 0acc 0100     		.2byte	0x1
ARM GAS  C:\Users\leoja\AppData\Local\Temp\ccYOCOnJ.s 			page 137


 6882 0ace 53       		.byte	0x53
 6883 0acf 32000000 		.4byte	.LVL173
 6884 0ad3 C4000000 		.4byte	.LFE45
 6885 0ad7 0200     		.2byte	0x2
 6886 0ad9 91       		.byte	0x91
 6887 0ada 58       		.sleb128 -40
 6888 0adb 00000000 		.4byte	0
 6889 0adf 00000000 		.4byte	0
 6890              	.LLST65:
 6891 0ae3 3A000000 		.4byte	.LVL174
 6892 0ae7 43000000 		.4byte	.LVL175-1
 6893 0aeb 0100     		.2byte	0x1
 6894 0aed 53       		.byte	0x53
 6895 0aee 43000000 		.4byte	.LVL175-1
 6896 0af2 C4000000 		.4byte	.LFE45
 6897 0af6 0200     		.2byte	0x2
 6898 0af8 91       		.byte	0x91
 6899 0af9 5C       		.sleb128 -36
 6900 0afa 00000000 		.4byte	0
 6901 0afe 00000000 		.4byte	0
 6902              	.LLST66:
 6903 0b02 10000000 		.4byte	.LVL166
 6904 0b06 1A000000 		.4byte	.LVL169
 6905 0b0a 0700     		.2byte	0x7
 6906 0b0c 72       		.byte	0x72
 6907 0b0d 00       		.sleb128 0
 6908 0b0e 44       		.byte	0x44
 6909 0b0f 1E       		.byte	0x1e
 6910 0b10 23       		.byte	0x23
 6911 0b11 0C       		.uleb128 0xc
 6912 0b12 9F       		.byte	0x9f
 6913 0b13 1A000000 		.4byte	.LVL169
 6914 0b17 1C000000 		.4byte	.LVL170
 6915 0b1b 0100     		.2byte	0x1
 6916 0b1d 53       		.byte	0x53
 6917 0b1e 1C000000 		.4byte	.LVL170
 6918 0b22 43000000 		.4byte	.LVL175-1
 6919 0b26 0700     		.2byte	0x7
 6920 0b28 72       		.byte	0x72
 6921 0b29 00       		.sleb128 0
 6922 0b2a 44       		.byte	0x44
 6923 0b2b 1E       		.byte	0x1e
 6924 0b2c 23       		.byte	0x23
 6925 0b2d 0C       		.uleb128 0xc
 6926 0b2e 9F       		.byte	0x9f
 6927 0b2f 43000000 		.4byte	.LVL175-1
 6928 0b33 C4000000 		.4byte	.LFE45
 6929 0b37 0C00     		.2byte	0xc
 6930 0b39 91       		.byte	0x91
 6931 0b3a 04       		.sleb128 4
 6932 0b3b 94       		.byte	0x94
 6933 0b3c 01       		.byte	0x1
 6934 0b3d 08       		.byte	0x8
 6935 0b3e FF       		.byte	0xff
 6936 0b3f 1A       		.byte	0x1a
 6937 0b40 44       		.byte	0x44
 6938 0b41 1E       		.byte	0x1e
ARM GAS  C:\Users\leoja\AppData\Local\Temp\ccYOCOnJ.s 			page 138


 6939 0b42 23       		.byte	0x23
 6940 0b43 0C       		.uleb128 0xc
 6941 0b44 9F       		.byte	0x9f
 6942 0b45 00000000 		.4byte	0
 6943 0b49 00000000 		.4byte	0
 6944              		.section	.debug_aranges,"",%progbits
 6945 0000 64000000 		.4byte	0x64
 6946 0004 0200     		.2byte	0x2
 6947 0006 00000000 		.4byte	.Ldebug_info0
 6948 000a 04       		.byte	0x4
 6949 000b 00       		.byte	0
 6950 000c 0000     		.2byte	0
 6951 000e 0000     		.2byte	0
 6952 0010 00000000 		.4byte	.LFB35
 6953 0014 70000000 		.4byte	.LFE35-.LFB35
 6954 0018 00000000 		.4byte	.LFB36
 6955 001c 64000000 		.4byte	.LFE36-.LFB36
 6956 0020 00000000 		.4byte	.LFB37
 6957 0024 48000000 		.4byte	.LFE37-.LFB37
 6958 0028 00000000 		.4byte	.LFB38
 6959 002c 5C010000 		.4byte	.LFE38-.LFB38
 6960 0030 00000000 		.4byte	.LFB39
 6961 0034 0C010000 		.4byte	.LFE39-.LFB39
 6962 0038 00000000 		.4byte	.LFB40
 6963 003c B8020000 		.4byte	.LFE40-.LFB40
 6964 0040 00000000 		.4byte	.LFB41
 6965 0044 24010000 		.4byte	.LFE41-.LFB41
 6966 0048 00000000 		.4byte	.LFB44
 6967 004c C0000000 		.4byte	.LFE44-.LFB44
 6968 0050 00000000 		.4byte	.LFB43
 6969 0054 14000000 		.4byte	.LFE43-.LFB43
 6970 0058 00000000 		.4byte	.LFB45
 6971 005c C4000000 		.4byte	.LFE45-.LFB45
 6972 0060 00000000 		.4byte	0
 6973 0064 00000000 		.4byte	0
 6974              		.section	.debug_ranges,"",%progbits
 6975              	.Ldebug_ranges0:
 6976 0000 64000000 		.4byte	.LBB4
 6977 0004 66000000 		.4byte	.LBE4
 6978 0008 6A000000 		.4byte	.LBB5
 6979 000c 84000000 		.4byte	.LBE5
 6980 0010 00000000 		.4byte	0
 6981 0014 00000000 		.4byte	0
 6982 0018 00000000 		.4byte	.LFB35
 6983 001c 70000000 		.4byte	.LFE35
 6984 0020 00000000 		.4byte	.LFB36
 6985 0024 64000000 		.4byte	.LFE36
 6986 0028 00000000 		.4byte	.LFB37
 6987 002c 48000000 		.4byte	.LFE37
 6988 0030 00000000 		.4byte	.LFB38
 6989 0034 5C010000 		.4byte	.LFE38
 6990 0038 00000000 		.4byte	.LFB39
 6991 003c 0C010000 		.4byte	.LFE39
 6992 0040 00000000 		.4byte	.LFB40
 6993 0044 B8020000 		.4byte	.LFE40
 6994 0048 00000000 		.4byte	.LFB41
 6995 004c 24010000 		.4byte	.LFE41
ARM GAS  C:\Users\leoja\AppData\Local\Temp\ccYOCOnJ.s 			page 139


 6996 0050 00000000 		.4byte	.LFB44
 6997 0054 C0000000 		.4byte	.LFE44
 6998 0058 00000000 		.4byte	.LFB43
 6999 005c 14000000 		.4byte	.LFE43
 7000 0060 00000000 		.4byte	.LFB45
 7001 0064 C4000000 		.4byte	.LFE45
 7002 0068 00000000 		.4byte	0
 7003 006c 00000000 		.4byte	0
 7004              		.section	.debug_line,"",%progbits
 7005              	.Ldebug_line0:
 7006 0000 F3030000 		.section	.debug_str,"MS",%progbits,1
 7006      02000F02 
 7006      00000201 
 7006      FB0E0D00 
 7006      01010101 
 7007              	.LASF129:
 7008 0000 43794465 		.ascii	"CyDelay\000"
 7008      6C617900 
 7009              	.LASF110:
 7010 0008 64617461 		.ascii	"data_s\000"
 7010      5F7300
 7011              	.LASF43:
 7012 000f 464F4E54 		.ascii	"FONT_TYPE_8BPP\000"
 7012      5F545950 
 7012      455F3842 
 7012      505000
 7013              	.LASF99:
 7014 001e 6465736B 		.ascii	"desktop_color\000"
 7014      746F705F 
 7014      636F6C6F 
 7014      7200
 7015              	.LASF54:
 7016 002c 746F7563 		.ascii	"touch_state\000"
 7016      685F7374 
 7016      61746500 
 7017              	.LASF68:
 7018 0038 55475F43 		.ascii	"UG_COLOR\000"
 7018      4F4C4F52 
 7018      00
 7019              	.LASF39:
 7020 0041 55475F55 		.ascii	"UG_U16\000"
 7020      313600
 7021              	.LASF13:
 7022 0048 756E7369 		.ascii	"unsigned int\000"
 7022      676E6564 
 7022      20696E74 
 7022      00
 7023              	.LASF98:
 7024 0055 63686172 		.ascii	"char_v_space\000"
 7024      5F765F73 
 7024      70616365 
 7024      00
 7025              	.LASF29:
 7026 0062 4E4F4E45 		.ascii	"NONE\000"
 7026      00
 7027              	.LASF86:
 7028 0067 795F656E 		.ascii	"y_end\000"
ARM GAS  C:\Users\leoja\AppData\Local\Temp\ccYOCOnJ.s 			page 140


 7028      6400
 7029              	.LASF96:
 7030 006d 636F6E73 		.ascii	"console\000"
 7030      6F6C6500 
 7031              	.LASF63:
 7032 0075 535F5749 		.ascii	"S_WINDOW\000"
 7032      4E444F57 
 7032      00
 7033              	.LASF34:
 7034 007e 53454E53 		.ascii	"SENSOR_DISCREPANCY\000"
 7034      4F525F44 
 7034      49534352 
 7034      4550414E 
 7034      435900
 7035              	.LASF55:
 7036 0091 75706461 		.ascii	"update\000"
 7036      746500
 7037              	.LASF91:
 7038 0098 795F6469 		.ascii	"y_dim\000"
 7038      6D00
 7039              	.LASF44:
 7040 009e 464F4E54 		.ascii	"FONT_TYPE\000"
 7040      5F545950 
 7040      4500
 7041              	.LASF35:
 7042 00a8 4252414B 		.ascii	"BRAKE_IMPLAUSIBLE\000"
 7042      455F494D 
 7042      504C4155 
 7042      5349424C 
 7042      4500
 7043              	.LASF128:
 7044 00ba 55475F46 		.ascii	"UG_FillFrame\000"
 7044      696C6C46 
 7044      72616D65 
 7044      00
 7045              	.LASF136:
 7046 00c7 433A5C55 		.ascii	"C:\\Users\\leoja\\Documents\\GitHub\\Dashboard-Firm"
 7046      73657273 
 7046      5C6C656F 
 7046      6A615C44 
 7046      6F63756D 
 7047 00f5 77617265 		.ascii	"ware-FE10\\Dashboard-Firmware-FE9\\Dashboard.cydsn\000"
 7047      2D464531 
 7047      305C4461 
 7047      7368626F 
 7047      6172642D 
 7048              	.LASF65:
 7049 0126 6F626A6C 		.ascii	"objlst\000"
 7049      737400
 7050              	.LASF93:
 7051 012d 6E657874 		.ascii	"next_window\000"
 7051      5F77696E 
 7051      646F7700 
 7052              	.LASF67:
 7053 0139 7469746C 		.ascii	"title\000"
 7053      6500
 7054              	.LASF18:
ARM GAS  C:\Users\leoja\AppData\Local\Temp\ccYOCOnJ.s 			page 141


 7055 013f 75696E74 		.ascii	"uint32_t\000"
 7055      33325F74 
 7055      00
 7056              	.LASF14:
 7057 0148 696E7438 		.ascii	"int8_t\000"
 7057      5F7400
 7058              	.LASF41:
 7059 014f 55475F55 		.ascii	"UG_U32\000"
 7059      333200
 7060              	.LASF85:
 7061 0156 785F656E 		.ascii	"x_end\000"
 7061      6400
 7062              	.LASF20:
 7063 015c 666C6F61 		.ascii	"float\000"
 7063      7400
 7064              	.LASF59:
 7065 0162 6576656E 		.ascii	"event\000"
 7065      7400
 7066              	.LASF95:
 7067 0168 6C617374 		.ascii	"last_window\000"
 7067      5F77696E 
 7067      646F7700 
 7068              	.LASF88:
 7069 0174 6261636B 		.ascii	"back_color\000"
 7069      5F636F6C 
 7069      6F7200
 7070              	.LASF27:
 7071 017f 44524956 		.ascii	"DRIVE\000"
 7071      4500
 7072              	.LASF16:
 7073 0185 696E7431 		.ascii	"int16_t\000"
 7073      365F7400 
 7074              	.LASF118:
 7075 018d 464F4E54 		.ascii	"FONT_12X16\000"
 7075      5F313258 
 7075      313600
 7076              	.LASF12:
 7077 0198 6C6F6E67 		.ascii	"long long unsigned int\000"
 7077      206C6F6E 
 7077      6720756E 
 7077      7369676E 
 7077      65642069 
 7078              	.LASF101:
 7079 01af 63616C69 		.ascii	"calibrateScreen\000"
 7079      62726174 
 7079      65536372 
 7079      65656E00 
 7080              	.LASF6:
 7081 01bf 5F5F7569 		.ascii	"__uint16_t\000"
 7081      6E743136 
 7081      5F7400
 7082              	.LASF94:
 7083 01ca 61637469 		.ascii	"active_window\000"
 7083      76655F77 
 7083      696E646F 
 7083      7700
 7084              	.LASF64:
ARM GAS  C:\Users\leoja\AppData\Local\Temp\ccYOCOnJ.s 			page 142


 7085 01d8 6F626A63 		.ascii	"objcnt\000"
 7085      6E7400
 7086              	.LASF40:
 7087 01df 55475F53 		.ascii	"UG_S16\000"
 7087      313600
 7088              	.LASF87:
 7089 01e6 666F7265 		.ascii	"fore_color\000"
 7089      5F636F6C 
 7089      6F7200
 7090              	.LASF82:
 7091 01f1 795F706F 		.ascii	"y_pos\000"
 7091      7300
 7092              	.LASF109:
 7093 01f7 636F6C6F 		.ascii	"color\000"
 7093      7200
 7094              	.LASF132:
 7095 01fd 55475F50 		.ascii	"UG_PutColorString\000"
 7095      7574436F 
 7095      6C6F7253 
 7095      7472696E 
 7095      6700
 7096              	.LASF32:
 7097 020f 4252414B 		.ascii	"BRAKE_NOT_PRESSED\000"
 7097      455F4E4F 
 7097      545F5052 
 7097      45535345 
 7097      4400
 7098              	.LASF127:
 7099 0221 55475F46 		.ascii	"UG_FillScreen\000"
 7099      696C6C53 
 7099      63726565 
 7099      6E00
 7100              	.LASF121:
 7101 022f 6C617374 		.ascii	"last_SOC_color\000"
 7101      5F534F43 
 7101      5F636F6C 
 7101      6F7200
 7102              	.LASF46:
 7103 023e 63686172 		.ascii	"char_width\000"
 7103      5F776964 
 7103      746800
 7104              	.LASF33:
 7105 0249 48565F44 		.ascii	"HV_DISABLED_WHILE_DRIVING\000"
 7105      49534142 
 7105      4C45445F 
 7105      5748494C 
 7105      455F4452 
 7106              	.LASF36:
 7107 0263 4553544F 		.ascii	"ESTOP\000"
 7107      5000
 7108              	.LASF115:
 7109 0269 64697370 		.ascii	"disp_glv_v\000"
 7109      5F676C76 
 7109      5F7600
 7110              	.LASF113:
 7111 0274 64697370 		.ascii	"disp_state\000"
 7111      5F737461 
ARM GAS  C:\Users\leoja\AppData\Local\Temp\ccYOCOnJ.s 			page 143


 7111      746500
 7112              	.LASF126:
 7113 027f 6C617374 		.ascii	"last_motor_temp_color\000"
 7113      5F6D6F74 
 7113      6F725F74 
 7113      656D705F 
 7113      636F6C6F 
 7114              	.LASF26:
 7115 0295 48565F45 		.ascii	"HV_ENABLED\000"
 7115      4E41424C 
 7115      454400
 7116              	.LASF84:
 7117 02a0 795F7374 		.ascii	"y_start\000"
 7117      61727400 
 7118              	.LASF75:
 7119 02a8 765F7370 		.ascii	"v_space\000"
 7119      61636500 
 7120              	.LASF22:
 7121 02b0 63686172 		.ascii	"char\000"
 7121      00
 7122              	.LASF31:
 7123 02b5 434F4E53 		.ascii	"CONSERVATIVE_TIMER_MAXED\000"
 7123      45525641 
 7123      54495645 
 7123      5F54494D 
 7123      45525F4D 
 7124              	.LASF107:
 7125 02ce 79466F6E 		.ascii	"yFont\000"
 7125      7400
 7126              	.LASF45:
 7127 02d4 666F6E74 		.ascii	"font_type\000"
 7127      5F747970 
 7127      6500
 7128              	.LASF69:
 7129 02de 55475F41 		.ascii	"UG_AREA\000"
 7129      52454100 
 7130              	.LASF71:
 7131 02e6 55475F4D 		.ascii	"UG_MESSAGE\000"
 7131      45535341 
 7131      474500
 7132              	.LASF60:
 7133 02f1 64617461 		.ascii	"data\000"
 7133      00
 7134              	.LASF15:
 7135 02f6 75696E74 		.ascii	"uint8_t\000"
 7135      385F7400 
 7136              	.LASF92:
 7137 02fe 746F7563 		.ascii	"touch\000"
 7137      6800
 7138              	.LASF79:
 7139 0304 64726976 		.ascii	"driver\000"
 7139      657200
 7140              	.LASF38:
 7141 030b 55475F53 		.ascii	"UG_S8\000"
 7141      3800
 7142              	.LASF90:
 7143 0311 785F6469 		.ascii	"x_dim\000"
ARM GAS  C:\Users\leoja\AppData\Local\Temp\ccYOCOnJ.s 			page 144


 7143      6D00
 7144              	.LASF11:
 7145 0317 6C6F6E67 		.ascii	"long long int\000"
 7145      206C6F6E 
 7145      6720696E 
 7145      7400
 7146              	.LASF122:
 7147 0325 6C617374 		.ascii	"last_max_pack_temp_color\000"
 7147      5F6D6178 
 7147      5F706163 
 7147      6B5F7465 
 7147      6D705F63 
 7148              	.LASF4:
 7149 033e 5F5F696E 		.ascii	"__int16_t\000"
 7149      7431365F 
 7149      7400
 7150              	.LASF52:
 7151 0348 55475F4F 		.ascii	"UG_OBJECT\000"
 7151      424A4543 
 7151      5400
 7152              	.LASF89:
 7153 0352 70736574 		.ascii	"pset\000"
 7153      00
 7154              	.LASF70:
 7155 0357 7375625F 		.ascii	"sub_id\000"
 7155      696400
 7156              	.LASF104:
 7157 035e 73697A65 		.ascii	"size\000"
 7157      00
 7158              	.LASF117:
 7159 0363 64697370 		.ascii	"disp_gen_voltage\000"
 7159      5F67656E 
 7159      5F766F6C 
 7159      74616765 
 7159      00
 7160              	.LASF77:
 7161 0374 68656967 		.ascii	"height\000"
 7161      687400
 7162              	.LASF48:
 7163 037b 73746172 		.ascii	"start_char\000"
 7163      745F6368 
 7163      617200
 7164              	.LASF25:
 7165 0386 50524543 		.ascii	"PRECHARGING\000"
 7165      48415247 
 7165      494E4700 
 7166              	.LASF37:
 7167 0392 55475F55 		.ascii	"UG_U8\000"
 7167      3800
 7168              	.LASF0:
 7169 0398 5F5F696E 		.ascii	"__int8_t\000"
 7169      74385F74 
 7169      00
 7170              	.LASF50:
 7171 03a1 77696474 		.ascii	"widths\000"
 7171      687300
 7172              	.LASF130:
ARM GAS  C:\Users\leoja\AppData\Local\Temp\ccYOCOnJ.s 			page 145


 7173 03a8 55475F50 		.ascii	"UG_PutString\000"
 7173      75745374 
 7173      72696E67 
 7173      00
 7174              	.LASF23:
 7175 03b5 6C6F6E67 		.ascii	"long double\000"
 7175      20646F75 
 7175      626C6500 
 7176              	.LASF131:
 7177 03c1 73707269 		.ascii	"sprintf\000"
 7177      6E746600 
 7178              	.LASF17:
 7179 03c9 75696E74 		.ascii	"uint16_t\000"
 7179      31365F74 
 7179      00
 7180              	.LASF120:
 7181 03d2 67756931 		.ascii	"gui1963\000"
 7181      39363300 
 7182              	.LASF78:
 7183 03da 55475F54 		.ascii	"UG_TITLE\000"
 7183      49544C45 
 7183      00
 7184              	.LASF80:
 7185 03e3 55475F44 		.ascii	"UG_DRIVER\000"
 7185      52495645 
 7185      5200
 7186              	.LASF81:
 7187 03ed 785F706F 		.ascii	"x_pos\000"
 7187      7300
 7188              	.LASF47:
 7189 03f3 63686172 		.ascii	"char_height\000"
 7189      5F686569 
 7189      67687400 
 7190              	.LASF5:
 7191 03ff 73686F72 		.ascii	"short int\000"
 7191      7420696E 
 7191      7400
 7192              	.LASF123:
 7193 0409 6C617374 		.ascii	"last_state_color\000"
 7193      5F737461 
 7193      74655F63 
 7193      6F6C6F72 
 7193      00
 7194              	.LASF8:
 7195 041a 6C6F6E67 		.ascii	"long int\000"
 7195      20696E74 
 7195      00
 7196              	.LASF61:
 7197 0423 55475F57 		.ascii	"UG_WINDOW\000"
 7197      494E444F 
 7197      5700
 7198              	.LASF137:
 7199 042d 64697370 		.ascii	"disp_motor_temp\000"
 7199      5F6D6F74 
 7199      6F725F74 
 7199      656D7000 
 7200              	.LASF49:
ARM GAS  C:\Users\leoja\AppData\Local\Temp\ccYOCOnJ.s 			page 146


 7201 043d 656E645F 		.ascii	"end_char\000"
 7201      63686172 
 7201      00
 7202              	.LASF51:
 7203 0446 55475F46 		.ascii	"UG_FONT\000"
 7203      4F4E5400 
 7204              	.LASF1:
 7205 044e 5F5F7569 		.ascii	"__uint8_t\000"
 7205      6E74385F 
 7205      7400
 7206              	.LASF106:
 7207 0458 78466F6E 		.ascii	"xFont\000"
 7207      7400
 7208              	.LASF73:
 7209 045e 666F6E74 		.ascii	"font\000"
 7209      00
 7210              	.LASF24:
 7211 0463 73697A65 		.ascii	"sizetype\000"
 7211      74797065 
 7211      00
 7212              	.LASF10:
 7213 046c 6C6F6E67 		.ascii	"long unsigned int\000"
 7213      20756E73 
 7213      69676E65 
 7213      6420696E 
 7213      7400
 7214              	.LASF102:
 7215 047e 64656275 		.ascii	"debugTemplate\000"
 7215      6754656D 
 7215      706C6174 
 7215      6500
 7216              	.LASF119:
 7217 048c 464F4E54 		.ascii	"FONT_32X53\000"
 7217      5F333258 
 7217      353300
 7218              	.LASF112:
 7219 0497 64697370 		.ascii	"disp_max_pack_temp\000"
 7219      5F6D6178 
 7219      5F706163 
 7219      6B5F7465 
 7219      6D7000
 7220              	.LASF108:
 7221 04aa 686F7269 		.ascii	"horizFontSize\000"
 7221      7A466F6E 
 7221      7453697A 
 7221      6500
 7222              	.LASF124:
 7223 04b8 6C617374 		.ascii	"last_glv_v_color\000"
 7223      5F676C76 
 7223      5F765F63 
 7223      6F6C6F72 
 7223      00
 7224              	.LASF58:
 7225 04c9 74797065 		.ascii	"type\000"
 7225      00
 7226              	.LASF3:
 7227 04ce 756E7369 		.ascii	"unsigned char\000"
ARM GAS  C:\Users\leoja\AppData\Local\Temp\ccYOCOnJ.s 			page 147


 7227      676E6564 
 7227      20636861 
 7227      7200
 7228              	.LASF9:
 7229 04dc 5F5F7569 		.ascii	"__uint32_t\000"
 7229      6E743332 
 7229      5F7400
 7230              	.LASF74:
 7231 04e7 685F7370 		.ascii	"h_space\000"
 7231      61636500 
 7232              	.LASF103:
 7233 04ef 64726976 		.ascii	"driveTemplate\000"
 7233      6554656D 
 7233      706C6174 
 7233      6500
 7234              	.LASF83:
 7235 04fd 785F7374 		.ascii	"x_start\000"
 7235      61727400 
 7236              	.LASF28:
 7237 0505 4641554C 		.ascii	"FAULT\000"
 7237      5400
 7238              	.LASF134:
 7239 050b 474E5520 		.ascii	"GNU C11 5.4.1 20160609 (release) [ARM/embedded-5-br"
 7239      43313120 
 7239      352E342E 
 7239      31203230 
 7239      31363036 
 7240 053e 616E6368 		.ascii	"anch revision 237715] -mcpu=cortex-m0 -mthumb -g -O"
 7240      20726576 
 7240      6973696F 
 7240      6E203233 
 7240      37373135 
 7241 0571 73202D66 		.ascii	"s -ffunction-sections -ffat-lto-objects\000"
 7241      66756E63 
 7241      74696F6E 
 7241      2D736563 
 7241      74696F6E 
 7242              	.LASF125:
 7243 0599 6C617374 		.ascii	"last_mc_temp_color\000"
 7243      5F6D635F 
 7243      74656D70 
 7243      5F636F6C 
 7243      6F7200
 7244              	.LASF66:
 7245 05ac 7374796C 		.ascii	"style\000"
 7245      6500
 7246              	.LASF53:
 7247 05b2 73746174 		.ascii	"state\000"
 7247      6500
 7248              	.LASF111:
 7249 05b8 64697370 		.ascii	"disp_SOC\000"
 7249      5F534F43 
 7249      00
 7250              	.LASF105:
 7251 05c1 73747269 		.ascii	"stringSize\000"
 7251      6E675369 
 7251      7A6500
ARM GAS  C:\Users\leoja\AppData\Local\Temp\ccYOCOnJ.s 			page 148


 7252              	.LASF100:
 7253 05cc 55475F47 		.ascii	"UG_GUI\000"
 7253      554900
 7254              	.LASF57:
 7255 05d3 615F7265 		.ascii	"a_rel\000"
 7255      6C00
 7256              	.LASF72:
 7257 05d9 55475F54 		.ascii	"UG_TOUCH\000"
 7257      4F554348 
 7257      00
 7258              	.LASF2:
 7259 05e2 7369676E 		.ascii	"signed char\000"
 7259      65642063 
 7259      68617200 
 7260              	.LASF7:
 7261 05ee 73686F72 		.ascii	"short unsigned int\000"
 7261      7420756E 
 7261      7369676E 
 7261      65642069 
 7261      6E7400
 7262              	.LASF135:
 7263 0601 66727563 		.ascii	"frucd_display.c\000"
 7263      645F6469 
 7263      73706C61 
 7263      792E6300 
 7264              	.LASF19:
 7265 0611 75696E74 		.ascii	"uint8\000"
 7265      3800
 7266              	.LASF21:
 7267 0617 646F7562 		.ascii	"double\000"
 7267      6C6500
 7268              	.LASF133:
 7269 061e 55475F46 		.ascii	"UG_FontSelect\000"
 7269      6F6E7453 
 7269      656C6563 
 7269      7400
 7270              	.LASF30:
 7271 062c 44524956 		.ascii	"DRIVE_REQUEST_FROM_LV\000"
 7271      455F5245 
 7271      51554553 
 7271      545F4652 
 7271      4F4D5F4C 
 7272              	.LASF62:
 7273 0642 535F4F42 		.ascii	"S_OBJECT\000"
 7273      4A454354 
 7273      00
 7274              	.LASF76:
 7275 064b 616C6967 		.ascii	"align\000"
 7275      6E00
 7276              	.LASF56:
 7277 0651 615F6162 		.ascii	"a_abs\000"
 7277      7300
 7278              	.LASF114:
 7279 0657 6661756C 		.ascii	"fault\000"
 7279      7400
 7280              	.LASF42:
 7281 065d 464F4E54 		.ascii	"FONT_TYPE_1BPP\000"
ARM GAS  C:\Users\leoja\AppData\Local\Temp\ccYOCOnJ.s 			page 149


 7281      5F545950 
 7281      455F3142 
 7281      505000
 7282              	.LASF116:
 7283 066c 64697370 		.ascii	"disp_gen_temp\000"
 7283      5F67656E 
 7283      5F74656D 
 7283      7000
 7284              	.LASF97:
 7285 067a 63686172 		.ascii	"char_h_space\000"
 7285      5F685F73 
 7285      70616365 
 7285      00
 7286              		.ident	"GCC: (GNU Tools for ARM Embedded Processors) 5.4.1 20160609 (release) [ARM/embedded-5-bran
