ARM GAS  C:\Users\Melody\AppData\Local\Temp\ccuHhgp0.s 			page 1


   1              		.syntax unified
   2              		.cpu cortex-m0
   3              		.fpu softvfp
   4              		.eabi_attribute 20, 1
   5              		.eabi_attribute 21, 1
   6              		.eabi_attribute 23, 3
   7              		.eabi_attribute 24, 1
   8              		.eabi_attribute 25, 1
   9              		.eabi_attribute 26, 1
  10              		.eabi_attribute 30, 4
  11              		.eabi_attribute 34, 0
  12              		.eabi_attribute 18, 4
  13              		.thumb
  14              		.syntax unified
  15              		.file	"frucd_display.c"
  16              		.text
  17              	.Ltext0:
  18              		.cfi_sections	.debug_frame
  19              		.section	.text.calibrateScreen,"ax",%progbits
  20              		.align	1
  21              		.global	calibrateScreen
  22              		.code	16
  23              		.thumb_func
  24              		.type	calibrateScreen, %function
  25              	calibrateScreen:
  26              	.LFB35:
  27              		.file 1 "frucd_display.c"
   1:frucd_display.c **** /* ========================================
   2:frucd_display.c ****  *
   3:frucd_display.c ****  * APIs for updating FRUCD Dashboard display
   4:frucd_display.c ****  *
   5:frucd_display.c ****  * ========================================
   6:frucd_display.c **** */
   7:frucd_display.c **** #include "frucd_display.h"
   8:frucd_display.c **** 
   9:frucd_display.c **** // Just a test function that displays elements at the supposed corners of the screen
  10:frucd_display.c **** void calibrateScreen() {
  28              		.loc 1 10 0
  29              		.cfi_startproc
  30              		@ args = 0, pretend = 0, frame = 0
  31              		@ frame_needed = 0, uses_anonymous_args = 0
  32 0000 F7B5     		push	{r0, r1, r2, r4, r5, r6, r7, lr}
  33              		.cfi_def_cfa_offset 32
  34              		.cfi_offset 0, -32
  35              		.cfi_offset 1, -28
  36              		.cfi_offset 2, -24
  37              		.cfi_offset 4, -20
  38              		.cfi_offset 5, -16
  39              		.cfi_offset 6, -12
  40              		.cfi_offset 7, -8
  41              		.cfi_offset 14, -4
  11:frucd_display.c ****     UG_FillScreen(C_WHITE);
  42              		.loc 1 11 0
  43 0002 1948     		ldr	r0, .L2
  44 0004 FFF7FEFF 		bl	UG_FillScreen
  45              	.LVL0:
  12:frucd_display.c ****     //libTFT_FillRectangle(0, 0, 10, 10, RED);
ARM GAS  C:\Users\Melody\AppData\Local\Temp\ccuHhgp0.s 			page 2


  13:frucd_display.c ****     UG_FillFrame(0, 0, 10, 10, C_RED);
  46              		.loc 1 13 0
  47 0008 FF23     		movs	r3, #255
  48 000a 1B04     		lsls	r3, r3, #16
  49 000c 0093     		str	r3, [sp]
  50 000e 0021     		movs	r1, #0
  51 0010 0A23     		movs	r3, #10
  52 0012 0800     		movs	r0, r1
  53 0014 1A00     		movs	r2, r3
  14:frucd_display.c ****     //libTFT_FillRectangle(0, 262, 10, 10, BLUE);
  15:frucd_display.c ****     UG_FillFrame(0, 262, 10, 272, C_BLUE);
  54              		.loc 1 15 0
  55 0016 8827     		movs	r7, #136
  56 0018 8325     		movs	r5, #131
  13:frucd_display.c ****     //libTFT_FillRectangle(0, 262, 10, 10, BLUE);
  57              		.loc 1 13 0
  58 001a FFF7FEFF 		bl	UG_FillFrame
  59              	.LVL1:
  60              		.loc 1 15 0
  61 001e FF23     		movs	r3, #255
  62 0020 7F00     		lsls	r7, r7, #1
  63 0022 6D00     		lsls	r5, r5, #1
  64 0024 2900     		movs	r1, r5
  65 0026 0093     		str	r3, [sp]
  66 0028 0A22     		movs	r2, #10
  67 002a 3B00     		movs	r3, r7
  68 002c 0020     		movs	r0, #0
  69 002e FFF7FEFF 		bl	UG_FillFrame
  70              	.LVL2:
  16:frucd_display.c ****     //libTFT_FillRectangle(470, 0, 10, 10, GREEN);
  17:frucd_display.c ****     UG_FillFrame(470, 0, 480, 10, C_GREEN);
  71              		.loc 1 17 0
  72 0032 F026     		movs	r6, #240
  73 0034 EB24     		movs	r4, #235
  74 0036 FF23     		movs	r3, #255
  75 0038 7600     		lsls	r6, r6, #1
  76 003a 6400     		lsls	r4, r4, #1
  77 003c 1B02     		lsls	r3, r3, #8
  78 003e 3200     		movs	r2, r6
  79 0040 0093     		str	r3, [sp]
  80 0042 2000     		movs	r0, r4
  81 0044 0A23     		movs	r3, #10
  82 0046 0021     		movs	r1, #0
  83 0048 FFF7FEFF 		bl	UG_FillFrame
  84              	.LVL3:
  18:frucd_display.c ****     //libTFT_FillRectangle(470, 262, 10, 10, YELLOW);
  19:frucd_display.c ****     UG_FillFrame(470, 262, 480, 272, C_YELLOW);
  85              		.loc 1 19 0
  86 004c 074B     		ldr	r3, .L2+4
  87 004e 3200     		movs	r2, r6
  88 0050 2900     		movs	r1, r5
  89 0052 0093     		str	r3, [sp]
  90 0054 2000     		movs	r0, r4
  91 0056 3B00     		movs	r3, r7
  92 0058 FFF7FEFF 		bl	UG_FillFrame
  93              	.LVL4:
  20:frucd_display.c ****     CyDelay(300);
ARM GAS  C:\Users\Melody\AppData\Local\Temp\ccuHhgp0.s 			page 3


  94              		.loc 1 20 0
  95 005c 9620     		movs	r0, #150
  96 005e 4000     		lsls	r0, r0, #1
  97 0060 FFF7FEFF 		bl	CyDelay
  98              	.LVL5:
  21:frucd_display.c **** }
  99              		.loc 1 21 0
 100              		@ sp needed
 101 0064 F7BD     		pop	{r0, r1, r2, r4, r5, r6, r7, pc}
 102              	.L3:
 103 0066 C046     		.align	2
 104              	.L2:
 105 0068 FFFFFF00 		.word	16777215
 106 006c 00FFFF00 		.word	16776960
 107              		.cfi_endproc
 108              	.LFE35:
 109              		.size	calibrateScreen, .-calibrateScreen
 110              		.section	.text.debugTemplate,"ax",%progbits
 111              		.align	1
 112              		.global	debugTemplate
 113              		.code	16
 114              		.thumb_func
 115              		.type	debugTemplate, %function
 116              	debugTemplate:
 117              	.LFB36:
  22:frucd_display.c **** 
  23:frucd_display.c **** // Initializes dashboard layout/label
  24:frucd_display.c **** /*
  25:frucd_display.c **** void initDashTemplate() {
  26:frucd_display.c ****     UG_FillScreen(C_BLACK);
  27:frucd_display.c ****     UG_PutString(68, 10, "PACK SOC");
  28:frucd_display.c ****     UG_PutString(297, 10, "MAX PACK T");
  29:frucd_display.c ****     UG_PutString(10, 195, "STATE:");
  30:frucd_display.c ****     UG_PutString(10, 240, "GLV V:");
  31:frucd_display.c ****     UG_PutString(339, 195, "MC T:");
  32:frucd_display.c ****     UG_PutString(300, 240, "MOTOR T:");
  33:frucd_display.c **** }
  34:frucd_display.c **** */
  35:frucd_display.c **** 
  36:frucd_display.c **** void debugTemplate(){
 118              		.loc 1 36 0
 119              		.cfi_startproc
 120              		@ args = 0, pretend = 0, frame = 0
 121              		@ frame_needed = 0, uses_anonymous_args = 0
 122 0000 10B5     		push	{r4, lr}
 123              		.cfi_def_cfa_offset 8
 124              		.cfi_offset 4, -8
 125              		.cfi_offset 14, -4
  37:frucd_display.c ****     UG_FillScreen(C_BLACK);
 126              		.loc 1 37 0
 127 0002 0020     		movs	r0, #0
 128 0004 FFF7FEFF 		bl	UG_FillScreen
 129              	.LVL6:
  38:frucd_display.c ****     UG_PutString(10, 10, "PACK SOC:");
 130              		.loc 1 38 0
 131 0008 0A21     		movs	r1, #10
 132 000a 144A     		ldr	r2, .L5
ARM GAS  C:\Users\Melody\AppData\Local\Temp\ccuHhgp0.s 			page 4


 133 000c 0800     		movs	r0, r1
 134 000e FFF7FEFF 		bl	UG_PutString
 135              	.LVL7:
  39:frucd_display.c ****     UG_PutString(250, 10, "MAX PACK T:");
 136              		.loc 1 39 0
 137 0012 134A     		ldr	r2, .L5+4
 138 0014 0A21     		movs	r1, #10
 139 0016 FA20     		movs	r0, #250
 140 0018 FFF7FEFF 		bl	UG_PutString
 141              	.LVL8:
  40:frucd_display.c ****     UG_PutString(10, 75, "STATE:");
 142              		.loc 1 40 0
 143 001c 114A     		ldr	r2, .L5+8
 144 001e 4B21     		movs	r1, #75
 145 0020 0A20     		movs	r0, #10
 146 0022 FFF7FEFF 		bl	UG_PutString
 147              	.LVL9:
  41:frucd_display.c ****     UG_PutString(250, 75, "MC T:");
 148              		.loc 1 41 0
 149 0026 104A     		ldr	r2, .L5+12
 150 0028 4B21     		movs	r1, #75
 151 002a FA20     		movs	r0, #250
 152 002c FFF7FEFF 		bl	UG_PutString
 153              	.LVL10:
  42:frucd_display.c ****     UG_PutString(10, 140, "GLV V:");
 154              		.loc 1 42 0
 155 0030 0E4A     		ldr	r2, .L5+16
 156 0032 8C21     		movs	r1, #140
 157 0034 0A20     		movs	r0, #10
 158 0036 FFF7FEFF 		bl	UG_PutString
 159              	.LVL11:
  43:frucd_display.c ****     UG_PutString(250, 140, "MOTOR T:");
 160              		.loc 1 43 0
 161 003a 0D4A     		ldr	r2, .L5+20
 162 003c 8C21     		movs	r1, #140
 163 003e FA20     		movs	r0, #250
 164 0040 FFF7FEFF 		bl	UG_PutString
 165              	.LVL12:
  44:frucd_display.c ****     UG_PutString(10, 205, "SHUTDOWN:");
 166              		.loc 1 44 0
 167 0044 0B4A     		ldr	r2, .L5+24
 168 0046 CD21     		movs	r1, #205
 169 0048 0A20     		movs	r0, #10
 170 004a FFF7FEFF 		bl	UG_PutString
 171              	.LVL13:
  45:frucd_display.c ****     UG_PutString(250, 205, "MC FAULT:");
 172              		.loc 1 45 0
 173 004e 0A4A     		ldr	r2, .L5+28
 174 0050 CD21     		movs	r1, #205
 175 0052 FA20     		movs	r0, #250
 176 0054 FFF7FEFF 		bl	UG_PutString
 177              	.LVL14:
  46:frucd_display.c **** }
 178              		.loc 1 46 0
 179              		@ sp needed
 180 0058 10BD     		pop	{r4, pc}
 181              	.L6:
ARM GAS  C:\Users\Melody\AppData\Local\Temp\ccuHhgp0.s 			page 5


 182 005a C046     		.align	2
 183              	.L5:
 184 005c 00000000 		.word	.LC0
 185 0060 0A000000 		.word	.LC2
 186 0064 16000000 		.word	.LC4
 187 0068 1D000000 		.word	.LC6
 188 006c 23000000 		.word	.LC8
 189 0070 2A000000 		.word	.LC10
 190 0074 33000000 		.word	.LC12
 191 0078 3D000000 		.word	.LC14
 192              		.cfi_endproc
 193              	.LFE36:
 194              		.size	debugTemplate, .-debugTemplate
 195              		.section	.text.driveTemplate,"ax",%progbits
 196              		.align	1
 197              		.global	driveTemplate
 198              		.code	16
 199              		.thumb_func
 200              		.type	driveTemplate, %function
 201              	driveTemplate:
 202              	.LFB37:
  47:frucd_display.c **** void driveTemplate(){
 203              		.loc 1 47 0
 204              		.cfi_startproc
 205              		@ args = 0, pretend = 0, frame = 0
 206              		@ frame_needed = 0, uses_anonymous_args = 0
 207 0000 10B5     		push	{r4, lr}
 208              		.cfi_def_cfa_offset 8
 209              		.cfi_offset 4, -8
 210              		.cfi_offset 14, -4
  48:frucd_display.c ****     UG_FillScreen(C_BLACK);
 211              		.loc 1 48 0
 212 0002 0020     		movs	r0, #0
 213 0004 FFF7FEFF 		bl	UG_FillScreen
 214              	.LVL15:
  49:frucd_display.c ****     UG_PutString(68, 10, "PACK SOC");
 215              		.loc 1 49 0
 216 0008 0B4A     		ldr	r2, .L8
 217 000a 0A21     		movs	r1, #10
 218 000c 4420     		movs	r0, #68
 219 000e FFF7FEFF 		bl	UG_PutString
 220              	.LVL16:
  50:frucd_display.c ****     UG_PutString(297, 10, "MAX PACK T");
 221              		.loc 1 50 0
 222 0012 2A20     		movs	r0, #42
 223 0014 094A     		ldr	r2, .L8+4
 224 0016 0A21     		movs	r1, #10
 225 0018 FF30     		adds	r0, r0, #255
 226 001a FFF7FEFF 		bl	UG_PutString
 227              	.LVL17:
  51:frucd_display.c ****     UG_PutString(5, 180, "STATE:");
 228              		.loc 1 51 0
 229 001e 084A     		ldr	r2, .L8+8
 230 0020 B421     		movs	r1, #180
 231 0022 0520     		movs	r0, #5
 232 0024 FFF7FEFF 		bl	UG_PutString
 233              	.LVL18:
ARM GAS  C:\Users\Melody\AppData\Local\Temp\ccuHhgp0.s 			page 6


  52:frucd_display.c ****     UG_PutString(275, 180, "GLV V:");
 234              		.loc 1 52 0
 235 0028 1420     		movs	r0, #20
 236 002a 064A     		ldr	r2, .L8+12
 237 002c B421     		movs	r1, #180
 238 002e FF30     		adds	r0, r0, #255
 239 0030 FFF7FEFF 		bl	UG_PutString
 240              	.LVL19:
  53:frucd_display.c ****     
  54:frucd_display.c **** }
 241              		.loc 1 54 0
 242              		@ sp needed
 243 0034 10BD     		pop	{r4, pc}
 244              	.L9:
 245 0036 C046     		.align	2
 246              	.L8:
 247 0038 47000000 		.word	.LC16
 248 003c 50000000 		.word	.LC18
 249 0040 16000000 		.word	.LC4
 250 0044 23000000 		.word	.LC8
 251              		.cfi_endproc
 252              	.LFE37:
 253              		.size	driveTemplate, .-driveTemplate
 254              		.section	.text.disp_SOC,"ax",%progbits
 255              		.align	1
 256              		.global	disp_SOC
 257              		.code	16
 258              		.thumb_func
 259              		.type	disp_SOC, %function
 260              	disp_SOC:
 261              	.LFB38:
  55:frucd_display.c **** /*
  56:frucd_display.c ****  * BEGIN: functions to show data on dash
  57:frucd_display.c ****  * - handle variety of digit counts
  58:frucd_display.c ****  * - color decision logic is in here
  59:frucd_display.c ****  */
  60:frucd_display.c **** 
  61:frucd_display.c **** 
  62:frucd_display.c **** 
  63:frucd_display.c **** /* Left in non-generalized functions for future reference*/
  64:frucd_display.c **** 
  65:frucd_display.c **** 
  66:frucd_display.c **** /*
  67:frucd_display.c **** void disp_SOC(uint8_t data) {
  68:frucd_display.c ****     UG_FontSelect(&FONT_32X53);
  69:frucd_display.c ****     UG_COLOR color;
  70:frucd_display.c ****     if (data == 100) {
  71:frucd_display.c ****         // handle 100% case
  72:frucd_display.c ****         color = C_GREEN;
  73:frucd_display.c ****         if (color != last_SOC_color) {
  74:frucd_display.c ****             // only draw rectangle if color changed
  75:frucd_display.c ****             UG_FillFrame(30, 35, 210, 170, color);
  76:frucd_display.c ****             last_SOC_color = color;
  77:frucd_display.c ****         }
  78:frucd_display.c ****         UG_PutColorString(55, 80, "100%", C_BLACK, C_GREEN);
  79:frucd_display.c ****     } else {
  80:frucd_display.c ****         // handle other cases
ARM GAS  C:\Users\Melody\AppData\Local\Temp\ccuHhgp0.s 			page 7


  81:frucd_display.c ****         char data_s[4];
  82:frucd_display.c ****         sprintf(data_s, "%d", data);
  83:frucd_display.c ****         if (data >= 10) {
  84:frucd_display.c ****             // handle 2 digit cases
  85:frucd_display.c ****             // choose color
  86:frucd_display.c ****             if (data > 75) {
  87:frucd_display.c ****                 color = C_GREEN;
  88:frucd_display.c ****             } else if (data > 50) {
  89:frucd_display.c ****                 color = C_YELLOW;
  90:frucd_display.c ****             } else if (data > 25) {
  91:frucd_display.c ****                 color = C_ORANGE;
  92:frucd_display.c ****             } else {
  93:frucd_display.c ****                 color = C_RED;
  94:frucd_display.c ****             }
  95:frucd_display.c ****             data_s[2] = '%';
  96:frucd_display.c ****             data_s[3] = '\0';
  97:frucd_display.c ****             if (color != last_SOC_color) {
  98:frucd_display.c ****                 // only draw rectangle if color changed
  99:frucd_display.c ****                 UG_FillFrame(30, 35, 210, 170, color);
 100:frucd_display.c ****                 last_SOC_color = color;
 101:frucd_display.c ****             }
 102:frucd_display.c ****             UG_PutColorString(70, 80, data_s, C_BLACK, color);
 103:frucd_display.c ****         } else {
 104:frucd_display.c ****             // handle 1 digit cases
 105:frucd_display.c ****             data_s[1] = '%';
 106:frucd_display.c ****             data_s[2] = '\0';
 107:frucd_display.c ****             color = C_RED;
 108:frucd_display.c ****             
 109:frucd_display.c ****             
 110:frucd_display.c ****             
 111:frucd_display.c ****             
 112:frucd_display.c ****             //why is this here?
 113:frucd_display.c ****             UG_FillFrame(30, 35, 210, 170, C_BLACK);
 114:frucd_display.c ****             
 115:frucd_display.c ****             
 116:frucd_display.c ****             
 117:frucd_display.c ****             
 118:frucd_display.c ****             
 119:frucd_display.c ****             
 120:frucd_display.c ****             
 121:frucd_display.c ****             UG_FillFrame(30, 35, 210, 170, color);
 122:frucd_display.c ****             UG_PutColorString(90, 80, data_s, C_BLACK, color);
 123:frucd_display.c ****         }   
 124:frucd_display.c ****     }
 125:frucd_display.c ****     UG_FontSelect(&FONT_12X16);
 126:frucd_display.c **** }
 127:frucd_display.c **** 
 128:frucd_display.c **** 
 129:frucd_display.c **** */
 130:frucd_display.c **** 
 131:frucd_display.c **** 
 132:frucd_display.c **** // size is big if 1, small if not
 133:frucd_display.c **** void disp_SOC(uint8_t data, uint16_t x1, uint16_t y1, uint16_t x2, uint16_t y2, uint8_t size) {
 262              		.loc 1 133 0
 263              		.cfi_startproc
 264              		@ args = 8, pretend = 0, frame = 32
 265              		@ frame_needed = 0, uses_anonymous_args = 0
ARM GAS  C:\Users\Melody\AppData\Local\Temp\ccuHhgp0.s 			page 8


 266              	.LVL20:
 267 0000 F0B5     		push	{r4, r5, r6, r7, lr}
 268              		.cfi_def_cfa_offset 20
 269              		.cfi_offset 4, -20
 270              		.cfi_offset 5, -16
 271              		.cfi_offset 6, -12
 272              		.cfi_offset 7, -8
 273              		.cfi_offset 14, -4
 274 0002 8BB0     		sub	sp, sp, #44
 275              		.cfi_def_cfa_offset 64
 276              		.loc 1 133 0
 277 0004 0493     		str	r3, [sp, #16]
 278 0006 10AB     		add	r3, sp, #64
 279              	.LVL21:
 280 0008 1B88     		ldrh	r3, [r3]
 281              	.LVL22:
 282 000a 0391     		str	r1, [sp, #12]
 283 000c 0593     		str	r3, [sp, #20]
 284 000e 11AB     		add	r3, sp, #68
 285              	.LVL23:
 286 0010 1978     		ldrb	r1, [r3]
 287              	.LVL24:
 134:frucd_display.c ****     int stringSize;
 135:frucd_display.c ****     int xFont, yFont;
 136:frucd_display.c ****     int horizFontSize = 12 + 20*size;
 288              		.loc 1 136 0
 289 0012 1423     		movs	r3, #20
 290              	.LVL25:
 291 0014 4B43     		muls	r3, r1
 133:frucd_display.c ****     int stringSize;
 292              		.loc 1 133 0
 293 0016 1400     		movs	r4, r2
 294 0018 0500     		movs	r5, r0
 295              		.loc 1 136 0
 296 001a 0C33     		adds	r3, r3, #12
 297              	.LVL26:
 137:frucd_display.c ****     if (data >= 100) {
 138:frucd_display.c ****         stringSize = 4;
 298              		.loc 1 138 0
 299 001c 0422     		movs	r2, #4
 300              	.LVL27:
 137:frucd_display.c ****     if (data >= 100) {
 301              		.loc 1 137 0
 302 001e 6328     		cmp	r0, #99
 303 0020 04D8     		bhi	.L11
 139:frucd_display.c ****     }else if (data >= 10){
 140:frucd_display.c ****         stringSize = 3;
 141:frucd_display.c ****     }else{
 142:frucd_display.c ****         stringSize = 2;
 304              		.loc 1 142 0
 305 0022 0532     		adds	r2, r2, #5
 306 0024 8242     		cmp	r2, r0
 307 0026 9241     		sbcs	r2, r2, r2
 308 0028 5242     		rsbs	r2, r2, #0
 309 002a 0232     		adds	r2, r2, #2
 310              	.L11:
 311              	.LVL28:
ARM GAS  C:\Users\Melody\AppData\Local\Temp\ccuHhgp0.s 			page 9


 143:frucd_display.c ****     }
 144:frucd_display.c ****     
 145:frucd_display.c ****     xFont = (x1 + x2)/2 - ((horizFontSize*stringSize)/2);
 312              		.loc 1 145 0
 313 002c 5343     		muls	r3, r2
 314              	.LVL29:
 315 002e 0398     		ldr	r0, [sp, #12]
 316              	.LVL30:
 317 0030 049E     		ldr	r6, [sp, #16]
 318 0032 5B10     		asrs	r3, r3, #1
 319 0034 8619     		adds	r6, r0, r6
 320 0036 7010     		asrs	r0, r6, #1
 321 0038 C61A     		subs	r6, r0, r3
 322              	.LVL31:
 146:frucd_display.c ****     yFont = (y1 + y2)/2 - 5 - (size*17);    
 323              		.loc 1 146 0
 324 003a 059B     		ldr	r3, [sp, #20]
 325 003c E718     		adds	r7, r4, r3
 326 003e 7F10     		asrs	r7, r7, #1
 327 0040 7B1F     		subs	r3, r7, #5
 328 0042 1127     		movs	r7, #17
 329 0044 7F42     		rsbs	r7, r7, #0
 330 0046 4F43     		muls	r7, r1
 331 0048 DF19     		adds	r7, r3, r7
 332              	.LVL32:
 147:frucd_display.c ****     if(size == 1){
 333              		.loc 1 147 0
 334 004a 0129     		cmp	r1, #1
 335 004c 02D1     		bne	.L12
 148:frucd_display.c ****         UG_FontSelect(&FONT_32X53);
 336              		.loc 1 148 0
 337 004e 3C48     		ldr	r0, .L29
 338 0050 FFF7FEFF 		bl	UG_FontSelect
 339              	.LVL33:
 340              	.L12:
 341 0054 3BB2     		sxth	r3, r7
 342 0056 0693     		str	r3, [sp, #24]
 343 0058 33B2     		sxth	r3, r6
 344 005a 0793     		str	r3, [sp, #28]
 149:frucd_display.c ****        
 150:frucd_display.c ****     }
 151:frucd_display.c ****         
 152:frucd_display.c ****     UG_COLOR color;
 153:frucd_display.c ****     if (data == 100) {
 345              		.loc 1 153 0
 346 005c 642D     		cmp	r5, #100
 347 005e 19D1     		bne	.L13
 348              	.LVL34:
 154:frucd_display.c ****         // handle 100% case
 155:frucd_display.c ****         color = C_GREEN;
 156:frucd_display.c ****         if (color != last_SOC_color) {
 349              		.loc 1 156 0
 350 0060 FF25     		movs	r5, #255
 351 0062 384E     		ldr	r6, .L29+4
 352              	.LVL35:
 353 0064 2D02     		lsls	r5, r5, #8
 354 0066 3368     		ldr	r3, [r6]
ARM GAS  C:\Users\Melody\AppData\Local\Temp\ccuHhgp0.s 			page 10


 355 0068 AB42     		cmp	r3, r5
 356 006a 0DD0     		beq	.L14
 157:frucd_display.c ****             // only draw rectangle if color changed
 158:frucd_display.c ****             UG_FillFrame(x1, y1, x2, y2, color);
 357              		.loc 1 158 0
 358 006c 6B46     		mov	r3, sp
 359 006e 6846     		mov	r0, sp
 360 0070 1422     		movs	r2, #20
 361 0072 9B5E     		ldrsh	r3, [r3, r2]
 362 0074 6A46     		mov	r2, sp
 363 0076 1021     		movs	r1, #16
 364 0078 525E     		ldrsh	r2, [r2, r1]
 365 007a 21B2     		sxth	r1, r4
 366 007c 0C24     		movs	r4, #12
 367 007e 005F     		ldrsh	r0, [r0, r4]
 368 0080 0095     		str	r5, [sp]
 369 0082 FFF7FEFF 		bl	UG_FillFrame
 370              	.LVL36:
 159:frucd_display.c ****             last_SOC_color = color;
 371              		.loc 1 159 0
 372 0086 3560     		str	r5, [r6]
 373              	.L14:
 160:frucd_display.c ****         }
 161:frucd_display.c ****         
 162:frucd_display.c ****         UG_PutColorString(xFont, yFont, "100%", C_BLACK, C_GREEN);
 374              		.loc 1 162 0
 375 0088 FF23     		movs	r3, #255
 376 008a 1B02     		lsls	r3, r3, #8
 377 008c 0093     		str	r3, [sp]
 378 008e 2E4A     		ldr	r2, .L29+8
 379 0090 0023     		movs	r3, #0
 380 0092 4CE0     		b	.L26
 381              	.LVL37:
 382              	.L13:
 383              	.LBB2:
 163:frucd_display.c ****     } else {
 164:frucd_display.c ****         // handle other cases
 165:frucd_display.c ****         char data_s[4];
 166:frucd_display.c ****         sprintf(data_s, "%d", data);
 384              		.loc 1 166 0
 385 0094 09AF     		add	r7, sp, #36
 386              	.LVL38:
 387 0096 2A00     		movs	r2, r5
 388 0098 2C49     		ldr	r1, .L29+12
 389 009a 3800     		movs	r0, r7
 390 009c FFF7FEFF 		bl	sprintf
 391              	.LVL39:
 167:frucd_display.c ****         if (data >= 10) {
 392              		.loc 1 167 0
 393 00a0 092D     		cmp	r5, #9
 394 00a2 27D9     		bls	.L16
 168:frucd_display.c ****             // handle 2 digit cases
 169:frucd_display.c ****             // choose color
 170:frucd_display.c ****             if (data > 75) {
 395              		.loc 1 170 0
 396 00a4 4B2D     		cmp	r5, #75
 397 00a6 06D8     		bhi	.L23
ARM GAS  C:\Users\Melody\AppData\Local\Temp\ccuHhgp0.s 			page 11


 171:frucd_display.c ****                 color = C_GREEN;
 172:frucd_display.c ****             } else if (data > 50) {
 398              		.loc 1 172 0
 399 00a8 322D     		cmp	r5, #50
 400 00aa 07D8     		bhi	.L24
 173:frucd_display.c ****                 color = C_YELLOW;
 174:frucd_display.c ****             } else if (data > 25) {
 401              		.loc 1 174 0
 402 00ac 192D     		cmp	r5, #25
 403 00ae 07D8     		bhi	.L25
 175:frucd_display.c ****                 color = C_ORANGE;
 176:frucd_display.c ****             } else {
 177:frucd_display.c ****                 color = C_RED;
 404              		.loc 1 177 0
 405 00b0 FF25     		movs	r5, #255
 406 00b2 2D04     		lsls	r5, r5, #16
 407 00b4 05E0     		b	.L17
 408              	.L23:
 171:frucd_display.c ****             } else if (data > 50) {
 409              		.loc 1 171 0
 410 00b6 FF25     		movs	r5, #255
 411 00b8 2D02     		lsls	r5, r5, #8
 412 00ba 02E0     		b	.L17
 413              	.L24:
 173:frucd_display.c ****                 color = C_YELLOW;
 414              		.loc 1 173 0
 415 00bc 244D     		ldr	r5, .L29+16
 416 00be 00E0     		b	.L17
 417              	.L25:
 175:frucd_display.c ****                 color = C_ORANGE;
 418              		.loc 1 175 0
 419 00c0 244D     		ldr	r5, .L29+20
 420              	.L17:
 421              	.LVL40:
 178:frucd_display.c ****             }
 179:frucd_display.c ****             data_s[2] = '%';
 422              		.loc 1 179 0
 423 00c2 2522     		movs	r2, #37
 424 00c4 09AB     		add	r3, sp, #36
 425 00c6 9A70     		strb	r2, [r3, #2]
 180:frucd_display.c ****             data_s[3] = '\0';
 426              		.loc 1 180 0
 427 00c8 0022     		movs	r2, #0
 181:frucd_display.c ****             if (color != last_SOC_color) {
 428              		.loc 1 181 0
 429 00ca 1E4E     		ldr	r6, .L29+4
 430              	.LVL41:
 180:frucd_display.c ****             data_s[3] = '\0';
 431              		.loc 1 180 0
 432 00cc DA70     		strb	r2, [r3, #3]
 433              		.loc 1 181 0
 434 00ce 3368     		ldr	r3, [r6]
 435 00d0 9D42     		cmp	r5, r3
 436 00d2 0DD0     		beq	.L18
 182:frucd_display.c ****                 // only draw rectangle if color changed
 183:frucd_display.c ****                 UG_FillFrame(x1, y1, x2, y2, color);
 437              		.loc 1 183 0
ARM GAS  C:\Users\Melody\AppData\Local\Temp\ccuHhgp0.s 			page 12


 438 00d4 6B46     		mov	r3, sp
 439 00d6 6846     		mov	r0, sp
 440 00d8 1422     		movs	r2, #20
 441 00da 9B5E     		ldrsh	r3, [r3, r2]
 442 00dc 6A46     		mov	r2, sp
 443 00de 1021     		movs	r1, #16
 444 00e0 525E     		ldrsh	r2, [r2, r1]
 445 00e2 21B2     		sxth	r1, r4
 446 00e4 0C24     		movs	r4, #12
 447 00e6 005F     		ldrsh	r0, [r0, r4]
 448              	.LVL42:
 449 00e8 0095     		str	r5, [sp]
 450 00ea FFF7FEFF 		bl	UG_FillFrame
 451              	.LVL43:
 184:frucd_display.c ****                 last_SOC_color = color;
 452              		.loc 1 184 0
 453 00ee 3560     		str	r5, [r6]
 454              	.L18:
 185:frucd_display.c ****             }
 186:frucd_display.c ****             UG_PutColorString(xFont, yFont, data_s, C_BLACK, color);
 455              		.loc 1 186 0
 456 00f0 0095     		str	r5, [sp]
 457 00f2 1AE0     		b	.L27
 458              	.LVL44:
 459              	.L16:
 187:frucd_display.c ****         } else {
 188:frucd_display.c ****             // handle 1 digit cases
 189:frucd_display.c ****             data_s[1] = '%';
 460              		.loc 1 189 0
 461 00f4 2523     		movs	r3, #37
 462 00f6 7B70     		strb	r3, [r7, #1]
 190:frucd_display.c ****             data_s[2] = '\0';
 463              		.loc 1 190 0
 464 00f8 0023     		movs	r3, #0
 191:frucd_display.c ****             color = C_RED;
 192:frucd_display.c ****             if (color != last_SOC_color) {
 465              		.loc 1 192 0
 466 00fa FF25     		movs	r5, #255
 467 00fc 114E     		ldr	r6, .L29+4
 468              	.LVL45:
 190:frucd_display.c ****             data_s[2] = '\0';
 469              		.loc 1 190 0
 470 00fe BB70     		strb	r3, [r7, #2]
 471              	.LVL46:
 472              		.loc 1 192 0
 473 0100 3368     		ldr	r3, [r6]
 474 0102 2D04     		lsls	r5, r5, #16
 475 0104 AB42     		cmp	r3, r5
 476 0106 0DD0     		beq	.L20
 193:frucd_display.c ****             // only draw rectangle if color changed
 194:frucd_display.c ****                 UG_FillFrame(x1, y1, x2, y2, color);
 477              		.loc 1 194 0
 478 0108 6B46     		mov	r3, sp
 479 010a 6846     		mov	r0, sp
 480 010c 1422     		movs	r2, #20
 481 010e 9B5E     		ldrsh	r3, [r3, r2]
 482 0110 6A46     		mov	r2, sp
ARM GAS  C:\Users\Melody\AppData\Local\Temp\ccuHhgp0.s 			page 13


 483 0112 1021     		movs	r1, #16
 484 0114 525E     		ldrsh	r2, [r2, r1]
 485 0116 21B2     		sxth	r1, r4
 486 0118 0C24     		movs	r4, #12
 487 011a 005F     		ldrsh	r0, [r0, r4]
 488              	.LVL47:
 489 011c 0095     		str	r5, [sp]
 490 011e FFF7FEFF 		bl	UG_FillFrame
 491              	.LVL48:
 195:frucd_display.c ****                 last_SOC_color = color;
 492              		.loc 1 195 0
 493 0122 3560     		str	r5, [r6]
 494              	.L20:
 196:frucd_display.c ****             }
 197:frucd_display.c ****            
 198:frucd_display.c ****             UG_PutColorString(xFont, yFont, data_s, C_BLACK, color);
 495              		.loc 1 198 0
 496 0124 FF23     		movs	r3, #255
 497 0126 1B04     		lsls	r3, r3, #16
 498 0128 0093     		str	r3, [sp]
 499              	.LVL49:
 500              	.L27:
 501 012a 0023     		movs	r3, #0
 502 012c 3A00     		movs	r2, r7
 503              	.L26:
 504 012e 0699     		ldr	r1, [sp, #24]
 505 0130 0798     		ldr	r0, [sp, #28]
 506 0132 FFF7FEFF 		bl	UG_PutColorString
 507              	.LVL50:
 508              	.LBE2:
 199:frucd_display.c ****         }   
 200:frucd_display.c ****     }
 201:frucd_display.c ****     UG_FontSelect(&FONT_12X16);
 509              		.loc 1 201 0
 510 0136 0848     		ldr	r0, .L29+24
 511 0138 FFF7FEFF 		bl	UG_FontSelect
 512              	.LVL51:
 202:frucd_display.c **** }
 513              		.loc 1 202 0
 514 013c 0BB0     		add	sp, sp, #44
 515              		@ sp needed
 516 013e F0BD     		pop	{r4, r5, r6, r7, pc}
 517              	.L30:
 518              		.align	2
 519              	.L29:
 520 0140 00000000 		.word	FONT_32X53
 521 0144 00000000 		.word	last_SOC_color
 522 0148 5B000000 		.word	.LC24
 523 014c 60000000 		.word	.LC26
 524 0150 00FFFF00 		.word	16776960
 525 0154 00A5FF00 		.word	16753920
 526 0158 00000000 		.word	FONT_12X16
 527              		.cfi_endproc
 528              	.LFE38:
 529              		.size	disp_SOC, .-disp_SOC
 530              		.section	.text.disp_max_pack_temp,"ax",%progbits
 531              		.align	1
ARM GAS  C:\Users\Melody\AppData\Local\Temp\ccuHhgp0.s 			page 14


 532              		.global	disp_max_pack_temp
 533              		.code	16
 534              		.thumb_func
 535              		.type	disp_max_pack_temp, %function
 536              	disp_max_pack_temp:
 537              	.LFB39:
 203:frucd_display.c **** 
 204:frucd_display.c **** /*
 205:frucd_display.c **** 
 206:frucd_display.c **** void disp_max_pack_temp(uint8_t data) {
 207:frucd_display.c ****     // choose color
 208:frucd_display.c ****     UG_COLOR color;
 209:frucd_display.c ****     if (data < 45) {
 210:frucd_display.c ****         color = C_GREEN;
 211:frucd_display.c ****     } else if (data < 50) {
 212:frucd_display.c ****         color = C_YELLOW;
 213:frucd_display.c ****     } else if (data < 55) {
 214:frucd_display.c ****         color = C_ORANGE;
 215:frucd_display.c ****     } else {
 216:frucd_display.c ****         color = C_RED;
 217:frucd_display.c **** 
 218:frucd_display.c ****         UG_FillFrame(270, 35, 450, 170, C_BLACK);
 219:frucd_display.c ****         UG_FillFrame(270, 35, 450, 170, color);
 220:frucd_display.c ****         
 221:frucd_display.c ****     }
 222:frucd_display.c ****     
 223:frucd_display.c ****     if (color != last_max_pack_temp_color) {
 224:frucd_display.c ****         // only draw rectangle if color changed
 225:frucd_display.c ****         UG_FillFrame(270, 35, 450, 170, color);
 226:frucd_display.c ****         last_max_pack_temp_color = color;
 227:frucd_display.c ****     }
 228:frucd_display.c ****     UG_FontSelect(&FONT_32X53);
 229:frucd_display.c ****     char data_s[4];
 230:frucd_display.c ****     sprintf(data_s, "%d", data);
 231:frucd_display.c ****     data_s[2] = 'C';
 232:frucd_display.c ****     data_s[3] = '\0';
 233:frucd_display.c ****     UG_PutColorString(310, 80, data_s, C_BLACK, color);
 234:frucd_display.c ****     UG_FontSelect(&FONT_12X16);
 235:frucd_display.c **** }
 236:frucd_display.c **** 
 237:frucd_display.c **** */
 238:frucd_display.c **** 
 239:frucd_display.c **** 
 240:frucd_display.c **** void disp_max_pack_temp(uint8_t data, uint16_t x1, uint16_t y1, uint16_t x2, uint16_t y2, uint8_t s
 538              		.loc 1 240 0
 539              		.cfi_startproc
 540              		@ args = 8, pretend = 0, frame = 40
 541              		@ frame_needed = 0, uses_anonymous_args = 0
 542              	.LVL52:
 543 0000 F0B5     		push	{r4, r5, r6, r7, lr}
 544              		.cfi_def_cfa_offset 20
 545              		.cfi_offset 4, -20
 546              		.cfi_offset 5, -16
 547              		.cfi_offset 6, -12
 548              		.cfi_offset 7, -8
 549              		.cfi_offset 14, -4
 550 0002 8DB0     		sub	sp, sp, #52
ARM GAS  C:\Users\Melody\AppData\Local\Temp\ccuHhgp0.s 			page 15


 551              		.cfi_def_cfa_offset 72
 552              		.loc 1 240 0
 553 0004 0593     		str	r3, [sp, #20]
 554 0006 12AB     		add	r3, sp, #72
 555              	.LVL53:
 556 0008 1B88     		ldrh	r3, [r3]
 557              	.LVL54:
 558 000a 0492     		str	r2, [sp, #16]
 559 000c 0693     		str	r3, [sp, #24]
 560 000e 13AB     		add	r3, sp, #76
 561              	.LVL55:
 562 0010 1A78     		ldrb	r2, [r3]
 563              	.LVL56:
 241:frucd_display.c ****     int xFont, yFont;
 242:frucd_display.c ****     int horizFontSize = 12 + 20*size;
 243:frucd_display.c ****     int stringSize;
 244:frucd_display.c ****     stringSize = 3;
 245:frucd_display.c ****     xFont = (x1 + x2)/2 - ((horizFontSize*stringSize)/2);
 564              		.loc 1 245 0
 565 0012 1423     		movs	r3, #20
 566              	.LVL57:
 240:frucd_display.c ****     int xFont, yFont;
 567              		.loc 1 240 0
 568 0014 0391     		str	r1, [sp, #12]
 569              		.loc 1 245 0
 570 0016 0321     		movs	r1, #3
 571              	.LVL58:
 572 0018 5343     		muls	r3, r2
 573 001a 0C33     		adds	r3, r3, #12
 574              	.LVL59:
 575 001c 4B43     		muls	r3, r1
 576              	.LVL60:
 240:frucd_display.c ****     int xFont, yFont;
 577              		.loc 1 240 0
 578 001e 0290     		str	r0, [sp, #8]
 579              		.loc 1 245 0
 580 0020 0399     		ldr	r1, [sp, #12]
 581 0022 0598     		ldr	r0, [sp, #20]
 582              	.LVL61:
 583 0024 5B10     		asrs	r3, r3, #1
 584 0026 0818     		adds	r0, r1, r0
 585 0028 4010     		asrs	r0, r0, #1
 586 002a C31A     		subs	r3, r0, r3
 246:frucd_display.c ****     yFont = (y1 + y2)/2 - 5 - (size*17);    
 587              		.loc 1 246 0
 588 002c 0699     		ldr	r1, [sp, #24]
 245:frucd_display.c ****     yFont = (y1 + y2)/2 - 5 - (size*17);    
 589              		.loc 1 245 0
 590 002e 0893     		str	r3, [sp, #32]
 591              	.LVL62:
 592              		.loc 1 246 0
 593 0030 049B     		ldr	r3, [sp, #16]
 594              	.LVL63:
 595 0032 5B18     		adds	r3, r3, r1
 596 0034 1121     		movs	r1, #17
 597 0036 4942     		rsbs	r1, r1, #0
 598 0038 5143     		muls	r1, r2
ARM GAS  C:\Users\Melody\AppData\Local\Temp\ccuHhgp0.s 			page 16


 599 003a 5B10     		asrs	r3, r3, #1
 600 003c 053B     		subs	r3, r3, #5
 601 003e 5B18     		adds	r3, r3, r1
 602 0040 0993     		str	r3, [sp, #36]
 603              	.LVL64:
 247:frucd_display.c ****     if(size == 1){
 604              		.loc 1 247 0
 605 0042 012A     		cmp	r2, #1
 606 0044 02D1     		bne	.L32
 248:frucd_display.c ****         UG_FontSelect(&FONT_32X53);
 607              		.loc 1 248 0
 608 0046 2B48     		ldr	r0, .L38
 609 0048 FFF7FEFF 		bl	UG_FontSelect
 610              	.LVL65:
 611              	.L32:
 249:frucd_display.c ****     }
 250:frucd_display.c ****     
 251:frucd_display.c ****     // choose color
 252:frucd_display.c ****     UG_COLOR color;
 253:frucd_display.c ****     if (data < 45) {
 612              		.loc 1 253 0
 613 004c 029B     		ldr	r3, [sp, #8]
 614 004e 2C2B     		cmp	r3, #44
 615 0050 21D9     		bls	.L35
 254:frucd_display.c ****         color = C_GREEN;
 255:frucd_display.c ****     } else if (data < 50) {
 616              		.loc 1 255 0
 617 0052 312B     		cmp	r3, #49
 618 0054 22D9     		bls	.L36
 256:frucd_display.c ****         color = C_YELLOW;
 257:frucd_display.c ****     } else if (data < 55) {
 619              		.loc 1 257 0
 620 0056 362B     		cmp	r3, #54
 621 0058 22D9     		bls	.L37
 622              	.LVL66:
 258:frucd_display.c ****         color = C_ORANGE;
 259:frucd_display.c ****     } else {
 260:frucd_display.c ****         color = C_RED; 
 261:frucd_display.c ****         
 262:frucd_display.c ****         UG_FillFrame(x1, y1, x2, y2, C_BLACK);
 623              		.loc 1 262 0
 624 005a 6B46     		mov	r3, sp
 625 005c 0C25     		movs	r5, #12
 626 005e 5D5F     		ldrsh	r5, [r3, r5]
 627 0060 6B46     		mov	r3, sp
 628 0062 1026     		movs	r6, #16
 629 0064 9E5F     		ldrsh	r6, [r3, r6]
 630 0066 6B46     		mov	r3, sp
 631 0068 1427     		movs	r7, #20
 632 006a DF5F     		ldrsh	r7, [r3, r7]
 633 006c 6B46     		mov	r3, sp
 263:frucd_display.c ****         UG_FillFrame(x1, y1, x2, y2, color);
 634              		.loc 1 263 0
 635 006e FF24     		movs	r4, #255
 262:frucd_display.c ****         UG_FillFrame(x1, y1, x2, y2, color);
 636              		.loc 1 262 0
 637 0070 1822     		movs	r2, #24
ARM GAS  C:\Users\Melody\AppData\Local\Temp\ccuHhgp0.s 			page 17


 638 0072 9B5E     		ldrsh	r3, [r3, r2]
 639 0074 0022     		movs	r2, #0
 640 0076 3100     		movs	r1, r6
 641 0078 0092     		str	r2, [sp]
 642 007a 2800     		movs	r0, r5
 643 007c 3A00     		movs	r2, r7
 644              		.loc 1 263 0
 645 007e 2404     		lsls	r4, r4, #16
 262:frucd_display.c ****         UG_FillFrame(x1, y1, x2, y2, color);
 646              		.loc 1 262 0
 647 0080 0793     		str	r3, [sp, #28]
 648 0082 FFF7FEFF 		bl	UG_FillFrame
 649              	.LVL67:
 650              		.loc 1 263 0
 651 0086 0094     		str	r4, [sp]
 652 0088 079B     		ldr	r3, [sp, #28]
 653 008a 3A00     		movs	r2, r7
 654 008c 3100     		movs	r1, r6
 655 008e 2800     		movs	r0, r5
 656 0090 FFF7FEFF 		bl	UG_FillFrame
 657              	.LVL68:
 658 0094 05E0     		b	.L33
 659              	.LVL69:
 660              	.L35:
 254:frucd_display.c ****     } else if (data < 50) {
 661              		.loc 1 254 0
 662 0096 FF24     		movs	r4, #255
 663 0098 2402     		lsls	r4, r4, #8
 664 009a 02E0     		b	.L33
 665              	.L36:
 256:frucd_display.c ****     } else if (data < 55) {
 666              		.loc 1 256 0
 667 009c 164C     		ldr	r4, .L38+4
 668 009e 00E0     		b	.L33
 669              	.L37:
 258:frucd_display.c ****     } else {
 670              		.loc 1 258 0
 671 00a0 164C     		ldr	r4, .L38+8
 672              	.L33:
 673              	.LVL70:
 264:frucd_display.c ****     
 265:frucd_display.c ****     }
 266:frucd_display.c **** 
 267:frucd_display.c ****    
 268:frucd_display.c ****     
 269:frucd_display.c ****    
 270:frucd_display.c ****     if (color != last_max_pack_temp_color) {
 674              		.loc 1 270 0
 675 00a2 174D     		ldr	r5, .L38+12
 676 00a4 2B68     		ldr	r3, [r5]
 677 00a6 9C42     		cmp	r4, r3
 678 00a8 0FD0     		beq	.L34
 271:frucd_display.c ****         UG_FillFrame(x1, y1, x2, y2, color);
 679              		.loc 1 271 0
 680 00aa 6B46     		mov	r3, sp
 681 00ac 1822     		movs	r2, #24
 682 00ae 9B5E     		ldrsh	r3, [r3, r2]
ARM GAS  C:\Users\Melody\AppData\Local\Temp\ccuHhgp0.s 			page 18


 683 00b0 6A46     		mov	r2, sp
 684 00b2 1421     		movs	r1, #20
 685 00b4 525E     		ldrsh	r2, [r2, r1]
 686 00b6 6946     		mov	r1, sp
 687 00b8 1020     		movs	r0, #16
 688 00ba 095E     		ldrsh	r1, [r1, r0]
 689 00bc 6846     		mov	r0, sp
 690 00be 0C26     		movs	r6, #12
 691 00c0 805F     		ldrsh	r0, [r0, r6]
 692 00c2 0094     		str	r4, [sp]
 693 00c4 FFF7FEFF 		bl	UG_FillFrame
 694              	.LVL71:
 272:frucd_display.c ****         last_max_pack_temp_color = color;
 695              		.loc 1 272 0
 696 00c8 2C60     		str	r4, [r5]
 697              	.L34:
 273:frucd_display.c ****     }
 274:frucd_display.c **** 
 275:frucd_display.c ****     char data_s[4];
 276:frucd_display.c ****     sprintf(data_s, "%d C", data);
 698              		.loc 1 276 0
 699 00ca 029A     		ldr	r2, [sp, #8]
 700 00cc 0D49     		ldr	r1, .L38+16
 701 00ce 0BA8     		add	r0, sp, #44
 702 00d0 FFF7FEFF 		bl	sprintf
 703              	.LVL72:
 277:frucd_display.c ****    // data_s[2] = 'C';
 278:frucd_display.c ****     //data_s[3] = '\0';
 279:frucd_display.c ****     UG_PutColorString(xFont, yFont, data_s, C_BLACK, color);
 704              		.loc 1 279 0
 705 00d4 6B46     		mov	r3, sp
 706 00d6 2421     		movs	r1, #36
 707 00d8 595E     		ldrsh	r1, [r3, r1]
 708 00da 6B46     		mov	r3, sp
 709 00dc 0BAA     		add	r2, sp, #44
 710 00de 2020     		movs	r0, #32
 711 00e0 185E     		ldrsh	r0, [r3, r0]
 712 00e2 0023     		movs	r3, #0
 713 00e4 0094     		str	r4, [sp]
 714 00e6 FFF7FEFF 		bl	UG_PutColorString
 715              	.LVL73:
 280:frucd_display.c ****     UG_FontSelect(&FONT_12X16);
 716              		.loc 1 280 0
 717 00ea 0748     		ldr	r0, .L38+20
 718 00ec FFF7FEFF 		bl	UG_FontSelect
 719              	.LVL74:
 281:frucd_display.c **** }
 720              		.loc 1 281 0
 721 00f0 0DB0     		add	sp, sp, #52
 722              		@ sp needed
 723              	.LVL75:
 724 00f2 F0BD     		pop	{r4, r5, r6, r7, pc}
 725              	.L39:
 726              		.align	2
 727              	.L38:
 728 00f4 00000000 		.word	FONT_32X53
 729 00f8 00FFFF00 		.word	16776960
ARM GAS  C:\Users\Melody\AppData\Local\Temp\ccuHhgp0.s 			page 19


 730 00fc 00A5FF00 		.word	16753920
 731 0100 00000000 		.word	last_max_pack_temp_color
 732 0104 63000000 		.word	.LC31
 733 0108 00000000 		.word	FONT_12X16
 734              		.cfi_endproc
 735              	.LFE39:
 736              		.size	disp_max_pack_temp, .-disp_max_pack_temp
 737              		.section	.text.disp_state,"ax",%progbits
 738              		.align	1
 739              		.global	disp_state
 740              		.code	16
 741              		.thumb_func
 742              		.type	disp_state, %function
 743              	disp_state:
 744              	.LFB40:
 282:frucd_display.c **** 
 283:frucd_display.c **** 
 284:frucd_display.c **** /*
 285:frucd_display.c **** 
 286:frucd_display.c **** void disp_state(uint8_t state) { // TODO
 287:frucd_display.c ****     UG_COLOR color;
 288:frucd_display.c ****     // check fault bit
 289:frucd_display.c ****     if (state & 0x80) {
 290:frucd_display.c ****         // *************** FAULTS ***************
 291:frucd_display.c ****         uint8 fault = state & 0x7f; // mask off fault bit
 292:frucd_display.c ****         switch(fault) {
 293:frucd_display.c ****             case NONE: // STARTUP (effectively)
 294:frucd_display.c ****                 // not obtainable via CAN
 295:frucd_display.c ****                 // would only show when hardcoded on startup
 296:frucd_display.c ****                 color = C_YELLOW;
 297:frucd_display.c ****                 if (color != last_state_color) {
 298:frucd_display.c ****                     // only draw rectangle if color changed
 299:frucd_display.c ****                     UG_FillFrame(95, 185, 240, 215, color);
 300:frucd_display.c ****                     last_state_color = color;
 301:frucd_display.c ****                 }
 302:frucd_display.c ****                 UG_PutColorString(100, 195, " STARTUP  ", C_BLACK, color);
 303:frucd_display.c ****                 break;
 304:frucd_display.c ****             case DRIVE_REQUEST_FROM_LV:
 305:frucd_display.c ****                 color = C_RED;
 306:frucd_display.c ****                 if (color != last_state_color) {
 307:frucd_display.c ****                     // only draw rectangle if color changed
 308:frucd_display.c ****                     UG_FillFrame(95, 185, 240, 215, color);
 309:frucd_display.c ****                     last_state_color = color;
 310:frucd_display.c ****                 }
 311:frucd_display.c ****                 UG_PutColorString(100, 195, "DRV FRM LV", C_BLACK, color);
 312:frucd_display.c ****                 break;
 313:frucd_display.c ****             case CONSERVATIVE_TIMER_MAXED:
 314:frucd_display.c ****                 color = C_RED;
 315:frucd_display.c ****                 if (color != last_state_color) {
 316:frucd_display.c ****                     // only draw rectangle if color changed
 317:frucd_display.c ****                     UG_FillFrame(95, 185, 240, 215, color);
 318:frucd_display.c ****                     last_state_color = color;
 319:frucd_display.c ****                 }
 320:frucd_display.c ****                 UG_PutColorString(100, 195, "PRE TM OUT", C_BLACK, color);
 321:frucd_display.c ****                 break;
 322:frucd_display.c ****             case BRAKE_NOT_PRESSED:
 323:frucd_display.c ****                 color = C_RED;
ARM GAS  C:\Users\Melody\AppData\Local\Temp\ccuHhgp0.s 			page 20


 324:frucd_display.c ****                 if (color != last_state_color) {
 325:frucd_display.c ****                     // only draw rectangle if color changed
 326:frucd_display.c ****                     UG_FillFrame(95, 185, 240, 215, color);
 327:frucd_display.c ****                     last_state_color = color;
 328:frucd_display.c ****                 }
 329:frucd_display.c ****                 UG_PutColorString(100, 195, "BR NOT PRS", C_BLACK, color);
 330:frucd_display.c ****                 break;
 331:frucd_display.c ****             case HV_DISABLED_WHILE_DRIVING:
 332:frucd_display.c ****                 color = C_RED;
 333:frucd_display.c ****                 if (color != last_state_color) {
 334:frucd_display.c ****                     // only draw rectangle if color changed
 335:frucd_display.c ****                     UG_FillFrame(95, 185, 240, 215, color);
 336:frucd_display.c ****                     last_state_color = color;
 337:frucd_display.c ****                 }
 338:frucd_display.c ****                 UG_PutColorString(100, 195, "HV OFF DRV", C_BLACK, color);
 339:frucd_display.c ****                 break;
 340:frucd_display.c ****             case SENSOR_DISCREPANCY:
 341:frucd_display.c ****                 color = C_RED;
 342:frucd_display.c ****                 if (color != last_state_color) {
 343:frucd_display.c ****                     // only draw rectangle if color changed
 344:frucd_display.c ****                     UG_FillFrame(95, 185, 240, 215, color);
 345:frucd_display.c ****                     last_state_color = color;
 346:frucd_display.c ****                 }
 347:frucd_display.c ****                 UG_PutColorString(100, 195, "SNSR DSCRP", C_BLACK, color);
 348:frucd_display.c ****                 break;
 349:frucd_display.c ****             case BRAKE_IMPLAUSIBLE:
 350:frucd_display.c ****                 color = C_YELLOW;
 351:frucd_display.c ****                 if (color != last_state_color) {
 352:frucd_display.c ****                     // only draw rectangle if color changed
 353:frucd_display.c ****                     UG_FillFrame(95, 185, 240, 215, color);
 354:frucd_display.c ****                     last_state_color = color;
 355:frucd_display.c ****                 }
 356:frucd_display.c ****                 UG_PutColorString(100, 195, "BSPD TRIPD", C_BLACK, color); //whitespace to clear
 357:frucd_display.c ****                 break;
 358:frucd_display.c ****             case ESTOP:
 359:frucd_display.c ****                 color = C_RED;
 360:frucd_display.c ****                 if (color != last_state_color) {
 361:frucd_display.c ****                     // only draw rectangle if color changed
 362:frucd_display.c ****                     UG_FillFrame(95, 185, 240, 215, color);
 363:frucd_display.c ****                     last_state_color = color;
 364:frucd_display.c ****                 }
 365:frucd_display.c ****                 UG_PutColorString(100, 195, "SHTDWN OPN", C_BLACK, color); //whitespace to clear
 366:frucd_display.c ****                 break;
 367:frucd_display.c ****         }
 368:frucd_display.c ****         
 369:frucd_display.c ****     } else {
 370:frucd_display.c ****         // *************** NO FAULTS ***************
 371:frucd_display.c ****         color = C_GREEN;
 372:frucd_display.c ****         if (color != last_state_color) {
 373:frucd_display.c ****             // only draw rectangle if color changed
 374:frucd_display.c ****             UG_FillFrame(95, 185, 240, 215, color);
 375:frucd_display.c ****             last_state_color = color;
 376:frucd_display.c ****         }
 377:frucd_display.c ****         switch(state) {
 378:frucd_display.c ****             case LV:
 379:frucd_display.c ****                 UG_PutColorString(100, 195, "    LV    ", C_BLACK, color);
 380:frucd_display.c ****                 break;
ARM GAS  C:\Users\Melody\AppData\Local\Temp\ccuHhgp0.s 			page 21


 381:frucd_display.c ****             case PRECHARGING:
 382:frucd_display.c ****                 UG_PutColorString(100, 195, "PRECHARGE ", C_BLACK, color);
 383:frucd_display.c ****                 break;
 384:frucd_display.c ****             case HV_ENABLED:
 385:frucd_display.c ****                 UG_PutColorString(100, 195, "HV ENABLED", C_BLACK, color);
 386:frucd_display.c ****                 break;
 387:frucd_display.c ****             case DRIVE:
 388:frucd_display.c ****                 UG_PutColorString(100, 195, "  DRIVE   ", C_BLACK, color);
 389:frucd_display.c ****                 break;
 390:frucd_display.c ****         }
 391:frucd_display.c ****     }
 392:frucd_display.c **** }
 393:frucd_display.c **** 
 394:frucd_display.c **** 
 395:frucd_display.c **** */
 396:frucd_display.c **** 
 397:frucd_display.c **** 
 398:frucd_display.c **** void disp_state(uint8_t state, uint16_t x1, uint16_t y1, uint16_t x2, uint16_t y2, uint8_t size) { 
 745              		.loc 1 398 0
 746              		.cfi_startproc
 747              		@ args = 8, pretend = 0, frame = 24
 748              		@ frame_needed = 0, uses_anonymous_args = 0
 749              	.LVL76:
 750 0000 F0B5     		push	{r4, r5, r6, r7, lr}
 751              		.cfi_def_cfa_offset 20
 752              		.cfi_offset 4, -20
 753              		.cfi_offset 5, -16
 754              		.cfi_offset 6, -12
 755              		.cfi_offset 7, -8
 756              		.cfi_offset 14, -4
 757 0002 89B0     		sub	sp, sp, #36
 758              		.cfi_def_cfa_offset 56
 759              		.loc 1 398 0
 760 0004 0593     		str	r3, [sp, #20]
 761 0006 0EAB     		add	r3, sp, #56
 762              	.LVL77:
 763 0008 1C88     		ldrh	r4, [r3]
 764 000a 0FAB     		add	r3, sp, #60
 765              	.LVL78:
 766 000c 0492     		str	r2, [sp, #16]
 767 000e 1A78     		ldrb	r2, [r3]
 768              	.LVL79:
 399:frucd_display.c ****     int xFont, yFont;
 400:frucd_display.c ****     int horizFontSize = 12 + 20*size;
 401:frucd_display.c ****     int stringSize;
 402:frucd_display.c ****     stringSize = 10;
 403:frucd_display.c ****     xFont = (x1 + x2)/2 - ((horizFontSize*stringSize)/2);
 769              		.loc 1 403 0
 770 0010 1423     		movs	r3, #20
 771              	.LVL80:
 398:frucd_display.c ****     int xFont, yFont;
 772              		.loc 1 398 0
 773 0012 0391     		str	r1, [sp, #12]
 774              		.loc 1 403 0
 775 0014 0A21     		movs	r1, #10
 776              	.LVL81:
 404:frucd_display.c ****     yFont = (y1 + y2)/2 - 5 - (size*17);    
ARM GAS  C:\Users\Melody\AppData\Local\Temp\ccuHhgp0.s 			page 22


 777              		.loc 1 404 0
 778 0016 1127     		movs	r7, #17
 403:frucd_display.c ****     yFont = (y1 + y2)/2 - 5 - (size*17);    
 779              		.loc 1 403 0
 780 0018 5343     		muls	r3, r2
 781 001a 0C33     		adds	r3, r3, #12
 782              	.LVL82:
 783 001c 4B43     		muls	r3, r1
 784              	.LVL83:
 398:frucd_display.c ****     int xFont, yFont;
 785              		.loc 1 398 0
 786 001e 0600     		movs	r6, r0
 403:frucd_display.c ****     yFont = (y1 + y2)/2 - 5 - (size*17);    
 787              		.loc 1 403 0
 788 0020 0399     		ldr	r1, [sp, #12]
 789 0022 0598     		ldr	r0, [sp, #20]
 790              	.LVL84:
 791 0024 5B10     		asrs	r3, r3, #1
 792 0026 0918     		adds	r1, r1, r0
 793 0028 4910     		asrs	r1, r1, #1
 794 002a CB1A     		subs	r3, r1, r3
 795 002c 0693     		str	r3, [sp, #24]
 796              	.LVL85:
 797              		.loc 1 404 0
 798 002e 7F42     		rsbs	r7, r7, #0
 799 0030 049B     		ldr	r3, [sp, #16]
 800              	.LVL86:
 801 0032 5743     		muls	r7, r2
 802 0034 1B19     		adds	r3, r3, r4
 803 0036 5B10     		asrs	r3, r3, #1
 804 0038 053B     		subs	r3, r3, #5
 805 003a DB19     		adds	r3, r3, r7
 806 003c 0793     		str	r3, [sp, #28]
 807              	.LVL87:
 405:frucd_display.c ****     if(size == 1){
 808              		.loc 1 405 0
 809 003e 012A     		cmp	r2, #1
 810 0040 02D1     		bne	.L41
 406:frucd_display.c ****         UG_FontSelect(&FONT_32X53);
 811              		.loc 1 406 0
 812 0042 C448     		ldr	r0, .L77
 813 0044 FFF7FEFF 		bl	UG_FontSelect
 814              	.LVL88:
 815              	.L41:
 407:frucd_display.c ****         
 408:frucd_display.c ****     }
 409:frucd_display.c ****     UG_COLOR color;
 410:frucd_display.c ****     // check fault bit
 411:frucd_display.c ****     if (state & 0x80) {
 816              		.loc 1 411 0
 817 0048 73B2     		sxtb	r3, r6
 818 004a C34D     		ldr	r5, .L77+4
 819 004c 002B     		cmp	r3, #0
 820 004e 00DB     		blt	.LCB727
 821 0050 4CE1     		b	.L42	@long jump
 822              	.LCB727:
 823              	.LVL89:
ARM GAS  C:\Users\Melody\AppData\Local\Temp\ccuHhgp0.s 			page 23


 824 0052 6B46     		mov	r3, sp
 825              	.LBB3:
 412:frucd_display.c ****         // *************** FAULTS ***************
 413:frucd_display.c ****         uint8 fault = state & 0x7f; // mask off fault bit
 414:frucd_display.c ****         switch(fault) {
 826              		.loc 1 414 0
 827 0054 7F20     		movs	r0, #127
 828 0056 1C27     		movs	r7, #28
 829 0058 DF5F     		ldrsh	r7, [r3, r7]
 830 005a 6B46     		mov	r3, sp
 831 005c 3040     		ands	r0, r6
 832 005e 1826     		movs	r6, #24
 833 0060 9E5F     		ldrsh	r6, [r3, r6]
 834              	.LVL90:
 415:frucd_display.c ****             case NONE: // STARTUP (effectively)
 416:frucd_display.c ****                 // not obtainable via CAN
 417:frucd_display.c ****                 // would only show when hardcoded on startup
 418:frucd_display.c ****                 color = C_YELLOW;
 419:frucd_display.c ****                 if (color != last_state_color) {
 420:frucd_display.c ****                     // only draw rectangle if color changed
 421:frucd_display.c ****                     UG_FillFrame(x1, y1, x2, y2, color);
 422:frucd_display.c ****                     last_state_color = color;
 423:frucd_display.c ****                 }
 424:frucd_display.c ****                 UG_PutColorString(xFont, yFont, " STARTUP  ", C_BLACK, color);
 425:frucd_display.c ****                 break;
 426:frucd_display.c ****             case DRIVE_REQUEST_FROM_LV:
 427:frucd_display.c ****                 color = C_RED;
 428:frucd_display.c ****                 if (color != last_state_color) {
 429:frucd_display.c ****                     // only draw rectangle if color changed
 430:frucd_display.c ****                     UG_FillFrame(x1, y1, x2, y2, color);
 431:frucd_display.c ****                     last_state_color = color;
 432:frucd_display.c ****                 }
 433:frucd_display.c ****                 UG_PutColorString(xFont, yFont, "DRV FRM LV", C_BLACK, color);
 434:frucd_display.c ****                 break;
 435:frucd_display.c ****             case CONSERVATIVE_TIMER_MAXED:
 436:frucd_display.c ****                 color = C_RED;
 437:frucd_display.c ****                 if (color != last_state_color) {
 438:frucd_display.c ****                     // only draw rectangle if color changed
 439:frucd_display.c ****                     UG_FillFrame(x1, y1, x2, y2, color);
 440:frucd_display.c ****                     last_state_color = color;
 441:frucd_display.c ****                 }
 442:frucd_display.c ****                 UG_PutColorString(xFont, yFont, "PRE TM OUT", C_BLACK, color);
 443:frucd_display.c ****                 break;
 444:frucd_display.c ****             case BRAKE_NOT_PRESSED:
 445:frucd_display.c ****                 color = C_RED;
 446:frucd_display.c ****                 if (color != last_state_color) {
 447:frucd_display.c ****                     // only draw rectangle if color changed
 448:frucd_display.c ****                     UG_FillFrame(x1, y1, x2, y2, color);
 449:frucd_display.c ****                     last_state_color = color;
 450:frucd_display.c ****                 }
 451:frucd_display.c ****                 UG_PutColorString(xFont, yFont, "BR NOT PRS", C_BLACK, color);
 452:frucd_display.c ****                 break;
 453:frucd_display.c ****             case HV_DISABLED_WHILE_DRIVING:
 454:frucd_display.c ****                 color = C_RED;
 455:frucd_display.c ****                 if (color != last_state_color) {
 456:frucd_display.c ****                     // only draw rectangle if color changed
 457:frucd_display.c ****                     UG_FillFrame(x1, y1, x2, y2, color);
ARM GAS  C:\Users\Melody\AppData\Local\Temp\ccuHhgp0.s 			page 24


 458:frucd_display.c ****                     last_state_color = color;
 459:frucd_display.c ****                 }
 460:frucd_display.c ****                 UG_PutColorString(xFont, yFont, "HV OFF DRV", C_BLACK, color);
 461:frucd_display.c ****                 break;
 462:frucd_display.c ****             case SENSOR_DISCREPANCY:
 463:frucd_display.c ****                 color = C_RED;
 464:frucd_display.c ****                 if (color != last_state_color) {
 465:frucd_display.c ****                     // only draw rectangle if color changed
 466:frucd_display.c ****                     UG_FillFrame(x1, y1, x2, y2, color);
 467:frucd_display.c ****                     last_state_color = color;
 468:frucd_display.c ****                 }
 469:frucd_display.c ****                 UG_PutColorString(xFont, yFont, "SNSR DSCRP", C_BLACK, color);
 470:frucd_display.c ****                 break;
 471:frucd_display.c ****             case BRAKE_IMPLAUSIBLE:
 472:frucd_display.c ****                 color = C_YELLOW;
 473:frucd_display.c ****                 if (color != last_state_color) {
 474:frucd_display.c ****                     // only draw rectangle if color changed
 475:frucd_display.c ****                     UG_FillFrame(x1, y1, x2, y2, color);
 476:frucd_display.c ****                     last_state_color = color;
 477:frucd_display.c ****                 }
 478:frucd_display.c ****                 UG_PutColorString(xFont, yFont, "BSPD TRIPD", C_BLACK, color); //whitespace to clea
 479:frucd_display.c ****                 break;
 480:frucd_display.c ****             case SHUTDOWN_CIRCUIT_OPEN:
 481:frucd_display.c ****                 color = C_RED;
 482:frucd_display.c ****                 if (color != last_state_color) {
 483:frucd_display.c ****                     // only draw rectangle if color changed
 484:frucd_display.c ****                     UG_FillFrame(x1, y1, x2, y2, color);
 485:frucd_display.c ****                     last_state_color = color;
 486:frucd_display.c ****                 }
 487:frucd_display.c ****                 UG_PutColorString(xFont, yFont, "SHTDWN OPN", C_BLACK, color); //whitespace to clea
 488:frucd_display.c ****                 break;
 489:frucd_display.c ****             case UNCALIBRATED:
 490:frucd_display.c ****                 color = C_RED;
 491:frucd_display.c ****                 if (color != last_state_color) {
 492:frucd_display.c ****                     // only draw rectangle if color changed
 493:frucd_display.c ****                     UG_FillFrame(x1, y1, x2, y2, color);
 494:frucd_display.c ****                     last_state_color = color;
 495:frucd_display.c ****                 }
 496:frucd_display.c ****                 UG_PutColorString(xFont, yFont, "UNCALIBRTD", C_BLACK, color); //whitespace to clea
 497:frucd_display.c ****                 break;
 498:frucd_display.c ****             case HARD_BSPD:
 499:frucd_display.c ****                 color = C_RED;
 500:frucd_display.c ****                 if (color != last_state_color) {
 501:frucd_display.c ****                     // only draw rectangle if color changed
 502:frucd_display.c ****                     UG_FillFrame(x1, y1, x2, y2, color);
 503:frucd_display.c ****                     last_state_color = color;
 504:frucd_display.c ****                 }
 505:frucd_display.c ****                 UG_PutColorString(xFont, yFont, "HARD BSPD", C_BLACK, color); //whitespace to clear
 506:frucd_display.c ****                 break;
 507:frucd_display.c ****             case MC_FAULT:
 508:frucd_display.c ****                 color = C_RED;
 509:frucd_display.c ****                 if (color != last_state_color) {
 510:frucd_display.c ****                     // only draw rectangle if color changed
 511:frucd_display.c ****                     UG_FillFrame(x1, y1, x2, y2, color);
 512:frucd_display.c ****                     last_state_color = color;
 513:frucd_display.c ****                 }
 514:frucd_display.c ****                 UG_PutColorString(xFont, yFont, "MC FAULT", C_BLACK, color); //whitespace to clear
ARM GAS  C:\Users\Melody\AppData\Local\Temp\ccuHhgp0.s 			page 25


 515:frucd_display.c ****                 break;
 516:frucd_display.c ****             default:
 517:frucd_display.c ****                 color = C_RED;
 518:frucd_display.c ****                 if (color != last_state_color) {
 835              		.loc 1 518 0
 836 0062 2B68     		ldr	r3, [r5]
 837 0064 1A00     		movs	r2, r3
 414:frucd_display.c ****             case NONE: // STARTUP (effectively)
 838              		.loc 1 414 0
 839 0066 0A28     		cmp	r0, #10
 840 0068 00D9     		bls	.LCB741
 841 006a 25E1     		b	.L43	@long jump
 842              	.LCB741:
 843 006c FFF7FEFF 		bl	__gnu_thumb1_case_uhi
 844              	.L45:
 845 0070 0B00     		.2byte	(.L44-.L45)/2
 846 0072 2200     		.2byte	(.L46-.L45)/2
 847 0074 3C00     		.2byte	(.L47-.L45)/2
 848 0076 5700     		.2byte	(.L48-.L45)/2
 849 0078 7100     		.2byte	(.L49-.L45)/2
 850 007a 8B00     		.2byte	(.L50-.L45)/2
 851 007c A500     		.2byte	(.L51-.L45)/2
 852 007e BC00     		.2byte	(.L52-.L45)/2
 853 0080 D600     		.2byte	(.L53-.L45)/2
 854 0082 F000     		.2byte	(.L54-.L45)/2
 855 0084 0A01     		.2byte	(.L55-.L45)/2
 856              		.p2align 1
 857              	.L44:
 858              	.LVL91:
 419:frucd_display.c ****                     // only draw rectangle if color changed
 859              		.loc 1 419 0
 860 0086 B54B     		ldr	r3, .L77+8
 861 0088 9A42     		cmp	r2, r3
 862 008a 0ED0     		beq	.L56
 421:frucd_display.c ****                     last_state_color = color;
 863              		.loc 1 421 0
 864 008c 6A46     		mov	r2, sp
 865 008e 1421     		movs	r1, #20
 866 0090 525E     		ldrsh	r2, [r2, r1]
 867 0092 6946     		mov	r1, sp
 868 0094 1020     		movs	r0, #16
 869 0096 095E     		ldrsh	r1, [r1, r0]
 870 0098 6846     		mov	r0, sp
 871 009a 23B2     		sxth	r3, r4
 872 009c 0C24     		movs	r4, #12
 873 009e 005F     		ldrsh	r0, [r0, r4]
 874 00a0 AE4C     		ldr	r4, .L77+8
 875 00a2 0094     		str	r4, [sp]
 876 00a4 FFF7FEFF 		bl	UG_FillFrame
 877              	.LVL92:
 422:frucd_display.c ****                 }
 878              		.loc 1 422 0
 879 00a8 2C60     		str	r4, [r5]
 880              	.L56:
 424:frucd_display.c ****                 break;
 881              		.loc 1 424 0
 882 00aa AC4B     		ldr	r3, .L77+8
ARM GAS  C:\Users\Melody\AppData\Local\Temp\ccuHhgp0.s 			page 26


 883 00ac AC4A     		ldr	r2, .L77+12
 884 00ae 0093     		str	r3, [sp]
 885 00b0 0023     		movs	r3, #0
 886 00b2 32E0     		b	.L76
 887              	.LVL93:
 888              	.L46:
 428:frucd_display.c ****                     // only draw rectangle if color changed
 889              		.loc 1 428 0
 890 00b4 FF23     		movs	r3, #255
 891 00b6 1B04     		lsls	r3, r3, #16
 892 00b8 9A42     		cmp	r2, r3
 893 00ba 0FD0     		beq	.L58
 430:frucd_display.c ****                     last_state_color = color;
 894              		.loc 1 430 0
 895 00bc 6A46     		mov	r2, sp
 896 00be 1421     		movs	r1, #20
 897 00c0 525E     		ldrsh	r2, [r2, r1]
 898 00c2 6946     		mov	r1, sp
 899 00c4 1020     		movs	r0, #16
 900 00c6 095E     		ldrsh	r1, [r1, r0]
 901 00c8 6846     		mov	r0, sp
 902 00ca 23B2     		sxth	r3, r4
 903 00cc 0C24     		movs	r4, #12
 904 00ce 005F     		ldrsh	r0, [r0, r4]
 905 00d0 FF24     		movs	r4, #255
 906 00d2 2404     		lsls	r4, r4, #16
 907 00d4 0094     		str	r4, [sp]
 908 00d6 FFF7FEFF 		bl	UG_FillFrame
 909              	.LVL94:
 431:frucd_display.c ****                 }
 910              		.loc 1 431 0
 911 00da 2C60     		str	r4, [r5]
 912              	.L58:
 433:frucd_display.c ****                 break;
 913              		.loc 1 433 0
 914 00dc FF23     		movs	r3, #255
 915 00de 1B04     		lsls	r3, r3, #16
 916 00e0 0093     		str	r3, [sp]
 917 00e2 A04A     		ldr	r2, .L77+16
 918 00e4 0023     		movs	r3, #0
 919 00e6 18E0     		b	.L76
 920              	.LVL95:
 921              	.L47:
 437:frucd_display.c ****                     // only draw rectangle if color changed
 922              		.loc 1 437 0
 923 00e8 FF23     		movs	r3, #255
 924 00ea 1B04     		lsls	r3, r3, #16
 925 00ec 9A42     		cmp	r2, r3
 926 00ee 0FD0     		beq	.L59
 439:frucd_display.c ****                     last_state_color = color;
 927              		.loc 1 439 0
 928 00f0 6A46     		mov	r2, sp
 929 00f2 1421     		movs	r1, #20
 930 00f4 525E     		ldrsh	r2, [r2, r1]
 931 00f6 6946     		mov	r1, sp
 932 00f8 1020     		movs	r0, #16
 933 00fa 095E     		ldrsh	r1, [r1, r0]
ARM GAS  C:\Users\Melody\AppData\Local\Temp\ccuHhgp0.s 			page 27


 934 00fc 6846     		mov	r0, sp
 935 00fe 23B2     		sxth	r3, r4
 936 0100 0C24     		movs	r4, #12
 937 0102 005F     		ldrsh	r0, [r0, r4]
 938 0104 FF24     		movs	r4, #255
 939 0106 2404     		lsls	r4, r4, #16
 940 0108 0094     		str	r4, [sp]
 941 010a FFF7FEFF 		bl	UG_FillFrame
 942              	.LVL96:
 440:frucd_display.c ****                 }
 943              		.loc 1 440 0
 944 010e 2C60     		str	r4, [r5]
 945              	.L59:
 442:frucd_display.c ****                 break;
 946              		.loc 1 442 0
 947 0110 FF23     		movs	r3, #255
 948 0112 1B04     		lsls	r3, r3, #16
 949 0114 0093     		str	r3, [sp]
 950 0116 0023     		movs	r3, #0
 951 0118 934A     		ldr	r2, .L77+20
 952              	.LVL97:
 953              	.L76:
 954 011a 3900     		movs	r1, r7
 955 011c 11E1     		b	.L75
 956              	.L48:
 957              	.LVL98:
 446:frucd_display.c ****                     // only draw rectangle if color changed
 958              		.loc 1 446 0
 959 011e FF23     		movs	r3, #255
 960 0120 1B04     		lsls	r3, r3, #16
 961 0122 9A42     		cmp	r2, r3
 962 0124 0FD0     		beq	.L60
 448:frucd_display.c ****                     last_state_color = color;
 963              		.loc 1 448 0
 964 0126 6A46     		mov	r2, sp
 965 0128 1421     		movs	r1, #20
 966 012a 525E     		ldrsh	r2, [r2, r1]
 967 012c 6946     		mov	r1, sp
 968 012e 1020     		movs	r0, #16
 969 0130 095E     		ldrsh	r1, [r1, r0]
 970 0132 6846     		mov	r0, sp
 971 0134 23B2     		sxth	r3, r4
 972 0136 0C24     		movs	r4, #12
 973 0138 005F     		ldrsh	r0, [r0, r4]
 974 013a FF24     		movs	r4, #255
 975 013c 2404     		lsls	r4, r4, #16
 976 013e 0094     		str	r4, [sp]
 977 0140 FFF7FEFF 		bl	UG_FillFrame
 978              	.LVL99:
 449:frucd_display.c ****                 }
 979              		.loc 1 449 0
 980 0144 2C60     		str	r4, [r5]
 981              	.L60:
 451:frucd_display.c ****                 break;
 982              		.loc 1 451 0
 983 0146 FF23     		movs	r3, #255
 984 0148 1B04     		lsls	r3, r3, #16
ARM GAS  C:\Users\Melody\AppData\Local\Temp\ccuHhgp0.s 			page 28


 985 014a 0093     		str	r3, [sp]
 986 014c 874A     		ldr	r2, .L77+24
 987 014e 0023     		movs	r3, #0
 988 0150 E3E7     		b	.L76
 989              	.LVL100:
 990              	.L49:
 455:frucd_display.c ****                     // only draw rectangle if color changed
 991              		.loc 1 455 0
 992 0152 FF23     		movs	r3, #255
 993 0154 1B04     		lsls	r3, r3, #16
 994 0156 9A42     		cmp	r2, r3
 995 0158 0FD0     		beq	.L61
 457:frucd_display.c ****                     last_state_color = color;
 996              		.loc 1 457 0
 997 015a 6A46     		mov	r2, sp
 998 015c 1421     		movs	r1, #20
 999 015e 525E     		ldrsh	r2, [r2, r1]
 1000 0160 6946     		mov	r1, sp
 1001 0162 1020     		movs	r0, #16
 1002 0164 095E     		ldrsh	r1, [r1, r0]
 1003 0166 6846     		mov	r0, sp
 1004 0168 23B2     		sxth	r3, r4
 1005 016a 0C24     		movs	r4, #12
 1006 016c 005F     		ldrsh	r0, [r0, r4]
 1007 016e FF24     		movs	r4, #255
 1008 0170 2404     		lsls	r4, r4, #16
 1009 0172 0094     		str	r4, [sp]
 1010 0174 FFF7FEFF 		bl	UG_FillFrame
 1011              	.LVL101:
 458:frucd_display.c ****                 }
 1012              		.loc 1 458 0
 1013 0178 2C60     		str	r4, [r5]
 1014              	.L61:
 460:frucd_display.c ****                 break;
 1015              		.loc 1 460 0
 1016 017a FF23     		movs	r3, #255
 1017 017c 1B04     		lsls	r3, r3, #16
 1018 017e 0093     		str	r3, [sp]
 1019 0180 7B4A     		ldr	r2, .L77+28
 1020 0182 0023     		movs	r3, #0
 1021 0184 C9E7     		b	.L76
 1022              	.LVL102:
 1023              	.L50:
 464:frucd_display.c ****                     // only draw rectangle if color changed
 1024              		.loc 1 464 0
 1025 0186 FF23     		movs	r3, #255
 1026 0188 1B04     		lsls	r3, r3, #16
 1027 018a 9A42     		cmp	r2, r3
 1028 018c 0FD0     		beq	.L62
 466:frucd_display.c ****                     last_state_color = color;
 1029              		.loc 1 466 0
 1030 018e 6A46     		mov	r2, sp
 1031 0190 1421     		movs	r1, #20
 1032 0192 525E     		ldrsh	r2, [r2, r1]
 1033 0194 6946     		mov	r1, sp
 1034 0196 1020     		movs	r0, #16
 1035 0198 095E     		ldrsh	r1, [r1, r0]
ARM GAS  C:\Users\Melody\AppData\Local\Temp\ccuHhgp0.s 			page 29


 1036 019a 6846     		mov	r0, sp
 1037 019c 23B2     		sxth	r3, r4
 1038 019e 0C24     		movs	r4, #12
 1039 01a0 005F     		ldrsh	r0, [r0, r4]
 1040 01a2 FF24     		movs	r4, #255
 1041 01a4 2404     		lsls	r4, r4, #16
 1042 01a6 0094     		str	r4, [sp]
 1043 01a8 FFF7FEFF 		bl	UG_FillFrame
 1044              	.LVL103:
 467:frucd_display.c ****                 }
 1045              		.loc 1 467 0
 1046 01ac 2C60     		str	r4, [r5]
 1047              	.L62:
 469:frucd_display.c ****                 break;
 1048              		.loc 1 469 0
 1049 01ae FF23     		movs	r3, #255
 1050 01b0 1B04     		lsls	r3, r3, #16
 1051 01b2 0093     		str	r3, [sp]
 1052 01b4 6F4A     		ldr	r2, .L77+32
 1053 01b6 0023     		movs	r3, #0
 1054 01b8 AFE7     		b	.L76
 1055              	.LVL104:
 1056              	.L51:
 473:frucd_display.c ****                     // only draw rectangle if color changed
 1057              		.loc 1 473 0
 1058 01ba 684B     		ldr	r3, .L77+8
 1059 01bc 9A42     		cmp	r2, r3
 1060 01be 0ED0     		beq	.L63
 475:frucd_display.c ****                     last_state_color = color;
 1061              		.loc 1 475 0
 1062 01c0 6A46     		mov	r2, sp
 1063 01c2 1421     		movs	r1, #20
 1064 01c4 525E     		ldrsh	r2, [r2, r1]
 1065 01c6 6946     		mov	r1, sp
 1066 01c8 1020     		movs	r0, #16
 1067 01ca 095E     		ldrsh	r1, [r1, r0]
 1068 01cc 6846     		mov	r0, sp
 1069 01ce 23B2     		sxth	r3, r4
 1070 01d0 0C24     		movs	r4, #12
 1071 01d2 005F     		ldrsh	r0, [r0, r4]
 1072 01d4 614C     		ldr	r4, .L77+8
 1073 01d6 0094     		str	r4, [sp]
 1074 01d8 FFF7FEFF 		bl	UG_FillFrame
 1075              	.LVL105:
 476:frucd_display.c ****                 }
 1076              		.loc 1 476 0
 1077 01dc 2C60     		str	r4, [r5]
 1078              	.L63:
 478:frucd_display.c ****                 break;
 1079              		.loc 1 478 0
 1080 01de 5F4B     		ldr	r3, .L77+8
 1081 01e0 654A     		ldr	r2, .L77+36
 1082 01e2 0093     		str	r3, [sp]
 1083 01e4 0023     		movs	r3, #0
 1084 01e6 98E7     		b	.L76
 1085              	.LVL106:
 1086              	.L52:
ARM GAS  C:\Users\Melody\AppData\Local\Temp\ccuHhgp0.s 			page 30


 482:frucd_display.c ****                     // only draw rectangle if color changed
 1087              		.loc 1 482 0
 1088 01e8 FF23     		movs	r3, #255
 1089 01ea 1B04     		lsls	r3, r3, #16
 1090 01ec 9A42     		cmp	r2, r3
 1091 01ee 0FD0     		beq	.L64
 484:frucd_display.c ****                     last_state_color = color;
 1092              		.loc 1 484 0
 1093 01f0 6A46     		mov	r2, sp
 1094 01f2 1421     		movs	r1, #20
 1095 01f4 525E     		ldrsh	r2, [r2, r1]
 1096 01f6 6946     		mov	r1, sp
 1097 01f8 1020     		movs	r0, #16
 1098 01fa 095E     		ldrsh	r1, [r1, r0]
 1099 01fc 6846     		mov	r0, sp
 1100 01fe 23B2     		sxth	r3, r4
 1101 0200 0C24     		movs	r4, #12
 1102 0202 005F     		ldrsh	r0, [r0, r4]
 1103 0204 FF24     		movs	r4, #255
 1104 0206 2404     		lsls	r4, r4, #16
 1105 0208 0094     		str	r4, [sp]
 1106 020a FFF7FEFF 		bl	UG_FillFrame
 1107              	.LVL107:
 485:frucd_display.c ****                 }
 1108              		.loc 1 485 0
 1109 020e 2C60     		str	r4, [r5]
 1110              	.L64:
 487:frucd_display.c ****                 break;
 1111              		.loc 1 487 0
 1112 0210 FF23     		movs	r3, #255
 1113 0212 1B04     		lsls	r3, r3, #16
 1114 0214 0093     		str	r3, [sp]
 1115 0216 594A     		ldr	r2, .L77+40
 1116 0218 0023     		movs	r3, #0
 1117 021a 7EE7     		b	.L76
 1118              	.LVL108:
 1119              	.L53:
 491:frucd_display.c ****                     // only draw rectangle if color changed
 1120              		.loc 1 491 0
 1121 021c FF23     		movs	r3, #255
 1122 021e 1B04     		lsls	r3, r3, #16
 1123 0220 9A42     		cmp	r2, r3
 1124 0222 0FD0     		beq	.L65
 493:frucd_display.c ****                     last_state_color = color;
 1125              		.loc 1 493 0
 1126 0224 6A46     		mov	r2, sp
 1127 0226 1421     		movs	r1, #20
 1128 0228 525E     		ldrsh	r2, [r2, r1]
 1129 022a 6946     		mov	r1, sp
 1130 022c 1020     		movs	r0, #16
 1131 022e 095E     		ldrsh	r1, [r1, r0]
 1132 0230 6846     		mov	r0, sp
 1133 0232 23B2     		sxth	r3, r4
 1134 0234 0C24     		movs	r4, #12
 1135 0236 005F     		ldrsh	r0, [r0, r4]
 1136 0238 FF24     		movs	r4, #255
 1137 023a 2404     		lsls	r4, r4, #16
ARM GAS  C:\Users\Melody\AppData\Local\Temp\ccuHhgp0.s 			page 31


 1138 023c 0094     		str	r4, [sp]
 1139 023e FFF7FEFF 		bl	UG_FillFrame
 1140              	.LVL109:
 494:frucd_display.c ****                 }
 1141              		.loc 1 494 0
 1142 0242 2C60     		str	r4, [r5]
 1143              	.L65:
 496:frucd_display.c ****                 break;
 1144              		.loc 1 496 0
 1145 0244 FF23     		movs	r3, #255
 1146 0246 1B04     		lsls	r3, r3, #16
 1147 0248 0093     		str	r3, [sp]
 1148 024a 4D4A     		ldr	r2, .L77+44
 1149 024c 0023     		movs	r3, #0
 1150 024e 64E7     		b	.L76
 1151              	.LVL110:
 1152              	.L54:
 500:frucd_display.c ****                     // only draw rectangle if color changed
 1153              		.loc 1 500 0
 1154 0250 FF23     		movs	r3, #255
 1155 0252 1B04     		lsls	r3, r3, #16
 1156 0254 9A42     		cmp	r2, r3
 1157 0256 0FD0     		beq	.L66
 502:frucd_display.c ****                     last_state_color = color;
 1158              		.loc 1 502 0
 1159 0258 6A46     		mov	r2, sp
 1160 025a 1421     		movs	r1, #20
 1161 025c 525E     		ldrsh	r2, [r2, r1]
 1162 025e 6946     		mov	r1, sp
 1163 0260 1020     		movs	r0, #16
 1164 0262 095E     		ldrsh	r1, [r1, r0]
 1165 0264 6846     		mov	r0, sp
 1166 0266 23B2     		sxth	r3, r4
 1167 0268 0C24     		movs	r4, #12
 1168 026a 005F     		ldrsh	r0, [r0, r4]
 1169 026c FF24     		movs	r4, #255
 1170 026e 2404     		lsls	r4, r4, #16
 1171 0270 0094     		str	r4, [sp]
 1172 0272 FFF7FEFF 		bl	UG_FillFrame
 1173              	.LVL111:
 503:frucd_display.c ****                 }
 1174              		.loc 1 503 0
 1175 0276 2C60     		str	r4, [r5]
 1176              	.L66:
 505:frucd_display.c ****                 break;
 1177              		.loc 1 505 0
 1178 0278 FF23     		movs	r3, #255
 1179 027a 1B04     		lsls	r3, r3, #16
 1180 027c 0093     		str	r3, [sp]
 1181 027e 414A     		ldr	r2, .L77+48
 1182 0280 0023     		movs	r3, #0
 1183 0282 4AE7     		b	.L76
 1184              	.LVL112:
 1185              	.L55:
 509:frucd_display.c ****                     // only draw rectangle if color changed
 1186              		.loc 1 509 0
 1187 0284 FF23     		movs	r3, #255
ARM GAS  C:\Users\Melody\AppData\Local\Temp\ccuHhgp0.s 			page 32


 1188 0286 1B04     		lsls	r3, r3, #16
 1189 0288 9A42     		cmp	r2, r3
 1190 028a 0FD0     		beq	.L67
 511:frucd_display.c ****                     last_state_color = color;
 1191              		.loc 1 511 0
 1192 028c 6A46     		mov	r2, sp
 1193 028e 1421     		movs	r1, #20
 1194 0290 525E     		ldrsh	r2, [r2, r1]
 1195 0292 6946     		mov	r1, sp
 1196 0294 1020     		movs	r0, #16
 1197 0296 095E     		ldrsh	r1, [r1, r0]
 1198 0298 6846     		mov	r0, sp
 1199 029a 23B2     		sxth	r3, r4
 1200 029c 0C24     		movs	r4, #12
 1201 029e 005F     		ldrsh	r0, [r0, r4]
 1202 02a0 FF24     		movs	r4, #255
 1203 02a2 2404     		lsls	r4, r4, #16
 1204 02a4 0094     		str	r4, [sp]
 1205 02a6 FFF7FEFF 		bl	UG_FillFrame
 1206              	.LVL113:
 512:frucd_display.c ****                 }
 1207              		.loc 1 512 0
 1208 02aa 2C60     		str	r4, [r5]
 1209              	.L67:
 514:frucd_display.c ****                 break;
 1210              		.loc 1 514 0
 1211 02ac FF23     		movs	r3, #255
 1212 02ae 1B04     		lsls	r3, r3, #16
 1213 02b0 0093     		str	r3, [sp]
 1214 02b2 354A     		ldr	r2, .L77+52
 1215 02b4 0023     		movs	r3, #0
 1216 02b6 30E7     		b	.L76
 1217              	.LVL114:
 1218              	.L43:
 1219              		.loc 1 518 0
 1220 02b8 FF23     		movs	r3, #255
 1221 02ba 1B04     		lsls	r3, r3, #16
 1222 02bc 9A42     		cmp	r2, r3
 1223 02be 0FD0     		beq	.L68
 519:frucd_display.c ****                     // only draw rectangle if color changed
 520:frucd_display.c ****                     UG_FillFrame(x1, y1, x2, y2, color);
 1224              		.loc 1 520 0
 1225 02c0 6A46     		mov	r2, sp
 1226 02c2 1421     		movs	r1, #20
 1227 02c4 525E     		ldrsh	r2, [r2, r1]
 1228 02c6 6946     		mov	r1, sp
 1229 02c8 1020     		movs	r0, #16
 1230 02ca 095E     		ldrsh	r1, [r1, r0]
 1231 02cc 6846     		mov	r0, sp
 1232 02ce 23B2     		sxth	r3, r4
 1233 02d0 0C24     		movs	r4, #12
 1234 02d2 005F     		ldrsh	r0, [r0, r4]
 1235 02d4 FF24     		movs	r4, #255
 1236 02d6 2404     		lsls	r4, r4, #16
 1237 02d8 0094     		str	r4, [sp]
 1238 02da FFF7FEFF 		bl	UG_FillFrame
 1239              	.LVL115:
ARM GAS  C:\Users\Melody\AppData\Local\Temp\ccuHhgp0.s 			page 33


 521:frucd_display.c ****                     last_state_color = color;
 1240              		.loc 1 521 0
 1241 02de 2C60     		str	r4, [r5]
 1242              	.L68:
 522:frucd_display.c ****                 }
 523:frucd_display.c ****                 UG_PutColorString(xFont, yFont, "YO WTF?", C_BLACK, color); //whitespace to clear
 1243              		.loc 1 523 0
 1244 02e0 FF23     		movs	r3, #255
 1245 02e2 1B04     		lsls	r3, r3, #16
 1246 02e4 0093     		str	r3, [sp]
 1247 02e6 294A     		ldr	r2, .L77+56
 1248 02e8 0023     		movs	r3, #0
 1249 02ea 16E7     		b	.L76
 1250              	.LVL116:
 1251              	.L42:
 1252              	.LBE3:
 524:frucd_display.c ****                 break;
 525:frucd_display.c ****            
 526:frucd_display.c ****         }
 527:frucd_display.c ****     } else {
 528:frucd_display.c ****         // *************** NO FAULTS ***************
 529:frucd_display.c ****         color = C_GREEN;
 530:frucd_display.c ****         if (color != last_state_color) {
 1253              		.loc 1 530 0
 1254 02ec FF27     		movs	r7, #255
 1255 02ee 2B68     		ldr	r3, [r5]
 1256 02f0 3F02     		lsls	r7, r7, #8
 1257 02f2 BB42     		cmp	r3, r7
 1258 02f4 0DD0     		beq	.L69
 531:frucd_display.c ****             // only draw rectangle if color changed
 532:frucd_display.c ****             UG_FillFrame(x1, y1, x2, y2, color);
 1259              		.loc 1 532 0
 1260 02f6 6A46     		mov	r2, sp
 1261 02f8 1421     		movs	r1, #20
 1262 02fa 525E     		ldrsh	r2, [r2, r1]
 1263 02fc 6946     		mov	r1, sp
 1264 02fe 1020     		movs	r0, #16
 1265 0300 095E     		ldrsh	r1, [r1, r0]
 1266 0302 6846     		mov	r0, sp
 1267 0304 23B2     		sxth	r3, r4
 1268 0306 0C24     		movs	r4, #12
 1269 0308 005F     		ldrsh	r0, [r0, r4]
 1270 030a 0097     		str	r7, [sp]
 1271 030c FFF7FEFF 		bl	UG_FillFrame
 1272              	.LVL117:
 533:frucd_display.c ****             last_state_color = color;
 1273              		.loc 1 533 0
 1274 0310 2F60     		str	r7, [r5]
 1275              	.L69:
 534:frucd_display.c ****         }
 535:frucd_display.c ****         switch(state) {
 1276              		.loc 1 535 0
 1277 0312 032E     		cmp	r6, #3
 1278 0314 18D8     		bhi	.L57
 1279 0316 6B46     		mov	r3, sp
 1280 0318 1C21     		movs	r1, #28
 1281 031a 595E     		ldrsh	r1, [r3, r1]
ARM GAS  C:\Users\Melody\AppData\Local\Temp\ccuHhgp0.s 			page 34


 1282 031c 6B46     		mov	r3, sp
 1283 031e 3000     		movs	r0, r6
 1284 0320 1826     		movs	r6, #24
 1285 0322 9E5F     		ldrsh	r6, [r3, r6]
 1286 0324 FF23     		movs	r3, #255
 1287 0326 1B02     		lsls	r3, r3, #8
 536:frucd_display.c ****             case LV:
 537:frucd_display.c ****                 UG_PutColorString(xFont, yFont, "    LV    ", C_BLACK, color);
 538:frucd_display.c ****                 break;
 539:frucd_display.c ****             case PRECHARGING:
 540:frucd_display.c ****                 UG_PutColorString(xFont, yFont, "PRECHARGE ", C_BLACK, color);
 541:frucd_display.c ****                 break;
 542:frucd_display.c ****             case HV_ENABLED:
 543:frucd_display.c ****                 UG_PutColorString(xFont, yFont, "HV ENABLED", C_BLACK, color);
 544:frucd_display.c ****                 break;
 545:frucd_display.c ****             case DRIVE:
 546:frucd_display.c ****                 UG_PutColorString(xFont, yFont, "  DRIVE   ", C_BLACK, color);
 1288              		.loc 1 546 0
 1289 0328 0093     		str	r3, [sp]
 1290 032a 0023     		movs	r3, #0
 535:frucd_display.c ****             case LV:
 1291              		.loc 1 535 0
 1292 032c FFF7FEFF 		bl	__gnu_thumb1_case_uqi
 1293              	.L71:
 1294 0330 02       		.byte	(.L70-.L71)/2
 1295 0331 04       		.byte	(.L72-.L71)/2
 1296 0332 06       		.byte	(.L73-.L71)/2
 1297 0333 08       		.byte	(.L74-.L71)/2
 1298              		.p2align 1
 1299              	.L70:
 537:frucd_display.c ****                 break;
 1300              		.loc 1 537 0
 1301 0334 164A     		ldr	r2, .L77+60
 1302 0336 04E0     		b	.L75
 1303              	.L72:
 540:frucd_display.c ****                 break;
 1304              		.loc 1 540 0
 1305 0338 164A     		ldr	r2, .L77+64
 1306 033a 02E0     		b	.L75
 1307              	.L73:
 543:frucd_display.c ****                 break;
 1308              		.loc 1 543 0
 1309 033c 164A     		ldr	r2, .L77+68
 1310 033e 00E0     		b	.L75
 1311              	.L74:
 1312              		.loc 1 546 0
 1313 0340 164A     		ldr	r2, .L77+72
 1314              	.LVL118:
 1315              	.L75:
 1316 0342 3000     		movs	r0, r6
 1317 0344 FFF7FEFF 		bl	UG_PutColorString
 1318              	.LVL119:
 1319              	.L57:
 547:frucd_display.c ****                 break;
 548:frucd_display.c ****         }
 549:frucd_display.c ****     }
 550:frucd_display.c ****      UG_FontSelect(&FONT_12X16);
ARM GAS  C:\Users\Melody\AppData\Local\Temp\ccuHhgp0.s 			page 35


 1320              		.loc 1 550 0
 1321 0348 1548     		ldr	r0, .L77+76
 1322 034a FFF7FEFF 		bl	UG_FontSelect
 1323              	.LVL120:
 551:frucd_display.c **** }
 1324              		.loc 1 551 0
 1325 034e 09B0     		add	sp, sp, #36
 1326              		@ sp needed
 1327 0350 F0BD     		pop	{r4, r5, r6, r7, pc}
 1328              	.L78:
 1329 0352 C046     		.align	2
 1330              	.L77:
 1331 0354 00000000 		.word	FONT_32X53
 1332 0358 00000000 		.word	last_state_color
 1333 035c 00FFFF00 		.word	16776960
 1334 0360 68000000 		.word	.LC36
 1335 0364 73000000 		.word	.LC38
 1336 0368 7E000000 		.word	.LC40
 1337 036c 89000000 		.word	.LC42
 1338 0370 94000000 		.word	.LC44
 1339 0374 9F000000 		.word	.LC46
 1340 0378 AA000000 		.word	.LC48
 1341 037c B5000000 		.word	.LC50
 1342 0380 C0000000 		.word	.LC52
 1343 0384 CB000000 		.word	.LC54
 1344 0388 D5000000 		.word	.LC56
 1345 038c DE000000 		.word	.LC58
 1346 0390 E6000000 		.word	.LC60
 1347 0394 F1000000 		.word	.LC62
 1348 0398 FC000000 		.word	.LC64
 1349 039c 07010000 		.word	.LC66
 1350 03a0 00000000 		.word	FONT_12X16
 1351              		.cfi_endproc
 1352              	.LFE40:
 1353              		.size	disp_state, .-disp_state
 1354              		.global	__aeabi_uidiv
 1355              		.section	.text.disp_glv_v,"ax",%progbits
 1356              		.align	1
 1357              		.global	disp_glv_v
 1358              		.code	16
 1359              		.thumb_func
 1360              		.type	disp_glv_v, %function
 1361              	disp_glv_v:
 1362              	.LFB41:
 552:frucd_display.c **** 
 553:frucd_display.c **** /*
 554:frucd_display.c **** 
 555:frucd_display.c **** void disp_glv_v(uint32_t data) {
 556:frucd_display.c ****     // translate from voltage divider measurement to true voltage
 557:frucd_display.c ****     // y = 0.4295x + 18.254
 558:frucd_display.c ****     data *= 859;
 559:frucd_display.c ****     data /= 2000; // 0.4295
 560:frucd_display.c ****     data += 18;
 561:frucd_display.c ****     UG_COLOR color;
 562:frucd_display.c ****     if (data > 1150) {
 563:frucd_display.c ****         color = C_GREEN;
 564:frucd_display.c ****     } else if (data > 1100) {
ARM GAS  C:\Users\Melody\AppData\Local\Temp\ccuHhgp0.s 			page 36


 565:frucd_display.c ****         color = C_YELLOW;
 566:frucd_display.c ****     } else if (data > 1050) {
 567:frucd_display.c ****         color = C_ORANGE;
 568:frucd_display.c ****     } else {
 569:frucd_display.c ****         color = C_RED;
 570:frucd_display.c ****     }
 571:frucd_display.c ****     if (color != last_glv_v_color) {
 572:frucd_display.c ****         // only draw rectangle if color changed
 573:frucd_display.c ****         UG_FillFrame(95, 230, 182, 260, color);
 574:frucd_display.c ****         last_glv_v_color = color;
 575:frucd_display.c ****     }
 576:frucd_display.c ****     char data_s[7];
 577:frucd_display.c ****     sprintf(data_s, "%d", data);
 578:frucd_display.c ****     // handle 3 digit cases; 2 and 1 are practically impossible
 579:frucd_display.c ****     if (data < 1000) {
 580:frucd_display.c ****         data_s[3] = data_s[2];
 581:frucd_display.c ****         data_s[2] = data_s[1];
 582:frucd_display.c ****         data_s[1] = data_s[0];  
 583:frucd_display.c ****         data_s[0] = ' ';
 584:frucd_display.c ****     }
 585:frucd_display.c ****     // shift over fractional part
 586:frucd_display.c ****     data_s[4] = data_s[3];
 587:frucd_display.c ****     data_s[3] = data_s[2];
 588:frucd_display.c ****     // add syntax
 589:frucd_display.c ****     data_s[2] = '.';
 590:frucd_display.c ****     data_s[5] = 'V';
 591:frucd_display.c ****     data_s[6] = '\0';
 592:frucd_display.c ****     UG_PutColorString(100, 240, data_s, C_BLACK, color);
 593:frucd_display.c **** }
 594:frucd_display.c **** 
 595:frucd_display.c **** */
 596:frucd_display.c **** 
 597:frucd_display.c **** 
 598:frucd_display.c **** void disp_glv_v(uint32_t data, uint16_t x1, uint16_t y1, uint16_t x2, uint16_t y2, uint8_t size) { 
 1363              		.loc 1 598 0
 1364              		.cfi_startproc
 1365              		@ args = 8, pretend = 0, frame = 32
 1366              		@ frame_needed = 0, uses_anonymous_args = 0
 1367              	.LVL121:
 1368 0000 F0B5     		push	{r4, r5, r6, r7, lr}
 1369              		.cfi_def_cfa_offset 20
 1370              		.cfi_offset 4, -20
 1371              		.cfi_offset 5, -16
 1372              		.cfi_offset 6, -12
 1373              		.cfi_offset 7, -8
 1374              		.cfi_offset 14, -4
 1375 0002 8BB0     		sub	sp, sp, #44
 1376              		.cfi_def_cfa_offset 64
 1377              		.loc 1 598 0
 1378 0004 0493     		str	r3, [sp, #16]
 1379 0006 10AB     		add	r3, sp, #64
 1380              	.LVL122:
 1381 0008 1B88     		ldrh	r3, [r3]
 1382              	.LVL123:
 1383 000a 0392     		str	r2, [sp, #12]
 1384 000c 0593     		str	r3, [sp, #20]
 1385 000e 11AB     		add	r3, sp, #68
ARM GAS  C:\Users\Melody\AppData\Local\Temp\ccuHhgp0.s 			page 37


 1386              	.LVL124:
 1387 0010 1A78     		ldrb	r2, [r3]
 1388              	.LVL125:
 599:frucd_display.c ****     int xFont, yFont;
 600:frucd_display.c ****     int horizFontSize = 12 + 20*size;
 601:frucd_display.c ****     int stringSize;
 602:frucd_display.c ****     stringSize = 6;
 603:frucd_display.c ****     xFont = (x1 + x2)/2 - ((horizFontSize*stringSize)/2);
 1389              		.loc 1 603 0
 1390 0012 1423     		movs	r3, #20
 1391              	.LVL126:
 598:frucd_display.c ****     int xFont, yFont;
 1392              		.loc 1 598 0
 1393 0014 0E00     		movs	r6, r1
 1394              		.loc 1 603 0
 1395 0016 0621     		movs	r1, #6
 1396              	.LVL127:
 1397 0018 5343     		muls	r3, r2
 1398 001a 0C33     		adds	r3, r3, #12
 1399              	.LVL128:
 1400 001c 4B43     		muls	r3, r1
 1401              	.LVL129:
 1402 001e 0499     		ldr	r1, [sp, #16]
 598:frucd_display.c ****     int xFont, yFont;
 1403              		.loc 1 598 0
 1404 0020 0400     		movs	r4, r0
 1405              		.loc 1 603 0
 1406 0022 7018     		adds	r0, r6, r1
 1407              	.LVL130:
 1408 0024 5B10     		asrs	r3, r3, #1
 1409 0026 4010     		asrs	r0, r0, #1
 1410 0028 C31A     		subs	r3, r0, r3
 604:frucd_display.c ****     yFont = (y1 + y2)/2 - 5 - (size*17);    
 1411              		.loc 1 604 0
 1412 002a 0599     		ldr	r1, [sp, #20]
 603:frucd_display.c ****     yFont = (y1 + y2)/2 - 5 - (size*17);    
 1413              		.loc 1 603 0
 1414 002c 0693     		str	r3, [sp, #24]
 1415              	.LVL131:
 1416              		.loc 1 604 0
 1417 002e 039B     		ldr	r3, [sp, #12]
 1418              	.LVL132:
 1419 0030 5B18     		adds	r3, r3, r1
 1420 0032 1121     		movs	r1, #17
 1421 0034 4942     		rsbs	r1, r1, #0
 1422 0036 5143     		muls	r1, r2
 1423 0038 5B10     		asrs	r3, r3, #1
 1424 003a 053B     		subs	r3, r3, #5
 1425 003c 5B18     		adds	r3, r3, r1
 1426 003e 0793     		str	r3, [sp, #28]
 1427              	.LVL133:
 605:frucd_display.c ****     
 606:frucd_display.c ****     
 607:frucd_display.c ****     if(size == 1){
 1428              		.loc 1 607 0
 1429 0040 012A     		cmp	r2, #1
 1430 0042 02D1     		bne	.L80
ARM GAS  C:\Users\Melody\AppData\Local\Temp\ccuHhgp0.s 			page 38


 608:frucd_display.c ****         UG_FontSelect(&FONT_32X53);  
 1431              		.loc 1 608 0
 1432 0044 2C48     		ldr	r0, .L87
 1433 0046 FFF7FEFF 		bl	UG_FontSelect
 1434              	.LVL134:
 1435              	.L80:
 609:frucd_display.c ****     }
 610:frucd_display.c ****     // translate from voltage divider measurement to true voltage
 611:frucd_display.c ****     // y = 0.4295x + 18.254
 612:frucd_display.c ****     data *= 859;
 613:frucd_display.c ****     data /= 2000; // 0.4295
 1436              		.loc 1 613 0
 1437 004a FA21     		movs	r1, #250
 612:frucd_display.c ****     data /= 2000; // 0.4295
 1438              		.loc 1 612 0
 1439 004c 2B48     		ldr	r0, .L87+4
 1440              		.loc 1 613 0
 1441 004e C900     		lsls	r1, r1, #3
 612:frucd_display.c ****     data /= 2000; // 0.4295
 1442              		.loc 1 612 0
 1443 0050 6043     		muls	r0, r4
 1444              	.LVL135:
 1445              		.loc 1 613 0
 1446 0052 FFF7FEFF 		bl	__aeabi_uidiv
 1447              	.LVL136:
 614:frucd_display.c ****     data += 18;
 615:frucd_display.c ****     UG_COLOR color;
 616:frucd_display.c ****     if (data > 1150) {
 1448              		.loc 1 616 0
 1449 0056 2A4B     		ldr	r3, .L87+8
 614:frucd_display.c ****     data += 18;
 1450              		.loc 1 614 0
 1451 0058 1230     		adds	r0, r0, #18
 1452              	.LVL137:
 1453 005a 0500     		movs	r5, r0
 1454              	.LVL138:
 1455              		.loc 1 616 0
 1456 005c 9842     		cmp	r0, r3
 1457 005e 08D8     		bhi	.L84
 617:frucd_display.c ****         color = C_GREEN;
 618:frucd_display.c ****     } else if (data > 1100) {
 1458              		.loc 1 618 0
 1459 0060 284B     		ldr	r3, .L87+12
 1460 0062 9842     		cmp	r0, r3
 1461 0064 08D8     		bhi	.L85
 619:frucd_display.c ****         color = C_YELLOW;
 620:frucd_display.c ****     } else if (data > 1050) {
 1462              		.loc 1 620 0
 1463 0066 284B     		ldr	r3, .L87+16
 1464 0068 9842     		cmp	r0, r3
 1465 006a 07D8     		bhi	.L86
 621:frucd_display.c ****         color = C_ORANGE;
 622:frucd_display.c ****     } else {
 623:frucd_display.c ****         color = C_RED;
 1466              		.loc 1 623 0
 1467 006c FF24     		movs	r4, #255
 1468 006e 2404     		lsls	r4, r4, #16
ARM GAS  C:\Users\Melody\AppData\Local\Temp\ccuHhgp0.s 			page 39


 1469 0070 05E0     		b	.L81
 1470              	.L84:
 617:frucd_display.c ****     } else if (data > 1100) {
 1471              		.loc 1 617 0
 1472 0072 FF24     		movs	r4, #255
 1473 0074 2402     		lsls	r4, r4, #8
 1474 0076 02E0     		b	.L81
 1475              	.L85:
 619:frucd_display.c ****         color = C_YELLOW;
 1476              		.loc 1 619 0
 1477 0078 244C     		ldr	r4, .L87+20
 1478 007a 00E0     		b	.L81
 1479              	.L86:
 621:frucd_display.c ****         color = C_ORANGE;
 1480              		.loc 1 621 0
 1481 007c 244C     		ldr	r4, .L87+24
 1482              	.L81:
 1483              	.LVL139:
 624:frucd_display.c ****     }
 625:frucd_display.c ****     if (color != last_glv_v_color) {
 1484              		.loc 1 625 0
 1485 007e 254F     		ldr	r7, .L87+28
 1486 0080 3B68     		ldr	r3, [r7]
 1487 0082 9C42     		cmp	r4, r3
 1488 0084 0DD0     		beq	.L82
 626:frucd_display.c ****         // only draw rectangle if color changed
 627:frucd_display.c ****         UG_FillFrame(x1, y1, x2, y2, color);
 1489              		.loc 1 627 0
 1490 0086 6B46     		mov	r3, sp
 1491 0088 1422     		movs	r2, #20
 1492 008a 9B5E     		ldrsh	r3, [r3, r2]
 1493 008c 6A46     		mov	r2, sp
 1494 008e 1021     		movs	r1, #16
 1495 0090 525E     		ldrsh	r2, [r2, r1]
 1496 0092 6946     		mov	r1, sp
 1497 0094 0C20     		movs	r0, #12
 1498 0096 095E     		ldrsh	r1, [r1, r0]
 1499              	.LVL140:
 1500 0098 30B2     		sxth	r0, r6
 1501 009a 0094     		str	r4, [sp]
 1502 009c FFF7FEFF 		bl	UG_FillFrame
 1503              	.LVL141:
 628:frucd_display.c ****         last_glv_v_color = color;
 1504              		.loc 1 628 0
 1505 00a0 3C60     		str	r4, [r7]
 1506              	.L82:
 629:frucd_display.c ****     }
 630:frucd_display.c ****     char data_s[7];
 631:frucd_display.c ****     sprintf(data_s, "%lu", data);
 1507              		.loc 1 631 0
 1508 00a2 08AE     		add	r6, sp, #32
 1509 00a4 2A00     		movs	r2, r5
 1510 00a6 1C49     		ldr	r1, .L87+32
 1511 00a8 3000     		movs	r0, r6
 1512 00aa FFF7FEFF 		bl	sprintf
 1513              	.LVL142:
 632:frucd_display.c ****     // handle 3 digit cases; 2 and 1 are practically impossible
ARM GAS  C:\Users\Melody\AppData\Local\Temp\ccuHhgp0.s 			page 40


 633:frucd_display.c ****     if (data < 1000) {
 1514              		.loc 1 633 0
 1515 00ae 1B4B     		ldr	r3, .L87+36
 1516 00b0 9D42     		cmp	r5, r3
 1517 00b2 07D8     		bhi	.L83
 634:frucd_display.c ****         data_s[3] = data_s[2];
 1518              		.loc 1 634 0
 1519 00b4 B378     		ldrb	r3, [r6, #2]
 1520 00b6 F370     		strb	r3, [r6, #3]
 635:frucd_display.c ****         data_s[2] = data_s[1];
 1521              		.loc 1 635 0
 1522 00b8 7378     		ldrb	r3, [r6, #1]
 1523 00ba B370     		strb	r3, [r6, #2]
 636:frucd_display.c ****         data_s[1] = data_s[0];  
 1524              		.loc 1 636 0
 1525 00bc 3378     		ldrb	r3, [r6]
 1526 00be 7370     		strb	r3, [r6, #1]
 637:frucd_display.c ****         data_s[0] = ' ';
 1527              		.loc 1 637 0
 1528 00c0 2023     		movs	r3, #32
 1529 00c2 3370     		strb	r3, [r6]
 1530              	.L83:
 638:frucd_display.c ****     }
 639:frucd_display.c ****     // shift over fractional part
 640:frucd_display.c ****     data_s[4] = data_s[3];
 1531              		.loc 1 640 0
 1532 00c4 F378     		ldrb	r3, [r6, #3]
 641:frucd_display.c ****     data_s[3] = data_s[2];
 642:frucd_display.c ****     // add syntax
 643:frucd_display.c ****     data_s[2] = '.';
 644:frucd_display.c ****     data_s[5] = 'V';
 645:frucd_display.c ****     data_s[6] = '\0';
 646:frucd_display.c ****     UG_PutColorString(xFont, yFont, data_s, C_BLACK, color);
 1533              		.loc 1 646 0
 1534 00c6 6A46     		mov	r2, sp
 640:frucd_display.c ****     data_s[3] = data_s[2];
 1535              		.loc 1 640 0
 1536 00c8 3371     		strb	r3, [r6, #4]
 641:frucd_display.c ****     data_s[3] = data_s[2];
 1537              		.loc 1 641 0
 1538 00ca B378     		ldrb	r3, [r6, #2]
 1539              		.loc 1 646 0
 1540 00cc 1C21     		movs	r1, #28
 1541 00ce 515E     		ldrsh	r1, [r2, r1]
 641:frucd_display.c ****     data_s[3] = data_s[2];
 1542              		.loc 1 641 0
 1543 00d0 F370     		strb	r3, [r6, #3]
 643:frucd_display.c ****     data_s[5] = 'V';
 1544              		.loc 1 643 0
 1545 00d2 2E23     		movs	r3, #46
 1546 00d4 B370     		strb	r3, [r6, #2]
 644:frucd_display.c ****     data_s[6] = '\0';
 1547              		.loc 1 644 0
 1548 00d6 2833     		adds	r3, r3, #40
 1549 00d8 7371     		strb	r3, [r6, #5]
 1550              		.loc 1 646 0
 1551 00da 6A46     		mov	r2, sp
ARM GAS  C:\Users\Melody\AppData\Local\Temp\ccuHhgp0.s 			page 41


 645:frucd_display.c ****     UG_PutColorString(xFont, yFont, data_s, C_BLACK, color);
 1552              		.loc 1 645 0
 1553 00dc 0023     		movs	r3, #0
 1554              		.loc 1 646 0
 1555 00de 1820     		movs	r0, #24
 1556 00e0 105E     		ldrsh	r0, [r2, r0]
 645:frucd_display.c ****     UG_PutColorString(xFont, yFont, data_s, C_BLACK, color);
 1557              		.loc 1 645 0
 1558 00e2 B371     		strb	r3, [r6, #6]
 1559              		.loc 1 646 0
 1560 00e4 3200     		movs	r2, r6
 1561 00e6 0094     		str	r4, [sp]
 1562 00e8 FFF7FEFF 		bl	UG_PutColorString
 1563              	.LVL143:
 647:frucd_display.c ****     UG_FontSelect(&FONT_12X16);
 1564              		.loc 1 647 0
 1565 00ec 0C48     		ldr	r0, .L87+40
 1566 00ee FFF7FEFF 		bl	UG_FontSelect
 1567              	.LVL144:
 648:frucd_display.c **** }
 1568              		.loc 1 648 0
 1569 00f2 0BB0     		add	sp, sp, #44
 1570              		@ sp needed
 1571              	.LVL145:
 1572              	.LVL146:
 1573 00f4 F0BD     		pop	{r4, r5, r6, r7, pc}
 1574              	.L88:
 1575 00f6 C046     		.align	2
 1576              	.L87:
 1577 00f8 00000000 		.word	FONT_32X53
 1578 00fc 5B030000 		.word	859
 1579 0100 7E040000 		.word	1150
 1580 0104 4C040000 		.word	1100
 1581 0108 1A040000 		.word	1050
 1582 010c 00FFFF00 		.word	16776960
 1583 0110 00A5FF00 		.word	16753920
 1584 0114 00000000 		.word	last_glv_v_color
 1585 0118 12010000 		.word	.LC71
 1586 011c E7030000 		.word	999
 1587 0120 00000000 		.word	FONT_12X16
 1588              		.cfi_endproc
 1589              	.LFE41:
 1590              		.size	disp_glv_v, .-disp_glv_v
 1591              		.section	.text.disp_gen_temp,"ax",%progbits
 1592              		.align	1
 1593              		.global	disp_gen_temp
 1594              		.code	16
 1595              		.thumb_func
 1596              		.type	disp_gen_temp, %function
 1597              	disp_gen_temp:
 1598              	.LFB44:
 649:frucd_display.c **** 
 650:frucd_display.c **** 
 651:frucd_display.c **** /*
 652:frucd_display.c **** void disp_mc_temp(uint16_t data) {
 653:frucd_display.c ****     if (data >= 100) {
 654:frucd_display.c ****         // handle 3 digit cases
ARM GAS  C:\Users\Melody\AppData\Local\Temp\ccuHhgp0.s 			page 42


 655:frucd_display.c ****         UG_FillFrame(410, 185, 470, 215, C_GREEN);
 656:frucd_display.c ****         char data_s[5];
 657:frucd_display.c ****         sprintf(data_s, "%d", data);
 658:frucd_display.c ****         data_s[3] = 'C';
 659:frucd_display.c ****         data_s[4] = '\0';
 660:frucd_display.c ****         UG_PutColorString(415, 195, data_s, C_BLACK, C_GREEN);
 661:frucd_display.c ****     } else {
 662:frucd_display.c ****         // handle 2 digit cases
 663:frucd_display.c ****         UG_FillFrame(410, 185, 470, 215, C_GREEN);
 664:frucd_display.c ****         char data_s[4];
 665:frucd_display.c ****         sprintf(data_s, "%d", data);
 666:frucd_display.c ****         data_s[2] = 'C';
 667:frucd_display.c ****         data_s[3] = '\0';
 668:frucd_display.c ****         UG_PutColorString(422, 195, data_s, C_BLACK, C_GREEN);
 669:frucd_display.c ****     }
 670:frucd_display.c **** }
 671:frucd_display.c **** */
 672:frucd_display.c **** 
 673:frucd_display.c **** void disp_mc_temp(uint16_t data, uint16_t x1, uint16_t y1, uint16_t x2, uint16_t y2, uint8_t size){
 674:frucd_display.c ****     disp_gen_temp(data, x1, y1, x2, y2, size);
 675:frucd_display.c **** }
 676:frucd_display.c **** /*
 677:frucd_display.c **** void disp_motor_temp(uint16_t data) {
 678:frucd_display.c ****     if (data >= 100) {
 679:frucd_display.c ****         // handle 3 digit cases
 680:frucd_display.c ****         UG_FillFrame(410, 230, 470, 260, C_GREEN);
 681:frucd_display.c ****         char data_s[5];
 682:frucd_display.c ****         sprintf(data_s, "%d", data);
 683:frucd_display.c ****         data_s[3] = 'C';
 684:frucd_display.c ****         data_s[4] = '\0';
 685:frucd_display.c ****         UG_PutColorString(415, 240, data_s, C_BLACK, C_GREEN);
 686:frucd_display.c ****     } else {
 687:frucd_display.c ****         // handle 2 digit cases
 688:frucd_display.c ****         UG_FillFrame(410, 230, 470, 260, C_GREEN);
 689:frucd_display.c ****         char data_s[4];
 690:frucd_display.c ****         sprintf(data_s, "%d", data);
 691:frucd_display.c ****         data_s[2] = 'C';
 692:frucd_display.c ****         data_s[3] = '\0';
 693:frucd_display.c ****         UG_PutColorString(422, 240, data_s, C_BLACK, C_GREEN);
 694:frucd_display.c ****     }
 695:frucd_display.c **** }
 696:frucd_display.c **** */
 697:frucd_display.c **** 
 698:frucd_display.c **** void disp_motor_temp(uint16_t data, uint16_t x1, uint16_t y1, uint16_t x2, uint16_t y2, uint8_t siz
 699:frucd_display.c ****     disp_gen_temp(data, x1, y1, x2, y2, size);
 700:frucd_display.c **** }
 701:frucd_display.c **** 
 702:frucd_display.c **** 
 703:frucd_display.c **** 
 704:frucd_display.c **** void disp_gen_temp(uint16_t data, uint16_t x1, uint16_t y1, uint16_t x2, uint16_t y2, uint8_t size)
 1599              		.loc 1 704 0
 1600              		.cfi_startproc
 1601              		@ args = 8, pretend = 0, frame = 24
 1602              		@ frame_needed = 0, uses_anonymous_args = 0
 1603              	.LVL147:
 1604 0000 F0B5     		push	{r4, r5, r6, r7, lr}
 1605              		.cfi_def_cfa_offset 20
ARM GAS  C:\Users\Melody\AppData\Local\Temp\ccuHhgp0.s 			page 43


 1606              		.cfi_offset 4, -20
 1607              		.cfi_offset 5, -16
 1608              		.cfi_offset 6, -12
 1609              		.cfi_offset 7, -8
 1610              		.cfi_offset 14, -4
 1611 0002 1500     		movs	r5, r2
 705:frucd_display.c ****     int xFont, yFont;
 706:frucd_display.c ****     int horizFontSize = 12 + 20*size;
 707:frucd_display.c ****     int stringSize;
 708:frucd_display.c ****     if (data >= 100) {
 709:frucd_display.c ****         stringSize = 4;
 710:frucd_display.c ****     }else{
 711:frucd_display.c ****         stringSize = 3;
 1612              		.loc 1 711 0
 1613 0004 6322     		movs	r2, #99
 1614              	.LVL148:
 704:frucd_display.c ****     int xFont, yFont;
 1615              		.loc 1 704 0
 1616 0006 89B0     		sub	sp, sp, #36
 1617              		.cfi_def_cfa_offset 56
 704:frucd_display.c ****     int xFont, yFont;
 1618              		.loc 1 704 0
 1619 0008 1E00     		movs	r6, r3
 1620 000a 0EAB     		add	r3, sp, #56
 1621              	.LVL149:
 1622 000c 1F88     		ldrh	r7, [r3]
 1623 000e 0FAB     		add	r3, sp, #60
 1624              	.LVL150:
 1625 0010 0C00     		movs	r4, r1
 1626 0012 1978     		ldrb	r1, [r3]
 1627              	.LVL151:
 706:frucd_display.c ****     int stringSize;
 1628              		.loc 1 706 0
 1629 0014 1423     		movs	r3, #20
 1630              	.LVL152:
 1631              		.loc 1 711 0
 1632 0016 8242     		cmp	r2, r0
 1633 0018 9241     		sbcs	r2, r2, r2
 706:frucd_display.c ****     int stringSize;
 1634              		.loc 1 706 0
 1635 001a 4B43     		muls	r3, r1
 1636              		.loc 1 711 0
 1637 001c 5242     		rsbs	r2, r2, #0
 1638 001e 0332     		adds	r2, r2, #3
 706:frucd_display.c ****     int stringSize;
 1639              		.loc 1 706 0
 1640 0020 0C33     		adds	r3, r3, #12
 1641              	.LVL153:
 712:frucd_display.c ****     }
 713:frucd_display.c ****     xFont = (x1 + x2)/2 - ((horizFontSize*stringSize)/2);
 1642              		.loc 1 713 0
 1643 0022 5343     		muls	r3, r2
 1644              	.LVL154:
 714:frucd_display.c ****     yFont = (y1 + y2)/2 - 5 - (size*17);    
 1645              		.loc 1 714 0
 1646 0024 1122     		movs	r2, #17
 1647              	.LVL155:
ARM GAS  C:\Users\Melody\AppData\Local\Temp\ccuHhgp0.s 			page 44


 704:frucd_display.c ****     int xFont, yFont;
 1648              		.loc 1 704 0
 1649 0026 0390     		str	r0, [sp, #12]
 713:frucd_display.c ****     yFont = (y1 + y2)/2 - 5 - (size*17);    
 1650              		.loc 1 713 0
 1651 0028 A019     		adds	r0, r4, r6
 1652              	.LVL156:
 1653 002a 4010     		asrs	r0, r0, #1
 1654 002c 5B10     		asrs	r3, r3, #1
 1655              		.loc 1 714 0
 1656 002e 5242     		rsbs	r2, r2, #0
 713:frucd_display.c ****     yFont = (y1 + y2)/2 - 5 - (size*17);    
 1657              		.loc 1 713 0
 1658 0030 C31A     		subs	r3, r0, r3
 1659              		.loc 1 714 0
 1660 0032 4A43     		muls	r2, r1
 713:frucd_display.c ****     yFont = (y1 + y2)/2 - 5 - (size*17);    
 1661              		.loc 1 713 0
 1662 0034 0493     		str	r3, [sp, #16]
 1663              	.LVL157:
 1664              		.loc 1 714 0
 1665 0036 EB19     		adds	r3, r5, r7
 1666              	.LVL158:
 1667 0038 5B10     		asrs	r3, r3, #1
 1668 003a 053B     		subs	r3, r3, #5
 1669 003c 9B18     		adds	r3, r3, r2
 1670 003e 0593     		str	r3, [sp, #20]
 1671              	.LVL159:
 715:frucd_display.c ****     if(size == 1){
 1672              		.loc 1 715 0
 1673 0040 0129     		cmp	r1, #1
 1674 0042 02D1     		bne	.L91
 716:frucd_display.c ****         UG_FontSelect(&FONT_32X53);
 1675              		.loc 1 716 0
 1676 0044 1B48     		ldr	r0, .L96
 1677 0046 FFF7FEFF 		bl	UG_FontSelect
 1678              	.LVL160:
 1679              	.L91:
 1680 004a 20B2     		sxth	r0, r4
 1681 004c 6C46     		mov	r4, sp
 1682 004e 29B2     		sxth	r1, r5
 1683 0050 FF25     		movs	r5, #255
 1684 0052 32B2     		sxth	r2, r6
 1685 0054 3BB2     		sxth	r3, r7
 1686 0056 1426     		movs	r6, #20
 1687 0058 A75F     		ldrsh	r7, [r4, r6]
 1688 005a 1026     		movs	r6, #16
 1689 005c A65F     		ldrsh	r6, [r4, r6]
 1690 005e 2D02     		lsls	r5, r5, #8
 1691 0060 3400     		movs	r4, r6
 717:frucd_display.c ****         
 718:frucd_display.c ****     }
 719:frucd_display.c ****     if (data >= 100) {
 1692              		.loc 1 719 0
 1693 0062 039E     		ldr	r6, [sp, #12]
 1694              	.LBB4:
 720:frucd_display.c ****         // handle 3 digit cases
ARM GAS  C:\Users\Melody\AppData\Local\Temp\ccuHhgp0.s 			page 45


 721:frucd_display.c ****         UG_FillFrame(x1, y1, x2, y2, C_GREEN);
 1695              		.loc 1 721 0
 1696 0064 0095     		str	r5, [sp]
 1697              	.LBE4:
 719:frucd_display.c ****         // handle 3 digit cases
 1698              		.loc 1 719 0
 1699 0066 632E     		cmp	r6, #99
 1700 0068 0CD9     		bls	.L92
 1701              	.LBB5:
 722:frucd_display.c ****         char data_s[5];
 723:frucd_display.c ****         sprintf(data_s, "%d", data);
 1702              		.loc 1 723 0
 1703 006a 06AE     		add	r6, sp, #24
 721:frucd_display.c ****         char data_s[5];
 1704              		.loc 1 721 0
 1705 006c FFF7FEFF 		bl	UG_FillFrame
 1706              	.LVL161:
 1707              		.loc 1 723 0
 1708 0070 039A     		ldr	r2, [sp, #12]
 1709 0072 1149     		ldr	r1, .L96+4
 1710 0074 3000     		movs	r0, r6
 1711 0076 FFF7FEFF 		bl	sprintf
 1712              	.LVL162:
 724:frucd_display.c ****         data_s[3] = 'C';
 1713              		.loc 1 724 0
 1714 007a 4323     		movs	r3, #67
 1715 007c F370     		strb	r3, [r6, #3]
 725:frucd_display.c ****         data_s[4] = '\0';
 1716              		.loc 1 725 0
 1717 007e 0023     		movs	r3, #0
 1718 0080 3371     		strb	r3, [r6, #4]
 1719 0082 0BE0     		b	.L95
 1720              	.L92:
 1721              	.LBE5:
 1722              	.LBB6:
 726:frucd_display.c ****         UG_PutColorString(xFont, yFont, data_s, C_BLACK, C_GREEN);
 727:frucd_display.c ****     } else {
 728:frucd_display.c ****         // handle 2 digit cases
 729:frucd_display.c ****         UG_FillFrame(x1, y1, x2, y2, C_GREEN);
 730:frucd_display.c ****         char data_s[4];
 731:frucd_display.c ****         sprintf(data_s, "%d", data);
 1723              		.loc 1 731 0
 1724 0084 06AE     		add	r6, sp, #24
 729:frucd_display.c ****         char data_s[4];
 1725              		.loc 1 729 0
 1726 0086 FFF7FEFF 		bl	UG_FillFrame
 1727              	.LVL163:
 1728              		.loc 1 731 0
 1729 008a 039A     		ldr	r2, [sp, #12]
 1730 008c 0A49     		ldr	r1, .L96+4
 1731 008e 3000     		movs	r0, r6
 1732 0090 FFF7FEFF 		bl	sprintf
 1733              	.LVL164:
 732:frucd_display.c ****         data_s[2] = 'C';
 1734              		.loc 1 732 0
 1735 0094 4323     		movs	r3, #67
 1736 0096 B370     		strb	r3, [r6, #2]
ARM GAS  C:\Users\Melody\AppData\Local\Temp\ccuHhgp0.s 			page 46


 733:frucd_display.c ****         data_s[3] = '\0';
 1737              		.loc 1 733 0
 1738 0098 0023     		movs	r3, #0
 1739 009a F370     		strb	r3, [r6, #3]
 1740              	.L95:
 734:frucd_display.c ****         UG_PutColorString(xFont, yFont, data_s, C_BLACK, C_GREEN);
 1741              		.loc 1 734 0
 1742 009c 3200     		movs	r2, r6
 1743 009e 3900     		movs	r1, r7
 1744 00a0 2000     		movs	r0, r4
 1745 00a2 0095     		str	r5, [sp]
 1746 00a4 FFF7FEFF 		bl	UG_PutColorString
 1747              	.LVL165:
 1748              	.LBE6:
 735:frucd_display.c ****     }
 736:frucd_display.c ****      UG_FontSelect(&FONT_12X16);
 1749              		.loc 1 736 0
 1750 00a8 0448     		ldr	r0, .L96+8
 1751 00aa FFF7FEFF 		bl	UG_FontSelect
 1752              	.LVL166:
 737:frucd_display.c **** }
 1753              		.loc 1 737 0
 1754 00ae 09B0     		add	sp, sp, #36
 1755              		@ sp needed
 1756 00b0 F0BD     		pop	{r4, r5, r6, r7, pc}
 1757              	.L97:
 1758 00b2 C046     		.align	2
 1759              	.L96:
 1760 00b4 00000000 		.word	FONT_32X53
 1761 00b8 60000000 		.word	.LC26
 1762 00bc 00000000 		.word	FONT_12X16
 1763              		.cfi_endproc
 1764              	.LFE44:
 1765              		.size	disp_gen_temp, .-disp_gen_temp
 1766              		.section	.text.disp_motor_temp,"ax",%progbits
 1767              		.align	1
 1768              		.global	disp_motor_temp
 1769              		.code	16
 1770              		.thumb_func
 1771              		.type	disp_motor_temp, %function
 1772              	disp_motor_temp:
 1773              	.LFB43:
 698:frucd_display.c ****     disp_gen_temp(data, x1, y1, x2, y2, size);
 1774              		.loc 1 698 0
 1775              		.cfi_startproc
 1776              		@ args = 8, pretend = 0, frame = 0
 1777              		@ frame_needed = 0, uses_anonymous_args = 0
 1778              	.LVL167:
 1779 0000 37B5     		push	{r0, r1, r2, r4, r5, lr}
 1780              		.cfi_def_cfa_offset 24
 1781              		.cfi_offset 0, -24
 1782              		.cfi_offset 1, -20
 1783              		.cfi_offset 2, -16
 1784              		.cfi_offset 4, -12
 1785              		.cfi_offset 5, -8
 1786              		.cfi_offset 14, -4
 698:frucd_display.c ****     disp_gen_temp(data, x1, y1, x2, y2, size);
ARM GAS  C:\Users\Melody\AppData\Local\Temp\ccuHhgp0.s 			page 47


 1787              		.loc 1 698 0
 1788 0002 06AC     		add	r4, sp, #24
 1789              	.LVL168:
 1790 0004 07AD     		add	r5, sp, #28
 1791              	.LVL169:
 1792 0006 2D78     		ldrb	r5, [r5]
 1793              	.LVL170:
 1794 0008 2488     		ldrh	r4, [r4]
 1795              	.LVL171:
 699:frucd_display.c **** }
 1796              		.loc 1 699 0
 1797 000a 0195     		str	r5, [sp, #4]
 1798 000c 0094     		str	r4, [sp]
 1799 000e FFF7FEFF 		bl	disp_gen_temp
 1800              	.LVL172:
 700:frucd_display.c **** 
 1801              		.loc 1 700 0
 1802              		@ sp needed
 1803 0012 37BD     		pop	{r0, r1, r2, r4, r5, pc}
 1804              		.cfi_endproc
 1805              	.LFE43:
 1806              		.size	disp_motor_temp, .-disp_motor_temp
 1807              		.section	.text.disp_mc_temp,"ax",%progbits
 1808              		.align	1
 1809              		.global	disp_mc_temp
 1810              		.code	16
 1811              		.thumb_func
 1812              		.type	disp_mc_temp, %function
 1813              	disp_mc_temp:
 1814              	.LFB50:
 1815              		.cfi_startproc
 1816              		@ args = 8, pretend = 0, frame = 0
 1817              		@ frame_needed = 0, uses_anonymous_args = 0
 1818 0000 37B5     		push	{r0, r1, r2, r4, r5, lr}
 1819              		.cfi_def_cfa_offset 24
 1820              		.cfi_offset 0, -24
 1821              		.cfi_offset 1, -20
 1822              		.cfi_offset 2, -16
 1823              		.cfi_offset 4, -12
 1824              		.cfi_offset 5, -8
 1825              		.cfi_offset 14, -4
 1826 0002 06AC     		add	r4, sp, #24
 1827 0004 07AD     		add	r5, sp, #28
 1828 0006 2D78     		ldrb	r5, [r5]
 1829 0008 2488     		ldrh	r4, [r4]
 1830 000a 0195     		str	r5, [sp, #4]
 1831 000c 0094     		str	r4, [sp]
 1832 000e FFF7FEFF 		bl	disp_gen_temp
 1833              		@ sp needed
 1834 0012 37BD     		pop	{r0, r1, r2, r4, r5, pc}
 1835              		.cfi_endproc
 1836              	.LFE50:
 1837              		.size	disp_mc_temp, .-disp_mc_temp
 1838              		.section	.text.disp_gen_voltage,"ax",%progbits
 1839              		.align	1
 1840              		.global	disp_gen_voltage
 1841              		.code	16
ARM GAS  C:\Users\Melody\AppData\Local\Temp\ccuHhgp0.s 			page 48


 1842              		.thumb_func
 1843              		.type	disp_gen_voltage, %function
 1844              	disp_gen_voltage:
 1845              	.LFB45:
 738:frucd_display.c **** 
 739:frucd_display.c **** void disp_gen_voltage(uint16_t data, uint16_t x1, uint16_t y1, uint16_t x2, uint16_t y2, uint8_t si
 1846              		.loc 1 739 0
 1847              		.cfi_startproc
 1848              		@ args = 8, pretend = 0, frame = 24
 1849              		@ frame_needed = 0, uses_anonymous_args = 0
 1850              	.LVL173:
 1851              		.loc 1 739 0
 1852 0000 F0B5     		push	{r4, r5, r6, r7, lr}
 1853              		.cfi_def_cfa_offset 20
 1854              		.cfi_offset 4, -20
 1855              		.cfi_offset 5, -16
 1856              		.cfi_offset 6, -12
 1857              		.cfi_offset 7, -8
 1858              		.cfi_offset 14, -4
 1859 0002 89B0     		sub	sp, sp, #36
 1860              		.cfi_def_cfa_offset 56
 1861              		.loc 1 739 0
 1862 0004 1D00     		movs	r5, r3
 1863 0006 0EAB     		add	r3, sp, #56
 1864              	.LVL174:
 1865 0008 1E88     		ldrh	r6, [r3]
 1866 000a 0FAB     		add	r3, sp, #60
 1867              	.LVL175:
 1868 000c 1400     		movs	r4, r2
 1869 000e 1A78     		ldrb	r2, [r3]
 1870              	.LVL176:
 740:frucd_display.c ****     int xFont, yFont;
 741:frucd_display.c ****     int horizFontSize = 12 + 20*size;
 742:frucd_display.c ****     int stringSize;
 743:frucd_display.c ****     stringSize = 6;
 744:frucd_display.c ****    
 745:frucd_display.c ****     xFont = (x1 + x2)/2 - ((horizFontSize*stringSize)/2);
 1871              		.loc 1 745 0
 1872 0010 1423     		movs	r3, #20
 1873              	.LVL177:
 739:frucd_display.c ****     int xFont, yFont;
 1874              		.loc 1 739 0
 1875 0012 0391     		str	r1, [sp, #12]
 1876              		.loc 1 745 0
 1877 0014 0621     		movs	r1, #6
 1878              	.LVL178:
 1879 0016 5343     		muls	r3, r2
 1880 0018 0C33     		adds	r3, r3, #12
 1881              	.LVL179:
 1882 001a 4B43     		muls	r3, r1
 1883              	.LVL180:
 1884 001c 0399     		ldr	r1, [sp, #12]
 739:frucd_display.c ****     int xFont, yFont;
 1885              		.loc 1 739 0
 1886 001e 0700     		movs	r7, r0
 1887              		.loc 1 745 0
 1888 0020 4819     		adds	r0, r1, r5
ARM GAS  C:\Users\Melody\AppData\Local\Temp\ccuHhgp0.s 			page 49


 1889              	.LVL181:
 746:frucd_display.c ****     yFont = (y1 + y2)/2 - 5 - (size*17);    
 1890              		.loc 1 746 0
 1891 0022 1121     		movs	r1, #17
 745:frucd_display.c ****     yFont = (y1 + y2)/2 - 5 - (size*17);    
 1892              		.loc 1 745 0
 1893 0024 5B10     		asrs	r3, r3, #1
 1894 0026 4010     		asrs	r0, r0, #1
 1895              		.loc 1 746 0
 1896 0028 4942     		rsbs	r1, r1, #0
 745:frucd_display.c ****     yFont = (y1 + y2)/2 - 5 - (size*17);    
 1897              		.loc 1 745 0
 1898 002a C31A     		subs	r3, r0, r3
 1899              		.loc 1 746 0
 1900 002c 5143     		muls	r1, r2
 745:frucd_display.c ****     yFont = (y1 + y2)/2 - 5 - (size*17);    
 1901              		.loc 1 745 0
 1902 002e 0493     		str	r3, [sp, #16]
 1903              	.LVL182:
 1904              		.loc 1 746 0
 1905 0030 A319     		adds	r3, r4, r6
 1906              	.LVL183:
 1907 0032 5B10     		asrs	r3, r3, #1
 1908 0034 053B     		subs	r3, r3, #5
 1909 0036 5B18     		adds	r3, r3, r1
 1910 0038 0593     		str	r3, [sp, #20]
 1911              	.LVL184:
 747:frucd_display.c ****     if(size == 1){
 1912              		.loc 1 747 0
 1913 003a 012A     		cmp	r2, #1
 1914 003c 02D1     		bne	.L101
 748:frucd_display.c ****         UG_FontSelect(&FONT_32X53);
 1915              		.loc 1 748 0
 1916 003e 1D48     		ldr	r0, .L103
 1917 0040 FFF7FEFF 		bl	UG_FontSelect
 1918              	.LVL185:
 1919              	.L101:
 749:frucd_display.c ****         
 750:frucd_display.c ****     }
 751:frucd_display.c ****     UG_FillFrame(x1, y1, x2, y2, C_GREEN);
 1920              		.loc 1 751 0
 1921 0044 6846     		mov	r0, sp
 1922 0046 21B2     		sxth	r1, r4
 1923 0048 0C24     		movs	r4, #12
 1924 004a 005F     		ldrsh	r0, [r0, r4]
 1925 004c FF24     		movs	r4, #255
 1926 004e 2402     		lsls	r4, r4, #8
 1927 0050 33B2     		sxth	r3, r6
 1928 0052 2AB2     		sxth	r2, r5
 1929 0054 0094     		str	r4, [sp]
 752:frucd_display.c ****     char data_s[7];
 753:frucd_display.c ****     sprintf(data_s, "%d", data);
 1930              		.loc 1 753 0
 1931 0056 06AC     		add	r4, sp, #24
 751:frucd_display.c ****     char data_s[7];
 1932              		.loc 1 751 0
 1933 0058 FFF7FEFF 		bl	UG_FillFrame
ARM GAS  C:\Users\Melody\AppData\Local\Temp\ccuHhgp0.s 			page 50


 1934              	.LVL186:
 1935              		.loc 1 753 0
 1936 005c 3A00     		movs	r2, r7
 1937 005e 1649     		ldr	r1, .L103+4
 1938 0060 2000     		movs	r0, r4
 1939 0062 FFF7FEFF 		bl	sprintf
 1940              	.LVL187:
 754:frucd_display.c ****     // handle 3 digit cases; 2 and 1 are practically impossible
 755:frucd_display.c ****     if (data < 1000) {
 1941              		.loc 1 755 0
 1942 0066 154B     		ldr	r3, .L103+8
 1943 0068 9F42     		cmp	r7, r3
 1944 006a 07D8     		bhi	.L102
 756:frucd_display.c ****         data_s[3] = data_s[2];
 1945              		.loc 1 756 0
 1946 006c A378     		ldrb	r3, [r4, #2]
 1947 006e E370     		strb	r3, [r4, #3]
 757:frucd_display.c ****         data_s[2] = data_s[1];
 1948              		.loc 1 757 0
 1949 0070 6378     		ldrb	r3, [r4, #1]
 1950 0072 A370     		strb	r3, [r4, #2]
 758:frucd_display.c ****         data_s[1] = data_s[0];  
 1951              		.loc 1 758 0
 1952 0074 2378     		ldrb	r3, [r4]
 1953 0076 6370     		strb	r3, [r4, #1]
 759:frucd_display.c ****         data_s[0] = ' ';
 1954              		.loc 1 759 0
 1955 0078 2023     		movs	r3, #32
 1956 007a 2370     		strb	r3, [r4]
 1957              	.L102:
 760:frucd_display.c ****     }
 761:frucd_display.c ****     // shift over fractional part
 762:frucd_display.c ****     data_s[4] = data_s[3];
 763:frucd_display.c ****     data_s[3] = data_s[2];
 764:frucd_display.c ****     // add syntax
 765:frucd_display.c ****     data_s[2] = '.';
 766:frucd_display.c ****     data_s[5] = 'V';
 767:frucd_display.c ****     data_s[6] = '\0';
 768:frucd_display.c ****     UG_PutColorString(xFont, yFont, data_s, C_BLACK, C_GREEN);
 1958              		.loc 1 768 0
 1959 007c 6A46     		mov	r2, sp
 762:frucd_display.c ****     data_s[3] = data_s[2];
 1960              		.loc 1 762 0
 1961 007e E378     		ldrb	r3, [r4, #3]
 1962              		.loc 1 768 0
 1963 0080 1421     		movs	r1, #20
 1964 0082 515E     		ldrsh	r1, [r2, r1]
 762:frucd_display.c ****     data_s[3] = data_s[2];
 1965              		.loc 1 762 0
 1966 0084 2371     		strb	r3, [r4, #4]
 763:frucd_display.c ****     // add syntax
 1967              		.loc 1 763 0
 1968 0086 A378     		ldrb	r3, [r4, #2]
 1969              		.loc 1 768 0
 1970 0088 6A46     		mov	r2, sp
 763:frucd_display.c ****     // add syntax
 1971              		.loc 1 763 0
ARM GAS  C:\Users\Melody\AppData\Local\Temp\ccuHhgp0.s 			page 51


 1972 008a E370     		strb	r3, [r4, #3]
 765:frucd_display.c ****     data_s[5] = 'V';
 1973              		.loc 1 765 0
 1974 008c 2E23     		movs	r3, #46
 1975              		.loc 1 768 0
 1976 008e 1020     		movs	r0, #16
 1977 0090 105E     		ldrsh	r0, [r2, r0]
 765:frucd_display.c ****     data_s[5] = 'V';
 1978              		.loc 1 765 0
 1979 0092 A370     		strb	r3, [r4, #2]
 1980              		.loc 1 768 0
 1981 0094 FF22     		movs	r2, #255
 766:frucd_display.c ****     data_s[6] = '\0';
 1982              		.loc 1 766 0
 1983 0096 2833     		adds	r3, r3, #40
 1984 0098 6371     		strb	r3, [r4, #5]
 767:frucd_display.c ****     UG_PutColorString(xFont, yFont, data_s, C_BLACK, C_GREEN);
 1985              		.loc 1 767 0
 1986 009a 0023     		movs	r3, #0
 1987              		.loc 1 768 0
 1988 009c 1202     		lsls	r2, r2, #8
 767:frucd_display.c ****     UG_PutColorString(xFont, yFont, data_s, C_BLACK, C_GREEN);
 1989              		.loc 1 767 0
 1990 009e A371     		strb	r3, [r4, #6]
 1991              		.loc 1 768 0
 1992 00a0 0092     		str	r2, [sp]
 1993 00a2 2200     		movs	r2, r4
 1994 00a4 FFF7FEFF 		bl	UG_PutColorString
 1995              	.LVL188:
 769:frucd_display.c ****     
 770:frucd_display.c ****     UG_FontSelect(&FONT_12X16);
 1996              		.loc 1 770 0
 1997 00a8 0548     		ldr	r0, .L103+12
 1998 00aa FFF7FEFF 		bl	UG_FontSelect
 1999              	.LVL189:
 771:frucd_display.c **** }
 2000              		.loc 1 771 0
 2001 00ae 09B0     		add	sp, sp, #36
 2002              		@ sp needed
 2003 00b0 F0BD     		pop	{r4, r5, r6, r7, pc}
 2004              	.L104:
 2005 00b2 C046     		.align	2
 2006              	.L103:
 2007 00b4 00000000 		.word	FONT_32X53
 2008 00b8 60000000 		.word	.LC26
 2009 00bc E7030000 		.word	999
 2010 00c0 00000000 		.word	FONT_12X16
 2011              		.cfi_endproc
 2012              	.LFE45:
 2013              		.size	disp_gen_voltage, .-disp_gen_voltage
 2014              		.section	.text.disp_shutdown_circuit,"ax",%progbits
 2015              		.align	1
 2016              		.global	disp_shutdown_circuit
 2017              		.code	16
 2018              		.thumb_func
 2019              		.type	disp_shutdown_circuit, %function
 2020              	disp_shutdown_circuit:
ARM GAS  C:\Users\Melody\AppData\Local\Temp\ccuHhgp0.s 			page 52


 2021              	.LFB46:
 772:frucd_display.c **** 
 773:frucd_display.c **** void disp_shutdown_circuit(uint8_t shutdown_flags, uint16_t x1, uint16_t y1, uint16_t x2, uint16_t 
 2022              		.loc 1 773 0
 2023              		.cfi_startproc
 2024              		@ args = 8, pretend = 0, frame = 16
 2025              		@ frame_needed = 0, uses_anonymous_args = 0
 2026              	.LVL190:
 2027 0000 F0B5     		push	{r4, r5, r6, r7, lr}
 2028              		.cfi_def_cfa_offset 20
 2029              		.cfi_offset 4, -20
 2030              		.cfi_offset 5, -16
 2031              		.cfi_offset 6, -12
 2032              		.cfi_offset 7, -8
 2033              		.cfi_offset 14, -4
 774:frucd_display.c ****     int xFont, yFont;
 775:frucd_display.c ****     int horizFontSize = 12 + 20*size;
 776:frucd_display.c ****     int stringSize;
 777:frucd_display.c ****     stringSize = 10;
 778:frucd_display.c ****     xFont = (x1 + x2)/2 - ((horizFontSize*stringSize)/2);
 2034              		.loc 1 778 0
 2035 0002 1425     		movs	r5, #20
 773:frucd_display.c ****     int xFont, yFont;
 2036              		.loc 1 773 0
 2037 0004 87B0     		sub	sp, sp, #28
 2038              		.cfi_def_cfa_offset 48
 773:frucd_display.c ****     int xFont, yFont;
 2039              		.loc 1 773 0
 2040 0006 0291     		str	r1, [sp, #8]
 2041              		.loc 1 778 0
 2042 0008 0A21     		movs	r1, #10
 2043              	.LVL191:
 773:frucd_display.c ****     int xFont, yFont;
 2044              		.loc 1 773 0
 2045 000a 0493     		str	r3, [sp, #16]
 2046 000c 0CAB     		add	r3, sp, #48
 2047              	.LVL192:
 2048 000e 1B88     		ldrh	r3, [r3]
 2049              	.LVL193:
 2050 0010 0392     		str	r2, [sp, #12]
 2051 0012 0593     		str	r3, [sp, #20]
 2052 0014 0DAB     		add	r3, sp, #52
 2053              	.LVL194:
 2054 0016 1A78     		ldrb	r2, [r3]
 2055              	.LVL195:
 2056 0018 0700     		movs	r7, r0
 2057              		.loc 1 778 0
 2058 001a 5543     		muls	r5, r2
 2059 001c 0C35     		adds	r5, r5, #12
 2060              	.LVL196:
 2061 001e 4D43     		muls	r5, r1
 2062              	.LVL197:
 2063 0020 0498     		ldr	r0, [sp, #16]
 2064              	.LVL198:
 2065 0022 0299     		ldr	r1, [sp, #8]
 2066 0024 6B10     		asrs	r3, r5, #1
 2067              	.LVL199:
ARM GAS  C:\Users\Melody\AppData\Local\Temp\ccuHhgp0.s 			page 53


 2068 0026 0D18     		adds	r5, r1, r0
 2069 0028 6D10     		asrs	r5, r5, #1
 2070 002a ED1A     		subs	r5, r5, r3
 2071              	.LVL200:
 779:frucd_display.c ****     yFont = (y1 + y2)/2 - 5 - (size*17);    
 2072              		.loc 1 779 0
 2073 002c 0599     		ldr	r1, [sp, #20]
 2074 002e 039B     		ldr	r3, [sp, #12]
 2075 0030 5E18     		adds	r6, r3, r1
 2076 0032 7610     		asrs	r6, r6, #1
 2077 0034 731F     		subs	r3, r6, #5
 2078 0036 1126     		movs	r6, #17
 2079 0038 7642     		rsbs	r6, r6, #0
 2080 003a 5643     		muls	r6, r2
 2081 003c 9E19     		adds	r6, r3, r6
 2082              	.LVL201:
 780:frucd_display.c ****     if(size == 1){
 2083              		.loc 1 780 0
 2084 003e 012A     		cmp	r2, #1
 2085 0040 02D1     		bne	.L106
 781:frucd_display.c ****         UG_FontSelect(&FONT_32X53);
 2086              		.loc 1 781 0
 2087 0042 6E48     		ldr	r0, .L125
 2088 0044 FFF7FEFF 		bl	UG_FontSelect
 2089              	.LVL202:
 2090              	.L106:
 2091 0048 6D4C     		ldr	r4, .L125+4
 2092 004a 36B2     		sxth	r6, r6
 2093              	.LVL203:
 2094 004c 2DB2     		sxth	r5, r5
 2095              	.LVL204:
 782:frucd_display.c ****         
 783:frucd_display.c ****     }
 784:frucd_display.c ****     UG_COLOR color;
 785:frucd_display.c **** 
 786:frucd_display.c ****     switch(shutdown_flags) {
 2096              		.loc 1 786 0
 2097 004e 042F     		cmp	r7, #4
 2098 0050 5FD0     		beq	.L108
 2099 0052 05D8     		bhi	.L109
 2100 0054 012F     		cmp	r7, #1
 2101 0056 00D1     		bne	.LCB1932
 2102 0058 91E0     		b	.L110	@long jump
 2103              	.LCB1932:
 2104 005a 022F     		cmp	r7, #2
 2105 005c 74D0     		beq	.L111
 2106 005e A9E0     		b	.L107
 2107              	.L109:
 2108 0060 102F     		cmp	r7, #16
 2109 0062 20D0     		beq	.L112
 2110 0064 202F     		cmp	r7, #32
 2111 0066 03D0     		beq	.L113
 2112 0068 082F     		cmp	r7, #8
 2113 006a 00D0     		beq	.LCB1944
 2114 006c A2E0     		b	.L107	@long jump
 2115              	.LCB1944:
 2116 006e 35E0     		b	.L124
ARM GAS  C:\Users\Melody\AppData\Local\Temp\ccuHhgp0.s 			page 54


 2117              	.L113:
 2118              	.LVL205:
 787:frucd_display.c ****         case IMD_OK:
 788:frucd_display.c ****             color = C_RED;
 789:frucd_display.c ****             if (color != last_shutdown_color) {
 2119              		.loc 1 789 0
 2120 0070 FF27     		movs	r7, #255
 2121 0072 2368     		ldr	r3, [r4]
 2122 0074 3F04     		lsls	r7, r7, #16
 2123 0076 BB42     		cmp	r3, r7
 2124 0078 0FD0     		beq	.L115
 790:frucd_display.c ****                 // only draw rectangle if color changed
 791:frucd_display.c ****                 UG_FillFrame(x1, y1, x2, y2, color);
 2125              		.loc 1 791 0
 2126 007a 6B46     		mov	r3, sp
 2127 007c 1422     		movs	r2, #20
 2128 007e 9B5E     		ldrsh	r3, [r3, r2]
 2129 0080 9C46     		mov	ip, r3
 2130 0082 6B46     		mov	r3, sp
 2131 0084 1021     		movs	r1, #16
 2132 0086 5A5E     		ldrsh	r2, [r3, r1]
 2133 0088 0C20     		movs	r0, #12
 2134 008a 195E     		ldrsh	r1, [r3, r0]
 2135 008c 0820     		movs	r0, #8
 2136 008e 185E     		ldrsh	r0, [r3, r0]
 2137 0090 0097     		str	r7, [sp]
 2138 0092 6346     		mov	r3, ip
 2139 0094 FFF7FEFF 		bl	UG_FillFrame
 2140              	.LVL206:
 792:frucd_display.c ****                 last_shutdown_color = color;
 2141              		.loc 1 792 0
 2142 0098 2760     		str	r7, [r4]
 2143              	.L115:
 793:frucd_display.c ****             }
 794:frucd_display.c ****             UG_PutColorString(xFont, yFont, "IMD_OK", C_BLACK, color);
 2144              		.loc 1 794 0
 2145 009a FF23     		movs	r3, #255
 2146 009c 1B04     		lsls	r3, r3, #16
 2147 009e 0093     		str	r3, [sp]
 2148 00a0 584A     		ldr	r2, .L125+8
 2149 00a2 0023     		movs	r3, #0
 2150 00a4 A0E0     		b	.L123
 2151              	.LVL207:
 2152              	.L112:
 795:frucd_display.c ****             break;
 796:frucd_display.c ****         case BMS_OK:
 797:frucd_display.c ****             color = C_RED;
 798:frucd_display.c ****             if (color != last_shutdown_color) {
 2153              		.loc 1 798 0
 2154 00a6 FF27     		movs	r7, #255
 2155 00a8 2368     		ldr	r3, [r4]
 2156 00aa 3F04     		lsls	r7, r7, #16
 2157 00ac BB42     		cmp	r3, r7
 2158 00ae 0FD0     		beq	.L117
 799:frucd_display.c ****                 // only draw rectangle if color changed
 800:frucd_display.c ****                 UG_FillFrame(x1, y1, x2, y2, color);
 2159              		.loc 1 800 0
ARM GAS  C:\Users\Melody\AppData\Local\Temp\ccuHhgp0.s 			page 55


 2160 00b0 6B46     		mov	r3, sp
 2161 00b2 1422     		movs	r2, #20
 2162 00b4 9B5E     		ldrsh	r3, [r3, r2]
 2163 00b6 9C46     		mov	ip, r3
 2164 00b8 6B46     		mov	r3, sp
 2165 00ba 1021     		movs	r1, #16
 2166 00bc 5A5E     		ldrsh	r2, [r3, r1]
 2167 00be 0C20     		movs	r0, #12
 2168 00c0 195E     		ldrsh	r1, [r3, r0]
 2169 00c2 0820     		movs	r0, #8
 2170 00c4 185E     		ldrsh	r0, [r3, r0]
 2171 00c6 0097     		str	r7, [sp]
 2172 00c8 6346     		mov	r3, ip
 2173 00ca FFF7FEFF 		bl	UG_FillFrame
 2174              	.LVL208:
 801:frucd_display.c ****                 last_shutdown_color = color;
 2175              		.loc 1 801 0
 2176 00ce 2760     		str	r7, [r4]
 2177              	.L117:
 802:frucd_display.c ****             }
 803:frucd_display.c ****             UG_PutColorString(xFont, yFont, "BMS_OK", C_BLACK, color);
 2178              		.loc 1 803 0
 2179 00d0 FF23     		movs	r3, #255
 2180 00d2 1B04     		lsls	r3, r3, #16
 2181 00d4 0093     		str	r3, [sp]
 2182 00d6 4C4A     		ldr	r2, .L125+12
 2183 00d8 0023     		movs	r3, #0
 2184 00da 85E0     		b	.L123
 2185              	.LVL209:
 2186              	.L124:
 804:frucd_display.c ****             break;
 805:frucd_display.c ****         case Shutdown_Final:
 806:frucd_display.c ****             color = C_RED;
 807:frucd_display.c ****             if (color != last_shutdown_color) {
 2187              		.loc 1 807 0
 2188 00dc FF27     		movs	r7, #255
 2189 00de 2368     		ldr	r3, [r4]
 2190 00e0 3F04     		lsls	r7, r7, #16
 2191 00e2 BB42     		cmp	r3, r7
 2192 00e4 0FD0     		beq	.L118
 808:frucd_display.c ****                 // only draw rectangle if color changed
 809:frucd_display.c ****                 UG_FillFrame(x1, y1, x2, y2, color);
 2193              		.loc 1 809 0
 2194 00e6 6B46     		mov	r3, sp
 2195 00e8 1422     		movs	r2, #20
 2196 00ea 9B5E     		ldrsh	r3, [r3, r2]
 2197 00ec 9C46     		mov	ip, r3
 2198 00ee 6B46     		mov	r3, sp
 2199 00f0 1021     		movs	r1, #16
 2200 00f2 5A5E     		ldrsh	r2, [r3, r1]
 2201 00f4 0C20     		movs	r0, #12
 2202 00f6 195E     		ldrsh	r1, [r3, r0]
 2203 00f8 0820     		movs	r0, #8
 2204 00fa 185E     		ldrsh	r0, [r3, r0]
 2205 00fc 0097     		str	r7, [sp]
 2206 00fe 6346     		mov	r3, ip
 2207 0100 FFF7FEFF 		bl	UG_FillFrame
ARM GAS  C:\Users\Melody\AppData\Local\Temp\ccuHhgp0.s 			page 56


 2208              	.LVL210:
 810:frucd_display.c ****                 last_shutdown_color = color;
 2209              		.loc 1 810 0
 2210 0104 2760     		str	r7, [r4]
 2211              	.L118:
 811:frucd_display.c ****             }
 812:frucd_display.c ****             UG_PutColorString(xFont, yFont, "Shutdown_Final", C_BLACK, color);
 2212              		.loc 1 812 0
 2213 0106 FF23     		movs	r3, #255
 2214 0108 1B04     		lsls	r3, r3, #16
 2215 010a 0093     		str	r3, [sp]
 2216 010c 3F4A     		ldr	r2, .L125+16
 2217 010e 0023     		movs	r3, #0
 2218 0110 6AE0     		b	.L123
 2219              	.LVL211:
 2220              	.L108:
 813:frucd_display.c ****             break;
 814:frucd_display.c ****         case AIR1:
 815:frucd_display.c ****             color = C_RED;
 816:frucd_display.c ****             if (color != last_shutdown_color) {
 2221              		.loc 1 816 0
 2222 0112 FF27     		movs	r7, #255
 2223 0114 2368     		ldr	r3, [r4]
 2224 0116 3F04     		lsls	r7, r7, #16
 2225 0118 BB42     		cmp	r3, r7
 2226 011a 0FD0     		beq	.L119
 817:frucd_display.c ****                 // only draw rectangle if color changed
 818:frucd_display.c ****                 UG_FillFrame(x1, y1, x2, y2, color);
 2227              		.loc 1 818 0
 2228 011c 6B46     		mov	r3, sp
 2229 011e 1422     		movs	r2, #20
 2230 0120 9B5E     		ldrsh	r3, [r3, r2]
 2231 0122 9C46     		mov	ip, r3
 2232 0124 6B46     		mov	r3, sp
 2233 0126 1021     		movs	r1, #16
 2234 0128 5A5E     		ldrsh	r2, [r3, r1]
 2235 012a 0C20     		movs	r0, #12
 2236 012c 195E     		ldrsh	r1, [r3, r0]
 2237 012e 0820     		movs	r0, #8
 2238 0130 185E     		ldrsh	r0, [r3, r0]
 2239 0132 0097     		str	r7, [sp]
 2240 0134 6346     		mov	r3, ip
 2241 0136 FFF7FEFF 		bl	UG_FillFrame
 2242              	.LVL212:
 819:frucd_display.c ****                 last_shutdown_color = color;
 2243              		.loc 1 819 0
 2244 013a 2760     		str	r7, [r4]
 2245              	.L119:
 820:frucd_display.c ****             }
 821:frucd_display.c ****             UG_PutColorString(xFont, yFont, "AIR_1", C_BLACK, color);
 2246              		.loc 1 821 0
 2247 013c FF23     		movs	r3, #255
 2248 013e 1B04     		lsls	r3, r3, #16
 2249 0140 0093     		str	r3, [sp]
 2250 0142 334A     		ldr	r2, .L125+20
 2251 0144 0023     		movs	r3, #0
 2252 0146 4FE0     		b	.L123
ARM GAS  C:\Users\Melody\AppData\Local\Temp\ccuHhgp0.s 			page 57


 2253              	.LVL213:
 2254              	.L111:
 822:frucd_display.c ****             break;
 823:frucd_display.c ****         case AIR2:
 824:frucd_display.c ****             color = C_RED;
 825:frucd_display.c ****             if (color != last_shutdown_color) {
 2255              		.loc 1 825 0
 2256 0148 FF27     		movs	r7, #255
 2257 014a 2368     		ldr	r3, [r4]
 2258 014c 3F04     		lsls	r7, r7, #16
 2259 014e BB42     		cmp	r3, r7
 2260 0150 0FD0     		beq	.L120
 826:frucd_display.c ****                 // only draw rectangle if color changed
 827:frucd_display.c ****                 UG_FillFrame(x1, y1, x2, y2, color);
 2261              		.loc 1 827 0
 2262 0152 6B46     		mov	r3, sp
 2263 0154 1422     		movs	r2, #20
 2264 0156 9B5E     		ldrsh	r3, [r3, r2]
 2265 0158 9C46     		mov	ip, r3
 2266 015a 6B46     		mov	r3, sp
 2267 015c 1021     		movs	r1, #16
 2268 015e 5A5E     		ldrsh	r2, [r3, r1]
 2269 0160 0C20     		movs	r0, #12
 2270 0162 195E     		ldrsh	r1, [r3, r0]
 2271 0164 0820     		movs	r0, #8
 2272 0166 185E     		ldrsh	r0, [r3, r0]
 2273 0168 0097     		str	r7, [sp]
 2274 016a 6346     		mov	r3, ip
 2275 016c FFF7FEFF 		bl	UG_FillFrame
 2276              	.LVL214:
 828:frucd_display.c ****                 last_shutdown_color = color;
 2277              		.loc 1 828 0
 2278 0170 2760     		str	r7, [r4]
 2279              	.L120:
 829:frucd_display.c ****             }
 830:frucd_display.c ****             UG_PutColorString(xFont, yFont, "AIR_2", C_BLACK, color);
 2280              		.loc 1 830 0
 2281 0172 FF23     		movs	r3, #255
 2282 0174 1B04     		lsls	r3, r3, #16
 2283 0176 0093     		str	r3, [sp]
 2284 0178 264A     		ldr	r2, .L125+24
 2285 017a 0023     		movs	r3, #0
 2286 017c 34E0     		b	.L123
 2287              	.LVL215:
 2288              	.L110:
 831:frucd_display.c ****             break;
 832:frucd_display.c ****         case Precharge:
 833:frucd_display.c ****             color = C_RED;
 834:frucd_display.c ****             if (color != last_shutdown_color) {
 2289              		.loc 1 834 0
 2290 017e FF27     		movs	r7, #255
 2291 0180 2368     		ldr	r3, [r4]
 2292 0182 3F04     		lsls	r7, r7, #16
 2293 0184 BB42     		cmp	r3, r7
 2294 0186 0FD0     		beq	.L121
 835:frucd_display.c ****                 // only draw rectangle if color changed
 836:frucd_display.c ****                 UG_FillFrame(x1, y1, x2, y2, color);
ARM GAS  C:\Users\Melody\AppData\Local\Temp\ccuHhgp0.s 			page 58


 2295              		.loc 1 836 0
 2296 0188 6B46     		mov	r3, sp
 2297 018a 1422     		movs	r2, #20
 2298 018c 9B5E     		ldrsh	r3, [r3, r2]
 2299 018e 9C46     		mov	ip, r3
 2300 0190 6B46     		mov	r3, sp
 2301 0192 1021     		movs	r1, #16
 2302 0194 5A5E     		ldrsh	r2, [r3, r1]
 2303 0196 0C20     		movs	r0, #12
 2304 0198 195E     		ldrsh	r1, [r3, r0]
 2305 019a 0820     		movs	r0, #8
 2306 019c 185E     		ldrsh	r0, [r3, r0]
 2307 019e 0097     		str	r7, [sp]
 2308 01a0 6346     		mov	r3, ip
 2309 01a2 FFF7FEFF 		bl	UG_FillFrame
 2310              	.LVL216:
 837:frucd_display.c ****                 last_shutdown_color = color;
 2311              		.loc 1 837 0
 2312 01a6 2760     		str	r7, [r4]
 2313              	.L121:
 838:frucd_display.c ****             }
 839:frucd_display.c ****             UG_PutColorString(xFont, yFont, "Precharge", C_BLACK, color);
 2314              		.loc 1 839 0
 2315 01a8 FF23     		movs	r3, #255
 2316 01aa 1B04     		lsls	r3, r3, #16
 2317 01ac 0093     		str	r3, [sp]
 2318 01ae 1A4A     		ldr	r2, .L125+28
 2319 01b0 0023     		movs	r3, #0
 2320 01b2 19E0     		b	.L123
 2321              	.LVL217:
 2322              	.L107:
 840:frucd_display.c ****             break;
 841:frucd_display.c ****         default:
 842:frucd_display.c ****             color = C_GREEN;
 843:frucd_display.c ****             if (color != last_shutdown_color) {
 2323              		.loc 1 843 0
 2324 01b4 FF27     		movs	r7, #255
 2325 01b6 2368     		ldr	r3, [r4]
 2326 01b8 3F02     		lsls	r7, r7, #8
 2327 01ba BB42     		cmp	r3, r7
 2328 01bc 0FD0     		beq	.L122
 844:frucd_display.c ****                 // only draw rectangle if color changed
 845:frucd_display.c ****                 UG_FillFrame(x1, y1, x2, y2, color);
 2329              		.loc 1 845 0
 2330 01be 6B46     		mov	r3, sp
 2331 01c0 1422     		movs	r2, #20
 2332 01c2 9B5E     		ldrsh	r3, [r3, r2]
 2333 01c4 9C46     		mov	ip, r3
 2334 01c6 6B46     		mov	r3, sp
 2335 01c8 1021     		movs	r1, #16
 2336 01ca 5A5E     		ldrsh	r2, [r3, r1]
 2337 01cc 0C20     		movs	r0, #12
 2338 01ce 195E     		ldrsh	r1, [r3, r0]
 2339 01d0 0820     		movs	r0, #8
 2340 01d2 185E     		ldrsh	r0, [r3, r0]
 2341 01d4 0097     		str	r7, [sp]
 2342 01d6 6346     		mov	r3, ip
ARM GAS  C:\Users\Melody\AppData\Local\Temp\ccuHhgp0.s 			page 59


 2343 01d8 FFF7FEFF 		bl	UG_FillFrame
 2344              	.LVL218:
 846:frucd_display.c ****                 last_shutdown_color = color;
 2345              		.loc 1 846 0
 2346 01dc 2760     		str	r7, [r4]
 2347              	.L122:
 847:frucd_display.c ****             }
 848:frucd_display.c ****             UG_PutColorString(xFont, yFont, "None", C_BLACK, color);
 2348              		.loc 1 848 0
 2349 01de FF23     		movs	r3, #255
 2350 01e0 1B02     		lsls	r3, r3, #8
 2351 01e2 0093     		str	r3, [sp]
 2352 01e4 0023     		movs	r3, #0
 2353 01e6 0D4A     		ldr	r2, .L125+32
 2354              	.LVL219:
 2355              	.L123:
 2356 01e8 3100     		movs	r1, r6
 2357 01ea 2800     		movs	r0, r5
 2358 01ec FFF7FEFF 		bl	UG_PutColorString
 2359              	.LVL220:
 849:frucd_display.c ****             break;
 850:frucd_display.c ****     }
 851:frucd_display.c ****     
 852:frucd_display.c ****     UG_FontSelect(&FONT_12X16);
 2360              		.loc 1 852 0
 2361 01f0 0B48     		ldr	r0, .L125+36
 2362 01f2 FFF7FEFF 		bl	UG_FontSelect
 2363              	.LVL221:
 853:frucd_display.c **** }
 2364              		.loc 1 853 0
 2365 01f6 07B0     		add	sp, sp, #28
 2366              		@ sp needed
 2367 01f8 F0BD     		pop	{r4, r5, r6, r7, pc}
 2368              	.L126:
 2369 01fa C046     		.align	2
 2370              	.L125:
 2371 01fc 00000000 		.word	FONT_32X53
 2372 0200 00000000 		.word	last_shutdown_color
 2373 0204 16010000 		.word	.LC82
 2374 0208 1D010000 		.word	.LC84
 2375 020c 24010000 		.word	.LC86
 2376 0210 33010000 		.word	.LC88
 2377 0214 39010000 		.word	.LC90
 2378 0218 3F010000 		.word	.LC92
 2379 021c 49010000 		.word	.LC94
 2380 0220 00000000 		.word	FONT_12X16
 2381              		.cfi_endproc
 2382              	.LFE46:
 2383              		.size	disp_shutdown_circuit, .-disp_shutdown_circuit
 2384              		.section	.text.disp_debug,"ax",%progbits
 2385              		.align	1
 2386              		.global	disp_debug
 2387              		.code	16
 2388              		.thumb_func
 2389              		.type	disp_debug, %function
 2390              	disp_debug:
 2391              	.LFB47:
ARM GAS  C:\Users\Melody\AppData\Local\Temp\ccuHhgp0.s 			page 60


 854:frucd_display.c **** 
 855:frucd_display.c **** void disp_debug(uint16_t data, uint16_t x1, uint16_t y1, uint16_t x2, uint16_t y2, uint8_t size) {
 2392              		.loc 1 855 0
 2393              		.cfi_startproc
 2394              		@ args = 8, pretend = 0, frame = 32
 2395              		@ frame_needed = 0, uses_anonymous_args = 0
 2396              	.LVL222:
 2397 0000 F0B5     		push	{r4, r5, r6, r7, lr}
 2398              		.cfi_def_cfa_offset 20
 2399              		.cfi_offset 4, -20
 2400              		.cfi_offset 5, -16
 2401              		.cfi_offset 6, -12
 2402              		.cfi_offset 7, -8
 2403              		.cfi_offset 14, -4
 2404 0002 8BB0     		sub	sp, sp, #44
 2405              		.cfi_def_cfa_offset 64
 2406              		.loc 1 855 0
 2407 0004 1F00     		movs	r7, r3
 2408 0006 10AB     		add	r3, sp, #64
 2409              	.LVL223:
 2410 0008 1E88     		ldrh	r6, [r3]
 2411 000a 11AB     		add	r3, sp, #68
 2412              	.LVL224:
 2413 000c 1500     		movs	r5, r2
 2414 000e 1A78     		ldrb	r2, [r3]
 2415              	.LVL225:
 856:frucd_display.c ****     int xFont, yFont;
 857:frucd_display.c ****     int horizFontSize = 12 + 20*size;
 858:frucd_display.c ****     int stringSize;
 859:frucd_display.c ****     stringSize = 10;
 860:frucd_display.c ****     xFont = (x1 + x2)/2 - ((horizFontSize*stringSize)/2);
 2416              		.loc 1 860 0
 2417 0010 1423     		movs	r3, #20
 2418              	.LVL226:
 855:frucd_display.c ****     int xFont, yFont;
 2419              		.loc 1 855 0
 2420 0012 0C00     		movs	r4, r1
 2421              		.loc 1 860 0
 2422 0014 0A21     		movs	r1, #10
 2423              	.LVL227:
 2424 0016 5343     		muls	r3, r2
 2425 0018 0C33     		adds	r3, r3, #12
 2426              	.LVL228:
 2427 001a 4B43     		muls	r3, r1
 2428              	.LVL229:
 855:frucd_display.c ****     int xFont, yFont;
 2429              		.loc 1 855 0
 2430 001c 0590     		str	r0, [sp, #20]
 2431              		.loc 1 860 0
 2432 001e E019     		adds	r0, r4, r7
 2433              	.LVL230:
 2434 0020 5B10     		asrs	r3, r3, #1
 2435 0022 4010     		asrs	r0, r0, #1
 861:frucd_display.c ****     yFont = (y1 + y2)/2 - 5 - (size*17);    
 2436              		.loc 1 861 0
 2437 0024 1B39     		subs	r1, r1, #27
 860:frucd_display.c ****     yFont = (y1 + y2)/2 - 5 - (size*17);    
ARM GAS  C:\Users\Melody\AppData\Local\Temp\ccuHhgp0.s 			page 61


 2438              		.loc 1 860 0
 2439 0026 C31A     		subs	r3, r0, r3
 2440              		.loc 1 861 0
 2441 0028 5143     		muls	r1, r2
 860:frucd_display.c ****     yFont = (y1 + y2)/2 - 5 - (size*17);    
 2442              		.loc 1 860 0
 2443 002a 0393     		str	r3, [sp, #12]
 2444              	.LVL231:
 2445              		.loc 1 861 0
 2446 002c AB19     		adds	r3, r5, r6
 2447              	.LVL232:
 2448 002e 5B10     		asrs	r3, r3, #1
 2449 0030 053B     		subs	r3, r3, #5
 2450 0032 5B18     		adds	r3, r3, r1
 2451 0034 0493     		str	r3, [sp, #16]
 2452              	.LVL233:
 862:frucd_display.c ****     if(size == 1){
 2453              		.loc 1 862 0
 2454 0036 012A     		cmp	r2, #1
 2455 0038 02D1     		bne	.L128
 863:frucd_display.c ****         UG_FontSelect(&FONT_32X53);
 2456              		.loc 1 863 0
 2457 003a 1048     		ldr	r0, .L129
 2458 003c FFF7FEFF 		bl	UG_FontSelect
 2459              	.LVL234:
 2460              	.L128:
 864:frucd_display.c ****     }
 865:frucd_display.c ****     
 866:frucd_display.c ****     // choose color
 867:frucd_display.c ****     UG_COLOR color = C_GREEN_YELLOW;
 868:frucd_display.c **** 
 869:frucd_display.c ****     char data_s[10];
 870:frucd_display.c ****     sprintf(data_s, "%d", data);
 2461              		.loc 1 870 0
 2462 0040 059A     		ldr	r2, [sp, #20]
 2463 0042 0F49     		ldr	r1, .L129+4
 2464 0044 07A8     		add	r0, sp, #28
 2465 0046 FFF7FEFF 		bl	sprintf
 2466              	.LVL235:
 871:frucd_display.c ****     UG_FillFrame(x1, y1, x2, y2, color);
 2467              		.loc 1 871 0
 2468 004a 3AB2     		sxth	r2, r7
 2469 004c 0D4F     		ldr	r7, .L129+8
 2470 004e 33B2     		sxth	r3, r6
 2471 0050 29B2     		sxth	r1, r5
 2472 0052 20B2     		sxth	r0, r4
 2473 0054 0097     		str	r7, [sp]
 2474 0056 FFF7FEFF 		bl	UG_FillFrame
 2475              	.LVL236:
 872:frucd_display.c ****     UG_PutColorString(xFont, yFont, data_s, C_BLACK, color);
 2476              		.loc 1 872 0
 2477 005a 6B46     		mov	r3, sp
 2478 005c 1021     		movs	r1, #16
 2479 005e 595E     		ldrsh	r1, [r3, r1]
 2480 0060 6B46     		mov	r3, sp
 2481 0062 07AA     		add	r2, sp, #28
 2482 0064 0C20     		movs	r0, #12
ARM GAS  C:\Users\Melody\AppData\Local\Temp\ccuHhgp0.s 			page 62


 2483 0066 185E     		ldrsh	r0, [r3, r0]
 2484 0068 0023     		movs	r3, #0
 2485 006a 0097     		str	r7, [sp]
 2486 006c FFF7FEFF 		bl	UG_PutColorString
 2487              	.LVL237:
 873:frucd_display.c ****     UG_FontSelect(&FONT_12X16);
 2488              		.loc 1 873 0
 2489 0070 0548     		ldr	r0, .L129+12
 2490 0072 FFF7FEFF 		bl	UG_FontSelect
 2491              	.LVL238:
 874:frucd_display.c **** }
 2492              		.loc 1 874 0
 2493 0076 0BB0     		add	sp, sp, #44
 2494              		@ sp needed
 2495 0078 F0BD     		pop	{r4, r5, r6, r7, pc}
 2496              	.L130:
 2497 007a C046     		.align	2
 2498              	.L129:
 2499 007c 00000000 		.word	FONT_32X53
 2500 0080 60000000 		.word	.LC26
 2501 0084 2FFFAD00 		.word	11403055
 2502 0088 00000000 		.word	FONT_12X16
 2503              		.cfi_endproc
 2504              	.LFE47:
 2505              		.size	disp_debug, .-disp_debug
 2506              		.section	.text.disp_mc_fault,"ax",%progbits
 2507              		.align	1
 2508              		.global	disp_mc_fault
 2509              		.code	16
 2510              		.thumb_func
 2511              		.type	disp_mc_fault, %function
 2512              	disp_mc_fault:
 2513              	.LFB48:
 875:frucd_display.c **** 
 876:frucd_display.c **** void disp_mc_fault(uint8_t data[8], uint16_t x1, uint16_t y1, uint16_t x2, uint16_t y2, uint8_t siz
 2514              		.loc 1 876 0
 2515              		.cfi_startproc
 2516              		@ args = 8, pretend = 0, frame = 32
 2517              		@ frame_needed = 0, uses_anonymous_args = 0
 2518              	.LVL239:
 2519 0000 F0B5     		push	{r4, r5, r6, r7, lr}
 2520              		.cfi_def_cfa_offset 20
 2521              		.cfi_offset 4, -20
 2522              		.cfi_offset 5, -16
 2523              		.cfi_offset 6, -12
 2524              		.cfi_offset 7, -8
 2525              		.cfi_offset 14, -4
 2526 0002 8BB0     		sub	sp, sp, #44
 2527              		.cfi_def_cfa_offset 64
 2528              		.loc 1 876 0
 2529 0004 1E00     		movs	r6, r3
 2530 0006 10AB     		add	r3, sp, #64
 2531              	.LVL240:
 2532 0008 1F88     		ldrh	r7, [r3]
 2533 000a 11AB     		add	r3, sp, #68
 2534              	.LVL241:
 2535 000c 1500     		movs	r5, r2
ARM GAS  C:\Users\Melody\AppData\Local\Temp\ccuHhgp0.s 			page 63


 2536 000e 1A78     		ldrb	r2, [r3]
 2537              	.LVL242:
 877:frucd_display.c ****     int xFont, yFont;
 878:frucd_display.c ****     int horizFontSize = 12 + 20*size;
 879:frucd_display.c ****     int stringSize;
 880:frucd_display.c ****     stringSize = 10;
 881:frucd_display.c ****     xFont = (x1 + x2)/2 - ((horizFontSize*stringSize)/2);
 2538              		.loc 1 881 0
 2539 0010 1423     		movs	r3, #20
 2540              	.LVL243:
 876:frucd_display.c ****     int xFont, yFont;
 2541              		.loc 1 876 0
 2542 0012 0C00     		movs	r4, r1
 2543              		.loc 1 881 0
 2544 0014 0A21     		movs	r1, #10
 2545              	.LVL244:
 2546 0016 5343     		muls	r3, r2
 2547 0018 0C33     		adds	r3, r3, #12
 2548              	.LVL245:
 2549 001a 4B43     		muls	r3, r1
 2550              	.LVL246:
 876:frucd_display.c ****     int xFont, yFont;
 2551              		.loc 1 876 0
 2552 001c 0590     		str	r0, [sp, #20]
 2553              		.loc 1 881 0
 2554 001e A019     		adds	r0, r4, r6
 2555              	.LVL247:
 2556 0020 5B10     		asrs	r3, r3, #1
 2557 0022 4010     		asrs	r0, r0, #1
 882:frucd_display.c ****     yFont = (y1 + y2)/2 - 5 - (size*17);    
 2558              		.loc 1 882 0
 2559 0024 1B39     		subs	r1, r1, #27
 881:frucd_display.c ****     yFont = (y1 + y2)/2 - 5 - (size*17);    
 2560              		.loc 1 881 0
 2561 0026 C31A     		subs	r3, r0, r3
 2562              		.loc 1 882 0
 2563 0028 5143     		muls	r1, r2
 881:frucd_display.c ****     yFont = (y1 + y2)/2 - 5 - (size*17);    
 2564              		.loc 1 881 0
 2565 002a 0393     		str	r3, [sp, #12]
 2566              	.LVL248:
 2567              		.loc 1 882 0
 2568 002c EB19     		adds	r3, r5, r7
 2569              	.LVL249:
 2570 002e 5B10     		asrs	r3, r3, #1
 2571 0030 053B     		subs	r3, r3, #5
 2572 0032 5B18     		adds	r3, r3, r1
 2573 0034 0493     		str	r3, [sp, #16]
 2574              	.LVL250:
 883:frucd_display.c ****     if(size == 1){
 2575              		.loc 1 883 0
 2576 0036 012A     		cmp	r2, #1
 2577 0038 02D1     		bne	.L132
 884:frucd_display.c ****         UG_FontSelect(&FONT_32X53);
 2578              		.loc 1 884 0
 2579 003a 1548     		ldr	r0, .L136
 2580 003c FFF7FEFF 		bl	UG_FontSelect
ARM GAS  C:\Users\Melody\AppData\Local\Temp\ccuHhgp0.s 			page 64


 2581              	.LVL251:
 2582              	.L132:
 876:frucd_display.c ****     int xFont, yFont;
 2583              		.loc 1 876 0
 2584 0040 0021     		movs	r1, #0
 2585              	.LVL252:
 2586              	.L134:
 885:frucd_display.c ****     }
 886:frucd_display.c ****     
 887:frucd_display.c ****     // choose color
 888:frucd_display.c ****     UG_COLOR color = C_GREEN;
 889:frucd_display.c ****     
 890:frucd_display.c ****     uint8_t printed_data = 0; 
 891:frucd_display.c ****     uint8_t i = 0;
 892:frucd_display.c ****     for (; i < 8; i++) {
 893:frucd_display.c ****         if (data[i] > 0) {
 2587              		.loc 1 893 0
 2588 0042 059B     		ldr	r3, [sp, #20]
 2589 0044 CAB2     		uxtb	r2, r1
 2590              	.LVL253:
 2591 0046 5B5C     		ldrb	r3, [r3, r1]
 2592 0048 002B     		cmp	r3, #0
 2593 004a 03D1     		bne	.L133
 2594              	.LVL254:
 2595 004c 0131     		adds	r1, r1, #1
 2596              	.LVL255:
 892:frucd_display.c ****         if (data[i] > 0) {
 2597              		.loc 1 892 0
 2598 004e 0829     		cmp	r1, #8
 2599 0050 F7D1     		bne	.L134
 2600 0052 0A00     		movs	r2, r1
 2601              	.LVL256:
 2602              	.L133:
 894:frucd_display.c ****             printed_data = data[i];
 895:frucd_display.c ****             break;
 896:frucd_display.c ****         }
 897:frucd_display.c ****     }
 898:frucd_display.c **** 
 899:frucd_display.c ****     char data_s[10];
 900:frucd_display.c ****     sprintf(data_s, "%d:%d", i, printed_data);
 2603              		.loc 1 900 0
 2604 0054 0F49     		ldr	r1, .L136+4
 2605 0056 07A8     		add	r0, sp, #28
 2606 0058 FFF7FEFF 		bl	sprintf
 2607              	.LVL257:
 901:frucd_display.c ****     UG_FillFrame(x1, y1, x2, y2, color);
 2608              		.loc 1 901 0
 2609 005c 32B2     		sxth	r2, r6
 2610 005e FF26     		movs	r6, #255
 2611 0060 3602     		lsls	r6, r6, #8
 2612 0062 3BB2     		sxth	r3, r7
 2613 0064 29B2     		sxth	r1, r5
 2614 0066 20B2     		sxth	r0, r4
 2615 0068 0096     		str	r6, [sp]
 2616 006a FFF7FEFF 		bl	UG_FillFrame
 2617              	.LVL258:
 902:frucd_display.c ****     UG_PutColorString(xFont, yFont, data_s, C_BLACK, color);
ARM GAS  C:\Users\Melody\AppData\Local\Temp\ccuHhgp0.s 			page 65


 2618              		.loc 1 902 0
 2619 006e 6B46     		mov	r3, sp
 2620 0070 1021     		movs	r1, #16
 2621 0072 595E     		ldrsh	r1, [r3, r1]
 2622 0074 6B46     		mov	r3, sp
 2623 0076 07AA     		add	r2, sp, #28
 2624 0078 0C20     		movs	r0, #12
 2625 007a 185E     		ldrsh	r0, [r3, r0]
 2626 007c 0023     		movs	r3, #0
 2627 007e 0096     		str	r6, [sp]
 2628 0080 FFF7FEFF 		bl	UG_PutColorString
 2629              	.LVL259:
 903:frucd_display.c ****     UG_FontSelect(&FONT_12X16);
 2630              		.loc 1 903 0
 2631 0084 0448     		ldr	r0, .L136+8
 2632 0086 FFF7FEFF 		bl	UG_FontSelect
 2633              	.LVL260:
 904:frucd_display.c **** }
 2634              		.loc 1 904 0
 2635 008a 0BB0     		add	sp, sp, #44
 2636              		@ sp needed
 2637 008c F0BD     		pop	{r4, r5, r6, r7, pc}
 2638              	.L137:
 2639 008e C046     		.align	2
 2640              	.L136:
 2641 0090 00000000 		.word	FONT_32X53
 2642 0094 4E010000 		.word	.LC103
 2643 0098 00000000 		.word	FONT_12X16
 2644              		.cfi_endproc
 2645              	.LFE48:
 2646              		.size	disp_mc_fault, .-disp_mc_fault
 2647              		.comm	last_shutdown_color,4,4
 2648              		.comm	last_motor_temp_color,4,4
 2649              		.comm	last_mc_temp_color,4,4
 2650              		.comm	last_glv_v_color,4,4
 2651              		.comm	last_state_color,4,4
 2652              		.comm	last_max_pack_temp_color,4,4
 2653              		.comm	last_SOC_color,4,4
 2654              		.comm	gui1963,120,4
 2655              		.section	.rodata.str1.1,"aMS",%progbits,1
 2656              	.LC0:
 2657 0000 5041434B 		.ascii	"PACK SOC:\000"
 2657      20534F43 
 2657      3A00
 2658              	.LC2:
 2659 000a 4D415820 		.ascii	"MAX PACK T:\000"
 2659      5041434B 
 2659      20543A00 
 2660              	.LC4:
 2661 0016 53544154 		.ascii	"STATE:\000"
 2661      453A00
 2662              	.LC6:
 2663 001d 4D432054 		.ascii	"MC T:\000"
 2663      3A00
 2664              	.LC8:
 2665 0023 474C5620 		.ascii	"GLV V:\000"
 2665      563A00
ARM GAS  C:\Users\Melody\AppData\Local\Temp\ccuHhgp0.s 			page 66


 2666              	.LC10:
 2667 002a 4D4F544F 		.ascii	"MOTOR T:\000"
 2667      5220543A 
 2667      00
 2668              	.LC12:
 2669 0033 53485554 		.ascii	"SHUTDOWN:\000"
 2669      444F574E 
 2669      3A00
 2670              	.LC14:
 2671 003d 4D432046 		.ascii	"MC FAULT:\000"
 2671      41554C54 
 2671      3A00
 2672              	.LC16:
 2673 0047 5041434B 		.ascii	"PACK SOC\000"
 2673      20534F43 
 2673      00
 2674              	.LC18:
 2675 0050 4D415820 		.ascii	"MAX PACK T\000"
 2675      5041434B 
 2675      205400
 2676              	.LC24:
 2677 005b 31303025 		.ascii	"100%\000"
 2677      00
 2678              	.LC26:
 2679 0060 256400   		.ascii	"%d\000"
 2680              	.LC31:
 2681 0063 25642043 		.ascii	"%d C\000"
 2681      00
 2682              	.LC36:
 2683 0068 20535441 		.ascii	" STARTUP  \000"
 2683      52545550 
 2683      202000
 2684              	.LC38:
 2685 0073 44525620 		.ascii	"DRV FRM LV\000"
 2685      46524D20 
 2685      4C5600
 2686              	.LC40:
 2687 007e 50524520 		.ascii	"PRE TM OUT\000"
 2687      544D204F 
 2687      555400
 2688              	.LC42:
 2689 0089 4252204E 		.ascii	"BR NOT PRS\000"
 2689      4F542050 
 2689      525300
 2690              	.LC44:
 2691 0094 4856204F 		.ascii	"HV OFF DRV\000"
 2691      46462044 
 2691      525600
 2692              	.LC46:
 2693 009f 534E5352 		.ascii	"SNSR DSCRP\000"
 2693      20445343 
 2693      525000
 2694              	.LC48:
 2695 00aa 42535044 		.ascii	"BSPD TRIPD\000"
 2695      20545249 
 2695      504400
 2696              	.LC50:
ARM GAS  C:\Users\Melody\AppData\Local\Temp\ccuHhgp0.s 			page 67


 2697 00b5 53485444 		.ascii	"SHTDWN OPN\000"
 2697      574E204F 
 2697      504E00
 2698              	.LC52:
 2699 00c0 554E4341 		.ascii	"UNCALIBRTD\000"
 2699      4C494252 
 2699      544400
 2700              	.LC54:
 2701 00cb 48415244 		.ascii	"HARD BSPD\000"
 2701      20425350 
 2701      4400
 2702              	.LC56:
 2703 00d5 4D432046 		.ascii	"MC FAULT\000"
 2703      41554C54 
 2703      00
 2704              	.LC58:
 2705 00de 594F2057 		.ascii	"YO WTF?\000"
 2705      54463F00 
 2706              	.LC60:
 2707 00e6 20202020 		.ascii	"    LV    \000"
 2707      4C562020 
 2707      202000
 2708              	.LC62:
 2709 00f1 50524543 		.ascii	"PRECHARGE \000"
 2709      48415247 
 2709      452000
 2710              	.LC64:
 2711 00fc 48562045 		.ascii	"HV ENABLED\000"
 2711      4E41424C 
 2711      454400
 2712              	.LC66:
 2713 0107 20204452 		.ascii	"  DRIVE   \000"
 2713      49564520 
 2713      202000
 2714              	.LC71:
 2715 0112 256C7500 		.ascii	"%lu\000"
 2716              	.LC82:
 2717 0116 494D445F 		.ascii	"IMD_OK\000"
 2717      4F4B00
 2718              	.LC84:
 2719 011d 424D535F 		.ascii	"BMS_OK\000"
 2719      4F4B00
 2720              	.LC86:
 2721 0124 53687574 		.ascii	"Shutdown_Final\000"
 2721      646F776E 
 2721      5F46696E 
 2721      616C00
 2722              	.LC88:
 2723 0133 4149525F 		.ascii	"AIR_1\000"
 2723      3100
 2724              	.LC90:
 2725 0139 4149525F 		.ascii	"AIR_2\000"
 2725      3200
 2726              	.LC92:
 2727 013f 50726563 		.ascii	"Precharge\000"
 2727      68617267 
 2727      6500
ARM GAS  C:\Users\Melody\AppData\Local\Temp\ccuHhgp0.s 			page 68


 2728              	.LC94:
 2729 0149 4E6F6E65 		.ascii	"None\000"
 2729      00
 2730              	.LC103:
 2731 014e 25643A25 		.ascii	"%d:%d\000"
 2731      6400
 2732              		.text
 2733              	.Letext0:
 2734              		.file 2 "c:\\program files (x86)\\cypress\\psoc creator\\4.4\\psoc creator\\import\\gnu\\arm\\5.4.
 2735              		.file 3 "c:\\program files (x86)\\cypress\\psoc creator\\4.4\\psoc creator\\import\\gnu\\arm\\5.4.
 2736              		.file 4 "Generated_Source\\PSoC4/cytypes.h"
 2737              		.file 5 "data.h"
 2738              		.file 6 "ugui_config.h"
 2739              		.file 7 "ugui.h"
 2740              		.file 8 "ugui_SSD1963.h"
 2741              		.file 9 "frucd_display.h"
 2742              		.file 10 "Generated_Source\\PSoC4/CyLib.h"
 2743              		.file 11 "c:\\program files (x86)\\cypress\\psoc creator\\4.4\\psoc creator\\import\\gnu\\arm\\5.4
 2744              		.section	.debug_info,"",%progbits
 2745              	.Ldebug_info0:
 2746 0000 E41B0000 		.4byte	0x1be4
 2747 0004 0400     		.2byte	0x4
 2748 0006 00000000 		.4byte	.Ldebug_abbrev0
 2749 000a 04       		.byte	0x4
 2750 000b 01       		.uleb128 0x1
 2751 000c C3050000 		.4byte	.LASF149
 2752 0010 0C       		.byte	0xc
 2753 0011 C4060000 		.4byte	.LASF150
 2754 0015 8C040000 		.4byte	.LASF151
 2755 0019 18000000 		.4byte	.Ldebug_ranges0+0x18
 2756 001d 00000000 		.4byte	0
 2757 0021 00000000 		.4byte	.Ldebug_line0
 2758 0025 02       		.uleb128 0x2
 2759 0026 CC030000 		.4byte	.LASF0
 2760 002a 02       		.byte	0x2
 2761 002b 1B       		.byte	0x1b
 2762 002c 30000000 		.4byte	0x30
 2763 0030 03       		.uleb128 0x3
 2764 0031 01       		.byte	0x1
 2765 0032 06       		.byte	0x6
 2766 0033 A5060000 		.4byte	.LASF2
 2767 0037 02       		.uleb128 0x2
 2768 0038 82040000 		.4byte	.LASF1
 2769 003c 02       		.byte	0x2
 2770 003d 1D       		.byte	0x1d
 2771 003e 42000000 		.4byte	0x42
 2772 0042 03       		.uleb128 0x3
 2773 0043 01       		.byte	0x1
 2774 0044 08       		.byte	0x8
 2775 0045 78050000 		.4byte	.LASF3
 2776 0049 02       		.uleb128 0x2
 2777 004a 72030000 		.4byte	.LASF4
 2778 004e 02       		.byte	0x2
 2779 004f 29       		.byte	0x29
 2780 0050 54000000 		.4byte	0x54
 2781 0054 03       		.uleb128 0x3
 2782 0055 02       		.byte	0x2
ARM GAS  C:\Users\Melody\AppData\Local\Temp\ccuHhgp0.s 			page 69


 2783 0056 05       		.byte	0x5
 2784 0057 33040000 		.4byte	.LASF5
 2785 005b 02       		.uleb128 0x2
 2786 005c 82010000 		.4byte	.LASF6
 2787 0060 02       		.byte	0x2
 2788 0061 2B       		.byte	0x2b
 2789 0062 66000000 		.4byte	0x66
 2790 0066 03       		.uleb128 0x3
 2791 0067 02       		.byte	0x2
 2792 0068 07       		.byte	0x7
 2793 0069 B1060000 		.4byte	.LASF7
 2794 006d 03       		.uleb128 0x3
 2795 006e 04       		.byte	0x4
 2796 006f 05       		.byte	0x5
 2797 0070 4E040000 		.4byte	.LASF8
 2798 0074 02       		.uleb128 0x2
 2799 0075 86050000 		.4byte	.LASF9
 2800 0079 02       		.byte	0x2
 2801 007a 41       		.byte	0x41
 2802 007b 7F000000 		.4byte	0x7f
 2803 007f 03       		.uleb128 0x3
 2804 0080 04       		.byte	0x4
 2805 0081 07       		.byte	0x7
 2806 0082 0F050000 		.4byte	.LASF10
 2807 0086 03       		.uleb128 0x3
 2808 0087 08       		.byte	0x8
 2809 0088 05       		.byte	0x5
 2810 0089 4B030000 		.4byte	.LASF11
 2811 008d 03       		.uleb128 0x3
 2812 008e 08       		.byte	0x8
 2813 008f 07       		.byte	0x7
 2814 0090 5B010000 		.4byte	.LASF12
 2815 0094 04       		.uleb128 0x4
 2816 0095 04       		.byte	0x4
 2817 0096 05       		.byte	0x5
 2818 0097 696E7400 		.ascii	"int\000"
 2819 009b 03       		.uleb128 0x3
 2820 009c 04       		.byte	0x4
 2821 009d 07       		.byte	0x7
 2822 009e 4F000000 		.4byte	.LASF13
 2823 00a2 02       		.uleb128 0x2
 2824 00a3 0B010000 		.4byte	.LASF14
 2825 00a7 03       		.byte	0x3
 2826 00a8 14       		.byte	0x14
 2827 00a9 25000000 		.4byte	0x25
 2828 00ad 02       		.uleb128 0x2
 2829 00ae 20030000 		.4byte	.LASF15
 2830 00b2 03       		.byte	0x3
 2831 00b3 18       		.byte	0x18
 2832 00b4 37000000 		.4byte	0x37
 2833 00b8 02       		.uleb128 0x2
 2834 00b9 48010000 		.4byte	.LASF16
 2835 00bd 03       		.byte	0x3
 2836 00be 20       		.byte	0x20
 2837 00bf 49000000 		.4byte	0x49
 2838 00c3 02       		.uleb128 0x2
 2839 00c4 FD030000 		.4byte	.LASF17
ARM GAS  C:\Users\Melody\AppData\Local\Temp\ccuHhgp0.s 			page 70


 2840 00c8 03       		.byte	0x3
 2841 00c9 24       		.byte	0x24
 2842 00ca 5B000000 		.4byte	0x5b
 2843 00ce 02       		.uleb128 0x2
 2844 00cf 02010000 		.4byte	.LASF18
 2845 00d3 03       		.byte	0x3
 2846 00d4 30       		.byte	0x30
 2847 00d5 74000000 		.4byte	0x74
 2848 00d9 05       		.uleb128 0x5
 2849 00da E1060000 		.4byte	.LASF19
 2850 00de 04       		.byte	0x4
 2851 00df FC01     		.2byte	0x1fc
 2852 00e1 42000000 		.4byte	0x42
 2853 00e5 03       		.uleb128 0x3
 2854 00e6 04       		.byte	0x4
 2855 00e7 04       		.byte	0x4
 2856 00e8 1F010000 		.4byte	.LASF20
 2857 00ec 03       		.uleb128 0x3
 2858 00ed 08       		.byte	0x8
 2859 00ee 04       		.byte	0x4
 2860 00ef E7060000 		.4byte	.LASF21
 2861 00f3 03       		.uleb128 0x3
 2862 00f4 01       		.byte	0x1
 2863 00f5 08       		.byte	0x8
 2864 00f6 C6020000 		.4byte	.LASF22
 2865 00fa 03       		.uleb128 0x3
 2866 00fb 08       		.byte	0x8
 2867 00fc 04       		.byte	0x4
 2868 00fd E9030000 		.4byte	.LASF23
 2869 0101 03       		.uleb128 0x3
 2870 0102 04       		.byte	0x4
 2871 0103 07       		.byte	0x7
 2872 0104 06050000 		.4byte	.LASF24
 2873 0108 06       		.uleb128 0x6
 2874 0109 04       		.byte	0x4
 2875 010a 07       		.uleb128 0x7
 2876 010b 04       		.byte	0x4
 2877 010c F3000000 		.4byte	0xf3
 2878 0110 07       		.uleb128 0x7
 2879 0111 04       		.byte	0x4
 2880 0112 42000000 		.4byte	0x42
 2881 0116 08       		.uleb128 0x8
 2882 0117 01       		.byte	0x1
 2883 0118 42000000 		.4byte	0x42
 2884 011c 05       		.byte	0x5
 2885 011d 09       		.byte	0x9
 2886 011e 40010000 		.4byte	0x140
 2887 0122 09       		.uleb128 0x9
 2888 0123 4C5600   		.ascii	"LV\000"
 2889 0126 00       		.byte	0
 2890 0127 0A       		.uleb128 0xa
 2891 0128 BA030000 		.4byte	.LASF25
 2892 012c 01       		.byte	0x1
 2893 012d 0A       		.uleb128 0xa
 2894 012e AB020000 		.4byte	.LASF26
 2895 0132 02       		.byte	0x2
 2896 0133 0A       		.uleb128 0xa
ARM GAS  C:\Users\Melody\AppData\Local\Temp\ccuHhgp0.s 			page 71


 2897 0134 42010000 		.4byte	.LASF27
 2898 0138 03       		.byte	0x3
 2899 0139 0A       		.uleb128 0xa
 2900 013a BD050000 		.4byte	.LASF28
 2901 013e 80       		.byte	0x80
 2902 013f 00       		.byte	0
 2903 0140 08       		.uleb128 0x8
 2904 0141 01       		.byte	0x1
 2905 0142 42000000 		.4byte	0x42
 2906 0146 05       		.byte	0x5
 2907 0147 11       		.byte	0x11
 2908 0148 8F010000 		.4byte	0x18f
 2909 014c 0A       		.uleb128 0xa
 2910 014d 69000000 		.4byte	.LASF29
 2911 0151 00       		.byte	0
 2912 0152 0A       		.uleb128 0xa
 2913 0153 FC060000 		.4byte	.LASF30
 2914 0157 01       		.byte	0x1
 2915 0158 0A       		.uleb128 0xa
 2916 0159 CB020000 		.4byte	.LASF31
 2917 015d 02       		.byte	0x2
 2918 015e 0A       		.uleb128 0xa
 2919 015f E6010000 		.4byte	.LASF32
 2920 0163 03       		.byte	0x3
 2921 0164 0A       		.uleb128 0xa
 2922 0165 36020000 		.4byte	.LASF33
 2923 0169 04       		.byte	0x4
 2924 016a 0A       		.uleb128 0xa
 2925 016b 94000000 		.4byte	.LASF34
 2926 016f 05       		.byte	0x5
 2927 0170 0A       		.uleb128 0xa
 2928 0171 C1000000 		.4byte	.LASF35
 2929 0175 06       		.byte	0x6
 2930 0176 0A       		.uleb128 0xa
 2931 0177 95020000 		.4byte	.LASF36
 2932 017b 07       		.byte	0x7
 2933 017c 0A       		.uleb128 0xa
 2934 017d B4000000 		.4byte	.LASF37
 2935 0181 08       		.byte	0x8
 2936 0182 0A       		.uleb128 0xa
 2937 0183 6A020000 		.4byte	.LASF38
 2938 0187 09       		.byte	0x9
 2939 0188 0A       		.uleb128 0xa
 2940 0189 D3000000 		.4byte	.LASF39
 2941 018d 0A       		.byte	0xa
 2942 018e 00       		.byte	0
 2943 018f 08       		.uleb128 0x8
 2944 0190 01       		.byte	0x1
 2945 0191 42000000 		.4byte	0x42
 2946 0195 05       		.byte	0x5
 2947 0196 1F       		.byte	0x1f
 2948 0197 C0010000 		.4byte	0x1c0
 2949 019b 0A       		.uleb128 0xa
 2950 019c 1E000000 		.4byte	.LASF40
 2951 01a0 20       		.byte	0x20
 2952 01a1 0A       		.uleb128 0xa
 2953 01a2 3A050000 		.4byte	.LASF41
ARM GAS  C:\Users\Melody\AppData\Local\Temp\ccuHhgp0.s 			page 72


 2954 01a6 10       		.byte	0x10
 2955 01a7 0A       		.uleb128 0xa
 2956 01a8 85000000 		.4byte	.LASF42
 2957 01ac 08       		.byte	0x8
 2958 01ad 0A       		.uleb128 0xa
 2959 01ae 16030000 		.4byte	.LASF43
 2960 01b2 04       		.byte	0x4
 2961 01b3 0A       		.uleb128 0xa
 2962 01b4 1B030000 		.4byte	.LASF44
 2963 01b8 02       		.byte	0x2
 2964 01b9 0A       		.uleb128 0xa
 2965 01ba 35030000 		.4byte	.LASF45
 2966 01be 01       		.byte	0x1
 2967 01bf 00       		.byte	0
 2968 01c0 02       		.uleb128 0x2
 2969 01c1 C6030000 		.4byte	.LASF46
 2970 01c5 06       		.byte	0x6
 2971 01c6 26       		.byte	0x26
 2972 01c7 AD000000 		.4byte	0xad
 2973 01cb 02       		.uleb128 0x2
 2974 01cc 3F030000 		.4byte	.LASF47
 2975 01d0 06       		.byte	0x6
 2976 01d1 27       		.byte	0x27
 2977 01d2 A2000000 		.4byte	0xa2
 2978 01d6 02       		.uleb128 0x2
 2979 01d7 48000000 		.4byte	.LASF48
 2980 01db 06       		.byte	0x6
 2981 01dc 28       		.byte	0x28
 2982 01dd C3000000 		.4byte	0xc3
 2983 01e1 02       		.uleb128 0x2
 2984 01e2 A2010000 		.4byte	.LASF49
 2985 01e6 06       		.byte	0x6
 2986 01e7 29       		.byte	0x29
 2987 01e8 B8000000 		.4byte	0xb8
 2988 01ec 02       		.uleb128 0x2
 2989 01ed 12010000 		.4byte	.LASF50
 2990 01f1 06       		.byte	0x6
 2991 01f2 2A       		.byte	0x2a
 2992 01f3 CE000000 		.4byte	0xce
 2993 01f7 08       		.uleb128 0x8
 2994 01f8 01       		.byte	0x1
 2995 01f9 42000000 		.4byte	0x42
 2996 01fd 07       		.byte	0x7
 2997 01fe 1F       		.byte	0x1f
 2998 01ff 10020000 		.4byte	0x210
 2999 0203 0A       		.uleb128 0xa
 3000 0204 2D070000 		.4byte	.LASF51
 3001 0208 00       		.byte	0
 3002 0209 0A       		.uleb128 0xa
 3003 020a 0F000000 		.4byte	.LASF52
 3004 020e 01       		.byte	0x1
 3005 020f 00       		.byte	0
 3006 0210 02       		.uleb128 0x2
 3007 0211 F4020000 		.4byte	.LASF53
 3008 0215 07       		.byte	0x7
 3009 0216 22       		.byte	0x22
 3010 0217 F7010000 		.4byte	0x1f7
ARM GAS  C:\Users\Melody\AppData\Local\Temp\ccuHhgp0.s 			page 73


 3011 021b 0B       		.uleb128 0xb
 3012 021c 14       		.byte	0x14
 3013 021d 07       		.byte	0x7
 3014 021e 24       		.byte	0x24
 3015 021f 76020000 		.4byte	0x276
 3016 0223 0C       		.uleb128 0xc
 3017 0224 7000     		.ascii	"p\000"
 3018 0226 07       		.byte	0x7
 3019 0227 26       		.byte	0x26
 3020 0228 10010000 		.4byte	0x110
 3021 022c 00       		.byte	0
 3022 022d 0D       		.uleb128 0xd
 3023 022e EA020000 		.4byte	.LASF54
 3024 0232 07       		.byte	0x7
 3025 0233 27       		.byte	0x27
 3026 0234 10020000 		.4byte	0x210
 3027 0238 04       		.byte	0x4
 3028 0239 0D       		.uleb128 0xd
 3029 023a 2B020000 		.4byte	.LASF55
 3030 023e 07       		.byte	0x7
 3031 023f 28       		.byte	0x28
 3032 0240 E1010000 		.4byte	0x1e1
 3033 0244 06       		.byte	0x6
 3034 0245 0D       		.uleb128 0xd
 3035 0246 27040000 		.4byte	.LASF56
 3036 024a 07       		.byte	0x7
 3037 024b 29       		.byte	0x29
 3038 024c E1010000 		.4byte	0x1e1
 3039 0250 08       		.byte	0x8
 3040 0251 0D       		.uleb128 0xd
 3041 0252 AF030000 		.4byte	.LASF57
 3042 0256 07       		.byte	0x7
 3043 0257 2A       		.byte	0x2a
 3044 0258 D6010000 		.4byte	0x1d6
 3045 025c 0A       		.byte	0xa
 3046 025d 0D       		.uleb128 0xd
 3047 025e 71040000 		.4byte	.LASF58
 3048 0262 07       		.byte	0x7
 3049 0263 2B       		.byte	0x2b
 3050 0264 D6010000 		.4byte	0x1d6
 3051 0268 0C       		.byte	0xc
 3052 0269 0D       		.uleb128 0xd
 3053 026a D5030000 		.4byte	.LASF59
 3054 026e 07       		.byte	0x7
 3055 026f 2C       		.byte	0x2c
 3056 0270 76020000 		.4byte	0x276
 3057 0274 10       		.byte	0x10
 3058 0275 00       		.byte	0
 3059 0276 07       		.uleb128 0x7
 3060 0277 04       		.byte	0x4
 3061 0278 C0010000 		.4byte	0x1c0
 3062 027c 02       		.uleb128 0x2
 3063 027d 7A040000 		.4byte	.LASF60
 3064 0281 07       		.byte	0x7
 3065 0282 2D       		.byte	0x2d
 3066 0283 1B020000 		.4byte	0x21b
 3067 0287 02       		.uleb128 0x2
ARM GAS  C:\Users\Melody\AppData\Local\Temp\ccuHhgp0.s 			page 74


 3068 0288 7C030000 		.4byte	.LASF61
 3069 028c 07       		.byte	0x7
 3070 028d 66       		.byte	0x66
 3071 028e 92020000 		.4byte	0x292
 3072 0292 0E       		.uleb128 0xe
 3073 0293 12070000 		.4byte	.LASF71
 3074 0297 20       		.byte	0x20
 3075 0298 07       		.byte	0x7
 3076 0299 F7       		.byte	0xf7
 3077 029a 0C030000 		.4byte	0x30c
 3078 029e 0D       		.uleb128 0xd
 3079 029f 6A060000 		.4byte	.LASF62
 3080 02a3 07       		.byte	0x7
 3081 02a4 F9       		.byte	0xf9
 3082 02a5 C0010000 		.4byte	0x1c0
 3083 02a9 00       		.byte	0
 3084 02aa 0D       		.uleb128 0xd
 3085 02ab 33000000 		.4byte	.LASF63
 3086 02af 07       		.byte	0x7
 3087 02b0 FA       		.byte	0xfa
 3088 02b1 C0010000 		.4byte	0x1c0
 3089 02b5 01       		.byte	0x1
 3090 02b6 0D       		.uleb128 0xd
 3091 02b7 A7000000 		.4byte	.LASF64
 3092 02bb 07       		.byte	0x7
 3093 02bc FB       		.byte	0xfb
 3094 02bd B1040000 		.4byte	0x4b1
 3095 02c1 04       		.byte	0x4
 3096 02c2 0D       		.uleb128 0xd
 3097 02c3 21070000 		.4byte	.LASF65
 3098 02c7 07       		.byte	0x7
 3099 02c8 FC       		.byte	0xfc
 3100 02c9 FA030000 		.4byte	0x3fa
 3101 02cd 08       		.byte	0x8
 3102 02ce 0D       		.uleb128 0xd
 3103 02cf 96060000 		.4byte	.LASF66
 3104 02d3 07       		.byte	0x7
 3105 02d4 FD       		.byte	0xfd
 3106 02d5 FA030000 		.4byte	0x3fa
 3107 02d9 10       		.byte	0x10
 3108 02da 0D       		.uleb128 0xd
 3109 02db 73050000 		.4byte	.LASF67
 3110 02df 07       		.byte	0x7
 3111 02e0 FE       		.byte	0xfe
 3112 02e1 C0010000 		.4byte	0x1c0
 3113 02e5 18       		.byte	0x18
 3114 02e6 0C       		.uleb128 0xc
 3115 02e7 696400   		.ascii	"id\000"
 3116 02ea 07       		.byte	0x7
 3117 02eb FF       		.byte	0xff
 3118 02ec C0010000 		.4byte	0x1c0
 3119 02f0 19       		.byte	0x19
 3120 02f1 0F       		.uleb128 0xf
 3121 02f2 25010000 		.4byte	.LASF68
 3122 02f6 07       		.byte	0x7
 3123 02f7 0001     		.2byte	0x100
 3124 02f9 C0010000 		.4byte	0x1c0
ARM GAS  C:\Users\Melody\AppData\Local\Temp\ccuHhgp0.s 			page 75


 3125 02fd 1A       		.byte	0x1a
 3126 02fe 0F       		.uleb128 0xf
 3127 02ff 11030000 		.4byte	.LASF69
 3128 0303 07       		.byte	0x7
 3129 0304 0101     		.2byte	0x101
 3130 0306 08010000 		.4byte	0x108
 3131 030a 1C       		.byte	0x1c
 3132 030b 00       		.byte	0
 3133 030c 02       		.uleb128 0x2
 3134 030d 57040000 		.4byte	.LASF70
 3135 0311 07       		.byte	0x7
 3136 0312 67       		.byte	0x67
 3137 0313 17030000 		.4byte	0x317
 3138 0317 10       		.uleb128 0x10
 3139 0318 7C000000 		.4byte	.LASF72
 3140 031c 44       		.byte	0x44
 3141 031d 07       		.byte	0x7
 3142 031e 4101     		.2byte	0x141
 3143 0320 BA030000 		.4byte	0x3ba
 3144 0324 0F       		.uleb128 0xf
 3145 0325 9B010000 		.4byte	.LASF73
 3146 0329 07       		.byte	0x7
 3147 032a 4301     		.2byte	0x143
 3148 032c C0010000 		.4byte	0x1c0
 3149 0330 00       		.byte	0
 3150 0331 0F       		.uleb128 0xf
 3151 0332 E9000000 		.4byte	.LASF74
 3152 0336 07       		.byte	0x7
 3153 0337 4401     		.2byte	0x144
 3154 0339 AB040000 		.4byte	0x4ab
 3155 033d 04       		.byte	0x4
 3156 033e 0F       		.uleb128 0xf
 3157 033f 6A060000 		.4byte	.LASF62
 3158 0343 07       		.byte	0x7
 3159 0344 4501     		.2byte	0x145
 3160 0346 C0010000 		.4byte	0x1c0
 3161 034a 08       		.byte	0x8
 3162 034b 11       		.uleb128 0x11
 3163 034c 666300   		.ascii	"fc\000"
 3164 034f 07       		.byte	0x7
 3165 0350 4601     		.2byte	0x146
 3166 0352 BA030000 		.4byte	0x3ba
 3167 0356 0C       		.byte	0xc
 3168 0357 11       		.uleb128 0x11
 3169 0358 626300   		.ascii	"bc\000"
 3170 035b 07       		.byte	0x7
 3171 035c 4701     		.2byte	0x147
 3172 035e BA030000 		.4byte	0x3ba
 3173 0362 10       		.byte	0x10
 3174 0363 11       		.uleb128 0x11
 3175 0364 787300   		.ascii	"xs\000"
 3176 0367 07       		.byte	0x7
 3177 0368 4801     		.2byte	0x148
 3178 036a E1010000 		.4byte	0x1e1
 3179 036e 14       		.byte	0x14
 3180 036f 11       		.uleb128 0x11
 3181 0370 797300   		.ascii	"ys\000"
ARM GAS  C:\Users\Melody\AppData\Local\Temp\ccuHhgp0.s 			page 76


 3182 0373 07       		.byte	0x7
 3183 0374 4901     		.2byte	0x149
 3184 0376 E1010000 		.4byte	0x1e1
 3185 037a 16       		.byte	0x16
 3186 037b 11       		.uleb128 0x11
 3187 037c 786500   		.ascii	"xe\000"
 3188 037f 07       		.byte	0x7
 3189 0380 4A01     		.2byte	0x14a
 3190 0382 E1010000 		.4byte	0x1e1
 3191 0386 18       		.byte	0x18
 3192 0387 11       		.uleb128 0x11
 3193 0388 796500   		.ascii	"ye\000"
 3194 038b 07       		.byte	0x7
 3195 038c 4B01     		.2byte	0x14b
 3196 038e E1010000 		.4byte	0x1e1
 3197 0392 1A       		.byte	0x1a
 3198 0393 0F       		.uleb128 0xf
 3199 0394 64060000 		.4byte	.LASF75
 3200 0398 07       		.byte	0x7
 3201 0399 4C01     		.2byte	0x14c
 3202 039b C0010000 		.4byte	0x1c0
 3203 039f 1C       		.byte	0x1c
 3204 03a0 0F       		.uleb128 0xf
 3205 03a1 FC000000 		.4byte	.LASF76
 3206 03a5 07       		.byte	0x7
 3207 03a6 4D01     		.2byte	0x14d
 3208 03a8 41050000 		.4byte	0x541
 3209 03ac 20       		.byte	0x20
 3210 03ad 11       		.uleb128 0x11
 3211 03ae 636200   		.ascii	"cb\000"
 3212 03b1 07       		.byte	0x7
 3213 03b2 4E01     		.2byte	0x14e
 3214 03b4 5E050000 		.4byte	0x55e
 3215 03b8 40       		.byte	0x40
 3216 03b9 00       		.byte	0
 3217 03ba 02       		.uleb128 0x2
 3218 03bb 3F000000 		.4byte	.LASF77
 3219 03bf 07       		.byte	0x7
 3220 03c0 6A       		.byte	0x6a
 3221 03c1 EC010000 		.4byte	0x1ec
 3222 03c5 0B       		.uleb128 0xb
 3223 03c6 08       		.byte	0x8
 3224 03c7 07       		.byte	0x7
 3225 03c8 A7       		.byte	0xa7
 3226 03c9 FA030000 		.4byte	0x3fa
 3227 03cd 0C       		.uleb128 0xc
 3228 03ce 787300   		.ascii	"xs\000"
 3229 03d1 07       		.byte	0x7
 3230 03d2 A9       		.byte	0xa9
 3231 03d3 E1010000 		.4byte	0x1e1
 3232 03d7 00       		.byte	0
 3233 03d8 0C       		.uleb128 0xc
 3234 03d9 797300   		.ascii	"ys\000"
 3235 03dc 07       		.byte	0x7
 3236 03dd AA       		.byte	0xaa
 3237 03de E1010000 		.4byte	0x1e1
 3238 03e2 02       		.byte	0x2
ARM GAS  C:\Users\Melody\AppData\Local\Temp\ccuHhgp0.s 			page 77


 3239 03e3 0C       		.uleb128 0xc
 3240 03e4 786500   		.ascii	"xe\000"
 3241 03e7 07       		.byte	0x7
 3242 03e8 AB       		.byte	0xab
 3243 03e9 E1010000 		.4byte	0x1e1
 3244 03ed 04       		.byte	0x4
 3245 03ee 0C       		.uleb128 0xc
 3246 03ef 796500   		.ascii	"ye\000"
 3247 03f2 07       		.byte	0x7
 3248 03f3 AC       		.byte	0xac
 3249 03f4 E1010000 		.4byte	0x1e1
 3250 03f8 06       		.byte	0x6
 3251 03f9 00       		.byte	0
 3252 03fa 02       		.uleb128 0x2
 3253 03fb FE020000 		.4byte	.LASF78
 3254 03ff 07       		.byte	0x7
 3255 0400 AD       		.byte	0xad
 3256 0401 C5030000 		.4byte	0x3c5
 3257 0405 07       		.uleb128 0x7
 3258 0406 04       		.byte	0x4
 3259 0407 0B040000 		.4byte	0x40b
 3260 040b 12       		.uleb128 0x12
 3261 040c 7C020000 		.4byte	0x27c
 3262 0410 0B       		.uleb128 0xb
 3263 0411 08       		.byte	0x8
 3264 0412 07       		.byte	0x7
 3265 0413 D6       		.byte	0xd6
 3266 0414 54040000 		.4byte	0x454
 3267 0418 0D       		.uleb128 0xd
 3268 0419 73050000 		.4byte	.LASF67
 3269 041d 07       		.byte	0x7
 3270 041e D8       		.byte	0xd8
 3271 041f C0010000 		.4byte	0x1c0
 3272 0423 00       		.byte	0
 3273 0424 0C       		.uleb128 0xc
 3274 0425 696400   		.ascii	"id\000"
 3275 0428 07       		.byte	0x7
 3276 0429 D9       		.byte	0xd9
 3277 042a C0010000 		.4byte	0x1c0
 3278 042e 01       		.byte	0x1
 3279 042f 0D       		.uleb128 0xd
 3280 0430 8B030000 		.4byte	.LASF79
 3281 0434 07       		.byte	0x7
 3282 0435 DA       		.byte	0xda
 3283 0436 C0010000 		.4byte	0x1c0
 3284 043a 02       		.byte	0x2
 3285 043b 0D       		.uleb128 0xd
 3286 043c 25010000 		.4byte	.LASF68
 3287 0440 07       		.byte	0x7
 3288 0441 DB       		.byte	0xdb
 3289 0442 C0010000 		.4byte	0x1c0
 3290 0446 03       		.byte	0x3
 3291 0447 0C       		.uleb128 0xc
 3292 0448 73726300 		.ascii	"src\000"
 3293 044c 07       		.byte	0x7
 3294 044d DC       		.byte	0xdc
 3295 044e 08010000 		.4byte	0x108
ARM GAS  C:\Users\Melody\AppData\Local\Temp\ccuHhgp0.s 			page 78


 3296 0452 04       		.byte	0x4
 3297 0453 00       		.byte	0
 3298 0454 02       		.uleb128 0x2
 3299 0455 06030000 		.4byte	.LASF80
 3300 0459 07       		.byte	0x7
 3301 045a DD       		.byte	0xdd
 3302 045b 10040000 		.4byte	0x410
 3303 045f 0B       		.uleb128 0xb
 3304 0460 06       		.byte	0x6
 3305 0461 07       		.byte	0x7
 3306 0462 E8       		.byte	0xe8
 3307 0463 8A040000 		.4byte	0x48a
 3308 0467 0D       		.uleb128 0xd
 3309 0468 6A060000 		.4byte	.LASF62
 3310 046c 07       		.byte	0x7
 3311 046d EA       		.byte	0xea
 3312 046e C0010000 		.4byte	0x1c0
 3313 0472 00       		.byte	0
 3314 0473 0C       		.uleb128 0xc
 3315 0474 787000   		.ascii	"xp\000"
 3316 0477 07       		.byte	0x7
 3317 0478 EB       		.byte	0xeb
 3318 0479 E1010000 		.4byte	0x1e1
 3319 047d 02       		.byte	0x2
 3320 047e 0C       		.uleb128 0xc
 3321 047f 797000   		.ascii	"yp\000"
 3322 0482 07       		.byte	0x7
 3323 0483 EC       		.byte	0xec
 3324 0484 E1010000 		.4byte	0x1e1
 3325 0488 04       		.byte	0x4
 3326 0489 00       		.byte	0
 3327 048a 02       		.uleb128 0x2
 3328 048b 9C060000 		.4byte	.LASF81
 3329 048f 07       		.byte	0x7
 3330 0490 ED       		.byte	0xed
 3331 0491 5F040000 		.4byte	0x45f
 3332 0495 13       		.uleb128 0x13
 3333 0496 A5040000 		.4byte	0x4a5
 3334 049a 14       		.uleb128 0x14
 3335 049b A5040000 		.4byte	0x4a5
 3336 049f 14       		.uleb128 0x14
 3337 04a0 AB040000 		.4byte	0x4ab
 3338 04a4 00       		.byte	0
 3339 04a5 07       		.uleb128 0x7
 3340 04a6 04       		.byte	0x4
 3341 04a7 0C030000 		.4byte	0x30c
 3342 04ab 07       		.uleb128 0x7
 3343 04ac 04       		.byte	0x4
 3344 04ad 87020000 		.4byte	0x287
 3345 04b1 07       		.uleb128 0x7
 3346 04b2 04       		.byte	0x4
 3347 04b3 95040000 		.4byte	0x495
 3348 04b7 15       		.uleb128 0x15
 3349 04b8 20       		.byte	0x20
 3350 04b9 07       		.byte	0x7
 3351 04ba 3201     		.2byte	0x132
 3352 04bc 41050000 		.4byte	0x541
ARM GAS  C:\Users\Melody\AppData\Local\Temp\ccuHhgp0.s 			page 79


 3353 04c0 11       		.uleb128 0x11
 3354 04c1 73747200 		.ascii	"str\000"
 3355 04c5 07       		.byte	0x7
 3356 04c6 3401     		.2byte	0x134
 3357 04c8 0A010000 		.4byte	0x10a
 3358 04cc 00       		.byte	0
 3359 04cd 0F       		.uleb128 0xf
 3360 04ce 01050000 		.4byte	.LASF82
 3361 04d2 07       		.byte	0x7
 3362 04d3 3501     		.2byte	0x135
 3363 04d5 05040000 		.4byte	0x405
 3364 04d9 04       		.byte	0x4
 3365 04da 0F       		.uleb128 0xf
 3366 04db 9F050000 		.4byte	.LASF83
 3367 04df 07       		.byte	0x7
 3368 04e0 3601     		.2byte	0x136
 3369 04e2 CB010000 		.4byte	0x1cb
 3370 04e6 08       		.byte	0x8
 3371 04e7 0F       		.uleb128 0xf
 3372 04e8 BE020000 		.4byte	.LASF84
 3373 04ec 07       		.byte	0x7
 3374 04ed 3701     		.2byte	0x137
 3375 04ef CB010000 		.4byte	0x1cb
 3376 04f3 09       		.byte	0x9
 3377 04f4 0F       		.uleb128 0xf
 3378 04f5 1B070000 		.4byte	.LASF85
 3379 04f9 07       		.byte	0x7
 3380 04fa 3801     		.2byte	0x138
 3381 04fc C0010000 		.4byte	0x1c0
 3382 0500 0A       		.byte	0xa
 3383 0501 11       		.uleb128 0x11
 3384 0502 666300   		.ascii	"fc\000"
 3385 0505 07       		.byte	0x7
 3386 0506 3901     		.2byte	0x139
 3387 0508 BA030000 		.4byte	0x3ba
 3388 050c 0C       		.byte	0xc
 3389 050d 11       		.uleb128 0x11
 3390 050e 626300   		.ascii	"bc\000"
 3391 0511 07       		.byte	0x7
 3392 0512 3A01     		.2byte	0x13a
 3393 0514 BA030000 		.4byte	0x3ba
 3394 0518 10       		.byte	0x10
 3395 0519 11       		.uleb128 0x11
 3396 051a 69666300 		.ascii	"ifc\000"
 3397 051e 07       		.byte	0x7
 3398 051f 3B01     		.2byte	0x13b
 3399 0521 BA030000 		.4byte	0x3ba
 3400 0525 14       		.byte	0x14
 3401 0526 11       		.uleb128 0x11
 3402 0527 69626300 		.ascii	"ibc\000"
 3403 052b 07       		.byte	0x7
 3404 052c 3C01     		.2byte	0x13c
 3405 052e BA030000 		.4byte	0x3ba
 3406 0532 18       		.byte	0x18
 3407 0533 0F       		.uleb128 0xf
 3408 0534 A8030000 		.4byte	.LASF86
 3409 0538 07       		.byte	0x7
ARM GAS  C:\Users\Melody\AppData\Local\Temp\ccuHhgp0.s 			page 80


 3410 0539 3D01     		.2byte	0x13d
 3411 053b C0010000 		.4byte	0x1c0
 3412 053f 1C       		.byte	0x1c
 3413 0540 00       		.byte	0
 3414 0541 05       		.uleb128 0x5
 3415 0542 0E040000 		.4byte	.LASF87
 3416 0546 07       		.byte	0x7
 3417 0547 3E01     		.2byte	0x13e
 3418 0549 B7040000 		.4byte	0x4b7
 3419 054d 13       		.uleb128 0x13
 3420 054e 58050000 		.4byte	0x558
 3421 0552 14       		.uleb128 0x14
 3422 0553 58050000 		.4byte	0x558
 3423 0557 00       		.byte	0
 3424 0558 07       		.uleb128 0x7
 3425 0559 04       		.byte	0x4
 3426 055a 54040000 		.4byte	0x454
 3427 055e 07       		.uleb128 0x7
 3428 055f 04       		.byte	0x4
 3429 0560 4D050000 		.4byte	0x54d
 3430 0564 15       		.uleb128 0x15
 3431 0565 08       		.byte	0x8
 3432 0566 07       		.byte	0x7
 3433 0567 2002     		.2byte	0x220
 3434 0569 88050000 		.4byte	0x588
 3435 056d 0F       		.uleb128 0xf
 3436 056e 2E030000 		.4byte	.LASF88
 3437 0572 07       		.byte	0x7
 3438 0573 2202     		.2byte	0x222
 3439 0575 08010000 		.4byte	0x108
 3440 0579 00       		.byte	0
 3441 057a 0F       		.uleb128 0xf
 3442 057b 6A060000 		.4byte	.LASF62
 3443 057f 07       		.byte	0x7
 3444 0580 2302     		.2byte	0x223
 3445 0582 C0010000 		.4byte	0x1c0
 3446 0586 04       		.byte	0x4
 3447 0587 00       		.byte	0
 3448 0588 05       		.uleb128 0x5
 3449 0589 17040000 		.4byte	.LASF89
 3450 058d 07       		.byte	0x7
 3451 058e 2402     		.2byte	0x224
 3452 0590 64050000 		.4byte	0x564
 3453 0594 15       		.uleb128 0x15
 3454 0595 14       		.byte	0x14
 3455 0596 07       		.byte	0x7
 3456 0597 3C02     		.2byte	0x23c
 3457 0599 06060000 		.4byte	0x606
 3458 059d 0F       		.uleb128 0xf
 3459 059e 21040000 		.4byte	.LASF90
 3460 05a2 07       		.byte	0x7
 3461 05a3 3E02     		.2byte	0x23e
 3462 05a5 E1010000 		.4byte	0x1e1
 3463 05a9 00       		.byte	0
 3464 05aa 0F       		.uleb128 0xf
 3465 05ab B4010000 		.4byte	.LASF91
 3466 05af 07       		.byte	0x7
ARM GAS  C:\Users\Melody\AppData\Local\Temp\ccuHhgp0.s 			page 81


 3467 05b0 3F02     		.2byte	0x23f
 3468 05b2 E1010000 		.4byte	0x1e1
 3469 05b6 02       		.byte	0x2
 3470 05b7 0F       		.uleb128 0xf
 3471 05b8 B5050000 		.4byte	.LASF92
 3472 05bc 07       		.byte	0x7
 3473 05bd 4002     		.2byte	0x240
 3474 05bf E1010000 		.4byte	0x1e1
 3475 05c3 04       		.byte	0x4
 3476 05c4 0F       		.uleb128 0xf
 3477 05c5 B6020000 		.4byte	.LASF93
 3478 05c9 07       		.byte	0x7
 3479 05ca 4102     		.2byte	0x241
 3480 05cc E1010000 		.4byte	0x1e1
 3481 05d0 06       		.byte	0x6
 3482 05d1 0F       		.uleb128 0xf
 3483 05d2 19010000 		.4byte	.LASF94
 3484 05d6 07       		.byte	0x7
 3485 05d7 4202     		.2byte	0x242
 3486 05d9 E1010000 		.4byte	0x1e1
 3487 05dd 08       		.byte	0x8
 3488 05de 0F       		.uleb128 0xf
 3489 05df 6E000000 		.4byte	.LASF95
 3490 05e3 07       		.byte	0x7
 3491 05e4 4302     		.2byte	0x243
 3492 05e6 E1010000 		.4byte	0x1e1
 3493 05ea 0A       		.byte	0xa
 3494 05eb 0F       		.uleb128 0xf
 3495 05ec A9010000 		.4byte	.LASF96
 3496 05f0 07       		.byte	0x7
 3497 05f1 4402     		.2byte	0x244
 3498 05f3 BA030000 		.4byte	0x3ba
 3499 05f7 0C       		.byte	0xc
 3500 05f8 0F       		.uleb128 0xf
 3501 05f9 37010000 		.4byte	.LASF97
 3502 05fd 07       		.byte	0x7
 3503 05fe 4502     		.2byte	0x245
 3504 0600 BA030000 		.4byte	0x3ba
 3505 0604 10       		.byte	0x10
 3506 0605 00       		.byte	0
 3507 0606 15       		.uleb128 0x15
 3508 0607 78       		.byte	0x78
 3509 0608 07       		.byte	0x7
 3510 0609 3302     		.2byte	0x233
 3511 060b E0060000 		.4byte	0x6e0
 3512 060f 0F       		.uleb128 0xf
 3513 0610 86030000 		.4byte	.LASF98
 3514 0614 07       		.byte	0x7
 3515 0615 3502     		.2byte	0x235
 3516 0617 F5060000 		.4byte	0x6f5
 3517 061b 00       		.byte	0
 3518 061c 0F       		.uleb128 0xf
 3519 061d 45030000 		.4byte	.LASF99
 3520 0621 07       		.byte	0x7
 3521 0622 3602     		.2byte	0x236
 3522 0624 E1010000 		.4byte	0x1e1
 3523 0628 04       		.byte	0x4
ARM GAS  C:\Users\Melody\AppData\Local\Temp\ccuHhgp0.s 			page 82


 3524 0629 0F       		.uleb128 0xf
 3525 062a AE000000 		.4byte	.LASF100
 3526 062e 07       		.byte	0x7
 3527 062f 3702     		.2byte	0x237
 3528 0631 E1010000 		.4byte	0x1e1
 3529 0635 06       		.byte	0x6
 3530 0636 0F       		.uleb128 0xf
 3531 0637 28030000 		.4byte	.LASF101
 3532 063b 07       		.byte	0x7
 3533 063c 3802     		.2byte	0x238
 3534 063e 8A040000 		.4byte	0x48a
 3535 0642 08       		.byte	0x8
 3536 0643 0F       		.uleb128 0xf
 3537 0644 F0000000 		.4byte	.LASF102
 3538 0648 07       		.byte	0x7
 3539 0649 3902     		.2byte	0x239
 3540 064b A5040000 		.4byte	0x4a5
 3541 064f 10       		.byte	0x10
 3542 0650 0F       		.uleb128 0xf
 3543 0651 8D010000 		.4byte	.LASF103
 3544 0655 07       		.byte	0x7
 3545 0656 3A02     		.2byte	0x23a
 3546 0658 A5040000 		.4byte	0x4a5
 3547 065c 14       		.byte	0x14
 3548 065d 0F       		.uleb128 0xf
 3549 065e 2B010000 		.4byte	.LASF104
 3550 0662 07       		.byte	0x7
 3551 0663 3B02     		.2byte	0x23b
 3552 0665 A5040000 		.4byte	0x4a5
 3553 0669 18       		.byte	0x18
 3554 066a 0F       		.uleb128 0xf
 3555 066b 74000000 		.4byte	.LASF105
 3556 066f 07       		.byte	0x7
 3557 0670 4602     		.2byte	0x246
 3558 0672 94050000 		.4byte	0x594
 3559 0676 1C       		.byte	0x1c
 3560 0677 0F       		.uleb128 0xf
 3561 0678 01050000 		.4byte	.LASF82
 3562 067c 07       		.byte	0x7
 3563 067d 4702     		.2byte	0x247
 3564 067f 7C020000 		.4byte	0x27c
 3565 0683 30       		.byte	0x30
 3566 0684 0F       		.uleb128 0xf
 3567 0685 4A070000 		.4byte	.LASF106
 3568 0689 07       		.byte	0x7
 3569 068a 4802     		.2byte	0x248
 3570 068c CB010000 		.4byte	0x1cb
 3571 0690 44       		.byte	0x44
 3572 0691 0F       		.uleb128 0xf
 3573 0692 5C000000 		.4byte	.LASF107
 3574 0696 07       		.byte	0x7
 3575 0697 4902     		.2byte	0x249
 3576 0699 CB010000 		.4byte	0x1cb
 3577 069d 45       		.byte	0x45
 3578 069e 0F       		.uleb128 0xf
 3579 069f A9010000 		.4byte	.LASF96
 3580 06a3 07       		.byte	0x7
ARM GAS  C:\Users\Melody\AppData\Local\Temp\ccuHhgp0.s 			page 83


 3581 06a4 4A02     		.2byte	0x24a
 3582 06a6 BA030000 		.4byte	0x3ba
 3583 06aa 48       		.byte	0x48
 3584 06ab 0F       		.uleb128 0xf
 3585 06ac 37010000 		.4byte	.LASF97
 3586 06b0 07       		.byte	0x7
 3587 06b1 4B02     		.2byte	0x24b
 3588 06b3 BA030000 		.4byte	0x3ba
 3589 06b7 4C       		.byte	0x4c
 3590 06b8 0F       		.uleb128 0xf
 3591 06b9 25000000 		.4byte	.LASF108
 3592 06bd 07       		.byte	0x7
 3593 06be 4C02     		.2byte	0x24c
 3594 06c0 BA030000 		.4byte	0x3ba
 3595 06c4 50       		.byte	0x50
 3596 06c5 0F       		.uleb128 0xf
 3597 06c6 6A060000 		.4byte	.LASF62
 3598 06ca 07       		.byte	0x7
 3599 06cb 4D02     		.2byte	0x24d
 3600 06cd C0010000 		.4byte	0x1c0
 3601 06d1 54       		.byte	0x54
 3602 06d2 0F       		.uleb128 0xf
 3603 06d3 2E030000 		.4byte	.LASF88
 3604 06d7 07       		.byte	0x7
 3605 06d8 4E02     		.2byte	0x24e
 3606 06da FB060000 		.4byte	0x6fb
 3607 06de 58       		.byte	0x58
 3608 06df 00       		.byte	0
 3609 06e0 13       		.uleb128 0x13
 3610 06e1 F5060000 		.4byte	0x6f5
 3611 06e5 14       		.uleb128 0x14
 3612 06e6 E1010000 		.4byte	0x1e1
 3613 06ea 14       		.uleb128 0x14
 3614 06eb E1010000 		.4byte	0x1e1
 3615 06ef 14       		.uleb128 0x14
 3616 06f0 BA030000 		.4byte	0x3ba
 3617 06f4 00       		.byte	0
 3618 06f5 07       		.uleb128 0x7
 3619 06f6 04       		.byte	0x4
 3620 06f7 E0060000 		.4byte	0x6e0
 3621 06fb 16       		.uleb128 0x16
 3622 06fc 88050000 		.4byte	0x588
 3623 0700 0B070000 		.4byte	0x70b
 3624 0704 17       		.uleb128 0x17
 3625 0705 01010000 		.4byte	0x101
 3626 0709 03       		.byte	0x3
 3627 070a 00       		.byte	0
 3628 070b 05       		.uleb128 0x5
 3629 070c 8F060000 		.4byte	.LASF109
 3630 0710 07       		.byte	0x7
 3631 0711 4F02     		.2byte	0x24f
 3632 0713 06060000 		.4byte	0x606
 3633 0717 18       		.uleb128 0x18
 3634 0718 72010000 		.4byte	.LASF110
 3635 071c 01       		.byte	0x1
 3636 071d 0A       		.byte	0xa
 3637 071e 00000000 		.4byte	.LFB35
ARM GAS  C:\Users\Melody\AppData\Local\Temp\ccuHhgp0.s 			page 84


 3638 0722 70000000 		.4byte	.LFE35-.LFB35
 3639 0726 01       		.uleb128 0x1
 3640 0727 9C       		.byte	0x9c
 3641 0728 07080000 		.4byte	0x807
 3642 072c 19       		.uleb128 0x19
 3643 072d 08000000 		.4byte	.LVL0
 3644 0731 951B0000 		.4byte	0x1b95
 3645 0735 43070000 		.4byte	0x743
 3646 0739 1A       		.uleb128 0x1a
 3647 073a 01       		.uleb128 0x1
 3648 073b 50       		.byte	0x50
 3649 073c 05       		.uleb128 0x5
 3650 073d 0C       		.byte	0xc
 3651 073e FFFFFF00 		.4byte	0xffffff
 3652 0742 00       		.byte	0
 3653 0743 19       		.uleb128 0x19
 3654 0744 1E000000 		.4byte	.LVL1
 3655 0748 A11B0000 		.4byte	0x1ba1
 3656 074c 6E070000 		.4byte	0x76e
 3657 0750 1A       		.uleb128 0x1a
 3658 0751 01       		.uleb128 0x1
 3659 0752 50       		.byte	0x50
 3660 0753 01       		.uleb128 0x1
 3661 0754 30       		.byte	0x30
 3662 0755 1A       		.uleb128 0x1a
 3663 0756 01       		.uleb128 0x1
 3664 0757 51       		.byte	0x51
 3665 0758 01       		.uleb128 0x1
 3666 0759 30       		.byte	0x30
 3667 075a 1A       		.uleb128 0x1a
 3668 075b 01       		.uleb128 0x1
 3669 075c 52       		.byte	0x52
 3670 075d 01       		.uleb128 0x1
 3671 075e 3A       		.byte	0x3a
 3672 075f 1A       		.uleb128 0x1a
 3673 0760 01       		.uleb128 0x1
 3674 0761 53       		.byte	0x53
 3675 0762 01       		.uleb128 0x1
 3676 0763 3A       		.byte	0x3a
 3677 0764 1A       		.uleb128 0x1a
 3678 0765 02       		.uleb128 0x2
 3679 0766 7D       		.byte	0x7d
 3680 0767 00       		.sleb128 0
 3681 0768 04       		.uleb128 0x4
 3682 0769 08       		.byte	0x8
 3683 076a FF       		.byte	0xff
 3684 076b 40       		.byte	0x40
 3685 076c 24       		.byte	0x24
 3686 076d 00       		.byte	0
 3687 076e 19       		.uleb128 0x19
 3688 076f 32000000 		.4byte	.LVL2
 3689 0773 A11B0000 		.4byte	0x1ba1
 3690 0777 99070000 		.4byte	0x799
 3691 077b 1A       		.uleb128 0x1a
 3692 077c 01       		.uleb128 0x1
 3693 077d 50       		.byte	0x50
 3694 077e 01       		.uleb128 0x1
ARM GAS  C:\Users\Melody\AppData\Local\Temp\ccuHhgp0.s 			page 85


 3695 077f 30       		.byte	0x30
 3696 0780 1A       		.uleb128 0x1a
 3697 0781 01       		.uleb128 0x1
 3698 0782 51       		.byte	0x51
 3699 0783 02       		.uleb128 0x2
 3700 0784 75       		.byte	0x75
 3701 0785 00       		.sleb128 0
 3702 0786 1A       		.uleb128 0x1a
 3703 0787 01       		.uleb128 0x1
 3704 0788 52       		.byte	0x52
 3705 0789 01       		.uleb128 0x1
 3706 078a 3A       		.byte	0x3a
 3707 078b 1A       		.uleb128 0x1a
 3708 078c 01       		.uleb128 0x1
 3709 078d 53       		.byte	0x53
 3710 078e 02       		.uleb128 0x2
 3711 078f 77       		.byte	0x77
 3712 0790 00       		.sleb128 0
 3713 0791 1A       		.uleb128 0x1a
 3714 0792 02       		.uleb128 0x2
 3715 0793 7D       		.byte	0x7d
 3716 0794 00       		.sleb128 0
 3717 0795 02       		.uleb128 0x2
 3718 0796 08       		.byte	0x8
 3719 0797 FF       		.byte	0xff
 3720 0798 00       		.byte	0
 3721 0799 19       		.uleb128 0x19
 3722 079a 4C000000 		.4byte	.LVL3
 3723 079e A11B0000 		.4byte	0x1ba1
 3724 07a2 C5070000 		.4byte	0x7c5
 3725 07a6 1A       		.uleb128 0x1a
 3726 07a7 01       		.uleb128 0x1
 3727 07a8 50       		.byte	0x50
 3728 07a9 02       		.uleb128 0x2
 3729 07aa 74       		.byte	0x74
 3730 07ab 00       		.sleb128 0
 3731 07ac 1A       		.uleb128 0x1a
 3732 07ad 01       		.uleb128 0x1
 3733 07ae 51       		.byte	0x51
 3734 07af 01       		.uleb128 0x1
 3735 07b0 30       		.byte	0x30
 3736 07b1 1A       		.uleb128 0x1a
 3737 07b2 01       		.uleb128 0x1
 3738 07b3 52       		.byte	0x52
 3739 07b4 02       		.uleb128 0x2
 3740 07b5 76       		.byte	0x76
 3741 07b6 00       		.sleb128 0
 3742 07b7 1A       		.uleb128 0x1a
 3743 07b8 01       		.uleb128 0x1
 3744 07b9 53       		.byte	0x53
 3745 07ba 01       		.uleb128 0x1
 3746 07bb 3A       		.byte	0x3a
 3747 07bc 1A       		.uleb128 0x1a
 3748 07bd 02       		.uleb128 0x2
 3749 07be 7D       		.byte	0x7d
 3750 07bf 00       		.sleb128 0
 3751 07c0 03       		.uleb128 0x3
ARM GAS  C:\Users\Melody\AppData\Local\Temp\ccuHhgp0.s 			page 86


 3752 07c1 0A       		.byte	0xa
 3753 07c2 00FF     		.2byte	0xff00
 3754 07c4 00       		.byte	0
 3755 07c5 19       		.uleb128 0x19
 3756 07c6 5C000000 		.4byte	.LVL4
 3757 07ca A11B0000 		.4byte	0x1ba1
 3758 07ce F5070000 		.4byte	0x7f5
 3759 07d2 1A       		.uleb128 0x1a
 3760 07d3 01       		.uleb128 0x1
 3761 07d4 50       		.byte	0x50
 3762 07d5 02       		.uleb128 0x2
 3763 07d6 74       		.byte	0x74
 3764 07d7 00       		.sleb128 0
 3765 07d8 1A       		.uleb128 0x1a
 3766 07d9 01       		.uleb128 0x1
 3767 07da 51       		.byte	0x51
 3768 07db 02       		.uleb128 0x2
 3769 07dc 75       		.byte	0x75
 3770 07dd 00       		.sleb128 0
 3771 07de 1A       		.uleb128 0x1a
 3772 07df 01       		.uleb128 0x1
 3773 07e0 52       		.byte	0x52
 3774 07e1 02       		.uleb128 0x2
 3775 07e2 76       		.byte	0x76
 3776 07e3 00       		.sleb128 0
 3777 07e4 1A       		.uleb128 0x1a
 3778 07e5 01       		.uleb128 0x1
 3779 07e6 53       		.byte	0x53
 3780 07e7 02       		.uleb128 0x2
 3781 07e8 77       		.byte	0x77
 3782 07e9 00       		.sleb128 0
 3783 07ea 1A       		.uleb128 0x1a
 3784 07eb 02       		.uleb128 0x2
 3785 07ec 7D       		.byte	0x7d
 3786 07ed 00       		.sleb128 0
 3787 07ee 05       		.uleb128 0x5
 3788 07ef 0C       		.byte	0xc
 3789 07f0 00FFFF00 		.4byte	0xffff00
 3790 07f4 00       		.byte	0
 3791 07f5 1B       		.uleb128 0x1b
 3792 07f6 64000000 		.4byte	.LVL5
 3793 07fa AD1B0000 		.4byte	0x1bad
 3794 07fe 1A       		.uleb128 0x1a
 3795 07ff 01       		.uleb128 0x1
 3796 0800 50       		.byte	0x50
 3797 0801 03       		.uleb128 0x3
 3798 0802 0A       		.byte	0xa
 3799 0803 2C01     		.2byte	0x12c
 3800 0805 00       		.byte	0
 3801 0806 00       		.byte	0
 3802 0807 18       		.uleb128 0x18
 3803 0808 21050000 		.4byte	.LASF111
 3804 080c 01       		.byte	0x1
 3805 080d 24       		.byte	0x24
 3806 080e 00000000 		.4byte	.LFB36
 3807 0812 7C000000 		.4byte	.LFE36-.LFB36
 3808 0816 01       		.uleb128 0x1
ARM GAS  C:\Users\Melody\AppData\Local\Temp\ccuHhgp0.s 			page 87


 3809 0817 9C       		.byte	0x9c
 3810 0818 3E090000 		.4byte	0x93e
 3811 081c 19       		.uleb128 0x19
 3812 081d 08000000 		.4byte	.LVL6
 3813 0821 951B0000 		.4byte	0x1b95
 3814 0825 2F080000 		.4byte	0x82f
 3815 0829 1A       		.uleb128 0x1a
 3816 082a 01       		.uleb128 0x1
 3817 082b 50       		.byte	0x50
 3818 082c 01       		.uleb128 0x1
 3819 082d 30       		.byte	0x30
 3820 082e 00       		.byte	0
 3821 082f 19       		.uleb128 0x19
 3822 0830 12000000 		.4byte	.LVL7
 3823 0834 B81B0000 		.4byte	0x1bb8
 3824 0838 50080000 		.4byte	0x850
 3825 083c 1A       		.uleb128 0x1a
 3826 083d 01       		.uleb128 0x1
 3827 083e 50       		.byte	0x50
 3828 083f 01       		.uleb128 0x1
 3829 0840 3A       		.byte	0x3a
 3830 0841 1A       		.uleb128 0x1a
 3831 0842 01       		.uleb128 0x1
 3832 0843 51       		.byte	0x51
 3833 0844 01       		.uleb128 0x1
 3834 0845 3A       		.byte	0x3a
 3835 0846 1A       		.uleb128 0x1a
 3836 0847 01       		.uleb128 0x1
 3837 0848 52       		.byte	0x52
 3838 0849 05       		.uleb128 0x5
 3839 084a 03       		.byte	0x3
 3840 084b 00000000 		.4byte	.LC0
 3841 084f 00       		.byte	0
 3842 0850 19       		.uleb128 0x19
 3843 0851 1C000000 		.4byte	.LVL8
 3844 0855 B81B0000 		.4byte	0x1bb8
 3845 0859 72080000 		.4byte	0x872
 3846 085d 1A       		.uleb128 0x1a
 3847 085e 01       		.uleb128 0x1
 3848 085f 50       		.byte	0x50
 3849 0860 02       		.uleb128 0x2
 3850 0861 08       		.byte	0x8
 3851 0862 FA       		.byte	0xfa
 3852 0863 1A       		.uleb128 0x1a
 3853 0864 01       		.uleb128 0x1
 3854 0865 51       		.byte	0x51
 3855 0866 01       		.uleb128 0x1
 3856 0867 3A       		.byte	0x3a
 3857 0868 1A       		.uleb128 0x1a
 3858 0869 01       		.uleb128 0x1
 3859 086a 52       		.byte	0x52
 3860 086b 05       		.uleb128 0x5
 3861 086c 03       		.byte	0x3
 3862 086d 0A000000 		.4byte	.LC2
 3863 0871 00       		.byte	0
 3864 0872 19       		.uleb128 0x19
 3865 0873 26000000 		.4byte	.LVL9
ARM GAS  C:\Users\Melody\AppData\Local\Temp\ccuHhgp0.s 			page 88


 3866 0877 B81B0000 		.4byte	0x1bb8
 3867 087b 94080000 		.4byte	0x894
 3868 087f 1A       		.uleb128 0x1a
 3869 0880 01       		.uleb128 0x1
 3870 0881 50       		.byte	0x50
 3871 0882 01       		.uleb128 0x1
 3872 0883 3A       		.byte	0x3a
 3873 0884 1A       		.uleb128 0x1a
 3874 0885 01       		.uleb128 0x1
 3875 0886 51       		.byte	0x51
 3876 0887 02       		.uleb128 0x2
 3877 0888 08       		.byte	0x8
 3878 0889 4B       		.byte	0x4b
 3879 088a 1A       		.uleb128 0x1a
 3880 088b 01       		.uleb128 0x1
 3881 088c 52       		.byte	0x52
 3882 088d 05       		.uleb128 0x5
 3883 088e 03       		.byte	0x3
 3884 088f 16000000 		.4byte	.LC4
 3885 0893 00       		.byte	0
 3886 0894 19       		.uleb128 0x19
 3887 0895 30000000 		.4byte	.LVL10
 3888 0899 B81B0000 		.4byte	0x1bb8
 3889 089d B7080000 		.4byte	0x8b7
 3890 08a1 1A       		.uleb128 0x1a
 3891 08a2 01       		.uleb128 0x1
 3892 08a3 50       		.byte	0x50
 3893 08a4 02       		.uleb128 0x2
 3894 08a5 08       		.byte	0x8
 3895 08a6 FA       		.byte	0xfa
 3896 08a7 1A       		.uleb128 0x1a
 3897 08a8 01       		.uleb128 0x1
 3898 08a9 51       		.byte	0x51
 3899 08aa 02       		.uleb128 0x2
 3900 08ab 08       		.byte	0x8
 3901 08ac 4B       		.byte	0x4b
 3902 08ad 1A       		.uleb128 0x1a
 3903 08ae 01       		.uleb128 0x1
 3904 08af 52       		.byte	0x52
 3905 08b0 05       		.uleb128 0x5
 3906 08b1 03       		.byte	0x3
 3907 08b2 1D000000 		.4byte	.LC6
 3908 08b6 00       		.byte	0
 3909 08b7 19       		.uleb128 0x19
 3910 08b8 3A000000 		.4byte	.LVL11
 3911 08bc B81B0000 		.4byte	0x1bb8
 3912 08c0 D9080000 		.4byte	0x8d9
 3913 08c4 1A       		.uleb128 0x1a
 3914 08c5 01       		.uleb128 0x1
 3915 08c6 50       		.byte	0x50
 3916 08c7 01       		.uleb128 0x1
 3917 08c8 3A       		.byte	0x3a
 3918 08c9 1A       		.uleb128 0x1a
 3919 08ca 01       		.uleb128 0x1
 3920 08cb 51       		.byte	0x51
 3921 08cc 02       		.uleb128 0x2
 3922 08cd 08       		.byte	0x8
ARM GAS  C:\Users\Melody\AppData\Local\Temp\ccuHhgp0.s 			page 89


 3923 08ce 8C       		.byte	0x8c
 3924 08cf 1A       		.uleb128 0x1a
 3925 08d0 01       		.uleb128 0x1
 3926 08d1 52       		.byte	0x52
 3927 08d2 05       		.uleb128 0x5
 3928 08d3 03       		.byte	0x3
 3929 08d4 23000000 		.4byte	.LC8
 3930 08d8 00       		.byte	0
 3931 08d9 19       		.uleb128 0x19
 3932 08da 44000000 		.4byte	.LVL12
 3933 08de B81B0000 		.4byte	0x1bb8
 3934 08e2 FC080000 		.4byte	0x8fc
 3935 08e6 1A       		.uleb128 0x1a
 3936 08e7 01       		.uleb128 0x1
 3937 08e8 50       		.byte	0x50
 3938 08e9 02       		.uleb128 0x2
 3939 08ea 08       		.byte	0x8
 3940 08eb FA       		.byte	0xfa
 3941 08ec 1A       		.uleb128 0x1a
 3942 08ed 01       		.uleb128 0x1
 3943 08ee 51       		.byte	0x51
 3944 08ef 02       		.uleb128 0x2
 3945 08f0 08       		.byte	0x8
 3946 08f1 8C       		.byte	0x8c
 3947 08f2 1A       		.uleb128 0x1a
 3948 08f3 01       		.uleb128 0x1
 3949 08f4 52       		.byte	0x52
 3950 08f5 05       		.uleb128 0x5
 3951 08f6 03       		.byte	0x3
 3952 08f7 2A000000 		.4byte	.LC10
 3953 08fb 00       		.byte	0
 3954 08fc 19       		.uleb128 0x19
 3955 08fd 4E000000 		.4byte	.LVL13
 3956 0901 B81B0000 		.4byte	0x1bb8
 3957 0905 1E090000 		.4byte	0x91e
 3958 0909 1A       		.uleb128 0x1a
 3959 090a 01       		.uleb128 0x1
 3960 090b 50       		.byte	0x50
 3961 090c 01       		.uleb128 0x1
 3962 090d 3A       		.byte	0x3a
 3963 090e 1A       		.uleb128 0x1a
 3964 090f 01       		.uleb128 0x1
 3965 0910 51       		.byte	0x51
 3966 0911 02       		.uleb128 0x2
 3967 0912 08       		.byte	0x8
 3968 0913 CD       		.byte	0xcd
 3969 0914 1A       		.uleb128 0x1a
 3970 0915 01       		.uleb128 0x1
 3971 0916 52       		.byte	0x52
 3972 0917 05       		.uleb128 0x5
 3973 0918 03       		.byte	0x3
 3974 0919 33000000 		.4byte	.LC12
 3975 091d 00       		.byte	0
 3976 091e 1B       		.uleb128 0x1b
 3977 091f 58000000 		.4byte	.LVL14
 3978 0923 B81B0000 		.4byte	0x1bb8
 3979 0927 1A       		.uleb128 0x1a
ARM GAS  C:\Users\Melody\AppData\Local\Temp\ccuHhgp0.s 			page 90


 3980 0928 01       		.uleb128 0x1
 3981 0929 50       		.byte	0x50
 3982 092a 02       		.uleb128 0x2
 3983 092b 08       		.byte	0x8
 3984 092c FA       		.byte	0xfa
 3985 092d 1A       		.uleb128 0x1a
 3986 092e 01       		.uleb128 0x1
 3987 092f 51       		.byte	0x51
 3988 0930 02       		.uleb128 0x2
 3989 0931 08       		.byte	0x8
 3990 0932 CD       		.byte	0xcd
 3991 0933 1A       		.uleb128 0x1a
 3992 0934 01       		.uleb128 0x1
 3993 0935 52       		.byte	0x52
 3994 0936 05       		.uleb128 0x5
 3995 0937 03       		.byte	0x3
 3996 0938 3D000000 		.4byte	.LC14
 3997 093c 00       		.byte	0
 3998 093d 00       		.byte	0
 3999 093e 18       		.uleb128 0x18
 4000 093f A7050000 		.4byte	.LASF112
 4001 0943 01       		.byte	0x1
 4002 0944 2F       		.byte	0x2f
 4003 0945 00000000 		.4byte	.LFB37
 4004 0949 48000000 		.4byte	.LFE37-.LFB37
 4005 094d 01       		.uleb128 0x1
 4006 094e 9C       		.byte	0x9c
 4007 094f EE090000 		.4byte	0x9ee
 4008 0953 19       		.uleb128 0x19
 4009 0954 08000000 		.4byte	.LVL15
 4010 0958 951B0000 		.4byte	0x1b95
 4011 095c 66090000 		.4byte	0x966
 4012 0960 1A       		.uleb128 0x1a
 4013 0961 01       		.uleb128 0x1
 4014 0962 50       		.byte	0x50
 4015 0963 01       		.uleb128 0x1
 4016 0964 30       		.byte	0x30
 4017 0965 00       		.byte	0
 4018 0966 19       		.uleb128 0x19
 4019 0967 12000000 		.4byte	.LVL16
 4020 096b B81B0000 		.4byte	0x1bb8
 4021 096f 88090000 		.4byte	0x988
 4022 0973 1A       		.uleb128 0x1a
 4023 0974 01       		.uleb128 0x1
 4024 0975 50       		.byte	0x50
 4025 0976 02       		.uleb128 0x2
 4026 0977 08       		.byte	0x8
 4027 0978 44       		.byte	0x44
 4028 0979 1A       		.uleb128 0x1a
 4029 097a 01       		.uleb128 0x1
 4030 097b 51       		.byte	0x51
 4031 097c 01       		.uleb128 0x1
 4032 097d 3A       		.byte	0x3a
 4033 097e 1A       		.uleb128 0x1a
 4034 097f 01       		.uleb128 0x1
 4035 0980 52       		.byte	0x52
 4036 0981 05       		.uleb128 0x5
ARM GAS  C:\Users\Melody\AppData\Local\Temp\ccuHhgp0.s 			page 91


 4037 0982 03       		.byte	0x3
 4038 0983 47000000 		.4byte	.LC16
 4039 0987 00       		.byte	0
 4040 0988 19       		.uleb128 0x19
 4041 0989 1E000000 		.4byte	.LVL17
 4042 098d B81B0000 		.4byte	0x1bb8
 4043 0991 AB090000 		.4byte	0x9ab
 4044 0995 1A       		.uleb128 0x1a
 4045 0996 01       		.uleb128 0x1
 4046 0997 50       		.byte	0x50
 4047 0998 03       		.uleb128 0x3
 4048 0999 0A       		.byte	0xa
 4049 099a 2901     		.2byte	0x129
 4050 099c 1A       		.uleb128 0x1a
 4051 099d 01       		.uleb128 0x1
 4052 099e 51       		.byte	0x51
 4053 099f 01       		.uleb128 0x1
 4054 09a0 3A       		.byte	0x3a
 4055 09a1 1A       		.uleb128 0x1a
 4056 09a2 01       		.uleb128 0x1
 4057 09a3 52       		.byte	0x52
 4058 09a4 05       		.uleb128 0x5
 4059 09a5 03       		.byte	0x3
 4060 09a6 50000000 		.4byte	.LC18
 4061 09aa 00       		.byte	0
 4062 09ab 19       		.uleb128 0x19
 4063 09ac 28000000 		.4byte	.LVL18
 4064 09b0 B81B0000 		.4byte	0x1bb8
 4065 09b4 CD090000 		.4byte	0x9cd
 4066 09b8 1A       		.uleb128 0x1a
 4067 09b9 01       		.uleb128 0x1
 4068 09ba 50       		.byte	0x50
 4069 09bb 01       		.uleb128 0x1
 4070 09bc 35       		.byte	0x35
 4071 09bd 1A       		.uleb128 0x1a
 4072 09be 01       		.uleb128 0x1
 4073 09bf 51       		.byte	0x51
 4074 09c0 02       		.uleb128 0x2
 4075 09c1 08       		.byte	0x8
 4076 09c2 B4       		.byte	0xb4
 4077 09c3 1A       		.uleb128 0x1a
 4078 09c4 01       		.uleb128 0x1
 4079 09c5 52       		.byte	0x52
 4080 09c6 05       		.uleb128 0x5
 4081 09c7 03       		.byte	0x3
 4082 09c8 16000000 		.4byte	.LC4
 4083 09cc 00       		.byte	0
 4084 09cd 1B       		.uleb128 0x1b
 4085 09ce 34000000 		.4byte	.LVL19
 4086 09d2 B81B0000 		.4byte	0x1bb8
 4087 09d6 1A       		.uleb128 0x1a
 4088 09d7 01       		.uleb128 0x1
 4089 09d8 50       		.byte	0x50
 4090 09d9 03       		.uleb128 0x3
 4091 09da 0A       		.byte	0xa
 4092 09db 1301     		.2byte	0x113
 4093 09dd 1A       		.uleb128 0x1a
ARM GAS  C:\Users\Melody\AppData\Local\Temp\ccuHhgp0.s 			page 92


 4094 09de 01       		.uleb128 0x1
 4095 09df 51       		.byte	0x51
 4096 09e0 02       		.uleb128 0x2
 4097 09e1 08       		.byte	0x8
 4098 09e2 B4       		.byte	0xb4
 4099 09e3 1A       		.uleb128 0x1a
 4100 09e4 01       		.uleb128 0x1
 4101 09e5 52       		.byte	0x52
 4102 09e6 05       		.uleb128 0x5
 4103 09e7 03       		.byte	0x3
 4104 09e8 23000000 		.4byte	.LC8
 4105 09ec 00       		.byte	0
 4106 09ed 00       		.byte	0
 4107 09ee 1C       		.uleb128 0x1c
 4108 09ef 7B060000 		.4byte	.LASF120
 4109 09f3 01       		.byte	0x1
 4110 09f4 85       		.byte	0x85
 4111 09f5 00000000 		.4byte	.LFB38
 4112 09f9 5C010000 		.4byte	.LFE38-.LFB38
 4113 09fd 01       		.uleb128 0x1
 4114 09fe 9C       		.byte	0x9c
 4115 09ff 970B0000 		.4byte	0xb97
 4116 0a03 1D       		.uleb128 0x1d
 4117 0a04 11030000 		.4byte	.LASF69
 4118 0a08 01       		.byte	0x1
 4119 0a09 85       		.byte	0x85
 4120 0a0a AD000000 		.4byte	0xad
 4121 0a0e 00000000 		.4byte	.LLST0
 4122 0a12 1E       		.uleb128 0x1e
 4123 0a13 783100   		.ascii	"x1\000"
 4124 0a16 01       		.byte	0x1
 4125 0a17 85       		.byte	0x85
 4126 0a18 C3000000 		.4byte	0xc3
 4127 0a1c 21000000 		.4byte	.LLST1
 4128 0a20 1E       		.uleb128 0x1e
 4129 0a21 793100   		.ascii	"y1\000"
 4130 0a24 01       		.byte	0x1
 4131 0a25 85       		.byte	0x85
 4132 0a26 C3000000 		.4byte	0xc3
 4133 0a2a 42000000 		.4byte	.LLST2
 4134 0a2e 1E       		.uleb128 0x1e
 4135 0a2f 783200   		.ascii	"x2\000"
 4136 0a32 01       		.byte	0x1
 4137 0a33 85       		.byte	0x85
 4138 0a34 C3000000 		.4byte	0xc3
 4139 0a38 63000000 		.4byte	.LLST3
 4140 0a3c 1E       		.uleb128 0x1e
 4141 0a3d 793200   		.ascii	"y2\000"
 4142 0a40 01       		.byte	0x1
 4143 0a41 85       		.byte	0x85
 4144 0a42 C3000000 		.4byte	0xc3
 4145 0a46 84000000 		.4byte	.LLST4
 4146 0a4a 1D       		.uleb128 0x1d
 4147 0a4b 92030000 		.4byte	.LASF113
 4148 0a4f 01       		.byte	0x1
 4149 0a50 85       		.byte	0x85
 4150 0a51 AD000000 		.4byte	0xad
ARM GAS  C:\Users\Melody\AppData\Local\Temp\ccuHhgp0.s 			page 93


 4151 0a55 B0000000 		.4byte	.LLST5
 4152 0a59 1F       		.uleb128 0x1f
 4153 0a5a 84060000 		.4byte	.LASF114
 4154 0a5e 01       		.byte	0x1
 4155 0a5f 86       		.byte	0x86
 4156 0a60 94000000 		.4byte	0x94
 4157 0a64 F4000000 		.4byte	.LLST6
 4158 0a68 1F       		.uleb128 0x1f
 4159 0a69 FB040000 		.4byte	.LASF115
 4160 0a6d 01       		.byte	0x1
 4161 0a6e 87       		.byte	0x87
 4162 0a6f 94000000 		.4byte	0x94
 4163 0a73 07010000 		.4byte	.LLST7
 4164 0a77 1F       		.uleb128 0x1f
 4165 0a78 E4020000 		.4byte	.LASF116
 4166 0a7c 01       		.byte	0x1
 4167 0a7d 87       		.byte	0x87
 4168 0a7e 94000000 		.4byte	0x94
 4169 0a82 30010000 		.4byte	.LLST8
 4170 0a86 1F       		.uleb128 0x1f
 4171 0a87 54050000 		.4byte	.LASF117
 4172 0a8b 01       		.byte	0x1
 4173 0a8c 88       		.byte	0x88
 4174 0a8d 94000000 		.4byte	0x94
 4175 0a91 83010000 		.4byte	.LLST9
 4176 0a95 1F       		.uleb128 0x1f
 4177 0a96 BA010000 		.4byte	.LASF118
 4178 0a9a 01       		.byte	0x1
 4179 0a9b 98       		.byte	0x98
 4180 0a9c BA030000 		.4byte	0x3ba
 4181 0aa0 BD010000 		.4byte	.LLST10
 4182 0aa4 20       		.uleb128 0x20
 4183 0aa5 94000000 		.4byte	.LBB2
 4184 0aa9 A2000000 		.4byte	.LBE2-.LBB2
 4185 0aad 570B0000 		.4byte	0xb57
 4186 0ab1 21       		.uleb128 0x21
 4187 0ab2 08000000 		.4byte	.LASF119
 4188 0ab6 01       		.byte	0x1
 4189 0ab7 A5       		.byte	0xa5
 4190 0ab8 970B0000 		.4byte	0xb97
 4191 0abc 02       		.uleb128 0x2
 4192 0abd 91       		.byte	0x91
 4193 0abe 64       		.sleb128 -28
 4194 0abf 19       		.uleb128 0x19
 4195 0ac0 A0000000 		.4byte	.LVL39
 4196 0ac4 C41B0000 		.4byte	0x1bc4
 4197 0ac8 E20A0000 		.4byte	0xae2
 4198 0acc 1A       		.uleb128 0x1a
 4199 0acd 01       		.uleb128 0x1
 4200 0ace 50       		.byte	0x50
 4201 0acf 02       		.uleb128 0x2
 4202 0ad0 77       		.byte	0x77
 4203 0ad1 00       		.sleb128 0
 4204 0ad2 1A       		.uleb128 0x1a
 4205 0ad3 01       		.uleb128 0x1
 4206 0ad4 51       		.byte	0x51
 4207 0ad5 05       		.uleb128 0x5
ARM GAS  C:\Users\Melody\AppData\Local\Temp\ccuHhgp0.s 			page 94


 4208 0ad6 03       		.byte	0x3
 4209 0ad7 60000000 		.4byte	.LC26
 4210 0adb 1A       		.uleb128 0x1a
 4211 0adc 01       		.uleb128 0x1
 4212 0add 52       		.byte	0x52
 4213 0ade 02       		.uleb128 0x2
 4214 0adf 75       		.byte	0x75
 4215 0ae0 00       		.sleb128 0
 4216 0ae1 00       		.byte	0
 4217 0ae2 19       		.uleb128 0x19
 4218 0ae3 EE000000 		.4byte	.LVL43
 4219 0ae7 A11B0000 		.4byte	0x1ba1
 4220 0aeb 0F0B0000 		.4byte	0xb0f
 4221 0aef 1A       		.uleb128 0x1a
 4222 0af0 01       		.uleb128 0x1
 4223 0af1 50       		.byte	0x50
 4224 0af2 04       		.uleb128 0x4
 4225 0af3 7D       		.byte	0x7d
 4226 0af4 0C       		.sleb128 12
 4227 0af5 94       		.byte	0x94
 4228 0af6 02       		.byte	0x2
 4229 0af7 1A       		.uleb128 0x1a
 4230 0af8 01       		.uleb128 0x1
 4231 0af9 52       		.byte	0x52
 4232 0afa 04       		.uleb128 0x4
 4233 0afb 7D       		.byte	0x7d
 4234 0afc 10       		.sleb128 16
 4235 0afd 94       		.byte	0x94
 4236 0afe 02       		.byte	0x2
 4237 0aff 1A       		.uleb128 0x1a
 4238 0b00 01       		.uleb128 0x1
 4239 0b01 53       		.byte	0x53
 4240 0b02 04       		.uleb128 0x4
 4241 0b03 7D       		.byte	0x7d
 4242 0b04 14       		.sleb128 20
 4243 0b05 94       		.byte	0x94
 4244 0b06 02       		.byte	0x2
 4245 0b07 1A       		.uleb128 0x1a
 4246 0b08 02       		.uleb128 0x2
 4247 0b09 7D       		.byte	0x7d
 4248 0b0a 00       		.sleb128 0
 4249 0b0b 02       		.uleb128 0x2
 4250 0b0c 75       		.byte	0x75
 4251 0b0d 00       		.sleb128 0
 4252 0b0e 00       		.byte	0
 4253 0b0f 19       		.uleb128 0x19
 4254 0b10 22010000 		.4byte	.LVL48
 4255 0b14 A11B0000 		.4byte	0x1ba1
 4256 0b18 3C0B0000 		.4byte	0xb3c
 4257 0b1c 1A       		.uleb128 0x1a
 4258 0b1d 01       		.uleb128 0x1
 4259 0b1e 50       		.byte	0x50
 4260 0b1f 04       		.uleb128 0x4
 4261 0b20 7D       		.byte	0x7d
 4262 0b21 0C       		.sleb128 12
 4263 0b22 94       		.byte	0x94
 4264 0b23 02       		.byte	0x2
ARM GAS  C:\Users\Melody\AppData\Local\Temp\ccuHhgp0.s 			page 95


 4265 0b24 1A       		.uleb128 0x1a
 4266 0b25 01       		.uleb128 0x1
 4267 0b26 52       		.byte	0x52
 4268 0b27 04       		.uleb128 0x4
 4269 0b28 7D       		.byte	0x7d
 4270 0b29 10       		.sleb128 16
 4271 0b2a 94       		.byte	0x94
 4272 0b2b 02       		.byte	0x2
 4273 0b2c 1A       		.uleb128 0x1a
 4274 0b2d 01       		.uleb128 0x1
 4275 0b2e 53       		.byte	0x53
 4276 0b2f 04       		.uleb128 0x4
 4277 0b30 7D       		.byte	0x7d
 4278 0b31 14       		.sleb128 20
 4279 0b32 94       		.byte	0x94
 4280 0b33 02       		.byte	0x2
 4281 0b34 1A       		.uleb128 0x1a
 4282 0b35 02       		.uleb128 0x2
 4283 0b36 7D       		.byte	0x7d
 4284 0b37 00       		.sleb128 0
 4285 0b38 02       		.uleb128 0x2
 4286 0b39 75       		.byte	0x75
 4287 0b3a 00       		.sleb128 0
 4288 0b3b 00       		.byte	0
 4289 0b3c 1B       		.uleb128 0x1b
 4290 0b3d 36010000 		.4byte	.LVL50
 4291 0b41 CF1B0000 		.4byte	0x1bcf
 4292 0b45 1A       		.uleb128 0x1a
 4293 0b46 01       		.uleb128 0x1
 4294 0b47 50       		.byte	0x50
 4295 0b48 04       		.uleb128 0x4
 4296 0b49 91       		.byte	0x91
 4297 0b4a 5C       		.sleb128 -36
 4298 0b4b 94       		.byte	0x94
 4299 0b4c 02       		.byte	0x2
 4300 0b4d 1A       		.uleb128 0x1a
 4301 0b4e 01       		.uleb128 0x1
 4302 0b4f 51       		.byte	0x51
 4303 0b50 04       		.uleb128 0x4
 4304 0b51 91       		.byte	0x91
 4305 0b52 58       		.sleb128 -40
 4306 0b53 94       		.byte	0x94
 4307 0b54 02       		.byte	0x2
 4308 0b55 00       		.byte	0
 4309 0b56 00       		.byte	0
 4310 0b57 22       		.uleb128 0x22
 4311 0b58 54000000 		.4byte	.LVL33
 4312 0b5c DB1B0000 		.4byte	0x1bdb
 4313 0b60 19       		.uleb128 0x19
 4314 0b61 86000000 		.4byte	.LVL36
 4315 0b65 A11B0000 		.4byte	0x1ba1
 4316 0b69 8D0B0000 		.4byte	0xb8d
 4317 0b6d 1A       		.uleb128 0x1a
 4318 0b6e 01       		.uleb128 0x1
 4319 0b6f 50       		.byte	0x50
 4320 0b70 04       		.uleb128 0x4
 4321 0b71 7D       		.byte	0x7d
ARM GAS  C:\Users\Melody\AppData\Local\Temp\ccuHhgp0.s 			page 96


 4322 0b72 0C       		.sleb128 12
 4323 0b73 94       		.byte	0x94
 4324 0b74 02       		.byte	0x2
 4325 0b75 1A       		.uleb128 0x1a
 4326 0b76 01       		.uleb128 0x1
 4327 0b77 52       		.byte	0x52
 4328 0b78 04       		.uleb128 0x4
 4329 0b79 7D       		.byte	0x7d
 4330 0b7a 10       		.sleb128 16
 4331 0b7b 94       		.byte	0x94
 4332 0b7c 02       		.byte	0x2
 4333 0b7d 1A       		.uleb128 0x1a
 4334 0b7e 01       		.uleb128 0x1
 4335 0b7f 53       		.byte	0x53
 4336 0b80 04       		.uleb128 0x4
 4337 0b81 7D       		.byte	0x7d
 4338 0b82 14       		.sleb128 20
 4339 0b83 94       		.byte	0x94
 4340 0b84 02       		.byte	0x2
 4341 0b85 1A       		.uleb128 0x1a
 4342 0b86 02       		.uleb128 0x2
 4343 0b87 7D       		.byte	0x7d
 4344 0b88 00       		.sleb128 0
 4345 0b89 02       		.uleb128 0x2
 4346 0b8a 75       		.byte	0x75
 4347 0b8b 00       		.sleb128 0
 4348 0b8c 00       		.byte	0
 4349 0b8d 22       		.uleb128 0x22
 4350 0b8e 3C010000 		.4byte	.LVL51
 4351 0b92 DB1B0000 		.4byte	0x1bdb
 4352 0b96 00       		.byte	0
 4353 0b97 16       		.uleb128 0x16
 4354 0b98 F3000000 		.4byte	0xf3
 4355 0b9c A70B0000 		.4byte	0xba7
 4356 0ba0 17       		.uleb128 0x17
 4357 0ba1 01010000 		.4byte	0x101
 4358 0ba5 03       		.byte	0x3
 4359 0ba6 00       		.byte	0
 4360 0ba7 1C       		.uleb128 0x1c
 4361 0ba8 41050000 		.4byte	.LASF121
 4362 0bac 01       		.byte	0x1
 4363 0bad F0       		.byte	0xf0
 4364 0bae 00000000 		.4byte	.LFB39
 4365 0bb2 0C010000 		.4byte	.LFE39-.LFB39
 4366 0bb6 01       		.uleb128 0x1
 4367 0bb7 9C       		.byte	0x9c
 4368 0bb8 620D0000 		.4byte	0xd62
 4369 0bbc 1D       		.uleb128 0x1d
 4370 0bbd 11030000 		.4byte	.LASF69
 4371 0bc1 01       		.byte	0x1
 4372 0bc2 F0       		.byte	0xf0
 4373 0bc3 AD000000 		.4byte	0xad
 4374 0bc7 ED010000 		.4byte	.LLST11
 4375 0bcb 1E       		.uleb128 0x1e
 4376 0bcc 783100   		.ascii	"x1\000"
 4377 0bcf 01       		.byte	0x1
 4378 0bd0 F0       		.byte	0xf0
ARM GAS  C:\Users\Melody\AppData\Local\Temp\ccuHhgp0.s 			page 97


 4379 0bd1 C3000000 		.4byte	0xc3
 4380 0bd5 0E020000 		.4byte	.LLST12
 4381 0bd9 1E       		.uleb128 0x1e
 4382 0bda 793100   		.ascii	"y1\000"
 4383 0bdd 01       		.byte	0x1
 4384 0bde F0       		.byte	0xf0
 4385 0bdf C3000000 		.4byte	0xc3
 4386 0be3 2F020000 		.4byte	.LLST13
 4387 0be7 1E       		.uleb128 0x1e
 4388 0be8 783200   		.ascii	"x2\000"
 4389 0beb 01       		.byte	0x1
 4390 0bec F0       		.byte	0xf0
 4391 0bed C3000000 		.4byte	0xc3
 4392 0bf1 50020000 		.4byte	.LLST14
 4393 0bf5 1E       		.uleb128 0x1e
 4394 0bf6 793200   		.ascii	"y2\000"
 4395 0bf9 01       		.byte	0x1
 4396 0bfa F0       		.byte	0xf0
 4397 0bfb C3000000 		.4byte	0xc3
 4398 0bff 71020000 		.4byte	.LLST15
 4399 0c03 1D       		.uleb128 0x1d
 4400 0c04 92030000 		.4byte	.LASF113
 4401 0c08 01       		.byte	0x1
 4402 0c09 F0       		.byte	0xf0
 4403 0c0a AD000000 		.4byte	0xad
 4404 0c0e 9D020000 		.4byte	.LLST16
 4405 0c12 1F       		.uleb128 0x1f
 4406 0c13 FB040000 		.4byte	.LASF115
 4407 0c17 01       		.byte	0x1
 4408 0c18 F1       		.byte	0xf1
 4409 0c19 94000000 		.4byte	0x94
 4410 0c1d E1020000 		.4byte	.LLST17
 4411 0c21 1F       		.uleb128 0x1f
 4412 0c22 E4020000 		.4byte	.LASF116
 4413 0c26 01       		.byte	0x1
 4414 0c27 F1       		.byte	0xf1
 4415 0c28 94000000 		.4byte	0x94
 4416 0c2c 00030000 		.4byte	.LLST18
 4417 0c30 1F       		.uleb128 0x1f
 4418 0c31 54050000 		.4byte	.LASF117
 4419 0c35 01       		.byte	0x1
 4420 0c36 F2       		.byte	0xf2
 4421 0c37 94000000 		.4byte	0x94
 4422 0c3b 1F030000 		.4byte	.LLST19
 4423 0c3f 23       		.uleb128 0x23
 4424 0c40 84060000 		.4byte	.LASF114
 4425 0c44 01       		.byte	0x1
 4426 0c45 F3       		.byte	0xf3
 4427 0c46 94000000 		.4byte	0x94
 4428 0c4a 03       		.byte	0x3
 4429 0c4b 1F       		.uleb128 0x1f
 4430 0c4c BA010000 		.4byte	.LASF118
 4431 0c50 01       		.byte	0x1
 4432 0c51 FC       		.byte	0xfc
 4433 0c52 BA030000 		.4byte	0x3ba
 4434 0c56 6A030000 		.4byte	.LLST20
 4435 0c5a 24       		.uleb128 0x24
ARM GAS  C:\Users\Melody\AppData\Local\Temp\ccuHhgp0.s 			page 98


 4436 0c5b 08000000 		.4byte	.LASF119
 4437 0c5f 01       		.byte	0x1
 4438 0c60 1301     		.2byte	0x113
 4439 0c62 970B0000 		.4byte	0xb97
 4440 0c66 02       		.uleb128 0x2
 4441 0c67 91       		.byte	0x91
 4442 0c68 64       		.sleb128 -28
 4443 0c69 22       		.uleb128 0x22
 4444 0c6a 4C000000 		.4byte	.LVL65
 4445 0c6e DB1B0000 		.4byte	0x1bdb
 4446 0c72 19       		.uleb128 0x19
 4447 0c73 86000000 		.4byte	.LVL67
 4448 0c77 A11B0000 		.4byte	0x1ba1
 4449 0c7b A00C0000 		.4byte	0xca0
 4450 0c7f 1A       		.uleb128 0x1a
 4451 0c80 01       		.uleb128 0x1
 4452 0c81 50       		.byte	0x50
 4453 0c82 02       		.uleb128 0x2
 4454 0c83 75       		.byte	0x75
 4455 0c84 00       		.sleb128 0
 4456 0c85 1A       		.uleb128 0x1a
 4457 0c86 01       		.uleb128 0x1
 4458 0c87 51       		.byte	0x51
 4459 0c88 02       		.uleb128 0x2
 4460 0c89 76       		.byte	0x76
 4461 0c8a 00       		.sleb128 0
 4462 0c8b 1A       		.uleb128 0x1a
 4463 0c8c 01       		.uleb128 0x1
 4464 0c8d 52       		.byte	0x52
 4465 0c8e 02       		.uleb128 0x2
 4466 0c8f 77       		.byte	0x77
 4467 0c90 00       		.sleb128 0
 4468 0c91 1A       		.uleb128 0x1a
 4469 0c92 01       		.uleb128 0x1
 4470 0c93 53       		.byte	0x53
 4471 0c94 04       		.uleb128 0x4
 4472 0c95 91       		.byte	0x91
 4473 0c96 54       		.sleb128 -44
 4474 0c97 94       		.byte	0x94
 4475 0c98 02       		.byte	0x2
 4476 0c99 1A       		.uleb128 0x1a
 4477 0c9a 02       		.uleb128 0x2
 4478 0c9b 7D       		.byte	0x7d
 4479 0c9c 00       		.sleb128 0
 4480 0c9d 01       		.uleb128 0x1
 4481 0c9e 30       		.byte	0x30
 4482 0c9f 00       		.byte	0
 4483 0ca0 19       		.uleb128 0x19
 4484 0ca1 94000000 		.4byte	.LVL68
 4485 0ca5 A11B0000 		.4byte	0x1ba1
 4486 0ca9 CF0C0000 		.4byte	0xccf
 4487 0cad 1A       		.uleb128 0x1a
 4488 0cae 01       		.uleb128 0x1
 4489 0caf 50       		.byte	0x50
 4490 0cb0 02       		.uleb128 0x2
 4491 0cb1 75       		.byte	0x75
 4492 0cb2 00       		.sleb128 0
ARM GAS  C:\Users\Melody\AppData\Local\Temp\ccuHhgp0.s 			page 99


 4493 0cb3 1A       		.uleb128 0x1a
 4494 0cb4 01       		.uleb128 0x1
 4495 0cb5 51       		.byte	0x51
 4496 0cb6 02       		.uleb128 0x2
 4497 0cb7 76       		.byte	0x76
 4498 0cb8 00       		.sleb128 0
 4499 0cb9 1A       		.uleb128 0x1a
 4500 0cba 01       		.uleb128 0x1
 4501 0cbb 52       		.byte	0x52
 4502 0cbc 02       		.uleb128 0x2
 4503 0cbd 77       		.byte	0x77
 4504 0cbe 00       		.sleb128 0
 4505 0cbf 1A       		.uleb128 0x1a
 4506 0cc0 01       		.uleb128 0x1
 4507 0cc1 53       		.byte	0x53
 4508 0cc2 04       		.uleb128 0x4
 4509 0cc3 91       		.byte	0x91
 4510 0cc4 54       		.sleb128 -44
 4511 0cc5 94       		.byte	0x94
 4512 0cc6 02       		.byte	0x2
 4513 0cc7 1A       		.uleb128 0x1a
 4514 0cc8 02       		.uleb128 0x2
 4515 0cc9 7D       		.byte	0x7d
 4516 0cca 00       		.sleb128 0
 4517 0ccb 02       		.uleb128 0x2
 4518 0ccc 74       		.byte	0x74
 4519 0ccd 00       		.sleb128 0
 4520 0cce 00       		.byte	0
 4521 0ccf 19       		.uleb128 0x19
 4522 0cd0 C8000000 		.4byte	.LVL71
 4523 0cd4 A11B0000 		.4byte	0x1ba1
 4524 0cd8 040D0000 		.4byte	0xd04
 4525 0cdc 1A       		.uleb128 0x1a
 4526 0cdd 01       		.uleb128 0x1
 4527 0cde 50       		.byte	0x50
 4528 0cdf 04       		.uleb128 0x4
 4529 0ce0 7D       		.byte	0x7d
 4530 0ce1 0C       		.sleb128 12
 4531 0ce2 94       		.byte	0x94
 4532 0ce3 02       		.byte	0x2
 4533 0ce4 1A       		.uleb128 0x1a
 4534 0ce5 01       		.uleb128 0x1
 4535 0ce6 51       		.byte	0x51
 4536 0ce7 04       		.uleb128 0x4
 4537 0ce8 7D       		.byte	0x7d
 4538 0ce9 10       		.sleb128 16
 4539 0cea 94       		.byte	0x94
 4540 0ceb 02       		.byte	0x2
 4541 0cec 1A       		.uleb128 0x1a
 4542 0ced 01       		.uleb128 0x1
 4543 0cee 52       		.byte	0x52
 4544 0cef 04       		.uleb128 0x4
 4545 0cf0 7D       		.byte	0x7d
 4546 0cf1 14       		.sleb128 20
 4547 0cf2 94       		.byte	0x94
 4548 0cf3 02       		.byte	0x2
 4549 0cf4 1A       		.uleb128 0x1a
ARM GAS  C:\Users\Melody\AppData\Local\Temp\ccuHhgp0.s 			page 100


 4550 0cf5 01       		.uleb128 0x1
 4551 0cf6 53       		.byte	0x53
 4552 0cf7 04       		.uleb128 0x4
 4553 0cf8 7D       		.byte	0x7d
 4554 0cf9 18       		.sleb128 24
 4555 0cfa 94       		.byte	0x94
 4556 0cfb 02       		.byte	0x2
 4557 0cfc 1A       		.uleb128 0x1a
 4558 0cfd 02       		.uleb128 0x2
 4559 0cfe 7D       		.byte	0x7d
 4560 0cff 00       		.sleb128 0
 4561 0d00 02       		.uleb128 0x2
 4562 0d01 74       		.byte	0x74
 4563 0d02 00       		.sleb128 0
 4564 0d03 00       		.byte	0
 4565 0d04 19       		.uleb128 0x19
 4566 0d05 D4000000 		.4byte	.LVL72
 4567 0d09 C41B0000 		.4byte	0x1bc4
 4568 0d0d 280D0000 		.4byte	0xd28
 4569 0d11 1A       		.uleb128 0x1a
 4570 0d12 01       		.uleb128 0x1
 4571 0d13 50       		.byte	0x50
 4572 0d14 02       		.uleb128 0x2
 4573 0d15 91       		.byte	0x91
 4574 0d16 64       		.sleb128 -28
 4575 0d17 1A       		.uleb128 0x1a
 4576 0d18 01       		.uleb128 0x1
 4577 0d19 51       		.byte	0x51
 4578 0d1a 05       		.uleb128 0x5
 4579 0d1b 03       		.byte	0x3
 4580 0d1c 63000000 		.4byte	.LC31
 4581 0d20 1A       		.uleb128 0x1a
 4582 0d21 01       		.uleb128 0x1
 4583 0d22 52       		.byte	0x52
 4584 0d23 03       		.uleb128 0x3
 4585 0d24 91       		.byte	0x91
 4586 0d25 40       		.sleb128 -64
 4587 0d26 06       		.byte	0x6
 4588 0d27 00       		.byte	0
 4589 0d28 19       		.uleb128 0x19
 4590 0d29 EA000000 		.4byte	.LVL73
 4591 0d2d CF1B0000 		.4byte	0x1bcf
 4592 0d31 580D0000 		.4byte	0xd58
 4593 0d35 1A       		.uleb128 0x1a
 4594 0d36 01       		.uleb128 0x1
 4595 0d37 50       		.byte	0x50
 4596 0d38 04       		.uleb128 0x4
 4597 0d39 7D       		.byte	0x7d
 4598 0d3a 20       		.sleb128 32
 4599 0d3b 94       		.byte	0x94
 4600 0d3c 02       		.byte	0x2
 4601 0d3d 1A       		.uleb128 0x1a
 4602 0d3e 01       		.uleb128 0x1
 4603 0d3f 51       		.byte	0x51
 4604 0d40 04       		.uleb128 0x4
 4605 0d41 7D       		.byte	0x7d
 4606 0d42 24       		.sleb128 36
ARM GAS  C:\Users\Melody\AppData\Local\Temp\ccuHhgp0.s 			page 101


 4607 0d43 94       		.byte	0x94
 4608 0d44 02       		.byte	0x2
 4609 0d45 1A       		.uleb128 0x1a
 4610 0d46 01       		.uleb128 0x1
 4611 0d47 52       		.byte	0x52
 4612 0d48 02       		.uleb128 0x2
 4613 0d49 91       		.byte	0x91
 4614 0d4a 64       		.sleb128 -28
 4615 0d4b 1A       		.uleb128 0x1a
 4616 0d4c 01       		.uleb128 0x1
 4617 0d4d 53       		.byte	0x53
 4618 0d4e 01       		.uleb128 0x1
 4619 0d4f 30       		.byte	0x30
 4620 0d50 1A       		.uleb128 0x1a
 4621 0d51 02       		.uleb128 0x2
 4622 0d52 7D       		.byte	0x7d
 4623 0d53 00       		.sleb128 0
 4624 0d54 02       		.uleb128 0x2
 4625 0d55 74       		.byte	0x74
 4626 0d56 00       		.sleb128 0
 4627 0d57 00       		.byte	0
 4628 0d58 22       		.uleb128 0x22
 4629 0d59 F0000000 		.4byte	.LVL74
 4630 0d5d DB1B0000 		.4byte	0x1bdb
 4631 0d61 00       		.byte	0
 4632 0d62 25       		.uleb128 0x25
 4633 0d63 74020000 		.4byte	.LASF122
 4634 0d67 01       		.byte	0x1
 4635 0d68 8E01     		.2byte	0x18e
 4636 0d6a 00000000 		.4byte	.LFB40
 4637 0d6e A4030000 		.4byte	.LFE40-.LFB40
 4638 0d72 01       		.uleb128 0x1
 4639 0d73 9C       		.byte	0x9c
 4640 0d74 AB100000 		.4byte	0x10ab
 4641 0d78 26       		.uleb128 0x26
 4642 0d79 6A060000 		.4byte	.LASF62
 4643 0d7d 01       		.byte	0x1
 4644 0d7e 8E01     		.2byte	0x18e
 4645 0d80 AD000000 		.4byte	0xad
 4646 0d84 8C030000 		.4byte	.LLST21
 4647 0d88 27       		.uleb128 0x27
 4648 0d89 783100   		.ascii	"x1\000"
 4649 0d8c 01       		.byte	0x1
 4650 0d8d 8E01     		.2byte	0x18e
 4651 0d8f C3000000 		.4byte	0xc3
 4652 0d93 AD030000 		.4byte	.LLST22
 4653 0d97 27       		.uleb128 0x27
 4654 0d98 793100   		.ascii	"y1\000"
 4655 0d9b 01       		.byte	0x1
 4656 0d9c 8E01     		.2byte	0x18e
 4657 0d9e C3000000 		.4byte	0xc3
 4658 0da2 CE030000 		.4byte	.LLST23
 4659 0da6 27       		.uleb128 0x27
 4660 0da7 783200   		.ascii	"x2\000"
 4661 0daa 01       		.byte	0x1
 4662 0dab 8E01     		.2byte	0x18e
 4663 0dad C3000000 		.4byte	0xc3
ARM GAS  C:\Users\Melody\AppData\Local\Temp\ccuHhgp0.s 			page 102


 4664 0db1 EF030000 		.4byte	.LLST24
 4665 0db5 27       		.uleb128 0x27
 4666 0db6 793200   		.ascii	"y2\000"
 4667 0db9 01       		.byte	0x1
 4668 0dba 8E01     		.2byte	0x18e
 4669 0dbc C3000000 		.4byte	0xc3
 4670 0dc0 10040000 		.4byte	.LLST25
 4671 0dc4 26       		.uleb128 0x26
 4672 0dc5 92030000 		.4byte	.LASF113
 4673 0dc9 01       		.byte	0x1
 4674 0dca 8E01     		.2byte	0x18e
 4675 0dcc AD000000 		.4byte	0xad
 4676 0dd0 3C040000 		.4byte	.LLST26
 4677 0dd4 28       		.uleb128 0x28
 4678 0dd5 FB040000 		.4byte	.LASF115
 4679 0dd9 01       		.byte	0x1
 4680 0dda 8F01     		.2byte	0x18f
 4681 0ddc 94000000 		.4byte	0x94
 4682 0de0 74040000 		.4byte	.LLST27
 4683 0de4 28       		.uleb128 0x28
 4684 0de5 E4020000 		.4byte	.LASF116
 4685 0de9 01       		.byte	0x1
 4686 0dea 8F01     		.2byte	0x18f
 4687 0dec 94000000 		.4byte	0x94
 4688 0df0 93040000 		.4byte	.LLST28
 4689 0df4 28       		.uleb128 0x28
 4690 0df5 54050000 		.4byte	.LASF117
 4691 0df9 01       		.byte	0x1
 4692 0dfa 9001     		.2byte	0x190
 4693 0dfc 94000000 		.4byte	0x94
 4694 0e00 B2040000 		.4byte	.LLST29
 4695 0e04 29       		.uleb128 0x29
 4696 0e05 84060000 		.4byte	.LASF114
 4697 0e09 01       		.byte	0x1
 4698 0e0a 9101     		.2byte	0x191
 4699 0e0c 94000000 		.4byte	0x94
 4700 0e10 0A       		.byte	0xa
 4701 0e11 28       		.uleb128 0x28
 4702 0e12 BA010000 		.4byte	.LASF118
 4703 0e16 01       		.byte	0x1
 4704 0e17 9901     		.2byte	0x199
 4705 0e19 BA030000 		.4byte	0x3ba
 4706 0e1d FD040000 		.4byte	.LLST30
 4707 0e21 20       		.uleb128 0x20
 4708 0e22 54000000 		.4byte	.LBB3
 4709 0e26 98020000 		.4byte	.LBE3-.LBB3
 4710 0e2a 57100000 		.4byte	0x1057
 4711 0e2e 28       		.uleb128 0x28
 4712 0e2f 27070000 		.4byte	.LASF123
 4713 0e33 01       		.byte	0x1
 4714 0e34 9D01     		.2byte	0x19d
 4715 0e36 D9000000 		.4byte	0xd9
 4716 0e3a 60050000 		.4byte	.LLST31
 4717 0e3e 19       		.uleb128 0x19
 4718 0e3f A8000000 		.4byte	.LVL92
 4719 0e43 A11B0000 		.4byte	0x1ba1
 4720 0e47 6B0E0000 		.4byte	0xe6b
ARM GAS  C:\Users\Melody\AppData\Local\Temp\ccuHhgp0.s 			page 103


 4721 0e4b 1A       		.uleb128 0x1a
 4722 0e4c 01       		.uleb128 0x1
 4723 0e4d 50       		.byte	0x50
 4724 0e4e 04       		.uleb128 0x4
 4725 0e4f 7D       		.byte	0x7d
 4726 0e50 0C       		.sleb128 12
 4727 0e51 94       		.byte	0x94
 4728 0e52 02       		.byte	0x2
 4729 0e53 1A       		.uleb128 0x1a
 4730 0e54 01       		.uleb128 0x1
 4731 0e55 51       		.byte	0x51
 4732 0e56 04       		.uleb128 0x4
 4733 0e57 7D       		.byte	0x7d
 4734 0e58 10       		.sleb128 16
 4735 0e59 94       		.byte	0x94
 4736 0e5a 02       		.byte	0x2
 4737 0e5b 1A       		.uleb128 0x1a
 4738 0e5c 01       		.uleb128 0x1
 4739 0e5d 52       		.byte	0x52
 4740 0e5e 04       		.uleb128 0x4
 4741 0e5f 7D       		.byte	0x7d
 4742 0e60 14       		.sleb128 20
 4743 0e61 94       		.byte	0x94
 4744 0e62 02       		.byte	0x2
 4745 0e63 1A       		.uleb128 0x1a
 4746 0e64 02       		.uleb128 0x2
 4747 0e65 7D       		.byte	0x7d
 4748 0e66 00       		.sleb128 0
 4749 0e67 02       		.uleb128 0x2
 4750 0e68 74       		.byte	0x74
 4751 0e69 00       		.sleb128 0
 4752 0e6a 00       		.byte	0
 4753 0e6b 19       		.uleb128 0x19
 4754 0e6c DA000000 		.4byte	.LVL94
 4755 0e70 A11B0000 		.4byte	0x1ba1
 4756 0e74 980E0000 		.4byte	0xe98
 4757 0e78 1A       		.uleb128 0x1a
 4758 0e79 01       		.uleb128 0x1
 4759 0e7a 50       		.byte	0x50
 4760 0e7b 04       		.uleb128 0x4
 4761 0e7c 7D       		.byte	0x7d
 4762 0e7d 0C       		.sleb128 12
 4763 0e7e 94       		.byte	0x94
 4764 0e7f 02       		.byte	0x2
 4765 0e80 1A       		.uleb128 0x1a
 4766 0e81 01       		.uleb128 0x1
 4767 0e82 51       		.byte	0x51
 4768 0e83 04       		.uleb128 0x4
 4769 0e84 7D       		.byte	0x7d
 4770 0e85 10       		.sleb128 16
 4771 0e86 94       		.byte	0x94
 4772 0e87 02       		.byte	0x2
 4773 0e88 1A       		.uleb128 0x1a
 4774 0e89 01       		.uleb128 0x1
 4775 0e8a 52       		.byte	0x52
 4776 0e8b 04       		.uleb128 0x4
 4777 0e8c 7D       		.byte	0x7d
ARM GAS  C:\Users\Melody\AppData\Local\Temp\ccuHhgp0.s 			page 104


 4778 0e8d 14       		.sleb128 20
 4779 0e8e 94       		.byte	0x94
 4780 0e8f 02       		.byte	0x2
 4781 0e90 1A       		.uleb128 0x1a
 4782 0e91 02       		.uleb128 0x2
 4783 0e92 7D       		.byte	0x7d
 4784 0e93 00       		.sleb128 0
 4785 0e94 02       		.uleb128 0x2
 4786 0e95 74       		.byte	0x74
 4787 0e96 00       		.sleb128 0
 4788 0e97 00       		.byte	0
 4789 0e98 19       		.uleb128 0x19
 4790 0e99 0E010000 		.4byte	.LVL96
 4791 0e9d A11B0000 		.4byte	0x1ba1
 4792 0ea1 C50E0000 		.4byte	0xec5
 4793 0ea5 1A       		.uleb128 0x1a
 4794 0ea6 01       		.uleb128 0x1
 4795 0ea7 50       		.byte	0x50
 4796 0ea8 04       		.uleb128 0x4
 4797 0ea9 7D       		.byte	0x7d
 4798 0eaa 0C       		.sleb128 12
 4799 0eab 94       		.byte	0x94
 4800 0eac 02       		.byte	0x2
 4801 0ead 1A       		.uleb128 0x1a
 4802 0eae 01       		.uleb128 0x1
 4803 0eaf 51       		.byte	0x51
 4804 0eb0 04       		.uleb128 0x4
 4805 0eb1 7D       		.byte	0x7d
 4806 0eb2 10       		.sleb128 16
 4807 0eb3 94       		.byte	0x94
 4808 0eb4 02       		.byte	0x2
 4809 0eb5 1A       		.uleb128 0x1a
 4810 0eb6 01       		.uleb128 0x1
 4811 0eb7 52       		.byte	0x52
 4812 0eb8 04       		.uleb128 0x4
 4813 0eb9 7D       		.byte	0x7d
 4814 0eba 14       		.sleb128 20
 4815 0ebb 94       		.byte	0x94
 4816 0ebc 02       		.byte	0x2
 4817 0ebd 1A       		.uleb128 0x1a
 4818 0ebe 02       		.uleb128 0x2
 4819 0ebf 7D       		.byte	0x7d
 4820 0ec0 00       		.sleb128 0
 4821 0ec1 02       		.uleb128 0x2
 4822 0ec2 74       		.byte	0x74
 4823 0ec3 00       		.sleb128 0
 4824 0ec4 00       		.byte	0
 4825 0ec5 19       		.uleb128 0x19
 4826 0ec6 44010000 		.4byte	.LVL99
 4827 0eca A11B0000 		.4byte	0x1ba1
 4828 0ece F20E0000 		.4byte	0xef2
 4829 0ed2 1A       		.uleb128 0x1a
 4830 0ed3 01       		.uleb128 0x1
 4831 0ed4 50       		.byte	0x50
 4832 0ed5 04       		.uleb128 0x4
 4833 0ed6 7D       		.byte	0x7d
 4834 0ed7 0C       		.sleb128 12
ARM GAS  C:\Users\Melody\AppData\Local\Temp\ccuHhgp0.s 			page 105


 4835 0ed8 94       		.byte	0x94
 4836 0ed9 02       		.byte	0x2
 4837 0eda 1A       		.uleb128 0x1a
 4838 0edb 01       		.uleb128 0x1
 4839 0edc 51       		.byte	0x51
 4840 0edd 04       		.uleb128 0x4
 4841 0ede 7D       		.byte	0x7d
 4842 0edf 10       		.sleb128 16
 4843 0ee0 94       		.byte	0x94
 4844 0ee1 02       		.byte	0x2
 4845 0ee2 1A       		.uleb128 0x1a
 4846 0ee3 01       		.uleb128 0x1
 4847 0ee4 52       		.byte	0x52
 4848 0ee5 04       		.uleb128 0x4
 4849 0ee6 7D       		.byte	0x7d
 4850 0ee7 14       		.sleb128 20
 4851 0ee8 94       		.byte	0x94
 4852 0ee9 02       		.byte	0x2
 4853 0eea 1A       		.uleb128 0x1a
 4854 0eeb 02       		.uleb128 0x2
 4855 0eec 7D       		.byte	0x7d
 4856 0eed 00       		.sleb128 0
 4857 0eee 02       		.uleb128 0x2
 4858 0eef 74       		.byte	0x74
 4859 0ef0 00       		.sleb128 0
 4860 0ef1 00       		.byte	0
 4861 0ef2 19       		.uleb128 0x19
 4862 0ef3 78010000 		.4byte	.LVL101
 4863 0ef7 A11B0000 		.4byte	0x1ba1
 4864 0efb 1F0F0000 		.4byte	0xf1f
 4865 0eff 1A       		.uleb128 0x1a
 4866 0f00 01       		.uleb128 0x1
 4867 0f01 50       		.byte	0x50
 4868 0f02 04       		.uleb128 0x4
 4869 0f03 7D       		.byte	0x7d
 4870 0f04 0C       		.sleb128 12
 4871 0f05 94       		.byte	0x94
 4872 0f06 02       		.byte	0x2
 4873 0f07 1A       		.uleb128 0x1a
 4874 0f08 01       		.uleb128 0x1
 4875 0f09 51       		.byte	0x51
 4876 0f0a 04       		.uleb128 0x4
 4877 0f0b 7D       		.byte	0x7d
 4878 0f0c 10       		.sleb128 16
 4879 0f0d 94       		.byte	0x94
 4880 0f0e 02       		.byte	0x2
 4881 0f0f 1A       		.uleb128 0x1a
 4882 0f10 01       		.uleb128 0x1
 4883 0f11 52       		.byte	0x52
 4884 0f12 04       		.uleb128 0x4
 4885 0f13 7D       		.byte	0x7d
 4886 0f14 14       		.sleb128 20
 4887 0f15 94       		.byte	0x94
 4888 0f16 02       		.byte	0x2
 4889 0f17 1A       		.uleb128 0x1a
 4890 0f18 02       		.uleb128 0x2
 4891 0f19 7D       		.byte	0x7d
ARM GAS  C:\Users\Melody\AppData\Local\Temp\ccuHhgp0.s 			page 106


 4892 0f1a 00       		.sleb128 0
 4893 0f1b 02       		.uleb128 0x2
 4894 0f1c 74       		.byte	0x74
 4895 0f1d 00       		.sleb128 0
 4896 0f1e 00       		.byte	0
 4897 0f1f 19       		.uleb128 0x19
 4898 0f20 AC010000 		.4byte	.LVL103
 4899 0f24 A11B0000 		.4byte	0x1ba1
 4900 0f28 4C0F0000 		.4byte	0xf4c
 4901 0f2c 1A       		.uleb128 0x1a
 4902 0f2d 01       		.uleb128 0x1
 4903 0f2e 50       		.byte	0x50
 4904 0f2f 04       		.uleb128 0x4
 4905 0f30 7D       		.byte	0x7d
 4906 0f31 0C       		.sleb128 12
 4907 0f32 94       		.byte	0x94
 4908 0f33 02       		.byte	0x2
 4909 0f34 1A       		.uleb128 0x1a
 4910 0f35 01       		.uleb128 0x1
 4911 0f36 51       		.byte	0x51
 4912 0f37 04       		.uleb128 0x4
 4913 0f38 7D       		.byte	0x7d
 4914 0f39 10       		.sleb128 16
 4915 0f3a 94       		.byte	0x94
 4916 0f3b 02       		.byte	0x2
 4917 0f3c 1A       		.uleb128 0x1a
 4918 0f3d 01       		.uleb128 0x1
 4919 0f3e 52       		.byte	0x52
 4920 0f3f 04       		.uleb128 0x4
 4921 0f40 7D       		.byte	0x7d
 4922 0f41 14       		.sleb128 20
 4923 0f42 94       		.byte	0x94
 4924 0f43 02       		.byte	0x2
 4925 0f44 1A       		.uleb128 0x1a
 4926 0f45 02       		.uleb128 0x2
 4927 0f46 7D       		.byte	0x7d
 4928 0f47 00       		.sleb128 0
 4929 0f48 02       		.uleb128 0x2
 4930 0f49 74       		.byte	0x74
 4931 0f4a 00       		.sleb128 0
 4932 0f4b 00       		.byte	0
 4933 0f4c 19       		.uleb128 0x19
 4934 0f4d DC010000 		.4byte	.LVL105
 4935 0f51 A11B0000 		.4byte	0x1ba1
 4936 0f55 790F0000 		.4byte	0xf79
 4937 0f59 1A       		.uleb128 0x1a
 4938 0f5a 01       		.uleb128 0x1
 4939 0f5b 50       		.byte	0x50
 4940 0f5c 04       		.uleb128 0x4
 4941 0f5d 7D       		.byte	0x7d
 4942 0f5e 0C       		.sleb128 12
 4943 0f5f 94       		.byte	0x94
 4944 0f60 02       		.byte	0x2
 4945 0f61 1A       		.uleb128 0x1a
 4946 0f62 01       		.uleb128 0x1
 4947 0f63 51       		.byte	0x51
 4948 0f64 04       		.uleb128 0x4
ARM GAS  C:\Users\Melody\AppData\Local\Temp\ccuHhgp0.s 			page 107


 4949 0f65 7D       		.byte	0x7d
 4950 0f66 10       		.sleb128 16
 4951 0f67 94       		.byte	0x94
 4952 0f68 02       		.byte	0x2
 4953 0f69 1A       		.uleb128 0x1a
 4954 0f6a 01       		.uleb128 0x1
 4955 0f6b 52       		.byte	0x52
 4956 0f6c 04       		.uleb128 0x4
 4957 0f6d 7D       		.byte	0x7d
 4958 0f6e 14       		.sleb128 20
 4959 0f6f 94       		.byte	0x94
 4960 0f70 02       		.byte	0x2
 4961 0f71 1A       		.uleb128 0x1a
 4962 0f72 02       		.uleb128 0x2
 4963 0f73 7D       		.byte	0x7d
 4964 0f74 00       		.sleb128 0
 4965 0f75 02       		.uleb128 0x2
 4966 0f76 74       		.byte	0x74
 4967 0f77 00       		.sleb128 0
 4968 0f78 00       		.byte	0
 4969 0f79 19       		.uleb128 0x19
 4970 0f7a 0E020000 		.4byte	.LVL107
 4971 0f7e A11B0000 		.4byte	0x1ba1
 4972 0f82 A60F0000 		.4byte	0xfa6
 4973 0f86 1A       		.uleb128 0x1a
 4974 0f87 01       		.uleb128 0x1
 4975 0f88 50       		.byte	0x50
 4976 0f89 04       		.uleb128 0x4
 4977 0f8a 7D       		.byte	0x7d
 4978 0f8b 0C       		.sleb128 12
 4979 0f8c 94       		.byte	0x94
 4980 0f8d 02       		.byte	0x2
 4981 0f8e 1A       		.uleb128 0x1a
 4982 0f8f 01       		.uleb128 0x1
 4983 0f90 51       		.byte	0x51
 4984 0f91 04       		.uleb128 0x4
 4985 0f92 7D       		.byte	0x7d
 4986 0f93 10       		.sleb128 16
 4987 0f94 94       		.byte	0x94
 4988 0f95 02       		.byte	0x2
 4989 0f96 1A       		.uleb128 0x1a
 4990 0f97 01       		.uleb128 0x1
 4991 0f98 52       		.byte	0x52
 4992 0f99 04       		.uleb128 0x4
 4993 0f9a 7D       		.byte	0x7d
 4994 0f9b 14       		.sleb128 20
 4995 0f9c 94       		.byte	0x94
 4996 0f9d 02       		.byte	0x2
 4997 0f9e 1A       		.uleb128 0x1a
 4998 0f9f 02       		.uleb128 0x2
 4999 0fa0 7D       		.byte	0x7d
 5000 0fa1 00       		.sleb128 0
 5001 0fa2 02       		.uleb128 0x2
 5002 0fa3 74       		.byte	0x74
 5003 0fa4 00       		.sleb128 0
 5004 0fa5 00       		.byte	0
 5005 0fa6 19       		.uleb128 0x19
ARM GAS  C:\Users\Melody\AppData\Local\Temp\ccuHhgp0.s 			page 108


 5006 0fa7 42020000 		.4byte	.LVL109
 5007 0fab A11B0000 		.4byte	0x1ba1
 5008 0faf D30F0000 		.4byte	0xfd3
 5009 0fb3 1A       		.uleb128 0x1a
 5010 0fb4 01       		.uleb128 0x1
 5011 0fb5 50       		.byte	0x50
 5012 0fb6 04       		.uleb128 0x4
 5013 0fb7 7D       		.byte	0x7d
 5014 0fb8 0C       		.sleb128 12
 5015 0fb9 94       		.byte	0x94
 5016 0fba 02       		.byte	0x2
 5017 0fbb 1A       		.uleb128 0x1a
 5018 0fbc 01       		.uleb128 0x1
 5019 0fbd 51       		.byte	0x51
 5020 0fbe 04       		.uleb128 0x4
 5021 0fbf 7D       		.byte	0x7d
 5022 0fc0 10       		.sleb128 16
 5023 0fc1 94       		.byte	0x94
 5024 0fc2 02       		.byte	0x2
 5025 0fc3 1A       		.uleb128 0x1a
 5026 0fc4 01       		.uleb128 0x1
 5027 0fc5 52       		.byte	0x52
 5028 0fc6 04       		.uleb128 0x4
 5029 0fc7 7D       		.byte	0x7d
 5030 0fc8 14       		.sleb128 20
 5031 0fc9 94       		.byte	0x94
 5032 0fca 02       		.byte	0x2
 5033 0fcb 1A       		.uleb128 0x1a
 5034 0fcc 02       		.uleb128 0x2
 5035 0fcd 7D       		.byte	0x7d
 5036 0fce 00       		.sleb128 0
 5037 0fcf 02       		.uleb128 0x2
 5038 0fd0 74       		.byte	0x74
 5039 0fd1 00       		.sleb128 0
 5040 0fd2 00       		.byte	0
 5041 0fd3 19       		.uleb128 0x19
 5042 0fd4 76020000 		.4byte	.LVL111
 5043 0fd8 A11B0000 		.4byte	0x1ba1
 5044 0fdc 00100000 		.4byte	0x1000
 5045 0fe0 1A       		.uleb128 0x1a
 5046 0fe1 01       		.uleb128 0x1
 5047 0fe2 50       		.byte	0x50
 5048 0fe3 04       		.uleb128 0x4
 5049 0fe4 7D       		.byte	0x7d
 5050 0fe5 0C       		.sleb128 12
 5051 0fe6 94       		.byte	0x94
 5052 0fe7 02       		.byte	0x2
 5053 0fe8 1A       		.uleb128 0x1a
 5054 0fe9 01       		.uleb128 0x1
 5055 0fea 51       		.byte	0x51
 5056 0feb 04       		.uleb128 0x4
 5057 0fec 7D       		.byte	0x7d
 5058 0fed 10       		.sleb128 16
 5059 0fee 94       		.byte	0x94
 5060 0fef 02       		.byte	0x2
 5061 0ff0 1A       		.uleb128 0x1a
 5062 0ff1 01       		.uleb128 0x1
ARM GAS  C:\Users\Melody\AppData\Local\Temp\ccuHhgp0.s 			page 109


 5063 0ff2 52       		.byte	0x52
 5064 0ff3 04       		.uleb128 0x4
 5065 0ff4 7D       		.byte	0x7d
 5066 0ff5 14       		.sleb128 20
 5067 0ff6 94       		.byte	0x94
 5068 0ff7 02       		.byte	0x2
 5069 0ff8 1A       		.uleb128 0x1a
 5070 0ff9 02       		.uleb128 0x2
 5071 0ffa 7D       		.byte	0x7d
 5072 0ffb 00       		.sleb128 0
 5073 0ffc 02       		.uleb128 0x2
 5074 0ffd 74       		.byte	0x74
 5075 0ffe 00       		.sleb128 0
 5076 0fff 00       		.byte	0
 5077 1000 19       		.uleb128 0x19
 5078 1001 AA020000 		.4byte	.LVL113
 5079 1005 A11B0000 		.4byte	0x1ba1
 5080 1009 2D100000 		.4byte	0x102d
 5081 100d 1A       		.uleb128 0x1a
 5082 100e 01       		.uleb128 0x1
 5083 100f 50       		.byte	0x50
 5084 1010 04       		.uleb128 0x4
 5085 1011 7D       		.byte	0x7d
 5086 1012 0C       		.sleb128 12
 5087 1013 94       		.byte	0x94
 5088 1014 02       		.byte	0x2
 5089 1015 1A       		.uleb128 0x1a
 5090 1016 01       		.uleb128 0x1
 5091 1017 51       		.byte	0x51
 5092 1018 04       		.uleb128 0x4
 5093 1019 7D       		.byte	0x7d
 5094 101a 10       		.sleb128 16
 5095 101b 94       		.byte	0x94
 5096 101c 02       		.byte	0x2
 5097 101d 1A       		.uleb128 0x1a
 5098 101e 01       		.uleb128 0x1
 5099 101f 52       		.byte	0x52
 5100 1020 04       		.uleb128 0x4
 5101 1021 7D       		.byte	0x7d
 5102 1022 14       		.sleb128 20
 5103 1023 94       		.byte	0x94
 5104 1024 02       		.byte	0x2
 5105 1025 1A       		.uleb128 0x1a
 5106 1026 02       		.uleb128 0x2
 5107 1027 7D       		.byte	0x7d
 5108 1028 00       		.sleb128 0
 5109 1029 02       		.uleb128 0x2
 5110 102a 74       		.byte	0x74
 5111 102b 00       		.sleb128 0
 5112 102c 00       		.byte	0
 5113 102d 1B       		.uleb128 0x1b
 5114 102e DE020000 		.4byte	.LVL115
 5115 1032 A11B0000 		.4byte	0x1ba1
 5116 1036 1A       		.uleb128 0x1a
 5117 1037 01       		.uleb128 0x1
 5118 1038 50       		.byte	0x50
 5119 1039 04       		.uleb128 0x4
ARM GAS  C:\Users\Melody\AppData\Local\Temp\ccuHhgp0.s 			page 110


 5120 103a 7D       		.byte	0x7d
 5121 103b 0C       		.sleb128 12
 5122 103c 94       		.byte	0x94
 5123 103d 02       		.byte	0x2
 5124 103e 1A       		.uleb128 0x1a
 5125 103f 01       		.uleb128 0x1
 5126 1040 51       		.byte	0x51
 5127 1041 04       		.uleb128 0x4
 5128 1042 7D       		.byte	0x7d
 5129 1043 10       		.sleb128 16
 5130 1044 94       		.byte	0x94
 5131 1045 02       		.byte	0x2
 5132 1046 1A       		.uleb128 0x1a
 5133 1047 01       		.uleb128 0x1
 5134 1048 52       		.byte	0x52
 5135 1049 04       		.uleb128 0x4
 5136 104a 7D       		.byte	0x7d
 5137 104b 14       		.sleb128 20
 5138 104c 94       		.byte	0x94
 5139 104d 02       		.byte	0x2
 5140 104e 1A       		.uleb128 0x1a
 5141 104f 02       		.uleb128 0x2
 5142 1050 7D       		.byte	0x7d
 5143 1051 00       		.sleb128 0
 5144 1052 02       		.uleb128 0x2
 5145 1053 74       		.byte	0x74
 5146 1054 00       		.sleb128 0
 5147 1055 00       		.byte	0
 5148 1056 00       		.byte	0
 5149 1057 22       		.uleb128 0x22
 5150 1058 48000000 		.4byte	.LVL88
 5151 105c DB1B0000 		.4byte	0x1bdb
 5152 1060 19       		.uleb128 0x19
 5153 1061 10030000 		.4byte	.LVL117
 5154 1065 A11B0000 		.4byte	0x1ba1
 5155 1069 8D100000 		.4byte	0x108d
 5156 106d 1A       		.uleb128 0x1a
 5157 106e 01       		.uleb128 0x1
 5158 106f 50       		.byte	0x50
 5159 1070 04       		.uleb128 0x4
 5160 1071 7D       		.byte	0x7d
 5161 1072 0C       		.sleb128 12
 5162 1073 94       		.byte	0x94
 5163 1074 02       		.byte	0x2
 5164 1075 1A       		.uleb128 0x1a
 5165 1076 01       		.uleb128 0x1
 5166 1077 51       		.byte	0x51
 5167 1078 04       		.uleb128 0x4
 5168 1079 7D       		.byte	0x7d
 5169 107a 10       		.sleb128 16
 5170 107b 94       		.byte	0x94
 5171 107c 02       		.byte	0x2
 5172 107d 1A       		.uleb128 0x1a
 5173 107e 01       		.uleb128 0x1
 5174 107f 52       		.byte	0x52
 5175 1080 04       		.uleb128 0x4
 5176 1081 7D       		.byte	0x7d
ARM GAS  C:\Users\Melody\AppData\Local\Temp\ccuHhgp0.s 			page 111


 5177 1082 14       		.sleb128 20
 5178 1083 94       		.byte	0x94
 5179 1084 02       		.byte	0x2
 5180 1085 1A       		.uleb128 0x1a
 5181 1086 02       		.uleb128 0x2
 5182 1087 7D       		.byte	0x7d
 5183 1088 00       		.sleb128 0
 5184 1089 02       		.uleb128 0x2
 5185 108a 77       		.byte	0x77
 5186 108b 00       		.sleb128 0
 5187 108c 00       		.byte	0
 5188 108d 19       		.uleb128 0x19
 5189 108e 48030000 		.4byte	.LVL119
 5190 1092 CF1B0000 		.4byte	0x1bcf
 5191 1096 A1100000 		.4byte	0x10a1
 5192 109a 1A       		.uleb128 0x1a
 5193 109b 01       		.uleb128 0x1
 5194 109c 50       		.byte	0x50
 5195 109d 02       		.uleb128 0x2
 5196 109e 76       		.byte	0x76
 5197 109f 00       		.sleb128 0
 5198 10a0 00       		.byte	0
 5199 10a1 22       		.uleb128 0x22
 5200 10a2 4E030000 		.4byte	.LVL120
 5201 10a6 DB1B0000 		.4byte	0x1bdb
 5202 10aa 00       		.byte	0
 5203 10ab 2A       		.uleb128 0x2a
 5204 10ac 50020000 		.4byte	.LASF124
 5205 10b0 01       		.byte	0x1
 5206 10b1 5602     		.2byte	0x256
 5207 10b3 00000000 		.4byte	.LFB41
 5208 10b7 24010000 		.4byte	.LFE41-.LFB41
 5209 10bb 01       		.uleb128 0x1
 5210 10bc 9C       		.byte	0x9c
 5211 10bd 12120000 		.4byte	0x1212
 5212 10c1 26       		.uleb128 0x26
 5213 10c2 11030000 		.4byte	.LASF69
 5214 10c6 01       		.byte	0x1
 5215 10c7 5602     		.2byte	0x256
 5216 10c9 CE000000 		.4byte	0xce
 5217 10cd 78050000 		.4byte	.LLST32
 5218 10d1 27       		.uleb128 0x27
 5219 10d2 783100   		.ascii	"x1\000"
 5220 10d5 01       		.byte	0x1
 5221 10d6 5602     		.2byte	0x256
 5222 10d8 C3000000 		.4byte	0xc3
 5223 10dc E0050000 		.4byte	.LLST33
 5224 10e0 27       		.uleb128 0x27
 5225 10e1 793100   		.ascii	"y1\000"
 5226 10e4 01       		.byte	0x1
 5227 10e5 5602     		.2byte	0x256
 5228 10e7 C3000000 		.4byte	0xc3
 5229 10eb 01060000 		.4byte	.LLST34
 5230 10ef 27       		.uleb128 0x27
 5231 10f0 783200   		.ascii	"x2\000"
 5232 10f3 01       		.byte	0x1
 5233 10f4 5602     		.2byte	0x256
ARM GAS  C:\Users\Melody\AppData\Local\Temp\ccuHhgp0.s 			page 112


 5234 10f6 C3000000 		.4byte	0xc3
 5235 10fa 22060000 		.4byte	.LLST35
 5236 10fe 27       		.uleb128 0x27
 5237 10ff 793200   		.ascii	"y2\000"
 5238 1102 01       		.byte	0x1
 5239 1103 5602     		.2byte	0x256
 5240 1105 C3000000 		.4byte	0xc3
 5241 1109 43060000 		.4byte	.LLST36
 5242 110d 26       		.uleb128 0x26
 5243 110e 92030000 		.4byte	.LASF113
 5244 1112 01       		.byte	0x1
 5245 1113 5602     		.2byte	0x256
 5246 1115 AD000000 		.4byte	0xad
 5247 1119 6F060000 		.4byte	.LLST37
 5248 111d 28       		.uleb128 0x28
 5249 111e FB040000 		.4byte	.LASF115
 5250 1122 01       		.byte	0x1
 5251 1123 5702     		.2byte	0x257
 5252 1125 94000000 		.4byte	0x94
 5253 1129 B3060000 		.4byte	.LLST38
 5254 112d 28       		.uleb128 0x28
 5255 112e E4020000 		.4byte	.LASF116
 5256 1132 01       		.byte	0x1
 5257 1133 5702     		.2byte	0x257
 5258 1135 94000000 		.4byte	0x94
 5259 1139 D2060000 		.4byte	.LLST39
 5260 113d 28       		.uleb128 0x28
 5261 113e 54050000 		.4byte	.LASF117
 5262 1142 01       		.byte	0x1
 5263 1143 5802     		.2byte	0x258
 5264 1145 94000000 		.4byte	0x94
 5265 1149 F1060000 		.4byte	.LLST40
 5266 114d 29       		.uleb128 0x29
 5267 114e 84060000 		.4byte	.LASF114
 5268 1152 01       		.byte	0x1
 5269 1153 5902     		.2byte	0x259
 5270 1155 94000000 		.4byte	0x94
 5271 1159 06       		.byte	0x6
 5272 115a 28       		.uleb128 0x28
 5273 115b BA010000 		.4byte	.LASF118
 5274 115f 01       		.byte	0x1
 5275 1160 6702     		.2byte	0x267
 5276 1162 BA030000 		.4byte	0x3ba
 5277 1166 3C070000 		.4byte	.LLST41
 5278 116a 24       		.uleb128 0x24
 5279 116b 08000000 		.4byte	.LASF119
 5280 116f 01       		.byte	0x1
 5281 1170 7602     		.2byte	0x276
 5282 1172 12120000 		.4byte	0x1212
 5283 1176 02       		.uleb128 0x2
 5284 1177 91       		.byte	0x91
 5285 1178 60       		.sleb128 -32
 5286 1179 22       		.uleb128 0x22
 5287 117a 4A000000 		.4byte	.LVL134
 5288 117e DB1B0000 		.4byte	0x1bdb
 5289 1182 19       		.uleb128 0x19
 5290 1183 A0000000 		.4byte	.LVL141
ARM GAS  C:\Users\Melody\AppData\Local\Temp\ccuHhgp0.s 			page 113


 5291 1187 A11B0000 		.4byte	0x1ba1
 5292 118b B5110000 		.4byte	0x11b5
 5293 118f 1A       		.uleb128 0x1a
 5294 1190 01       		.uleb128 0x1
 5295 1191 50       		.byte	0x50
 5296 1192 02       		.uleb128 0x2
 5297 1193 76       		.byte	0x76
 5298 1194 00       		.sleb128 0
 5299 1195 1A       		.uleb128 0x1a
 5300 1196 01       		.uleb128 0x1
 5301 1197 51       		.byte	0x51
 5302 1198 04       		.uleb128 0x4
 5303 1199 7D       		.byte	0x7d
 5304 119a 0C       		.sleb128 12
 5305 119b 94       		.byte	0x94
 5306 119c 02       		.byte	0x2
 5307 119d 1A       		.uleb128 0x1a
 5308 119e 01       		.uleb128 0x1
 5309 119f 52       		.byte	0x52
 5310 11a0 04       		.uleb128 0x4
 5311 11a1 7D       		.byte	0x7d
 5312 11a2 10       		.sleb128 16
 5313 11a3 94       		.byte	0x94
 5314 11a4 02       		.byte	0x2
 5315 11a5 1A       		.uleb128 0x1a
 5316 11a6 01       		.uleb128 0x1
 5317 11a7 53       		.byte	0x53
 5318 11a8 04       		.uleb128 0x4
 5319 11a9 7D       		.byte	0x7d
 5320 11aa 14       		.sleb128 20
 5321 11ab 94       		.byte	0x94
 5322 11ac 02       		.byte	0x2
 5323 11ad 1A       		.uleb128 0x1a
 5324 11ae 02       		.uleb128 0x2
 5325 11af 7D       		.byte	0x7d
 5326 11b0 00       		.sleb128 0
 5327 11b1 02       		.uleb128 0x2
 5328 11b2 74       		.byte	0x74
 5329 11b3 00       		.sleb128 0
 5330 11b4 00       		.byte	0
 5331 11b5 19       		.uleb128 0x19
 5332 11b6 AE000000 		.4byte	.LVL142
 5333 11ba C41B0000 		.4byte	0x1bc4
 5334 11be D8110000 		.4byte	0x11d8
 5335 11c2 1A       		.uleb128 0x1a
 5336 11c3 01       		.uleb128 0x1
 5337 11c4 50       		.byte	0x50
 5338 11c5 02       		.uleb128 0x2
 5339 11c6 76       		.byte	0x76
 5340 11c7 00       		.sleb128 0
 5341 11c8 1A       		.uleb128 0x1a
 5342 11c9 01       		.uleb128 0x1
 5343 11ca 51       		.byte	0x51
 5344 11cb 05       		.uleb128 0x5
 5345 11cc 03       		.byte	0x3
 5346 11cd 12010000 		.4byte	.LC71
 5347 11d1 1A       		.uleb128 0x1a
ARM GAS  C:\Users\Melody\AppData\Local\Temp\ccuHhgp0.s 			page 114


 5348 11d2 01       		.uleb128 0x1
 5349 11d3 52       		.byte	0x52
 5350 11d4 02       		.uleb128 0x2
 5351 11d5 75       		.byte	0x75
 5352 11d6 00       		.sleb128 0
 5353 11d7 00       		.byte	0
 5354 11d8 19       		.uleb128 0x19
 5355 11d9 EC000000 		.4byte	.LVL143
 5356 11dd CF1B0000 		.4byte	0x1bcf
 5357 11e1 08120000 		.4byte	0x1208
 5358 11e5 1A       		.uleb128 0x1a
 5359 11e6 01       		.uleb128 0x1
 5360 11e7 50       		.byte	0x50
 5361 11e8 04       		.uleb128 0x4
 5362 11e9 7D       		.byte	0x7d
 5363 11ea 18       		.sleb128 24
 5364 11eb 94       		.byte	0x94
 5365 11ec 02       		.byte	0x2
 5366 11ed 1A       		.uleb128 0x1a
 5367 11ee 01       		.uleb128 0x1
 5368 11ef 51       		.byte	0x51
 5369 11f0 04       		.uleb128 0x4
 5370 11f1 7D       		.byte	0x7d
 5371 11f2 1C       		.sleb128 28
 5372 11f3 94       		.byte	0x94
 5373 11f4 02       		.byte	0x2
 5374 11f5 1A       		.uleb128 0x1a
 5375 11f6 01       		.uleb128 0x1
 5376 11f7 52       		.byte	0x52
 5377 11f8 02       		.uleb128 0x2
 5378 11f9 76       		.byte	0x76
 5379 11fa 00       		.sleb128 0
 5380 11fb 1A       		.uleb128 0x1a
 5381 11fc 01       		.uleb128 0x1
 5382 11fd 53       		.byte	0x53
 5383 11fe 01       		.uleb128 0x1
 5384 11ff 30       		.byte	0x30
 5385 1200 1A       		.uleb128 0x1a
 5386 1201 02       		.uleb128 0x2
 5387 1202 7D       		.byte	0x7d
 5388 1203 00       		.sleb128 0
 5389 1204 02       		.uleb128 0x2
 5390 1205 74       		.byte	0x74
 5391 1206 00       		.sleb128 0
 5392 1207 00       		.byte	0
 5393 1208 22       		.uleb128 0x22
 5394 1209 F2000000 		.4byte	.LVL144
 5395 120d DB1B0000 		.4byte	0x1bdb
 5396 1211 00       		.byte	0
 5397 1212 16       		.uleb128 0x16
 5398 1213 F3000000 		.4byte	0xf3
 5399 1217 22120000 		.4byte	0x1222
 5400 121b 17       		.uleb128 0x17
 5401 121c 01010000 		.4byte	0x101
 5402 1220 06       		.byte	0x6
 5403 1221 00       		.byte	0
 5404 1222 25       		.uleb128 0x25
ARM GAS  C:\Users\Melody\AppData\Local\Temp\ccuHhgp0.s 			page 115


 5405 1223 3C070000 		.4byte	.LASF125
 5406 1227 01       		.byte	0x1
 5407 1228 C002     		.2byte	0x2c0
 5408 122a 00000000 		.4byte	.LFB44
 5409 122e C0000000 		.4byte	.LFE44-.LFB44
 5410 1232 01       		.uleb128 0x1
 5411 1233 9C       		.byte	0x9c
 5412 1234 A2130000 		.4byte	0x13a2
 5413 1238 26       		.uleb128 0x26
 5414 1239 11030000 		.4byte	.LASF69
 5415 123d 01       		.byte	0x1
 5416 123e C002     		.2byte	0x2c0
 5417 1240 C3000000 		.4byte	0xc3
 5418 1244 4F070000 		.4byte	.LLST42
 5419 1248 27       		.uleb128 0x27
 5420 1249 783100   		.ascii	"x1\000"
 5421 124c 01       		.byte	0x1
 5422 124d C002     		.2byte	0x2c0
 5423 124f C3000000 		.4byte	0xc3
 5424 1253 70070000 		.4byte	.LLST43
 5425 1257 27       		.uleb128 0x27
 5426 1258 793100   		.ascii	"y1\000"
 5427 125b 01       		.byte	0x1
 5428 125c C002     		.2byte	0x2c0
 5429 125e C3000000 		.4byte	0xc3
 5430 1262 91070000 		.4byte	.LLST44
 5431 1266 27       		.uleb128 0x27
 5432 1267 783200   		.ascii	"x2\000"
 5433 126a 01       		.byte	0x1
 5434 126b C002     		.2byte	0x2c0
 5435 126d C3000000 		.4byte	0xc3
 5436 1271 B2070000 		.4byte	.LLST45
 5437 1275 27       		.uleb128 0x27
 5438 1276 793200   		.ascii	"y2\000"
 5439 1279 01       		.byte	0x1
 5440 127a C002     		.2byte	0x2c0
 5441 127c C3000000 		.4byte	0xc3
 5442 1280 D3070000 		.4byte	.LLST46
 5443 1284 26       		.uleb128 0x26
 5444 1285 92030000 		.4byte	.LASF113
 5445 1289 01       		.byte	0x1
 5446 128a C002     		.2byte	0x2c0
 5447 128c AD000000 		.4byte	0xad
 5448 1290 FF070000 		.4byte	.LLST47
 5449 1294 28       		.uleb128 0x28
 5450 1295 FB040000 		.4byte	.LASF115
 5451 1299 01       		.byte	0x1
 5452 129a C102     		.2byte	0x2c1
 5453 129c 94000000 		.4byte	0x94
 5454 12a0 37080000 		.4byte	.LLST48
 5455 12a4 28       		.uleb128 0x28
 5456 12a5 E4020000 		.4byte	.LASF116
 5457 12a9 01       		.byte	0x1
 5458 12aa C102     		.2byte	0x2c1
 5459 12ac 94000000 		.4byte	0x94
 5460 12b0 56080000 		.4byte	.LLST49
 5461 12b4 28       		.uleb128 0x28
ARM GAS  C:\Users\Melody\AppData\Local\Temp\ccuHhgp0.s 			page 116


 5462 12b5 54050000 		.4byte	.LASF117
 5463 12b9 01       		.byte	0x1
 5464 12ba C202     		.2byte	0x2c2
 5465 12bc 94000000 		.4byte	0x94
 5466 12c0 75080000 		.4byte	.LLST50
 5467 12c4 28       		.uleb128 0x28
 5468 12c5 84060000 		.4byte	.LASF114
 5469 12c9 01       		.byte	0x1
 5470 12ca C302     		.2byte	0x2c3
 5471 12cc 94000000 		.4byte	0x94
 5472 12d0 AF080000 		.4byte	.LLST51
 5473 12d4 2B       		.uleb128 0x2b
 5474 12d5 00000000 		.4byte	.Ldebug_ranges0+0
 5475 12d9 22130000 		.4byte	0x1322
 5476 12dd 24       		.uleb128 0x24
 5477 12de 08000000 		.4byte	.LASF119
 5478 12e2 01       		.byte	0x1
 5479 12e3 D202     		.2byte	0x2d2
 5480 12e5 A2130000 		.4byte	0x13a2
 5481 12e9 02       		.uleb128 0x2
 5482 12ea 91       		.byte	0x91
 5483 12eb 60       		.sleb128 -32
 5484 12ec 19       		.uleb128 0x19
 5485 12ed 70000000 		.4byte	.LVL161
 5486 12f1 A11B0000 		.4byte	0x1ba1
 5487 12f5 01130000 		.4byte	0x1301
 5488 12f9 1A       		.uleb128 0x1a
 5489 12fa 02       		.uleb128 0x2
 5490 12fb 7D       		.byte	0x7d
 5491 12fc 00       		.sleb128 0
 5492 12fd 02       		.uleb128 0x2
 5493 12fe 75       		.byte	0x75
 5494 12ff 00       		.sleb128 0
 5495 1300 00       		.byte	0
 5496 1301 1B       		.uleb128 0x1b
 5497 1302 7A000000 		.4byte	.LVL162
 5498 1306 C41B0000 		.4byte	0x1bc4
 5499 130a 1A       		.uleb128 0x1a
 5500 130b 01       		.uleb128 0x1
 5501 130c 50       		.byte	0x50
 5502 130d 02       		.uleb128 0x2
 5503 130e 76       		.byte	0x76
 5504 130f 00       		.sleb128 0
 5505 1310 1A       		.uleb128 0x1a
 5506 1311 01       		.uleb128 0x1
 5507 1312 51       		.byte	0x51
 5508 1313 05       		.uleb128 0x5
 5509 1314 03       		.byte	0x3
 5510 1315 60000000 		.4byte	.LC26
 5511 1319 1A       		.uleb128 0x1a
 5512 131a 01       		.uleb128 0x1
 5513 131b 52       		.byte	0x52
 5514 131c 03       		.uleb128 0x3
 5515 131d 91       		.byte	0x91
 5516 131e 54       		.sleb128 -44
 5517 131f 06       		.byte	0x6
 5518 1320 00       		.byte	0
ARM GAS  C:\Users\Melody\AppData\Local\Temp\ccuHhgp0.s 			page 117


 5519 1321 00       		.byte	0
 5520 1322 20       		.uleb128 0x20
 5521 1323 84000000 		.4byte	.LBB6
 5522 1327 24000000 		.4byte	.LBE6-.LBB6
 5523 132b 8F130000 		.4byte	0x138f
 5524 132f 24       		.uleb128 0x24
 5525 1330 08000000 		.4byte	.LASF119
 5526 1334 01       		.byte	0x1
 5527 1335 DA02     		.2byte	0x2da
 5528 1337 970B0000 		.4byte	0xb97
 5529 133b 02       		.uleb128 0x2
 5530 133c 91       		.byte	0x91
 5531 133d 60       		.sleb128 -32
 5532 133e 22       		.uleb128 0x22
 5533 133f 8A000000 		.4byte	.LVL163
 5534 1343 A11B0000 		.4byte	0x1ba1
 5535 1347 19       		.uleb128 0x19
 5536 1348 94000000 		.4byte	.LVL164
 5537 134c C41B0000 		.4byte	0x1bc4
 5538 1350 6B130000 		.4byte	0x136b
 5539 1354 1A       		.uleb128 0x1a
 5540 1355 01       		.uleb128 0x1
 5541 1356 50       		.byte	0x50
 5542 1357 02       		.uleb128 0x2
 5543 1358 76       		.byte	0x76
 5544 1359 00       		.sleb128 0
 5545 135a 1A       		.uleb128 0x1a
 5546 135b 01       		.uleb128 0x1
 5547 135c 51       		.byte	0x51
 5548 135d 05       		.uleb128 0x5
 5549 135e 03       		.byte	0x3
 5550 135f 60000000 		.4byte	.LC26
 5551 1363 1A       		.uleb128 0x1a
 5552 1364 01       		.uleb128 0x1
 5553 1365 52       		.byte	0x52
 5554 1366 03       		.uleb128 0x3
 5555 1367 91       		.byte	0x91
 5556 1368 54       		.sleb128 -44
 5557 1369 06       		.byte	0x6
 5558 136a 00       		.byte	0
 5559 136b 1B       		.uleb128 0x1b
 5560 136c A8000000 		.4byte	.LVL165
 5561 1370 CF1B0000 		.4byte	0x1bcf
 5562 1374 1A       		.uleb128 0x1a
 5563 1375 01       		.uleb128 0x1
 5564 1376 50       		.byte	0x50
 5565 1377 02       		.uleb128 0x2
 5566 1378 74       		.byte	0x74
 5567 1379 00       		.sleb128 0
 5568 137a 1A       		.uleb128 0x1a
 5569 137b 01       		.uleb128 0x1
 5570 137c 51       		.byte	0x51
 5571 137d 02       		.uleb128 0x2
 5572 137e 77       		.byte	0x77
 5573 137f 00       		.sleb128 0
 5574 1380 1A       		.uleb128 0x1a
 5575 1381 01       		.uleb128 0x1
ARM GAS  C:\Users\Melody\AppData\Local\Temp\ccuHhgp0.s 			page 118


 5576 1382 52       		.byte	0x52
 5577 1383 02       		.uleb128 0x2
 5578 1384 76       		.byte	0x76
 5579 1385 00       		.sleb128 0
 5580 1386 1A       		.uleb128 0x1a
 5581 1387 02       		.uleb128 0x2
 5582 1388 7D       		.byte	0x7d
 5583 1389 00       		.sleb128 0
 5584 138a 02       		.uleb128 0x2
 5585 138b 75       		.byte	0x75
 5586 138c 00       		.sleb128 0
 5587 138d 00       		.byte	0
 5588 138e 00       		.byte	0
 5589 138f 22       		.uleb128 0x22
 5590 1390 4A000000 		.4byte	.LVL160
 5591 1394 DB1B0000 		.4byte	0x1bdb
 5592 1398 22       		.uleb128 0x22
 5593 1399 AE000000 		.4byte	.LVL166
 5594 139d DB1B0000 		.4byte	0x1bdb
 5595 13a1 00       		.byte	0
 5596 13a2 16       		.uleb128 0x16
 5597 13a3 F3000000 		.4byte	0xf3
 5598 13a7 B2130000 		.4byte	0x13b2
 5599 13ab 17       		.uleb128 0x17
 5600 13ac 01010000 		.4byte	0x101
 5601 13b0 04       		.byte	0x4
 5602 13b1 00       		.byte	0
 5603 13b2 2C       		.uleb128 0x2c
 5604 13b3 61040000 		.4byte	.LASF152
 5605 13b7 01       		.byte	0x1
 5606 13b8 BA02     		.2byte	0x2ba
 5607 13ba 01       		.byte	0x1
 5608 13bb 04140000 		.4byte	0x1404
 5609 13bf 2D       		.uleb128 0x2d
 5610 13c0 11030000 		.4byte	.LASF69
 5611 13c4 01       		.byte	0x1
 5612 13c5 BA02     		.2byte	0x2ba
 5613 13c7 C3000000 		.4byte	0xc3
 5614 13cb 2E       		.uleb128 0x2e
 5615 13cc 783100   		.ascii	"x1\000"
 5616 13cf 01       		.byte	0x1
 5617 13d0 BA02     		.2byte	0x2ba
 5618 13d2 C3000000 		.4byte	0xc3
 5619 13d6 2E       		.uleb128 0x2e
 5620 13d7 793100   		.ascii	"y1\000"
 5621 13da 01       		.byte	0x1
 5622 13db BA02     		.2byte	0x2ba
 5623 13dd C3000000 		.4byte	0xc3
 5624 13e1 2E       		.uleb128 0x2e
 5625 13e2 783200   		.ascii	"x2\000"
 5626 13e5 01       		.byte	0x1
 5627 13e6 BA02     		.2byte	0x2ba
 5628 13e8 C3000000 		.4byte	0xc3
 5629 13ec 2E       		.uleb128 0x2e
 5630 13ed 793200   		.ascii	"y2\000"
 5631 13f0 01       		.byte	0x1
 5632 13f1 BA02     		.2byte	0x2ba
ARM GAS  C:\Users\Melody\AppData\Local\Temp\ccuHhgp0.s 			page 119


 5633 13f3 C3000000 		.4byte	0xc3
 5634 13f7 2D       		.uleb128 0x2d
 5635 13f8 92030000 		.4byte	.LASF113
 5636 13fc 01       		.byte	0x1
 5637 13fd BA02     		.2byte	0x2ba
 5638 13ff AD000000 		.4byte	0xad
 5639 1403 00       		.byte	0
 5640 1404 2F       		.uleb128 0x2f
 5641 1405 B2130000 		.4byte	0x13b2
 5642 1409 00000000 		.4byte	.LFB43
 5643 140d 14000000 		.4byte	.LFE43-.LFB43
 5644 1411 01       		.uleb128 0x1
 5645 1412 9C       		.byte	0x9c
 5646 1413 66140000 		.4byte	0x1466
 5647 1417 30       		.uleb128 0x30
 5648 1418 BF130000 		.4byte	0x13bf
 5649 141c F7080000 		.4byte	.LLST52
 5650 1420 30       		.uleb128 0x30
 5651 1421 CB130000 		.4byte	0x13cb
 5652 1425 18090000 		.4byte	.LLST53
 5653 1429 30       		.uleb128 0x30
 5654 142a D6130000 		.4byte	0x13d6
 5655 142e 39090000 		.4byte	.LLST54
 5656 1432 30       		.uleb128 0x30
 5657 1433 E1130000 		.4byte	0x13e1
 5658 1437 5A090000 		.4byte	.LLST55
 5659 143b 30       		.uleb128 0x30
 5660 143c EC130000 		.4byte	0x13ec
 5661 1440 7B090000 		.4byte	.LLST56
 5662 1444 30       		.uleb128 0x30
 5663 1445 F7130000 		.4byte	0x13f7
 5664 1449 A7090000 		.4byte	.LLST57
 5665 144d 1B       		.uleb128 0x1b
 5666 144e 12000000 		.4byte	.LVL172
 5667 1452 22120000 		.4byte	0x1222
 5668 1456 1A       		.uleb128 0x1a
 5669 1457 02       		.uleb128 0x2
 5670 1458 7D       		.byte	0x7d
 5671 1459 00       		.sleb128 0
 5672 145a 02       		.uleb128 0x2
 5673 145b 74       		.byte	0x74
 5674 145c 00       		.sleb128 0
 5675 145d 1A       		.uleb128 0x1a
 5676 145e 02       		.uleb128 0x2
 5677 145f 7D       		.byte	0x7d
 5678 1460 04       		.sleb128 4
 5679 1461 02       		.uleb128 0x2
 5680 1462 75       		.byte	0x75
 5681 1463 00       		.sleb128 0
 5682 1464 00       		.byte	0
 5683 1465 00       		.byte	0
 5684 1466 25       		.uleb128 0x25
 5685 1467 97030000 		.4byte	.LASF126
 5686 146b 01       		.byte	0x1
 5687 146c E302     		.2byte	0x2e3
 5688 146e 00000000 		.4byte	.LFB45
 5689 1472 C4000000 		.4byte	.LFE45-.LFB45
ARM GAS  C:\Users\Melody\AppData\Local\Temp\ccuHhgp0.s 			page 120


 5690 1476 01       		.uleb128 0x1
 5691 1477 9C       		.byte	0x9c
 5692 1478 B5150000 		.4byte	0x15b5
 5693 147c 26       		.uleb128 0x26
 5694 147d 11030000 		.4byte	.LASF69
 5695 1481 01       		.byte	0x1
 5696 1482 E302     		.2byte	0x2e3
 5697 1484 C3000000 		.4byte	0xc3
 5698 1488 EB090000 		.4byte	.LLST58
 5699 148c 27       		.uleb128 0x27
 5700 148d 783100   		.ascii	"x1\000"
 5701 1490 01       		.byte	0x1
 5702 1491 E302     		.2byte	0x2e3
 5703 1493 C3000000 		.4byte	0xc3
 5704 1497 0C0A0000 		.4byte	.LLST59
 5705 149b 27       		.uleb128 0x27
 5706 149c 793100   		.ascii	"y1\000"
 5707 149f 01       		.byte	0x1
 5708 14a0 E302     		.2byte	0x2e3
 5709 14a2 C3000000 		.4byte	0xc3
 5710 14a6 2D0A0000 		.4byte	.LLST60
 5711 14aa 27       		.uleb128 0x27
 5712 14ab 783200   		.ascii	"x2\000"
 5713 14ae 01       		.byte	0x1
 5714 14af E302     		.2byte	0x2e3
 5715 14b1 C3000000 		.4byte	0xc3
 5716 14b5 4E0A0000 		.4byte	.LLST61
 5717 14b9 27       		.uleb128 0x27
 5718 14ba 793200   		.ascii	"y2\000"
 5719 14bd 01       		.byte	0x1
 5720 14be E302     		.2byte	0x2e3
 5721 14c0 C3000000 		.4byte	0xc3
 5722 14c4 6F0A0000 		.4byte	.LLST62
 5723 14c8 26       		.uleb128 0x26
 5724 14c9 92030000 		.4byte	.LASF113
 5725 14cd 01       		.byte	0x1
 5726 14ce E302     		.2byte	0x2e3
 5727 14d0 AD000000 		.4byte	0xad
 5728 14d4 9B0A0000 		.4byte	.LLST63
 5729 14d8 28       		.uleb128 0x28
 5730 14d9 FB040000 		.4byte	.LASF115
 5731 14dd 01       		.byte	0x1
 5732 14de E402     		.2byte	0x2e4
 5733 14e0 94000000 		.4byte	0x94
 5734 14e4 D30A0000 		.4byte	.LLST64
 5735 14e8 28       		.uleb128 0x28
 5736 14e9 E4020000 		.4byte	.LASF116
 5737 14ed 01       		.byte	0x1
 5738 14ee E402     		.2byte	0x2e4
 5739 14f0 94000000 		.4byte	0x94
 5740 14f4 F20A0000 		.4byte	.LLST65
 5741 14f8 28       		.uleb128 0x28
 5742 14f9 54050000 		.4byte	.LASF117
 5743 14fd 01       		.byte	0x1
 5744 14fe E502     		.2byte	0x2e5
 5745 1500 94000000 		.4byte	0x94
 5746 1504 110B0000 		.4byte	.LLST66
ARM GAS  C:\Users\Melody\AppData\Local\Temp\ccuHhgp0.s 			page 121


 5747 1508 29       		.uleb128 0x29
 5748 1509 84060000 		.4byte	.LASF114
 5749 150d 01       		.byte	0x1
 5750 150e E602     		.2byte	0x2e6
 5751 1510 94000000 		.4byte	0x94
 5752 1514 06       		.byte	0x6
 5753 1515 24       		.uleb128 0x24
 5754 1516 08000000 		.4byte	.LASF119
 5755 151a 01       		.byte	0x1
 5756 151b F002     		.2byte	0x2f0
 5757 151d 12120000 		.4byte	0x1212
 5758 1521 02       		.uleb128 0x2
 5759 1522 91       		.byte	0x91
 5760 1523 60       		.sleb128 -32
 5761 1524 22       		.uleb128 0x22
 5762 1525 44000000 		.4byte	.LVL185
 5763 1529 DB1B0000 		.4byte	0x1bdb
 5764 152d 19       		.uleb128 0x19
 5765 152e 5C000000 		.4byte	.LVL186
 5766 1532 A11B0000 		.4byte	0x1ba1
 5767 1536 57150000 		.4byte	0x1557
 5768 153a 1A       		.uleb128 0x1a
 5769 153b 01       		.uleb128 0x1
 5770 153c 50       		.byte	0x50
 5771 153d 04       		.uleb128 0x4
 5772 153e 7D       		.byte	0x7d
 5773 153f 0C       		.sleb128 12
 5774 1540 94       		.byte	0x94
 5775 1541 02       		.byte	0x2
 5776 1542 1A       		.uleb128 0x1a
 5777 1543 01       		.uleb128 0x1
 5778 1544 52       		.byte	0x52
 5779 1545 02       		.uleb128 0x2
 5780 1546 75       		.byte	0x75
 5781 1547 00       		.sleb128 0
 5782 1548 1A       		.uleb128 0x1a
 5783 1549 01       		.uleb128 0x1
 5784 154a 53       		.byte	0x53
 5785 154b 02       		.uleb128 0x2
 5786 154c 76       		.byte	0x76
 5787 154d 00       		.sleb128 0
 5788 154e 1A       		.uleb128 0x1a
 5789 154f 02       		.uleb128 0x2
 5790 1550 7D       		.byte	0x7d
 5791 1551 00       		.sleb128 0
 5792 1552 03       		.uleb128 0x3
 5793 1553 0A       		.byte	0xa
 5794 1554 00FF     		.2byte	0xff00
 5795 1556 00       		.byte	0
 5796 1557 19       		.uleb128 0x19
 5797 1558 66000000 		.4byte	.LVL187
 5798 155c C41B0000 		.4byte	0x1bc4
 5799 1560 7A150000 		.4byte	0x157a
 5800 1564 1A       		.uleb128 0x1a
 5801 1565 01       		.uleb128 0x1
 5802 1566 50       		.byte	0x50
 5803 1567 02       		.uleb128 0x2
ARM GAS  C:\Users\Melody\AppData\Local\Temp\ccuHhgp0.s 			page 122


 5804 1568 74       		.byte	0x74
 5805 1569 00       		.sleb128 0
 5806 156a 1A       		.uleb128 0x1a
 5807 156b 01       		.uleb128 0x1
 5808 156c 51       		.byte	0x51
 5809 156d 05       		.uleb128 0x5
 5810 156e 03       		.byte	0x3
 5811 156f 60000000 		.4byte	.LC26
 5812 1573 1A       		.uleb128 0x1a
 5813 1574 01       		.uleb128 0x1
 5814 1575 52       		.byte	0x52
 5815 1576 02       		.uleb128 0x2
 5816 1577 77       		.byte	0x77
 5817 1578 00       		.sleb128 0
 5818 1579 00       		.byte	0
 5819 157a 19       		.uleb128 0x19
 5820 157b A8000000 		.4byte	.LVL188
 5821 157f CF1B0000 		.4byte	0x1bcf
 5822 1583 AB150000 		.4byte	0x15ab
 5823 1587 1A       		.uleb128 0x1a
 5824 1588 01       		.uleb128 0x1
 5825 1589 50       		.byte	0x50
 5826 158a 04       		.uleb128 0x4
 5827 158b 7D       		.byte	0x7d
 5828 158c 10       		.sleb128 16
 5829 158d 94       		.byte	0x94
 5830 158e 02       		.byte	0x2
 5831 158f 1A       		.uleb128 0x1a
 5832 1590 01       		.uleb128 0x1
 5833 1591 51       		.byte	0x51
 5834 1592 04       		.uleb128 0x4
 5835 1593 7D       		.byte	0x7d
 5836 1594 14       		.sleb128 20
 5837 1595 94       		.byte	0x94
 5838 1596 02       		.byte	0x2
 5839 1597 1A       		.uleb128 0x1a
 5840 1598 01       		.uleb128 0x1
 5841 1599 52       		.byte	0x52
 5842 159a 02       		.uleb128 0x2
 5843 159b 74       		.byte	0x74
 5844 159c 00       		.sleb128 0
 5845 159d 1A       		.uleb128 0x1a
 5846 159e 01       		.uleb128 0x1
 5847 159f 53       		.byte	0x53
 5848 15a0 01       		.uleb128 0x1
 5849 15a1 30       		.byte	0x30
 5850 15a2 1A       		.uleb128 0x1a
 5851 15a3 02       		.uleb128 0x2
 5852 15a4 7D       		.byte	0x7d
 5853 15a5 00       		.sleb128 0
 5854 15a6 03       		.uleb128 0x3
 5855 15a7 0A       		.byte	0xa
 5856 15a8 00FF     		.2byte	0xff00
 5857 15aa 00       		.byte	0
 5858 15ab 22       		.uleb128 0x22
 5859 15ac AE000000 		.4byte	.LVL189
 5860 15b0 DB1B0000 		.4byte	0x1bdb
ARM GAS  C:\Users\Melody\AppData\Local\Temp\ccuHhgp0.s 			page 123


 5861 15b4 00       		.byte	0
 5862 15b5 25       		.uleb128 0x25
 5863 15b6 15020000 		.4byte	.LASF127
 5864 15ba 01       		.byte	0x1
 5865 15bb 0503     		.2byte	0x305
 5866 15bd 00000000 		.4byte	.LFB46
 5867 15c1 24020000 		.4byte	.LFE46-.LFB46
 5868 15c5 01       		.uleb128 0x1
 5869 15c6 9C       		.byte	0x9c
 5870 15c7 14180000 		.4byte	0x1814
 5871 15cb 26       		.uleb128 0x26
 5872 15cc 5B020000 		.4byte	.LASF128
 5873 15d0 01       		.byte	0x1
 5874 15d1 0503     		.2byte	0x305
 5875 15d3 AD000000 		.4byte	0xad
 5876 15d7 5C0B0000 		.4byte	.LLST67
 5877 15db 27       		.uleb128 0x27
 5878 15dc 783100   		.ascii	"x1\000"
 5879 15df 01       		.byte	0x1
 5880 15e0 0503     		.2byte	0x305
 5881 15e2 C3000000 		.4byte	0xc3
 5882 15e6 7D0B0000 		.4byte	.LLST68
 5883 15ea 27       		.uleb128 0x27
 5884 15eb 793100   		.ascii	"y1\000"
 5885 15ee 01       		.byte	0x1
 5886 15ef 0503     		.2byte	0x305
 5887 15f1 C3000000 		.4byte	0xc3
 5888 15f5 9E0B0000 		.4byte	.LLST69
 5889 15f9 27       		.uleb128 0x27
 5890 15fa 783200   		.ascii	"x2\000"
 5891 15fd 01       		.byte	0x1
 5892 15fe 0503     		.2byte	0x305
 5893 1600 C3000000 		.4byte	0xc3
 5894 1604 BF0B0000 		.4byte	.LLST70
 5895 1608 27       		.uleb128 0x27
 5896 1609 793200   		.ascii	"y2\000"
 5897 160c 01       		.byte	0x1
 5898 160d 0503     		.2byte	0x305
 5899 160f C3000000 		.4byte	0xc3
 5900 1613 E00B0000 		.4byte	.LLST71
 5901 1617 26       		.uleb128 0x26
 5902 1618 92030000 		.4byte	.LASF113
 5903 161c 01       		.byte	0x1
 5904 161d 0503     		.2byte	0x305
 5905 161f AD000000 		.4byte	0xad
 5906 1623 0C0C0000 		.4byte	.LLST72
 5907 1627 28       		.uleb128 0x28
 5908 1628 FB040000 		.4byte	.LASF115
 5909 162c 01       		.byte	0x1
 5910 162d 0603     		.2byte	0x306
 5911 162f 94000000 		.4byte	0x94
 5912 1633 500C0000 		.4byte	.LLST73
 5913 1637 28       		.uleb128 0x28
 5914 1638 E4020000 		.4byte	.LASF116
 5915 163c 01       		.byte	0x1
 5916 163d 0603     		.2byte	0x306
 5917 163f 94000000 		.4byte	0x94
ARM GAS  C:\Users\Melody\AppData\Local\Temp\ccuHhgp0.s 			page 124


 5918 1643 870C0000 		.4byte	.LLST74
 5919 1647 28       		.uleb128 0x28
 5920 1648 54050000 		.4byte	.LASF117
 5921 164c 01       		.byte	0x1
 5922 164d 0703     		.2byte	0x307
 5923 164f 94000000 		.4byte	0x94
 5924 1653 BB0C0000 		.4byte	.LLST75
 5925 1657 29       		.uleb128 0x29
 5926 1658 84060000 		.4byte	.LASF114
 5927 165c 01       		.byte	0x1
 5928 165d 0803     		.2byte	0x308
 5929 165f 94000000 		.4byte	0x94
 5930 1663 0A       		.byte	0xa
 5931 1664 28       		.uleb128 0x28
 5932 1665 BA010000 		.4byte	.LASF118
 5933 1669 01       		.byte	0x1
 5934 166a 1003     		.2byte	0x310
 5935 166c BA030000 		.4byte	0x3ba
 5936 1670 060D0000 		.4byte	.LLST76
 5937 1674 22       		.uleb128 0x22
 5938 1675 48000000 		.4byte	.LVL202
 5939 1679 DB1B0000 		.4byte	0x1bdb
 5940 167d 19       		.uleb128 0x19
 5941 167e 98000000 		.4byte	.LVL206
 5942 1682 A11B0000 		.4byte	0x1ba1
 5943 1686 B2160000 		.4byte	0x16b2
 5944 168a 1A       		.uleb128 0x1a
 5945 168b 01       		.uleb128 0x1
 5946 168c 50       		.byte	0x50
 5947 168d 04       		.uleb128 0x4
 5948 168e 7D       		.byte	0x7d
 5949 168f 08       		.sleb128 8
 5950 1690 94       		.byte	0x94
 5951 1691 02       		.byte	0x2
 5952 1692 1A       		.uleb128 0x1a
 5953 1693 01       		.uleb128 0x1
 5954 1694 51       		.byte	0x51
 5955 1695 04       		.uleb128 0x4
 5956 1696 7D       		.byte	0x7d
 5957 1697 0C       		.sleb128 12
 5958 1698 94       		.byte	0x94
 5959 1699 02       		.byte	0x2
 5960 169a 1A       		.uleb128 0x1a
 5961 169b 01       		.uleb128 0x1
 5962 169c 52       		.byte	0x52
 5963 169d 04       		.uleb128 0x4
 5964 169e 7D       		.byte	0x7d
 5965 169f 10       		.sleb128 16
 5966 16a0 94       		.byte	0x94
 5967 16a1 02       		.byte	0x2
 5968 16a2 1A       		.uleb128 0x1a
 5969 16a3 01       		.uleb128 0x1
 5970 16a4 53       		.byte	0x53
 5971 16a5 04       		.uleb128 0x4
 5972 16a6 7D       		.byte	0x7d
 5973 16a7 14       		.sleb128 20
 5974 16a8 94       		.byte	0x94
ARM GAS  C:\Users\Melody\AppData\Local\Temp\ccuHhgp0.s 			page 125


 5975 16a9 02       		.byte	0x2
 5976 16aa 1A       		.uleb128 0x1a
 5977 16ab 02       		.uleb128 0x2
 5978 16ac 7D       		.byte	0x7d
 5979 16ad 00       		.sleb128 0
 5980 16ae 02       		.uleb128 0x2
 5981 16af 77       		.byte	0x77
 5982 16b0 00       		.sleb128 0
 5983 16b1 00       		.byte	0
 5984 16b2 19       		.uleb128 0x19
 5985 16b3 CE000000 		.4byte	.LVL208
 5986 16b7 A11B0000 		.4byte	0x1ba1
 5987 16bb E7160000 		.4byte	0x16e7
 5988 16bf 1A       		.uleb128 0x1a
 5989 16c0 01       		.uleb128 0x1
 5990 16c1 50       		.byte	0x50
 5991 16c2 04       		.uleb128 0x4
 5992 16c3 7D       		.byte	0x7d
 5993 16c4 08       		.sleb128 8
 5994 16c5 94       		.byte	0x94
 5995 16c6 02       		.byte	0x2
 5996 16c7 1A       		.uleb128 0x1a
 5997 16c8 01       		.uleb128 0x1
 5998 16c9 51       		.byte	0x51
 5999 16ca 04       		.uleb128 0x4
 6000 16cb 7D       		.byte	0x7d
 6001 16cc 0C       		.sleb128 12
 6002 16cd 94       		.byte	0x94
 6003 16ce 02       		.byte	0x2
 6004 16cf 1A       		.uleb128 0x1a
 6005 16d0 01       		.uleb128 0x1
 6006 16d1 52       		.byte	0x52
 6007 16d2 04       		.uleb128 0x4
 6008 16d3 7D       		.byte	0x7d
 6009 16d4 10       		.sleb128 16
 6010 16d5 94       		.byte	0x94
 6011 16d6 02       		.byte	0x2
 6012 16d7 1A       		.uleb128 0x1a
 6013 16d8 01       		.uleb128 0x1
 6014 16d9 53       		.byte	0x53
 6015 16da 04       		.uleb128 0x4
 6016 16db 7D       		.byte	0x7d
 6017 16dc 14       		.sleb128 20
 6018 16dd 94       		.byte	0x94
 6019 16de 02       		.byte	0x2
 6020 16df 1A       		.uleb128 0x1a
 6021 16e0 02       		.uleb128 0x2
 6022 16e1 7D       		.byte	0x7d
 6023 16e2 00       		.sleb128 0
 6024 16e3 02       		.uleb128 0x2
 6025 16e4 77       		.byte	0x77
 6026 16e5 00       		.sleb128 0
 6027 16e6 00       		.byte	0
 6028 16e7 19       		.uleb128 0x19
 6029 16e8 04010000 		.4byte	.LVL210
 6030 16ec A11B0000 		.4byte	0x1ba1
 6031 16f0 1C170000 		.4byte	0x171c
ARM GAS  C:\Users\Melody\AppData\Local\Temp\ccuHhgp0.s 			page 126


 6032 16f4 1A       		.uleb128 0x1a
 6033 16f5 01       		.uleb128 0x1
 6034 16f6 50       		.byte	0x50
 6035 16f7 04       		.uleb128 0x4
 6036 16f8 7D       		.byte	0x7d
 6037 16f9 08       		.sleb128 8
 6038 16fa 94       		.byte	0x94
 6039 16fb 02       		.byte	0x2
 6040 16fc 1A       		.uleb128 0x1a
 6041 16fd 01       		.uleb128 0x1
 6042 16fe 51       		.byte	0x51
 6043 16ff 04       		.uleb128 0x4
 6044 1700 7D       		.byte	0x7d
 6045 1701 0C       		.sleb128 12
 6046 1702 94       		.byte	0x94
 6047 1703 02       		.byte	0x2
 6048 1704 1A       		.uleb128 0x1a
 6049 1705 01       		.uleb128 0x1
 6050 1706 52       		.byte	0x52
 6051 1707 04       		.uleb128 0x4
 6052 1708 7D       		.byte	0x7d
 6053 1709 10       		.sleb128 16
 6054 170a 94       		.byte	0x94
 6055 170b 02       		.byte	0x2
 6056 170c 1A       		.uleb128 0x1a
 6057 170d 01       		.uleb128 0x1
 6058 170e 53       		.byte	0x53
 6059 170f 04       		.uleb128 0x4
 6060 1710 7D       		.byte	0x7d
 6061 1711 14       		.sleb128 20
 6062 1712 94       		.byte	0x94
 6063 1713 02       		.byte	0x2
 6064 1714 1A       		.uleb128 0x1a
 6065 1715 02       		.uleb128 0x2
 6066 1716 7D       		.byte	0x7d
 6067 1717 00       		.sleb128 0
 6068 1718 02       		.uleb128 0x2
 6069 1719 77       		.byte	0x77
 6070 171a 00       		.sleb128 0
 6071 171b 00       		.byte	0
 6072 171c 19       		.uleb128 0x19
 6073 171d 3A010000 		.4byte	.LVL212
 6074 1721 A11B0000 		.4byte	0x1ba1
 6075 1725 51170000 		.4byte	0x1751
 6076 1729 1A       		.uleb128 0x1a
 6077 172a 01       		.uleb128 0x1
 6078 172b 50       		.byte	0x50
 6079 172c 04       		.uleb128 0x4
 6080 172d 7D       		.byte	0x7d
 6081 172e 08       		.sleb128 8
 6082 172f 94       		.byte	0x94
 6083 1730 02       		.byte	0x2
 6084 1731 1A       		.uleb128 0x1a
 6085 1732 01       		.uleb128 0x1
 6086 1733 51       		.byte	0x51
 6087 1734 04       		.uleb128 0x4
 6088 1735 7D       		.byte	0x7d
ARM GAS  C:\Users\Melody\AppData\Local\Temp\ccuHhgp0.s 			page 127


 6089 1736 0C       		.sleb128 12
 6090 1737 94       		.byte	0x94
 6091 1738 02       		.byte	0x2
 6092 1739 1A       		.uleb128 0x1a
 6093 173a 01       		.uleb128 0x1
 6094 173b 52       		.byte	0x52
 6095 173c 04       		.uleb128 0x4
 6096 173d 7D       		.byte	0x7d
 6097 173e 10       		.sleb128 16
 6098 173f 94       		.byte	0x94
 6099 1740 02       		.byte	0x2
 6100 1741 1A       		.uleb128 0x1a
 6101 1742 01       		.uleb128 0x1
 6102 1743 53       		.byte	0x53
 6103 1744 04       		.uleb128 0x4
 6104 1745 7D       		.byte	0x7d
 6105 1746 14       		.sleb128 20
 6106 1747 94       		.byte	0x94
 6107 1748 02       		.byte	0x2
 6108 1749 1A       		.uleb128 0x1a
 6109 174a 02       		.uleb128 0x2
 6110 174b 7D       		.byte	0x7d
 6111 174c 00       		.sleb128 0
 6112 174d 02       		.uleb128 0x2
 6113 174e 77       		.byte	0x77
 6114 174f 00       		.sleb128 0
 6115 1750 00       		.byte	0
 6116 1751 19       		.uleb128 0x19
 6117 1752 70010000 		.4byte	.LVL214
 6118 1756 A11B0000 		.4byte	0x1ba1
 6119 175a 86170000 		.4byte	0x1786
 6120 175e 1A       		.uleb128 0x1a
 6121 175f 01       		.uleb128 0x1
 6122 1760 50       		.byte	0x50
 6123 1761 04       		.uleb128 0x4
 6124 1762 7D       		.byte	0x7d
 6125 1763 08       		.sleb128 8
 6126 1764 94       		.byte	0x94
 6127 1765 02       		.byte	0x2
 6128 1766 1A       		.uleb128 0x1a
 6129 1767 01       		.uleb128 0x1
 6130 1768 51       		.byte	0x51
 6131 1769 04       		.uleb128 0x4
 6132 176a 7D       		.byte	0x7d
 6133 176b 0C       		.sleb128 12
 6134 176c 94       		.byte	0x94
 6135 176d 02       		.byte	0x2
 6136 176e 1A       		.uleb128 0x1a
 6137 176f 01       		.uleb128 0x1
 6138 1770 52       		.byte	0x52
 6139 1771 04       		.uleb128 0x4
 6140 1772 7D       		.byte	0x7d
 6141 1773 10       		.sleb128 16
 6142 1774 94       		.byte	0x94
 6143 1775 02       		.byte	0x2
 6144 1776 1A       		.uleb128 0x1a
 6145 1777 01       		.uleb128 0x1
ARM GAS  C:\Users\Melody\AppData\Local\Temp\ccuHhgp0.s 			page 128


 6146 1778 53       		.byte	0x53
 6147 1779 04       		.uleb128 0x4
 6148 177a 7D       		.byte	0x7d
 6149 177b 14       		.sleb128 20
 6150 177c 94       		.byte	0x94
 6151 177d 02       		.byte	0x2
 6152 177e 1A       		.uleb128 0x1a
 6153 177f 02       		.uleb128 0x2
 6154 1780 7D       		.byte	0x7d
 6155 1781 00       		.sleb128 0
 6156 1782 02       		.uleb128 0x2
 6157 1783 77       		.byte	0x77
 6158 1784 00       		.sleb128 0
 6159 1785 00       		.byte	0
 6160 1786 19       		.uleb128 0x19
 6161 1787 A6010000 		.4byte	.LVL216
 6162 178b A11B0000 		.4byte	0x1ba1
 6163 178f BB170000 		.4byte	0x17bb
 6164 1793 1A       		.uleb128 0x1a
 6165 1794 01       		.uleb128 0x1
 6166 1795 50       		.byte	0x50
 6167 1796 04       		.uleb128 0x4
 6168 1797 7D       		.byte	0x7d
 6169 1798 08       		.sleb128 8
 6170 1799 94       		.byte	0x94
 6171 179a 02       		.byte	0x2
 6172 179b 1A       		.uleb128 0x1a
 6173 179c 01       		.uleb128 0x1
 6174 179d 51       		.byte	0x51
 6175 179e 04       		.uleb128 0x4
 6176 179f 7D       		.byte	0x7d
 6177 17a0 0C       		.sleb128 12
 6178 17a1 94       		.byte	0x94
 6179 17a2 02       		.byte	0x2
 6180 17a3 1A       		.uleb128 0x1a
 6181 17a4 01       		.uleb128 0x1
 6182 17a5 52       		.byte	0x52
 6183 17a6 04       		.uleb128 0x4
 6184 17a7 7D       		.byte	0x7d
 6185 17a8 10       		.sleb128 16
 6186 17a9 94       		.byte	0x94
 6187 17aa 02       		.byte	0x2
 6188 17ab 1A       		.uleb128 0x1a
 6189 17ac 01       		.uleb128 0x1
 6190 17ad 53       		.byte	0x53
 6191 17ae 04       		.uleb128 0x4
 6192 17af 7D       		.byte	0x7d
 6193 17b0 14       		.sleb128 20
 6194 17b1 94       		.byte	0x94
 6195 17b2 02       		.byte	0x2
 6196 17b3 1A       		.uleb128 0x1a
 6197 17b4 02       		.uleb128 0x2
 6198 17b5 7D       		.byte	0x7d
 6199 17b6 00       		.sleb128 0
 6200 17b7 02       		.uleb128 0x2
 6201 17b8 77       		.byte	0x77
 6202 17b9 00       		.sleb128 0
ARM GAS  C:\Users\Melody\AppData\Local\Temp\ccuHhgp0.s 			page 129


 6203 17ba 00       		.byte	0
 6204 17bb 19       		.uleb128 0x19
 6205 17bc DC010000 		.4byte	.LVL218
 6206 17c0 A11B0000 		.4byte	0x1ba1
 6207 17c4 F0170000 		.4byte	0x17f0
 6208 17c8 1A       		.uleb128 0x1a
 6209 17c9 01       		.uleb128 0x1
 6210 17ca 50       		.byte	0x50
 6211 17cb 04       		.uleb128 0x4
 6212 17cc 7D       		.byte	0x7d
 6213 17cd 08       		.sleb128 8
 6214 17ce 94       		.byte	0x94
 6215 17cf 02       		.byte	0x2
 6216 17d0 1A       		.uleb128 0x1a
 6217 17d1 01       		.uleb128 0x1
 6218 17d2 51       		.byte	0x51
 6219 17d3 04       		.uleb128 0x4
 6220 17d4 7D       		.byte	0x7d
 6221 17d5 0C       		.sleb128 12
 6222 17d6 94       		.byte	0x94
 6223 17d7 02       		.byte	0x2
 6224 17d8 1A       		.uleb128 0x1a
 6225 17d9 01       		.uleb128 0x1
 6226 17da 52       		.byte	0x52
 6227 17db 04       		.uleb128 0x4
 6228 17dc 7D       		.byte	0x7d
 6229 17dd 10       		.sleb128 16
 6230 17de 94       		.byte	0x94
 6231 17df 02       		.byte	0x2
 6232 17e0 1A       		.uleb128 0x1a
 6233 17e1 01       		.uleb128 0x1
 6234 17e2 53       		.byte	0x53
 6235 17e3 04       		.uleb128 0x4
 6236 17e4 7D       		.byte	0x7d
 6237 17e5 14       		.sleb128 20
 6238 17e6 94       		.byte	0x94
 6239 17e7 02       		.byte	0x2
 6240 17e8 1A       		.uleb128 0x1a
 6241 17e9 02       		.uleb128 0x2
 6242 17ea 7D       		.byte	0x7d
 6243 17eb 00       		.sleb128 0
 6244 17ec 02       		.uleb128 0x2
 6245 17ed 77       		.byte	0x77
 6246 17ee 00       		.sleb128 0
 6247 17ef 00       		.byte	0
 6248 17f0 19       		.uleb128 0x19
 6249 17f1 F0010000 		.4byte	.LVL220
 6250 17f5 CF1B0000 		.4byte	0x1bcf
 6251 17f9 0A180000 		.4byte	0x180a
 6252 17fd 1A       		.uleb128 0x1a
 6253 17fe 01       		.uleb128 0x1
 6254 17ff 50       		.byte	0x50
 6255 1800 02       		.uleb128 0x2
 6256 1801 75       		.byte	0x75
 6257 1802 00       		.sleb128 0
 6258 1803 1A       		.uleb128 0x1a
 6259 1804 01       		.uleb128 0x1
ARM GAS  C:\Users\Melody\AppData\Local\Temp\ccuHhgp0.s 			page 130


 6260 1805 51       		.byte	0x51
 6261 1806 02       		.uleb128 0x2
 6262 1807 76       		.byte	0x76
 6263 1808 00       		.sleb128 0
 6264 1809 00       		.byte	0
 6265 180a 22       		.uleb128 0x22
 6266 180b F6010000 		.4byte	.LVL221
 6267 180f DB1B0000 		.4byte	0x1bdb
 6268 1813 00       		.byte	0
 6269 1814 25       		.uleb128 0x25
 6270 1815 70060000 		.4byte	.LASF129
 6271 1819 01       		.byte	0x1
 6272 181a 5703     		.2byte	0x357
 6273 181c 00000000 		.4byte	.LFB47
 6274 1820 8C000000 		.4byte	.LFE47-.LFB47
 6275 1824 01       		.uleb128 0x1
 6276 1825 9C       		.byte	0x9c
 6277 1826 70190000 		.4byte	0x1970
 6278 182a 26       		.uleb128 0x26
 6279 182b 11030000 		.4byte	.LASF69
 6280 182f 01       		.byte	0x1
 6281 1830 5703     		.2byte	0x357
 6282 1832 C3000000 		.4byte	0xc3
 6283 1836 2B0D0000 		.4byte	.LLST77
 6284 183a 27       		.uleb128 0x27
 6285 183b 783100   		.ascii	"x1\000"
 6286 183e 01       		.byte	0x1
 6287 183f 5703     		.2byte	0x357
 6288 1841 C3000000 		.4byte	0xc3
 6289 1845 4C0D0000 		.4byte	.LLST78
 6290 1849 27       		.uleb128 0x27
 6291 184a 793100   		.ascii	"y1\000"
 6292 184d 01       		.byte	0x1
 6293 184e 5703     		.2byte	0x357
 6294 1850 C3000000 		.4byte	0xc3
 6295 1854 6D0D0000 		.4byte	.LLST79
 6296 1858 27       		.uleb128 0x27
 6297 1859 783200   		.ascii	"x2\000"
 6298 185c 01       		.byte	0x1
 6299 185d 5703     		.2byte	0x357
 6300 185f C3000000 		.4byte	0xc3
 6301 1863 8E0D0000 		.4byte	.LLST80
 6302 1867 27       		.uleb128 0x27
 6303 1868 793200   		.ascii	"y2\000"
 6304 186b 01       		.byte	0x1
 6305 186c 5703     		.2byte	0x357
 6306 186e C3000000 		.4byte	0xc3
 6307 1872 AF0D0000 		.4byte	.LLST81
 6308 1876 26       		.uleb128 0x26
 6309 1877 92030000 		.4byte	.LASF113
 6310 187b 01       		.byte	0x1
 6311 187c 5703     		.2byte	0x357
 6312 187e AD000000 		.4byte	0xad
 6313 1882 DB0D0000 		.4byte	.LLST82
 6314 1886 28       		.uleb128 0x28
 6315 1887 FB040000 		.4byte	.LASF115
 6316 188b 01       		.byte	0x1
ARM GAS  C:\Users\Melody\AppData\Local\Temp\ccuHhgp0.s 			page 131


 6317 188c 5803     		.2byte	0x358
 6318 188e 94000000 		.4byte	0x94
 6319 1892 130E0000 		.4byte	.LLST83
 6320 1896 28       		.uleb128 0x28
 6321 1897 E4020000 		.4byte	.LASF116
 6322 189b 01       		.byte	0x1
 6323 189c 5803     		.2byte	0x358
 6324 189e 94000000 		.4byte	0x94
 6325 18a2 320E0000 		.4byte	.LLST84
 6326 18a6 28       		.uleb128 0x28
 6327 18a7 54050000 		.4byte	.LASF117
 6328 18ab 01       		.byte	0x1
 6329 18ac 5903     		.2byte	0x359
 6330 18ae 94000000 		.4byte	0x94
 6331 18b2 510E0000 		.4byte	.LLST85
 6332 18b6 29       		.uleb128 0x29
 6333 18b7 84060000 		.4byte	.LASF114
 6334 18bb 01       		.byte	0x1
 6335 18bc 5A03     		.2byte	0x35a
 6336 18be 94000000 		.4byte	0x94
 6337 18c2 0A       		.byte	0xa
 6338 18c3 31       		.uleb128 0x31
 6339 18c4 BA010000 		.4byte	.LASF118
 6340 18c8 01       		.byte	0x1
 6341 18c9 6303     		.2byte	0x363
 6342 18cb BA030000 		.4byte	0x3ba
 6343 18cf 2FFFAD00 		.4byte	0xadff2f
 6344 18d3 24       		.uleb128 0x24
 6345 18d4 08000000 		.4byte	.LASF119
 6346 18d8 01       		.byte	0x1
 6347 18d9 6503     		.2byte	0x365
 6348 18db 70190000 		.4byte	0x1970
 6349 18df 02       		.uleb128 0x2
 6350 18e0 91       		.byte	0x91
 6351 18e1 5C       		.sleb128 -36
 6352 18e2 22       		.uleb128 0x22
 6353 18e3 40000000 		.4byte	.LVL234
 6354 18e7 DB1B0000 		.4byte	0x1bdb
 6355 18eb 19       		.uleb128 0x19
 6356 18ec 4A000000 		.4byte	.LVL235
 6357 18f0 C41B0000 		.4byte	0x1bc4
 6358 18f4 0F190000 		.4byte	0x190f
 6359 18f8 1A       		.uleb128 0x1a
 6360 18f9 01       		.uleb128 0x1
 6361 18fa 50       		.byte	0x50
 6362 18fb 02       		.uleb128 0x2
 6363 18fc 91       		.byte	0x91
 6364 18fd 5C       		.sleb128 -36
 6365 18fe 1A       		.uleb128 0x1a
 6366 18ff 01       		.uleb128 0x1
 6367 1900 51       		.byte	0x51
 6368 1901 05       		.uleb128 0x5
 6369 1902 03       		.byte	0x3
 6370 1903 60000000 		.4byte	.LC26
 6371 1907 1A       		.uleb128 0x1a
 6372 1908 01       		.uleb128 0x1
 6373 1909 52       		.byte	0x52
ARM GAS  C:\Users\Melody\AppData\Local\Temp\ccuHhgp0.s 			page 132


 6374 190a 03       		.uleb128 0x3
 6375 190b 91       		.byte	0x91
 6376 190c 54       		.sleb128 -44
 6377 190d 06       		.byte	0x6
 6378 190e 00       		.byte	0
 6379 190f 19       		.uleb128 0x19
 6380 1910 5A000000 		.4byte	.LVL236
 6381 1914 A11B0000 		.4byte	0x1ba1
 6382 1918 36190000 		.4byte	0x1936
 6383 191c 1A       		.uleb128 0x1a
 6384 191d 01       		.uleb128 0x1
 6385 191e 50       		.byte	0x50
 6386 191f 02       		.uleb128 0x2
 6387 1920 74       		.byte	0x74
 6388 1921 00       		.sleb128 0
 6389 1922 1A       		.uleb128 0x1a
 6390 1923 01       		.uleb128 0x1
 6391 1924 51       		.byte	0x51
 6392 1925 02       		.uleb128 0x2
 6393 1926 75       		.byte	0x75
 6394 1927 00       		.sleb128 0
 6395 1928 1A       		.uleb128 0x1a
 6396 1929 01       		.uleb128 0x1
 6397 192a 53       		.byte	0x53
 6398 192b 02       		.uleb128 0x2
 6399 192c 76       		.byte	0x76
 6400 192d 00       		.sleb128 0
 6401 192e 1A       		.uleb128 0x1a
 6402 192f 02       		.uleb128 0x2
 6403 1930 7D       		.byte	0x7d
 6404 1931 00       		.sleb128 0
 6405 1932 02       		.uleb128 0x2
 6406 1933 77       		.byte	0x77
 6407 1934 00       		.sleb128 0
 6408 1935 00       		.byte	0
 6409 1936 19       		.uleb128 0x19
 6410 1937 70000000 		.4byte	.LVL237
 6411 193b CF1B0000 		.4byte	0x1bcf
 6412 193f 66190000 		.4byte	0x1966
 6413 1943 1A       		.uleb128 0x1a
 6414 1944 01       		.uleb128 0x1
 6415 1945 50       		.byte	0x50
 6416 1946 04       		.uleb128 0x4
 6417 1947 7D       		.byte	0x7d
 6418 1948 0C       		.sleb128 12
 6419 1949 94       		.byte	0x94
 6420 194a 02       		.byte	0x2
 6421 194b 1A       		.uleb128 0x1a
 6422 194c 01       		.uleb128 0x1
 6423 194d 51       		.byte	0x51
 6424 194e 04       		.uleb128 0x4
 6425 194f 7D       		.byte	0x7d
 6426 1950 10       		.sleb128 16
 6427 1951 94       		.byte	0x94
 6428 1952 02       		.byte	0x2
 6429 1953 1A       		.uleb128 0x1a
 6430 1954 01       		.uleb128 0x1
ARM GAS  C:\Users\Melody\AppData\Local\Temp\ccuHhgp0.s 			page 133


 6431 1955 52       		.byte	0x52
 6432 1956 02       		.uleb128 0x2
 6433 1957 91       		.byte	0x91
 6434 1958 5C       		.sleb128 -36
 6435 1959 1A       		.uleb128 0x1a
 6436 195a 01       		.uleb128 0x1
 6437 195b 53       		.byte	0x53
 6438 195c 01       		.uleb128 0x1
 6439 195d 30       		.byte	0x30
 6440 195e 1A       		.uleb128 0x1a
 6441 195f 02       		.uleb128 0x2
 6442 1960 7D       		.byte	0x7d
 6443 1961 00       		.sleb128 0
 6444 1962 02       		.uleb128 0x2
 6445 1963 77       		.byte	0x77
 6446 1964 00       		.sleb128 0
 6447 1965 00       		.byte	0
 6448 1966 22       		.uleb128 0x22
 6449 1967 76000000 		.4byte	.LVL238
 6450 196b DB1B0000 		.4byte	0x1bdb
 6451 196f 00       		.byte	0
 6452 1970 16       		.uleb128 0x16
 6453 1971 F3000000 		.4byte	0xf3
 6454 1975 80190000 		.4byte	0x1980
 6455 1979 17       		.uleb128 0x17
 6456 197a 01010000 		.4byte	0x101
 6457 197e 09       		.byte	0x9
 6458 197f 00       		.byte	0
 6459 1980 25       		.uleb128 0x25
 6460 1981 91050000 		.4byte	.LASF130
 6461 1985 01       		.byte	0x1
 6462 1986 6C03     		.2byte	0x36c
 6463 1988 00000000 		.4byte	.LFB48
 6464 198c 9C000000 		.4byte	.LFE48-.LFB48
 6465 1990 01       		.uleb128 0x1
 6466 1991 9C       		.byte	0x9c
 6467 1992 F11A0000 		.4byte	0x1af1
 6468 1996 26       		.uleb128 0x26
 6469 1997 11030000 		.4byte	.LASF69
 6470 199b 01       		.byte	0x1
 6471 199c 6C03     		.2byte	0x36c
 6472 199e F11A0000 		.4byte	0x1af1
 6473 19a2 9C0E0000 		.4byte	.LLST86
 6474 19a6 27       		.uleb128 0x27
 6475 19a7 783100   		.ascii	"x1\000"
 6476 19aa 01       		.byte	0x1
 6477 19ab 6C03     		.2byte	0x36c
 6478 19ad C3000000 		.4byte	0xc3
 6479 19b1 BB0E0000 		.4byte	.LLST87
 6480 19b5 27       		.uleb128 0x27
 6481 19b6 793100   		.ascii	"y1\000"
 6482 19b9 01       		.byte	0x1
 6483 19ba 6C03     		.2byte	0x36c
 6484 19bc C3000000 		.4byte	0xc3
 6485 19c0 DC0E0000 		.4byte	.LLST88
 6486 19c4 27       		.uleb128 0x27
 6487 19c5 783200   		.ascii	"x2\000"
ARM GAS  C:\Users\Melody\AppData\Local\Temp\ccuHhgp0.s 			page 134


 6488 19c8 01       		.byte	0x1
 6489 19c9 6C03     		.2byte	0x36c
 6490 19cb C3000000 		.4byte	0xc3
 6491 19cf FD0E0000 		.4byte	.LLST89
 6492 19d3 27       		.uleb128 0x27
 6493 19d4 793200   		.ascii	"y2\000"
 6494 19d7 01       		.byte	0x1
 6495 19d8 6C03     		.2byte	0x36c
 6496 19da C3000000 		.4byte	0xc3
 6497 19de 1E0F0000 		.4byte	.LLST90
 6498 19e2 26       		.uleb128 0x26
 6499 19e3 92030000 		.4byte	.LASF113
 6500 19e7 01       		.byte	0x1
 6501 19e8 6C03     		.2byte	0x36c
 6502 19ea AD000000 		.4byte	0xad
 6503 19ee 4A0F0000 		.4byte	.LLST91
 6504 19f2 28       		.uleb128 0x28
 6505 19f3 FB040000 		.4byte	.LASF115
 6506 19f7 01       		.byte	0x1
 6507 19f8 6D03     		.2byte	0x36d
 6508 19fa 94000000 		.4byte	0x94
 6509 19fe 820F0000 		.4byte	.LLST92
 6510 1a02 28       		.uleb128 0x28
 6511 1a03 E4020000 		.4byte	.LASF116
 6512 1a07 01       		.byte	0x1
 6513 1a08 6D03     		.2byte	0x36d
 6514 1a0a 94000000 		.4byte	0x94
 6515 1a0e A10F0000 		.4byte	.LLST93
 6516 1a12 28       		.uleb128 0x28
 6517 1a13 54050000 		.4byte	.LASF117
 6518 1a17 01       		.byte	0x1
 6519 1a18 6E03     		.2byte	0x36e
 6520 1a1a 94000000 		.4byte	0x94
 6521 1a1e C00F0000 		.4byte	.LLST94
 6522 1a22 29       		.uleb128 0x29
 6523 1a23 84060000 		.4byte	.LASF114
 6524 1a27 01       		.byte	0x1
 6525 1a28 6F03     		.2byte	0x36f
 6526 1a2a 94000000 		.4byte	0x94
 6527 1a2e 0A       		.byte	0xa
 6528 1a2f 32       		.uleb128 0x32
 6529 1a30 BA010000 		.4byte	.LASF118
 6530 1a34 01       		.byte	0x1
 6531 1a35 7803     		.2byte	0x378
 6532 1a37 BA030000 		.4byte	0x3ba
 6533 1a3b 00FF     		.2byte	0xff00
 6534 1a3d 28       		.uleb128 0x28
 6535 1a3e D4060000 		.4byte	.LASF131
 6536 1a42 01       		.byte	0x1
 6537 1a43 7A03     		.2byte	0x37a
 6538 1a45 AD000000 		.4byte	0xad
 6539 1a49 0B100000 		.4byte	.LLST95
 6540 1a4d 33       		.uleb128 0x33
 6541 1a4e 6900     		.ascii	"i\000"
 6542 1a50 01       		.byte	0x1
 6543 1a51 7B03     		.2byte	0x37b
 6544 1a53 AD000000 		.4byte	0xad
ARM GAS  C:\Users\Melody\AppData\Local\Temp\ccuHhgp0.s 			page 135


 6545 1a57 2A100000 		.4byte	.LLST96
 6546 1a5b 24       		.uleb128 0x24
 6547 1a5c 08000000 		.4byte	.LASF119
 6548 1a60 01       		.byte	0x1
 6549 1a61 8303     		.2byte	0x383
 6550 1a63 70190000 		.4byte	0x1970
 6551 1a67 02       		.uleb128 0x2
 6552 1a68 91       		.byte	0x91
 6553 1a69 5C       		.sleb128 -36
 6554 1a6a 22       		.uleb128 0x22
 6555 1a6b 40000000 		.4byte	.LVL251
 6556 1a6f DB1B0000 		.4byte	0x1bdb
 6557 1a73 19       		.uleb128 0x19
 6558 1a74 5C000000 		.4byte	.LVL257
 6559 1a78 C41B0000 		.4byte	0x1bc4
 6560 1a7c 901A0000 		.4byte	0x1a90
 6561 1a80 1A       		.uleb128 0x1a
 6562 1a81 01       		.uleb128 0x1
 6563 1a82 50       		.byte	0x50
 6564 1a83 02       		.uleb128 0x2
 6565 1a84 91       		.byte	0x91
 6566 1a85 5C       		.sleb128 -36
 6567 1a86 1A       		.uleb128 0x1a
 6568 1a87 01       		.uleb128 0x1
 6569 1a88 51       		.byte	0x51
 6570 1a89 05       		.uleb128 0x5
 6571 1a8a 03       		.byte	0x3
 6572 1a8b 4E010000 		.4byte	.LC103
 6573 1a8f 00       		.byte	0
 6574 1a90 19       		.uleb128 0x19
 6575 1a91 6E000000 		.4byte	.LVL258
 6576 1a95 A11B0000 		.4byte	0x1ba1
 6577 1a99 B71A0000 		.4byte	0x1ab7
 6578 1a9d 1A       		.uleb128 0x1a
 6579 1a9e 01       		.uleb128 0x1
 6580 1a9f 50       		.byte	0x50
 6581 1aa0 02       		.uleb128 0x2
 6582 1aa1 74       		.byte	0x74
 6583 1aa2 00       		.sleb128 0
 6584 1aa3 1A       		.uleb128 0x1a
 6585 1aa4 01       		.uleb128 0x1
 6586 1aa5 51       		.byte	0x51
 6587 1aa6 02       		.uleb128 0x2
 6588 1aa7 75       		.byte	0x75
 6589 1aa8 00       		.sleb128 0
 6590 1aa9 1A       		.uleb128 0x1a
 6591 1aaa 01       		.uleb128 0x1
 6592 1aab 53       		.byte	0x53
 6593 1aac 02       		.uleb128 0x2
 6594 1aad 77       		.byte	0x77
 6595 1aae 00       		.sleb128 0
 6596 1aaf 1A       		.uleb128 0x1a
 6597 1ab0 02       		.uleb128 0x2
 6598 1ab1 7D       		.byte	0x7d
 6599 1ab2 00       		.sleb128 0
 6600 1ab3 02       		.uleb128 0x2
 6601 1ab4 76       		.byte	0x76
ARM GAS  C:\Users\Melody\AppData\Local\Temp\ccuHhgp0.s 			page 136


 6602 1ab5 00       		.sleb128 0
 6603 1ab6 00       		.byte	0
 6604 1ab7 19       		.uleb128 0x19
 6605 1ab8 84000000 		.4byte	.LVL259
 6606 1abc CF1B0000 		.4byte	0x1bcf
 6607 1ac0 E71A0000 		.4byte	0x1ae7
 6608 1ac4 1A       		.uleb128 0x1a
 6609 1ac5 01       		.uleb128 0x1
 6610 1ac6 50       		.byte	0x50
 6611 1ac7 04       		.uleb128 0x4
 6612 1ac8 7D       		.byte	0x7d
 6613 1ac9 0C       		.sleb128 12
 6614 1aca 94       		.byte	0x94
 6615 1acb 02       		.byte	0x2
 6616 1acc 1A       		.uleb128 0x1a
 6617 1acd 01       		.uleb128 0x1
 6618 1ace 51       		.byte	0x51
 6619 1acf 04       		.uleb128 0x4
 6620 1ad0 7D       		.byte	0x7d
 6621 1ad1 10       		.sleb128 16
 6622 1ad2 94       		.byte	0x94
 6623 1ad3 02       		.byte	0x2
 6624 1ad4 1A       		.uleb128 0x1a
 6625 1ad5 01       		.uleb128 0x1
 6626 1ad6 52       		.byte	0x52
 6627 1ad7 02       		.uleb128 0x2
 6628 1ad8 91       		.byte	0x91
 6629 1ad9 5C       		.sleb128 -36
 6630 1ada 1A       		.uleb128 0x1a
 6631 1adb 01       		.uleb128 0x1
 6632 1adc 53       		.byte	0x53
 6633 1add 01       		.uleb128 0x1
 6634 1ade 30       		.byte	0x30
 6635 1adf 1A       		.uleb128 0x1a
 6636 1ae0 02       		.uleb128 0x2
 6637 1ae1 7D       		.byte	0x7d
 6638 1ae2 00       		.sleb128 0
 6639 1ae3 02       		.uleb128 0x2
 6640 1ae4 76       		.byte	0x76
 6641 1ae5 00       		.sleb128 0
 6642 1ae6 00       		.byte	0
 6643 1ae7 22       		.uleb128 0x22
 6644 1ae8 8A000000 		.4byte	.LVL260
 6645 1aec DB1B0000 		.4byte	0x1bdb
 6646 1af0 00       		.byte	0
 6647 1af1 07       		.uleb128 0x7
 6648 1af2 04       		.byte	0x4
 6649 1af3 AD000000 		.4byte	0xad
 6650 1af7 34       		.uleb128 0x34
 6651 1af8 50010000 		.4byte	.LASF132
 6652 1afc 07       		.byte	0x7
 6653 1afd 51       		.byte	0x51
 6654 1afe 0B040000 		.4byte	0x40b
 6655 1b02 34       		.uleb128 0x34
 6656 1b03 2F050000 		.4byte	.LASF133
 6657 1b07 07       		.byte	0x7
 6658 1b08 60       		.byte	0x60
ARM GAS  C:\Users\Melody\AppData\Local\Temp\ccuHhgp0.s 			page 137


 6659 1b09 0B040000 		.4byte	0x40b
 6660 1b0d 35       		.uleb128 0x35
 6661 1b0e 06040000 		.4byte	.LASF134
 6662 1b12 08       		.byte	0x8
 6663 1b13 33       		.byte	0x33
 6664 1b14 0B070000 		.4byte	0x70b
 6665 1b18 05       		.uleb128 0x5
 6666 1b19 03       		.byte	0x3
 6667 1b1a 00000000 		.4byte	gui1963
 6668 1b1e 35       		.uleb128 0x35
 6669 1b1f 06020000 		.4byte	.LASF135
 6670 1b23 09       		.byte	0x9
 6671 1b24 0F       		.byte	0xf
 6672 1b25 BA030000 		.4byte	0x3ba
 6673 1b29 05       		.uleb128 0x5
 6674 1b2a 03       		.byte	0x3
 6675 1b2b 00000000 		.4byte	last_SOC_color
 6676 1b2f 35       		.uleb128 0x35
 6677 1b30 59030000 		.4byte	.LASF136
 6678 1b34 09       		.byte	0x9
 6679 1b35 10       		.byte	0x10
 6680 1b36 BA030000 		.4byte	0x3ba
 6681 1b3a 05       		.uleb128 0x5
 6682 1b3b 03       		.byte	0x3
 6683 1b3c 00000000 		.4byte	last_max_pack_temp_color
 6684 1b40 35       		.uleb128 0x35
 6685 1b41 3D040000 		.4byte	.LASF137
 6686 1b45 09       		.byte	0x9
 6687 1b46 11       		.byte	0x11
 6688 1b47 BA030000 		.4byte	0x3ba
 6689 1b4b 05       		.uleb128 0x5
 6690 1b4c 03       		.byte	0x3
 6691 1b4d 00000000 		.4byte	last_state_color
 6692 1b51 35       		.uleb128 0x35
 6693 1b52 62050000 		.4byte	.LASF138
 6694 1b56 09       		.byte	0x9
 6695 1b57 12       		.byte	0x12
 6696 1b58 BA030000 		.4byte	0x3ba
 6697 1b5c 05       		.uleb128 0x5
 6698 1b5d 03       		.byte	0x3
 6699 1b5e 00000000 		.4byte	last_glv_v_color
 6700 1b62 35       		.uleb128 0x35
 6701 1b63 51060000 		.4byte	.LASF139
 6702 1b67 09       		.byte	0x9
 6703 1b68 13       		.byte	0x13
 6704 1b69 BA030000 		.4byte	0x3ba
 6705 1b6d 05       		.uleb128 0x5
 6706 1b6e 03       		.byte	0x3
 6707 1b6f 00000000 		.4byte	last_mc_temp_color
 6708 1b73 35       		.uleb128 0x35
 6709 1b74 7F020000 		.4byte	.LASF140
 6710 1b78 09       		.byte	0x9
 6711 1b79 14       		.byte	0x14
 6712 1b7a BA030000 		.4byte	0x3ba
 6713 1b7e 05       		.uleb128 0x5
 6714 1b7f 03       		.byte	0x3
 6715 1b80 00000000 		.4byte	last_motor_temp_color
ARM GAS  C:\Users\Melody\AppData\Local\Temp\ccuHhgp0.s 			page 138


 6716 1b84 35       		.uleb128 0x35
 6717 1b85 C0010000 		.4byte	.LASF141
 6718 1b89 09       		.byte	0x9
 6719 1b8a 15       		.byte	0x15
 6720 1b8b BA030000 		.4byte	0x3ba
 6721 1b8f 05       		.uleb128 0x5
 6722 1b90 03       		.byte	0x3
 6723 1b91 00000000 		.4byte	last_shutdown_color
 6724 1b95 36       		.uleb128 0x36
 6725 1b96 F8010000 		.4byte	.LASF142
 6726 1b9a F8010000 		.4byte	.LASF142
 6727 1b9e 07       		.byte	0x7
 6728 1b9f EC02     		.2byte	0x2ec
 6729 1ba1 36       		.uleb128 0x36
 6730 1ba2 DC000000 		.4byte	.LASF143
 6731 1ba6 DC000000 		.4byte	.LASF143
 6732 1baa 07       		.byte	0x7
 6733 1bab ED02     		.2byte	0x2ed
 6734 1bad 37       		.uleb128 0x37
 6735 1bae 00000000 		.4byte	.LASF144
 6736 1bb2 00000000 		.4byte	.LASF144
 6737 1bb6 0A       		.byte	0xa
 6738 1bb7 EC       		.byte	0xec
 6739 1bb8 36       		.uleb128 0x36
 6740 1bb9 DC030000 		.4byte	.LASF145
 6741 1bbd DC030000 		.4byte	.LASF145
 6742 1bc1 07       		.byte	0x7
 6743 1bc2 F702     		.2byte	0x2f7
 6744 1bc4 37       		.uleb128 0x37
 6745 1bc5 F5030000 		.4byte	.LASF146
 6746 1bc9 F5030000 		.4byte	.LASF146
 6747 1bcd 0B       		.byte	0xb
 6748 1bce E7       		.byte	0xe7
 6749 1bcf 36       		.uleb128 0x36
 6750 1bd0 D4010000 		.4byte	.LASF147
 6751 1bd4 D4010000 		.4byte	.LASF147
 6752 1bd8 07       		.byte	0x7
 6753 1bd9 F802     		.2byte	0x2f8
 6754 1bdb 36       		.uleb128 0x36
 6755 1bdc EE060000 		.4byte	.LASF148
 6756 1be0 EE060000 		.4byte	.LASF148
 6757 1be4 07       		.byte	0x7
 6758 1be5 EB02     		.2byte	0x2eb
 6759 1be7 00       		.byte	0
 6760              		.section	.debug_abbrev,"",%progbits
 6761              	.Ldebug_abbrev0:
 6762 0000 01       		.uleb128 0x1
 6763 0001 11       		.uleb128 0x11
 6764 0002 01       		.byte	0x1
 6765 0003 25       		.uleb128 0x25
 6766 0004 0E       		.uleb128 0xe
 6767 0005 13       		.uleb128 0x13
 6768 0006 0B       		.uleb128 0xb
 6769 0007 03       		.uleb128 0x3
 6770 0008 0E       		.uleb128 0xe
 6771 0009 1B       		.uleb128 0x1b
 6772 000a 0E       		.uleb128 0xe
ARM GAS  C:\Users\Melody\AppData\Local\Temp\ccuHhgp0.s 			page 139


 6773 000b 55       		.uleb128 0x55
 6774 000c 17       		.uleb128 0x17
 6775 000d 11       		.uleb128 0x11
 6776 000e 01       		.uleb128 0x1
 6777 000f 10       		.uleb128 0x10
 6778 0010 17       		.uleb128 0x17
 6779 0011 00       		.byte	0
 6780 0012 00       		.byte	0
 6781 0013 02       		.uleb128 0x2
 6782 0014 16       		.uleb128 0x16
 6783 0015 00       		.byte	0
 6784 0016 03       		.uleb128 0x3
 6785 0017 0E       		.uleb128 0xe
 6786 0018 3A       		.uleb128 0x3a
 6787 0019 0B       		.uleb128 0xb
 6788 001a 3B       		.uleb128 0x3b
 6789 001b 0B       		.uleb128 0xb
 6790 001c 49       		.uleb128 0x49
 6791 001d 13       		.uleb128 0x13
 6792 001e 00       		.byte	0
 6793 001f 00       		.byte	0
 6794 0020 03       		.uleb128 0x3
 6795 0021 24       		.uleb128 0x24
 6796 0022 00       		.byte	0
 6797 0023 0B       		.uleb128 0xb
 6798 0024 0B       		.uleb128 0xb
 6799 0025 3E       		.uleb128 0x3e
 6800 0026 0B       		.uleb128 0xb
 6801 0027 03       		.uleb128 0x3
 6802 0028 0E       		.uleb128 0xe
 6803 0029 00       		.byte	0
 6804 002a 00       		.byte	0
 6805 002b 04       		.uleb128 0x4
 6806 002c 24       		.uleb128 0x24
 6807 002d 00       		.byte	0
 6808 002e 0B       		.uleb128 0xb
 6809 002f 0B       		.uleb128 0xb
 6810 0030 3E       		.uleb128 0x3e
 6811 0031 0B       		.uleb128 0xb
 6812 0032 03       		.uleb128 0x3
 6813 0033 08       		.uleb128 0x8
 6814 0034 00       		.byte	0
 6815 0035 00       		.byte	0
 6816 0036 05       		.uleb128 0x5
 6817 0037 16       		.uleb128 0x16
 6818 0038 00       		.byte	0
 6819 0039 03       		.uleb128 0x3
 6820 003a 0E       		.uleb128 0xe
 6821 003b 3A       		.uleb128 0x3a
 6822 003c 0B       		.uleb128 0xb
 6823 003d 3B       		.uleb128 0x3b
 6824 003e 05       		.uleb128 0x5
 6825 003f 49       		.uleb128 0x49
 6826 0040 13       		.uleb128 0x13
 6827 0041 00       		.byte	0
 6828 0042 00       		.byte	0
 6829 0043 06       		.uleb128 0x6
ARM GAS  C:\Users\Melody\AppData\Local\Temp\ccuHhgp0.s 			page 140


 6830 0044 0F       		.uleb128 0xf
 6831 0045 00       		.byte	0
 6832 0046 0B       		.uleb128 0xb
 6833 0047 0B       		.uleb128 0xb
 6834 0048 00       		.byte	0
 6835 0049 00       		.byte	0
 6836 004a 07       		.uleb128 0x7
 6837 004b 0F       		.uleb128 0xf
 6838 004c 00       		.byte	0
 6839 004d 0B       		.uleb128 0xb
 6840 004e 0B       		.uleb128 0xb
 6841 004f 49       		.uleb128 0x49
 6842 0050 13       		.uleb128 0x13
 6843 0051 00       		.byte	0
 6844 0052 00       		.byte	0
 6845 0053 08       		.uleb128 0x8
 6846 0054 04       		.uleb128 0x4
 6847 0055 01       		.byte	0x1
 6848 0056 0B       		.uleb128 0xb
 6849 0057 0B       		.uleb128 0xb
 6850 0058 49       		.uleb128 0x49
 6851 0059 13       		.uleb128 0x13
 6852 005a 3A       		.uleb128 0x3a
 6853 005b 0B       		.uleb128 0xb
 6854 005c 3B       		.uleb128 0x3b
 6855 005d 0B       		.uleb128 0xb
 6856 005e 01       		.uleb128 0x1
 6857 005f 13       		.uleb128 0x13
 6858 0060 00       		.byte	0
 6859 0061 00       		.byte	0
 6860 0062 09       		.uleb128 0x9
 6861 0063 28       		.uleb128 0x28
 6862 0064 00       		.byte	0
 6863 0065 03       		.uleb128 0x3
 6864 0066 08       		.uleb128 0x8
 6865 0067 1C       		.uleb128 0x1c
 6866 0068 0B       		.uleb128 0xb
 6867 0069 00       		.byte	0
 6868 006a 00       		.byte	0
 6869 006b 0A       		.uleb128 0xa
 6870 006c 28       		.uleb128 0x28
 6871 006d 00       		.byte	0
 6872 006e 03       		.uleb128 0x3
 6873 006f 0E       		.uleb128 0xe
 6874 0070 1C       		.uleb128 0x1c
 6875 0071 0B       		.uleb128 0xb
 6876 0072 00       		.byte	0
 6877 0073 00       		.byte	0
 6878 0074 0B       		.uleb128 0xb
 6879 0075 13       		.uleb128 0x13
 6880 0076 01       		.byte	0x1
 6881 0077 0B       		.uleb128 0xb
 6882 0078 0B       		.uleb128 0xb
 6883 0079 3A       		.uleb128 0x3a
 6884 007a 0B       		.uleb128 0xb
 6885 007b 3B       		.uleb128 0x3b
 6886 007c 0B       		.uleb128 0xb
ARM GAS  C:\Users\Melody\AppData\Local\Temp\ccuHhgp0.s 			page 141


 6887 007d 01       		.uleb128 0x1
 6888 007e 13       		.uleb128 0x13
 6889 007f 00       		.byte	0
 6890 0080 00       		.byte	0
 6891 0081 0C       		.uleb128 0xc
 6892 0082 0D       		.uleb128 0xd
 6893 0083 00       		.byte	0
 6894 0084 03       		.uleb128 0x3
 6895 0085 08       		.uleb128 0x8
 6896 0086 3A       		.uleb128 0x3a
 6897 0087 0B       		.uleb128 0xb
 6898 0088 3B       		.uleb128 0x3b
 6899 0089 0B       		.uleb128 0xb
 6900 008a 49       		.uleb128 0x49
 6901 008b 13       		.uleb128 0x13
 6902 008c 38       		.uleb128 0x38
 6903 008d 0B       		.uleb128 0xb
 6904 008e 00       		.byte	0
 6905 008f 00       		.byte	0
 6906 0090 0D       		.uleb128 0xd
 6907 0091 0D       		.uleb128 0xd
 6908 0092 00       		.byte	0
 6909 0093 03       		.uleb128 0x3
 6910 0094 0E       		.uleb128 0xe
 6911 0095 3A       		.uleb128 0x3a
 6912 0096 0B       		.uleb128 0xb
 6913 0097 3B       		.uleb128 0x3b
 6914 0098 0B       		.uleb128 0xb
 6915 0099 49       		.uleb128 0x49
 6916 009a 13       		.uleb128 0x13
 6917 009b 38       		.uleb128 0x38
 6918 009c 0B       		.uleb128 0xb
 6919 009d 00       		.byte	0
 6920 009e 00       		.byte	0
 6921 009f 0E       		.uleb128 0xe
 6922 00a0 13       		.uleb128 0x13
 6923 00a1 01       		.byte	0x1
 6924 00a2 03       		.uleb128 0x3
 6925 00a3 0E       		.uleb128 0xe
 6926 00a4 0B       		.uleb128 0xb
 6927 00a5 0B       		.uleb128 0xb
 6928 00a6 3A       		.uleb128 0x3a
 6929 00a7 0B       		.uleb128 0xb
 6930 00a8 3B       		.uleb128 0x3b
 6931 00a9 0B       		.uleb128 0xb
 6932 00aa 01       		.uleb128 0x1
 6933 00ab 13       		.uleb128 0x13
 6934 00ac 00       		.byte	0
 6935 00ad 00       		.byte	0
 6936 00ae 0F       		.uleb128 0xf
 6937 00af 0D       		.uleb128 0xd
 6938 00b0 00       		.byte	0
 6939 00b1 03       		.uleb128 0x3
 6940 00b2 0E       		.uleb128 0xe
 6941 00b3 3A       		.uleb128 0x3a
 6942 00b4 0B       		.uleb128 0xb
 6943 00b5 3B       		.uleb128 0x3b
ARM GAS  C:\Users\Melody\AppData\Local\Temp\ccuHhgp0.s 			page 142


 6944 00b6 05       		.uleb128 0x5
 6945 00b7 49       		.uleb128 0x49
 6946 00b8 13       		.uleb128 0x13
 6947 00b9 38       		.uleb128 0x38
 6948 00ba 0B       		.uleb128 0xb
 6949 00bb 00       		.byte	0
 6950 00bc 00       		.byte	0
 6951 00bd 10       		.uleb128 0x10
 6952 00be 13       		.uleb128 0x13
 6953 00bf 01       		.byte	0x1
 6954 00c0 03       		.uleb128 0x3
 6955 00c1 0E       		.uleb128 0xe
 6956 00c2 0B       		.uleb128 0xb
 6957 00c3 0B       		.uleb128 0xb
 6958 00c4 3A       		.uleb128 0x3a
 6959 00c5 0B       		.uleb128 0xb
 6960 00c6 3B       		.uleb128 0x3b
 6961 00c7 05       		.uleb128 0x5
 6962 00c8 01       		.uleb128 0x1
 6963 00c9 13       		.uleb128 0x13
 6964 00ca 00       		.byte	0
 6965 00cb 00       		.byte	0
 6966 00cc 11       		.uleb128 0x11
 6967 00cd 0D       		.uleb128 0xd
 6968 00ce 00       		.byte	0
 6969 00cf 03       		.uleb128 0x3
 6970 00d0 08       		.uleb128 0x8
 6971 00d1 3A       		.uleb128 0x3a
 6972 00d2 0B       		.uleb128 0xb
 6973 00d3 3B       		.uleb128 0x3b
 6974 00d4 05       		.uleb128 0x5
 6975 00d5 49       		.uleb128 0x49
 6976 00d6 13       		.uleb128 0x13
 6977 00d7 38       		.uleb128 0x38
 6978 00d8 0B       		.uleb128 0xb
 6979 00d9 00       		.byte	0
 6980 00da 00       		.byte	0
 6981 00db 12       		.uleb128 0x12
 6982 00dc 26       		.uleb128 0x26
 6983 00dd 00       		.byte	0
 6984 00de 49       		.uleb128 0x49
 6985 00df 13       		.uleb128 0x13
 6986 00e0 00       		.byte	0
 6987 00e1 00       		.byte	0
 6988 00e2 13       		.uleb128 0x13
 6989 00e3 15       		.uleb128 0x15
 6990 00e4 01       		.byte	0x1
 6991 00e5 27       		.uleb128 0x27
 6992 00e6 19       		.uleb128 0x19
 6993 00e7 01       		.uleb128 0x1
 6994 00e8 13       		.uleb128 0x13
 6995 00e9 00       		.byte	0
 6996 00ea 00       		.byte	0
 6997 00eb 14       		.uleb128 0x14
 6998 00ec 05       		.uleb128 0x5
 6999 00ed 00       		.byte	0
 7000 00ee 49       		.uleb128 0x49
ARM GAS  C:\Users\Melody\AppData\Local\Temp\ccuHhgp0.s 			page 143


 7001 00ef 13       		.uleb128 0x13
 7002 00f0 00       		.byte	0
 7003 00f1 00       		.byte	0
 7004 00f2 15       		.uleb128 0x15
 7005 00f3 13       		.uleb128 0x13
 7006 00f4 01       		.byte	0x1
 7007 00f5 0B       		.uleb128 0xb
 7008 00f6 0B       		.uleb128 0xb
 7009 00f7 3A       		.uleb128 0x3a
 7010 00f8 0B       		.uleb128 0xb
 7011 00f9 3B       		.uleb128 0x3b
 7012 00fa 05       		.uleb128 0x5
 7013 00fb 01       		.uleb128 0x1
 7014 00fc 13       		.uleb128 0x13
 7015 00fd 00       		.byte	0
 7016 00fe 00       		.byte	0
 7017 00ff 16       		.uleb128 0x16
 7018 0100 01       		.uleb128 0x1
 7019 0101 01       		.byte	0x1
 7020 0102 49       		.uleb128 0x49
 7021 0103 13       		.uleb128 0x13
 7022 0104 01       		.uleb128 0x1
 7023 0105 13       		.uleb128 0x13
 7024 0106 00       		.byte	0
 7025 0107 00       		.byte	0
 7026 0108 17       		.uleb128 0x17
 7027 0109 21       		.uleb128 0x21
 7028 010a 00       		.byte	0
 7029 010b 49       		.uleb128 0x49
 7030 010c 13       		.uleb128 0x13
 7031 010d 2F       		.uleb128 0x2f
 7032 010e 0B       		.uleb128 0xb
 7033 010f 00       		.byte	0
 7034 0110 00       		.byte	0
 7035 0111 18       		.uleb128 0x18
 7036 0112 2E       		.uleb128 0x2e
 7037 0113 01       		.byte	0x1
 7038 0114 3F       		.uleb128 0x3f
 7039 0115 19       		.uleb128 0x19
 7040 0116 03       		.uleb128 0x3
 7041 0117 0E       		.uleb128 0xe
 7042 0118 3A       		.uleb128 0x3a
 7043 0119 0B       		.uleb128 0xb
 7044 011a 3B       		.uleb128 0x3b
 7045 011b 0B       		.uleb128 0xb
 7046 011c 11       		.uleb128 0x11
 7047 011d 01       		.uleb128 0x1
 7048 011e 12       		.uleb128 0x12
 7049 011f 06       		.uleb128 0x6
 7050 0120 40       		.uleb128 0x40
 7051 0121 18       		.uleb128 0x18
 7052 0122 9742     		.uleb128 0x2117
 7053 0124 19       		.uleb128 0x19
 7054 0125 01       		.uleb128 0x1
 7055 0126 13       		.uleb128 0x13
 7056 0127 00       		.byte	0
 7057 0128 00       		.byte	0
ARM GAS  C:\Users\Melody\AppData\Local\Temp\ccuHhgp0.s 			page 144


 7058 0129 19       		.uleb128 0x19
 7059 012a 898201   		.uleb128 0x4109
 7060 012d 01       		.byte	0x1
 7061 012e 11       		.uleb128 0x11
 7062 012f 01       		.uleb128 0x1
 7063 0130 31       		.uleb128 0x31
 7064 0131 13       		.uleb128 0x13
 7065 0132 01       		.uleb128 0x1
 7066 0133 13       		.uleb128 0x13
 7067 0134 00       		.byte	0
 7068 0135 00       		.byte	0
 7069 0136 1A       		.uleb128 0x1a
 7070 0137 8A8201   		.uleb128 0x410a
 7071 013a 00       		.byte	0
 7072 013b 02       		.uleb128 0x2
 7073 013c 18       		.uleb128 0x18
 7074 013d 9142     		.uleb128 0x2111
 7075 013f 18       		.uleb128 0x18
 7076 0140 00       		.byte	0
 7077 0141 00       		.byte	0
 7078 0142 1B       		.uleb128 0x1b
 7079 0143 898201   		.uleb128 0x4109
 7080 0146 01       		.byte	0x1
 7081 0147 11       		.uleb128 0x11
 7082 0148 01       		.uleb128 0x1
 7083 0149 31       		.uleb128 0x31
 7084 014a 13       		.uleb128 0x13
 7085 014b 00       		.byte	0
 7086 014c 00       		.byte	0
 7087 014d 1C       		.uleb128 0x1c
 7088 014e 2E       		.uleb128 0x2e
 7089 014f 01       		.byte	0x1
 7090 0150 3F       		.uleb128 0x3f
 7091 0151 19       		.uleb128 0x19
 7092 0152 03       		.uleb128 0x3
 7093 0153 0E       		.uleb128 0xe
 7094 0154 3A       		.uleb128 0x3a
 7095 0155 0B       		.uleb128 0xb
 7096 0156 3B       		.uleb128 0x3b
 7097 0157 0B       		.uleb128 0xb
 7098 0158 27       		.uleb128 0x27
 7099 0159 19       		.uleb128 0x19
 7100 015a 11       		.uleb128 0x11
 7101 015b 01       		.uleb128 0x1
 7102 015c 12       		.uleb128 0x12
 7103 015d 06       		.uleb128 0x6
 7104 015e 40       		.uleb128 0x40
 7105 015f 18       		.uleb128 0x18
 7106 0160 9742     		.uleb128 0x2117
 7107 0162 19       		.uleb128 0x19
 7108 0163 01       		.uleb128 0x1
 7109 0164 13       		.uleb128 0x13
 7110 0165 00       		.byte	0
 7111 0166 00       		.byte	0
 7112 0167 1D       		.uleb128 0x1d
 7113 0168 05       		.uleb128 0x5
 7114 0169 00       		.byte	0
ARM GAS  C:\Users\Melody\AppData\Local\Temp\ccuHhgp0.s 			page 145


 7115 016a 03       		.uleb128 0x3
 7116 016b 0E       		.uleb128 0xe
 7117 016c 3A       		.uleb128 0x3a
 7118 016d 0B       		.uleb128 0xb
 7119 016e 3B       		.uleb128 0x3b
 7120 016f 0B       		.uleb128 0xb
 7121 0170 49       		.uleb128 0x49
 7122 0171 13       		.uleb128 0x13
 7123 0172 02       		.uleb128 0x2
 7124 0173 17       		.uleb128 0x17
 7125 0174 00       		.byte	0
 7126 0175 00       		.byte	0
 7127 0176 1E       		.uleb128 0x1e
 7128 0177 05       		.uleb128 0x5
 7129 0178 00       		.byte	0
 7130 0179 03       		.uleb128 0x3
 7131 017a 08       		.uleb128 0x8
 7132 017b 3A       		.uleb128 0x3a
 7133 017c 0B       		.uleb128 0xb
 7134 017d 3B       		.uleb128 0x3b
 7135 017e 0B       		.uleb128 0xb
 7136 017f 49       		.uleb128 0x49
 7137 0180 13       		.uleb128 0x13
 7138 0181 02       		.uleb128 0x2
 7139 0182 17       		.uleb128 0x17
 7140 0183 00       		.byte	0
 7141 0184 00       		.byte	0
 7142 0185 1F       		.uleb128 0x1f
 7143 0186 34       		.uleb128 0x34
 7144 0187 00       		.byte	0
 7145 0188 03       		.uleb128 0x3
 7146 0189 0E       		.uleb128 0xe
 7147 018a 3A       		.uleb128 0x3a
 7148 018b 0B       		.uleb128 0xb
 7149 018c 3B       		.uleb128 0x3b
 7150 018d 0B       		.uleb128 0xb
 7151 018e 49       		.uleb128 0x49
 7152 018f 13       		.uleb128 0x13
 7153 0190 02       		.uleb128 0x2
 7154 0191 17       		.uleb128 0x17
 7155 0192 00       		.byte	0
 7156 0193 00       		.byte	0
 7157 0194 20       		.uleb128 0x20
 7158 0195 0B       		.uleb128 0xb
 7159 0196 01       		.byte	0x1
 7160 0197 11       		.uleb128 0x11
 7161 0198 01       		.uleb128 0x1
 7162 0199 12       		.uleb128 0x12
 7163 019a 06       		.uleb128 0x6
 7164 019b 01       		.uleb128 0x1
 7165 019c 13       		.uleb128 0x13
 7166 019d 00       		.byte	0
 7167 019e 00       		.byte	0
 7168 019f 21       		.uleb128 0x21
 7169 01a0 34       		.uleb128 0x34
 7170 01a1 00       		.byte	0
 7171 01a2 03       		.uleb128 0x3
ARM GAS  C:\Users\Melody\AppData\Local\Temp\ccuHhgp0.s 			page 146


 7172 01a3 0E       		.uleb128 0xe
 7173 01a4 3A       		.uleb128 0x3a
 7174 01a5 0B       		.uleb128 0xb
 7175 01a6 3B       		.uleb128 0x3b
 7176 01a7 0B       		.uleb128 0xb
 7177 01a8 49       		.uleb128 0x49
 7178 01a9 13       		.uleb128 0x13
 7179 01aa 02       		.uleb128 0x2
 7180 01ab 18       		.uleb128 0x18
 7181 01ac 00       		.byte	0
 7182 01ad 00       		.byte	0
 7183 01ae 22       		.uleb128 0x22
 7184 01af 898201   		.uleb128 0x4109
 7185 01b2 00       		.byte	0
 7186 01b3 11       		.uleb128 0x11
 7187 01b4 01       		.uleb128 0x1
 7188 01b5 31       		.uleb128 0x31
 7189 01b6 13       		.uleb128 0x13
 7190 01b7 00       		.byte	0
 7191 01b8 00       		.byte	0
 7192 01b9 23       		.uleb128 0x23
 7193 01ba 34       		.uleb128 0x34
 7194 01bb 00       		.byte	0
 7195 01bc 03       		.uleb128 0x3
 7196 01bd 0E       		.uleb128 0xe
 7197 01be 3A       		.uleb128 0x3a
 7198 01bf 0B       		.uleb128 0xb
 7199 01c0 3B       		.uleb128 0x3b
 7200 01c1 0B       		.uleb128 0xb
 7201 01c2 49       		.uleb128 0x49
 7202 01c3 13       		.uleb128 0x13
 7203 01c4 1C       		.uleb128 0x1c
 7204 01c5 0B       		.uleb128 0xb
 7205 01c6 00       		.byte	0
 7206 01c7 00       		.byte	0
 7207 01c8 24       		.uleb128 0x24
 7208 01c9 34       		.uleb128 0x34
 7209 01ca 00       		.byte	0
 7210 01cb 03       		.uleb128 0x3
 7211 01cc 0E       		.uleb128 0xe
 7212 01cd 3A       		.uleb128 0x3a
 7213 01ce 0B       		.uleb128 0xb
 7214 01cf 3B       		.uleb128 0x3b
 7215 01d0 05       		.uleb128 0x5
 7216 01d1 49       		.uleb128 0x49
 7217 01d2 13       		.uleb128 0x13
 7218 01d3 02       		.uleb128 0x2
 7219 01d4 18       		.uleb128 0x18
 7220 01d5 00       		.byte	0
 7221 01d6 00       		.byte	0
 7222 01d7 25       		.uleb128 0x25
 7223 01d8 2E       		.uleb128 0x2e
 7224 01d9 01       		.byte	0x1
 7225 01da 3F       		.uleb128 0x3f
 7226 01db 19       		.uleb128 0x19
 7227 01dc 03       		.uleb128 0x3
 7228 01dd 0E       		.uleb128 0xe
ARM GAS  C:\Users\Melody\AppData\Local\Temp\ccuHhgp0.s 			page 147


 7229 01de 3A       		.uleb128 0x3a
 7230 01df 0B       		.uleb128 0xb
 7231 01e0 3B       		.uleb128 0x3b
 7232 01e1 05       		.uleb128 0x5
 7233 01e2 27       		.uleb128 0x27
 7234 01e3 19       		.uleb128 0x19
 7235 01e4 11       		.uleb128 0x11
 7236 01e5 01       		.uleb128 0x1
 7237 01e6 12       		.uleb128 0x12
 7238 01e7 06       		.uleb128 0x6
 7239 01e8 40       		.uleb128 0x40
 7240 01e9 18       		.uleb128 0x18
 7241 01ea 9742     		.uleb128 0x2117
 7242 01ec 19       		.uleb128 0x19
 7243 01ed 01       		.uleb128 0x1
 7244 01ee 13       		.uleb128 0x13
 7245 01ef 00       		.byte	0
 7246 01f0 00       		.byte	0
 7247 01f1 26       		.uleb128 0x26
 7248 01f2 05       		.uleb128 0x5
 7249 01f3 00       		.byte	0
 7250 01f4 03       		.uleb128 0x3
 7251 01f5 0E       		.uleb128 0xe
 7252 01f6 3A       		.uleb128 0x3a
 7253 01f7 0B       		.uleb128 0xb
 7254 01f8 3B       		.uleb128 0x3b
 7255 01f9 05       		.uleb128 0x5
 7256 01fa 49       		.uleb128 0x49
 7257 01fb 13       		.uleb128 0x13
 7258 01fc 02       		.uleb128 0x2
 7259 01fd 17       		.uleb128 0x17
 7260 01fe 00       		.byte	0
 7261 01ff 00       		.byte	0
 7262 0200 27       		.uleb128 0x27
 7263 0201 05       		.uleb128 0x5
 7264 0202 00       		.byte	0
 7265 0203 03       		.uleb128 0x3
 7266 0204 08       		.uleb128 0x8
 7267 0205 3A       		.uleb128 0x3a
 7268 0206 0B       		.uleb128 0xb
 7269 0207 3B       		.uleb128 0x3b
 7270 0208 05       		.uleb128 0x5
 7271 0209 49       		.uleb128 0x49
 7272 020a 13       		.uleb128 0x13
 7273 020b 02       		.uleb128 0x2
 7274 020c 17       		.uleb128 0x17
 7275 020d 00       		.byte	0
 7276 020e 00       		.byte	0
 7277 020f 28       		.uleb128 0x28
 7278 0210 34       		.uleb128 0x34
 7279 0211 00       		.byte	0
 7280 0212 03       		.uleb128 0x3
 7281 0213 0E       		.uleb128 0xe
 7282 0214 3A       		.uleb128 0x3a
 7283 0215 0B       		.uleb128 0xb
 7284 0216 3B       		.uleb128 0x3b
 7285 0217 05       		.uleb128 0x5
ARM GAS  C:\Users\Melody\AppData\Local\Temp\ccuHhgp0.s 			page 148


 7286 0218 49       		.uleb128 0x49
 7287 0219 13       		.uleb128 0x13
 7288 021a 02       		.uleb128 0x2
 7289 021b 17       		.uleb128 0x17
 7290 021c 00       		.byte	0
 7291 021d 00       		.byte	0
 7292 021e 29       		.uleb128 0x29
 7293 021f 34       		.uleb128 0x34
 7294 0220 00       		.byte	0
 7295 0221 03       		.uleb128 0x3
 7296 0222 0E       		.uleb128 0xe
 7297 0223 3A       		.uleb128 0x3a
 7298 0224 0B       		.uleb128 0xb
 7299 0225 3B       		.uleb128 0x3b
 7300 0226 05       		.uleb128 0x5
 7301 0227 49       		.uleb128 0x49
 7302 0228 13       		.uleb128 0x13
 7303 0229 1C       		.uleb128 0x1c
 7304 022a 0B       		.uleb128 0xb
 7305 022b 00       		.byte	0
 7306 022c 00       		.byte	0
 7307 022d 2A       		.uleb128 0x2a
 7308 022e 2E       		.uleb128 0x2e
 7309 022f 01       		.byte	0x1
 7310 0230 3F       		.uleb128 0x3f
 7311 0231 19       		.uleb128 0x19
 7312 0232 03       		.uleb128 0x3
 7313 0233 0E       		.uleb128 0xe
 7314 0234 3A       		.uleb128 0x3a
 7315 0235 0B       		.uleb128 0xb
 7316 0236 3B       		.uleb128 0x3b
 7317 0237 05       		.uleb128 0x5
 7318 0238 27       		.uleb128 0x27
 7319 0239 19       		.uleb128 0x19
 7320 023a 11       		.uleb128 0x11
 7321 023b 01       		.uleb128 0x1
 7322 023c 12       		.uleb128 0x12
 7323 023d 06       		.uleb128 0x6
 7324 023e 40       		.uleb128 0x40
 7325 023f 18       		.uleb128 0x18
 7326 0240 9642     		.uleb128 0x2116
 7327 0242 19       		.uleb128 0x19
 7328 0243 01       		.uleb128 0x1
 7329 0244 13       		.uleb128 0x13
 7330 0245 00       		.byte	0
 7331 0246 00       		.byte	0
 7332 0247 2B       		.uleb128 0x2b
 7333 0248 0B       		.uleb128 0xb
 7334 0249 01       		.byte	0x1
 7335 024a 55       		.uleb128 0x55
 7336 024b 17       		.uleb128 0x17
 7337 024c 01       		.uleb128 0x1
 7338 024d 13       		.uleb128 0x13
 7339 024e 00       		.byte	0
 7340 024f 00       		.byte	0
 7341 0250 2C       		.uleb128 0x2c
 7342 0251 2E       		.uleb128 0x2e
ARM GAS  C:\Users\Melody\AppData\Local\Temp\ccuHhgp0.s 			page 149


 7343 0252 01       		.byte	0x1
 7344 0253 3F       		.uleb128 0x3f
 7345 0254 19       		.uleb128 0x19
 7346 0255 03       		.uleb128 0x3
 7347 0256 0E       		.uleb128 0xe
 7348 0257 3A       		.uleb128 0x3a
 7349 0258 0B       		.uleb128 0xb
 7350 0259 3B       		.uleb128 0x3b
 7351 025a 05       		.uleb128 0x5
 7352 025b 27       		.uleb128 0x27
 7353 025c 19       		.uleb128 0x19
 7354 025d 20       		.uleb128 0x20
 7355 025e 0B       		.uleb128 0xb
 7356 025f 01       		.uleb128 0x1
 7357 0260 13       		.uleb128 0x13
 7358 0261 00       		.byte	0
 7359 0262 00       		.byte	0
 7360 0263 2D       		.uleb128 0x2d
 7361 0264 05       		.uleb128 0x5
 7362 0265 00       		.byte	0
 7363 0266 03       		.uleb128 0x3
 7364 0267 0E       		.uleb128 0xe
 7365 0268 3A       		.uleb128 0x3a
 7366 0269 0B       		.uleb128 0xb
 7367 026a 3B       		.uleb128 0x3b
 7368 026b 05       		.uleb128 0x5
 7369 026c 49       		.uleb128 0x49
 7370 026d 13       		.uleb128 0x13
 7371 026e 00       		.byte	0
 7372 026f 00       		.byte	0
 7373 0270 2E       		.uleb128 0x2e
 7374 0271 05       		.uleb128 0x5
 7375 0272 00       		.byte	0
 7376 0273 03       		.uleb128 0x3
 7377 0274 08       		.uleb128 0x8
 7378 0275 3A       		.uleb128 0x3a
 7379 0276 0B       		.uleb128 0xb
 7380 0277 3B       		.uleb128 0x3b
 7381 0278 05       		.uleb128 0x5
 7382 0279 49       		.uleb128 0x49
 7383 027a 13       		.uleb128 0x13
 7384 027b 00       		.byte	0
 7385 027c 00       		.byte	0
 7386 027d 2F       		.uleb128 0x2f
 7387 027e 2E       		.uleb128 0x2e
 7388 027f 01       		.byte	0x1
 7389 0280 31       		.uleb128 0x31
 7390 0281 13       		.uleb128 0x13
 7391 0282 11       		.uleb128 0x11
 7392 0283 01       		.uleb128 0x1
 7393 0284 12       		.uleb128 0x12
 7394 0285 06       		.uleb128 0x6
 7395 0286 40       		.uleb128 0x40
 7396 0287 18       		.uleb128 0x18
 7397 0288 9742     		.uleb128 0x2117
 7398 028a 19       		.uleb128 0x19
 7399 028b 01       		.uleb128 0x1
ARM GAS  C:\Users\Melody\AppData\Local\Temp\ccuHhgp0.s 			page 150


 7400 028c 13       		.uleb128 0x13
 7401 028d 00       		.byte	0
 7402 028e 00       		.byte	0
 7403 028f 30       		.uleb128 0x30
 7404 0290 05       		.uleb128 0x5
 7405 0291 00       		.byte	0
 7406 0292 31       		.uleb128 0x31
 7407 0293 13       		.uleb128 0x13
 7408 0294 02       		.uleb128 0x2
 7409 0295 17       		.uleb128 0x17
 7410 0296 00       		.byte	0
 7411 0297 00       		.byte	0
 7412 0298 31       		.uleb128 0x31
 7413 0299 34       		.uleb128 0x34
 7414 029a 00       		.byte	0
 7415 029b 03       		.uleb128 0x3
 7416 029c 0E       		.uleb128 0xe
 7417 029d 3A       		.uleb128 0x3a
 7418 029e 0B       		.uleb128 0xb
 7419 029f 3B       		.uleb128 0x3b
 7420 02a0 05       		.uleb128 0x5
 7421 02a1 49       		.uleb128 0x49
 7422 02a2 13       		.uleb128 0x13
 7423 02a3 1C       		.uleb128 0x1c
 7424 02a4 06       		.uleb128 0x6
 7425 02a5 00       		.byte	0
 7426 02a6 00       		.byte	0
 7427 02a7 32       		.uleb128 0x32
 7428 02a8 34       		.uleb128 0x34
 7429 02a9 00       		.byte	0
 7430 02aa 03       		.uleb128 0x3
 7431 02ab 0E       		.uleb128 0xe
 7432 02ac 3A       		.uleb128 0x3a
 7433 02ad 0B       		.uleb128 0xb
 7434 02ae 3B       		.uleb128 0x3b
 7435 02af 05       		.uleb128 0x5
 7436 02b0 49       		.uleb128 0x49
 7437 02b1 13       		.uleb128 0x13
 7438 02b2 1C       		.uleb128 0x1c
 7439 02b3 05       		.uleb128 0x5
 7440 02b4 00       		.byte	0
 7441 02b5 00       		.byte	0
 7442 02b6 33       		.uleb128 0x33
 7443 02b7 34       		.uleb128 0x34
 7444 02b8 00       		.byte	0
 7445 02b9 03       		.uleb128 0x3
 7446 02ba 08       		.uleb128 0x8
 7447 02bb 3A       		.uleb128 0x3a
 7448 02bc 0B       		.uleb128 0xb
 7449 02bd 3B       		.uleb128 0x3b
 7450 02be 05       		.uleb128 0x5
 7451 02bf 49       		.uleb128 0x49
 7452 02c0 13       		.uleb128 0x13
 7453 02c1 02       		.uleb128 0x2
 7454 02c2 17       		.uleb128 0x17
 7455 02c3 00       		.byte	0
 7456 02c4 00       		.byte	0
ARM GAS  C:\Users\Melody\AppData\Local\Temp\ccuHhgp0.s 			page 151


 7457 02c5 34       		.uleb128 0x34
 7458 02c6 34       		.uleb128 0x34
 7459 02c7 00       		.byte	0
 7460 02c8 03       		.uleb128 0x3
 7461 02c9 0E       		.uleb128 0xe
 7462 02ca 3A       		.uleb128 0x3a
 7463 02cb 0B       		.uleb128 0xb
 7464 02cc 3B       		.uleb128 0x3b
 7465 02cd 0B       		.uleb128 0xb
 7466 02ce 49       		.uleb128 0x49
 7467 02cf 13       		.uleb128 0x13
 7468 02d0 3F       		.uleb128 0x3f
 7469 02d1 19       		.uleb128 0x19
 7470 02d2 3C       		.uleb128 0x3c
 7471 02d3 19       		.uleb128 0x19
 7472 02d4 00       		.byte	0
 7473 02d5 00       		.byte	0
 7474 02d6 35       		.uleb128 0x35
 7475 02d7 34       		.uleb128 0x34
 7476 02d8 00       		.byte	0
 7477 02d9 03       		.uleb128 0x3
 7478 02da 0E       		.uleb128 0xe
 7479 02db 3A       		.uleb128 0x3a
 7480 02dc 0B       		.uleb128 0xb
 7481 02dd 3B       		.uleb128 0x3b
 7482 02de 0B       		.uleb128 0xb
 7483 02df 49       		.uleb128 0x49
 7484 02e0 13       		.uleb128 0x13
 7485 02e1 3F       		.uleb128 0x3f
 7486 02e2 19       		.uleb128 0x19
 7487 02e3 02       		.uleb128 0x2
 7488 02e4 18       		.uleb128 0x18
 7489 02e5 00       		.byte	0
 7490 02e6 00       		.byte	0
 7491 02e7 36       		.uleb128 0x36
 7492 02e8 2E       		.uleb128 0x2e
 7493 02e9 00       		.byte	0
 7494 02ea 3F       		.uleb128 0x3f
 7495 02eb 19       		.uleb128 0x19
 7496 02ec 3C       		.uleb128 0x3c
 7497 02ed 19       		.uleb128 0x19
 7498 02ee 6E       		.uleb128 0x6e
 7499 02ef 0E       		.uleb128 0xe
 7500 02f0 03       		.uleb128 0x3
 7501 02f1 0E       		.uleb128 0xe
 7502 02f2 3A       		.uleb128 0x3a
 7503 02f3 0B       		.uleb128 0xb
 7504 02f4 3B       		.uleb128 0x3b
 7505 02f5 05       		.uleb128 0x5
 7506 02f6 00       		.byte	0
 7507 02f7 00       		.byte	0
 7508 02f8 37       		.uleb128 0x37
 7509 02f9 2E       		.uleb128 0x2e
 7510 02fa 00       		.byte	0
 7511 02fb 3F       		.uleb128 0x3f
 7512 02fc 19       		.uleb128 0x19
 7513 02fd 3C       		.uleb128 0x3c
ARM GAS  C:\Users\Melody\AppData\Local\Temp\ccuHhgp0.s 			page 152


 7514 02fe 19       		.uleb128 0x19
 7515 02ff 6E       		.uleb128 0x6e
 7516 0300 0E       		.uleb128 0xe
 7517 0301 03       		.uleb128 0x3
 7518 0302 0E       		.uleb128 0xe
 7519 0303 3A       		.uleb128 0x3a
 7520 0304 0B       		.uleb128 0xb
 7521 0305 3B       		.uleb128 0x3b
 7522 0306 0B       		.uleb128 0xb
 7523 0307 00       		.byte	0
 7524 0308 00       		.byte	0
 7525 0309 00       		.byte	0
 7526              		.section	.debug_loc,"",%progbits
 7527              	.Ldebug_loc0:
 7528              	.LLST0:
 7529 0000 00000000 		.4byte	.LVL20
 7530 0004 30000000 		.4byte	.LVL30
 7531 0008 0100     		.2byte	0x1
 7532 000a 50       		.byte	0x50
 7533 000b 30000000 		.4byte	.LVL30
 7534 000f 5C010000 		.4byte	.LFE38
 7535 0013 0400     		.2byte	0x4
 7536 0015 F3       		.byte	0xf3
 7537 0016 01       		.uleb128 0x1
 7538 0017 50       		.byte	0x50
 7539 0018 9F       		.byte	0x9f
 7540 0019 00000000 		.4byte	0
 7541 001d 00000000 		.4byte	0
 7542              	.LLST1:
 7543 0021 00000000 		.4byte	.LVL20
 7544 0025 12000000 		.4byte	.LVL24
 7545 0029 0100     		.2byte	0x1
 7546 002b 51       		.byte	0x51
 7547 002c 12000000 		.4byte	.LVL24
 7548 0030 5C010000 		.4byte	.LFE38
 7549 0034 0400     		.2byte	0x4
 7550 0036 F3       		.byte	0xf3
 7551 0037 01       		.uleb128 0x1
 7552 0038 51       		.byte	0x51
 7553 0039 9F       		.byte	0x9f
 7554 003a 00000000 		.4byte	0
 7555 003e 00000000 		.4byte	0
 7556              	.LLST2:
 7557 0042 00000000 		.4byte	.LVL20
 7558 0046 1E000000 		.4byte	.LVL27
 7559 004a 0100     		.2byte	0x1
 7560 004c 52       		.byte	0x52
 7561 004d 1E000000 		.4byte	.LVL27
 7562 0051 5C010000 		.4byte	.LFE38
 7563 0055 0400     		.2byte	0x4
 7564 0057 F3       		.byte	0xf3
 7565 0058 01       		.uleb128 0x1
 7566 0059 52       		.byte	0x52
 7567 005a 9F       		.byte	0x9f
 7568 005b 00000000 		.4byte	0
 7569 005f 00000000 		.4byte	0
 7570              	.LLST3:
ARM GAS  C:\Users\Melody\AppData\Local\Temp\ccuHhgp0.s 			page 153


 7571 0063 00000000 		.4byte	.LVL20
 7572 0067 08000000 		.4byte	.LVL21
 7573 006b 0100     		.2byte	0x1
 7574 006d 53       		.byte	0x53
 7575 006e 08000000 		.4byte	.LVL21
 7576 0072 5C010000 		.4byte	.LFE38
 7577 0076 0400     		.2byte	0x4
 7578 0078 F3       		.byte	0xf3
 7579 0079 01       		.uleb128 0x1
 7580 007a 53       		.byte	0x53
 7581 007b 9F       		.byte	0x9f
 7582 007c 00000000 		.4byte	0
 7583 0080 00000000 		.4byte	0
 7584              	.LLST4:
 7585 0084 00000000 		.4byte	.LVL20
 7586 0088 08000000 		.4byte	.LVL21
 7587 008c 0200     		.2byte	0x2
 7588 008e 91       		.byte	0x91
 7589 008f 00       		.sleb128 0
 7590 0090 08000000 		.4byte	.LVL21
 7591 0094 0A000000 		.4byte	.LVL22
 7592 0098 0200     		.2byte	0x2
 7593 009a 73       		.byte	0x73
 7594 009b 00       		.sleb128 0
 7595 009c 0A000000 		.4byte	.LVL22
 7596 00a0 5C010000 		.4byte	.LFE38
 7597 00a4 0200     		.2byte	0x2
 7598 00a6 91       		.byte	0x91
 7599 00a7 00       		.sleb128 0
 7600 00a8 00000000 		.4byte	0
 7601 00ac 00000000 		.4byte	0
 7602              	.LLST5:
 7603 00b0 00000000 		.4byte	.LVL20
 7604 00b4 08000000 		.4byte	.LVL21
 7605 00b8 0200     		.2byte	0x2
 7606 00ba 91       		.byte	0x91
 7607 00bb 04       		.sleb128 4
 7608 00bc 08000000 		.4byte	.LVL21
 7609 00c0 0A000000 		.4byte	.LVL22
 7610 00c4 0200     		.2byte	0x2
 7611 00c6 73       		.byte	0x73
 7612 00c7 04       		.sleb128 4
 7613 00c8 0A000000 		.4byte	.LVL22
 7614 00cc 10000000 		.4byte	.LVL23
 7615 00d0 0200     		.2byte	0x2
 7616 00d2 91       		.byte	0x91
 7617 00d3 04       		.sleb128 4
 7618 00d4 10000000 		.4byte	.LVL23
 7619 00d8 14000000 		.4byte	.LVL25
 7620 00dc 0200     		.2byte	0x2
 7621 00de 73       		.byte	0x73
 7622 00df 00       		.sleb128 0
 7623 00e0 14000000 		.4byte	.LVL25
 7624 00e4 5C010000 		.4byte	.LFE38
 7625 00e8 0200     		.2byte	0x2
 7626 00ea 91       		.byte	0x91
 7627 00eb 04       		.sleb128 4
ARM GAS  C:\Users\Melody\AppData\Local\Temp\ccuHhgp0.s 			page 154


 7628 00ec 00000000 		.4byte	0
 7629 00f0 00000000 		.4byte	0
 7630              	.LLST6:
 7631 00f4 2C000000 		.4byte	.LVL28
 7632 00f8 53000000 		.4byte	.LVL33-1
 7633 00fc 0100     		.2byte	0x1
 7634 00fe 52       		.byte	0x52
 7635 00ff 00000000 		.4byte	0
 7636 0103 00000000 		.4byte	0
 7637              	.LLST7:
 7638 0107 3A000000 		.4byte	.LVL31
 7639 010b 64000000 		.4byte	.LVL35
 7640 010f 0100     		.2byte	0x1
 7641 0111 56       		.byte	0x56
 7642 0112 94000000 		.4byte	.LVL37
 7643 0116 CC000000 		.4byte	.LVL41
 7644 011a 0100     		.2byte	0x1
 7645 011c 56       		.byte	0x56
 7646 011d F4000000 		.4byte	.LVL44
 7647 0121 FE000000 		.4byte	.LVL45
 7648 0125 0100     		.2byte	0x1
 7649 0127 56       		.byte	0x56
 7650 0128 00000000 		.4byte	0
 7651 012c 00000000 		.4byte	0
 7652              	.LLST8:
 7653 0130 4A000000 		.4byte	.LVL32
 7654 0134 96000000 		.4byte	.LVL38
 7655 0138 0100     		.2byte	0x1
 7656 013a 57       		.byte	0x57
 7657 013b 96000000 		.4byte	.LVL38
 7658 013f E8000000 		.4byte	.LVL42
 7659 0143 1600     		.2byte	0x16
 7660 0145 91       		.byte	0x91
 7661 0146 04       		.sleb128 4
 7662 0147 94       		.byte	0x94
 7663 0148 01       		.byte	0x1
 7664 0149 08       		.byte	0x8
 7665 014a FF       		.byte	0xff
 7666 014b 1A       		.byte	0x1a
 7667 014c 09       		.byte	0x9
 7668 014d EF       		.byte	0xef
 7669 014e 1E       		.byte	0x1e
 7670 014f 74       		.byte	0x74
 7671 0150 00       		.sleb128 0
 7672 0151 91       		.byte	0x91
 7673 0152 54       		.sleb128 -44
 7674 0153 06       		.byte	0x6
 7675 0154 22       		.byte	0x22
 7676 0155 31       		.byte	0x31
 7677 0156 26       		.byte	0x26
 7678 0157 22       		.byte	0x22
 7679 0158 35       		.byte	0x35
 7680 0159 1C       		.byte	0x1c
 7681 015a 9F       		.byte	0x9f
 7682 015b F4000000 		.4byte	.LVL44
 7683 015f 1C010000 		.4byte	.LVL47
 7684 0163 1600     		.2byte	0x16
ARM GAS  C:\Users\Melody\AppData\Local\Temp\ccuHhgp0.s 			page 155


 7685 0165 91       		.byte	0x91
 7686 0166 04       		.sleb128 4
 7687 0167 94       		.byte	0x94
 7688 0168 01       		.byte	0x1
 7689 0169 08       		.byte	0x8
 7690 016a FF       		.byte	0xff
 7691 016b 1A       		.byte	0x1a
 7692 016c 09       		.byte	0x9
 7693 016d EF       		.byte	0xef
 7694 016e 1E       		.byte	0x1e
 7695 016f 74       		.byte	0x74
 7696 0170 00       		.sleb128 0
 7697 0171 91       		.byte	0x91
 7698 0172 54       		.sleb128 -44
 7699 0173 06       		.byte	0x6
 7700 0174 22       		.byte	0x22
 7701 0175 31       		.byte	0x31
 7702 0176 26       		.byte	0x26
 7703 0177 22       		.byte	0x22
 7704 0178 35       		.byte	0x35
 7705 0179 1C       		.byte	0x1c
 7706 017a 9F       		.byte	0x9f
 7707 017b 00000000 		.4byte	0
 7708 017f 00000000 		.4byte	0
 7709              	.LLST9:
 7710 0183 1C000000 		.4byte	.LVL26
 7711 0187 2E000000 		.4byte	.LVL29
 7712 018b 0100     		.2byte	0x1
 7713 018d 53       		.byte	0x53
 7714 018e 2E000000 		.4byte	.LVL29
 7715 0192 53000000 		.4byte	.LVL33-1
 7716 0196 0700     		.2byte	0x7
 7717 0198 71       		.byte	0x71
 7718 0199 00       		.sleb128 0
 7719 019a 44       		.byte	0x44
 7720 019b 1E       		.byte	0x1e
 7721 019c 23       		.byte	0x23
 7722 019d 0C       		.uleb128 0xc
 7723 019e 9F       		.byte	0x9f
 7724 019f 53000000 		.4byte	.LVL33-1
 7725 01a3 5C010000 		.4byte	.LFE38
 7726 01a7 0C00     		.2byte	0xc
 7727 01a9 91       		.byte	0x91
 7728 01aa 04       		.sleb128 4
 7729 01ab 94       		.byte	0x94
 7730 01ac 01       		.byte	0x1
 7731 01ad 08       		.byte	0x8
 7732 01ae FF       		.byte	0xff
 7733 01af 1A       		.byte	0x1a
 7734 01b0 44       		.byte	0x44
 7735 01b1 1E       		.byte	0x1e
 7736 01b2 23       		.byte	0x23
 7737 01b3 0C       		.uleb128 0xc
 7738 01b4 9F       		.byte	0x9f
 7739 01b5 00000000 		.4byte	0
 7740 01b9 00000000 		.4byte	0
 7741              	.LLST10:
ARM GAS  C:\Users\Melody\AppData\Local\Temp\ccuHhgp0.s 			page 156


 7742 01bd 60000000 		.4byte	.LVL34
 7743 01c1 94000000 		.4byte	.LVL37
 7744 01c5 0400     		.2byte	0x4
 7745 01c7 0A       		.byte	0xa
 7746 01c8 00FF     		.2byte	0xff00
 7747 01ca 9F       		.byte	0x9f
 7748 01cb C2000000 		.4byte	.LVL40
 7749 01cf F4000000 		.4byte	.LVL44
 7750 01d3 0100     		.2byte	0x1
 7751 01d5 55       		.byte	0x55
 7752 01d6 00010000 		.4byte	.LVL46
 7753 01da 2A010000 		.4byte	.LVL49
 7754 01de 0500     		.2byte	0x5
 7755 01e0 08       		.byte	0x8
 7756 01e1 FF       		.byte	0xff
 7757 01e2 40       		.byte	0x40
 7758 01e3 24       		.byte	0x24
 7759 01e4 9F       		.byte	0x9f
 7760 01e5 00000000 		.4byte	0
 7761 01e9 00000000 		.4byte	0
 7762              	.LLST11:
 7763 01ed 00000000 		.4byte	.LVL52
 7764 01f1 24000000 		.4byte	.LVL61
 7765 01f5 0100     		.2byte	0x1
 7766 01f7 50       		.byte	0x50
 7767 01f8 24000000 		.4byte	.LVL61
 7768 01fc 0C010000 		.4byte	.LFE39
 7769 0200 0400     		.2byte	0x4
 7770 0202 F3       		.byte	0xf3
 7771 0203 01       		.uleb128 0x1
 7772 0204 50       		.byte	0x50
 7773 0205 9F       		.byte	0x9f
 7774 0206 00000000 		.4byte	0
 7775 020a 00000000 		.4byte	0
 7776              	.LLST12:
 7777 020e 00000000 		.4byte	.LVL52
 7778 0212 18000000 		.4byte	.LVL58
 7779 0216 0100     		.2byte	0x1
 7780 0218 51       		.byte	0x51
 7781 0219 18000000 		.4byte	.LVL58
 7782 021d 0C010000 		.4byte	.LFE39
 7783 0221 0400     		.2byte	0x4
 7784 0223 F3       		.byte	0xf3
 7785 0224 01       		.uleb128 0x1
 7786 0225 51       		.byte	0x51
 7787 0226 9F       		.byte	0x9f
 7788 0227 00000000 		.4byte	0
 7789 022b 00000000 		.4byte	0
 7790              	.LLST13:
 7791 022f 00000000 		.4byte	.LVL52
 7792 0233 12000000 		.4byte	.LVL56
 7793 0237 0100     		.2byte	0x1
 7794 0239 52       		.byte	0x52
 7795 023a 12000000 		.4byte	.LVL56
 7796 023e 0C010000 		.4byte	.LFE39
 7797 0242 0400     		.2byte	0x4
 7798 0244 F3       		.byte	0xf3
ARM GAS  C:\Users\Melody\AppData\Local\Temp\ccuHhgp0.s 			page 157


 7799 0245 01       		.uleb128 0x1
 7800 0246 52       		.byte	0x52
 7801 0247 9F       		.byte	0x9f
 7802 0248 00000000 		.4byte	0
 7803 024c 00000000 		.4byte	0
 7804              	.LLST14:
 7805 0250 00000000 		.4byte	.LVL52
 7806 0254 08000000 		.4byte	.LVL53
 7807 0258 0100     		.2byte	0x1
 7808 025a 53       		.byte	0x53
 7809 025b 08000000 		.4byte	.LVL53
 7810 025f 0C010000 		.4byte	.LFE39
 7811 0263 0400     		.2byte	0x4
 7812 0265 F3       		.byte	0xf3
 7813 0266 01       		.uleb128 0x1
 7814 0267 53       		.byte	0x53
 7815 0268 9F       		.byte	0x9f
 7816 0269 00000000 		.4byte	0
 7817 026d 00000000 		.4byte	0
 7818              	.LLST15:
 7819 0271 00000000 		.4byte	.LVL52
 7820 0275 08000000 		.4byte	.LVL53
 7821 0279 0200     		.2byte	0x2
 7822 027b 91       		.byte	0x91
 7823 027c 00       		.sleb128 0
 7824 027d 08000000 		.4byte	.LVL53
 7825 0281 0A000000 		.4byte	.LVL54
 7826 0285 0200     		.2byte	0x2
 7827 0287 73       		.byte	0x73
 7828 0288 00       		.sleb128 0
 7829 0289 0A000000 		.4byte	.LVL54
 7830 028d 0C010000 		.4byte	.LFE39
 7831 0291 0200     		.2byte	0x2
 7832 0293 91       		.byte	0x91
 7833 0294 00       		.sleb128 0
 7834 0295 00000000 		.4byte	0
 7835 0299 00000000 		.4byte	0
 7836              	.LLST16:
 7837 029d 00000000 		.4byte	.LVL52
 7838 02a1 08000000 		.4byte	.LVL53
 7839 02a5 0200     		.2byte	0x2
 7840 02a7 91       		.byte	0x91
 7841 02a8 04       		.sleb128 4
 7842 02a9 08000000 		.4byte	.LVL53
 7843 02ad 0A000000 		.4byte	.LVL54
 7844 02b1 0200     		.2byte	0x2
 7845 02b3 73       		.byte	0x73
 7846 02b4 04       		.sleb128 4
 7847 02b5 0A000000 		.4byte	.LVL54
 7848 02b9 10000000 		.4byte	.LVL55
 7849 02bd 0200     		.2byte	0x2
 7850 02bf 91       		.byte	0x91
 7851 02c0 04       		.sleb128 4
 7852 02c1 10000000 		.4byte	.LVL55
 7853 02c5 14000000 		.4byte	.LVL57
 7854 02c9 0200     		.2byte	0x2
 7855 02cb 73       		.byte	0x73
ARM GAS  C:\Users\Melody\AppData\Local\Temp\ccuHhgp0.s 			page 158


 7856 02cc 00       		.sleb128 0
 7857 02cd 14000000 		.4byte	.LVL57
 7858 02d1 0C010000 		.4byte	.LFE39
 7859 02d5 0200     		.2byte	0x2
 7860 02d7 91       		.byte	0x91
 7861 02d8 04       		.sleb128 4
 7862 02d9 00000000 		.4byte	0
 7863 02dd 00000000 		.4byte	0
 7864              	.LLST17:
 7865 02e1 30000000 		.4byte	.LVL62
 7866 02e5 32000000 		.4byte	.LVL63
 7867 02e9 0100     		.2byte	0x1
 7868 02eb 53       		.byte	0x53
 7869 02ec 32000000 		.4byte	.LVL63
 7870 02f0 0C010000 		.4byte	.LFE39
 7871 02f4 0200     		.2byte	0x2
 7872 02f6 91       		.byte	0x91
 7873 02f7 58       		.sleb128 -40
 7874 02f8 00000000 		.4byte	0
 7875 02fc 00000000 		.4byte	0
 7876              	.LLST18:
 7877 0300 42000000 		.4byte	.LVL64
 7878 0304 4B000000 		.4byte	.LVL65-1
 7879 0308 0100     		.2byte	0x1
 7880 030a 53       		.byte	0x53
 7881 030b 4B000000 		.4byte	.LVL65-1
 7882 030f 0C010000 		.4byte	.LFE39
 7883 0313 0200     		.2byte	0x2
 7884 0315 91       		.byte	0x91
 7885 0316 5C       		.sleb128 -36
 7886 0317 00000000 		.4byte	0
 7887 031b 00000000 		.4byte	0
 7888              	.LLST19:
 7889 031f 12000000 		.4byte	.LVL56
 7890 0323 1C000000 		.4byte	.LVL59
 7891 0327 0700     		.2byte	0x7
 7892 0329 72       		.byte	0x72
 7893 032a 00       		.sleb128 0
 7894 032b 44       		.byte	0x44
 7895 032c 1E       		.byte	0x1e
 7896 032d 23       		.byte	0x23
 7897 032e 0C       		.uleb128 0xc
 7898 032f 9F       		.byte	0x9f
 7899 0330 1C000000 		.4byte	.LVL59
 7900 0334 1E000000 		.4byte	.LVL60
 7901 0338 0100     		.2byte	0x1
 7902 033a 53       		.byte	0x53
 7903 033b 1E000000 		.4byte	.LVL60
 7904 033f 4B000000 		.4byte	.LVL65-1
 7905 0343 0700     		.2byte	0x7
 7906 0345 72       		.byte	0x72
 7907 0346 00       		.sleb128 0
 7908 0347 44       		.byte	0x44
 7909 0348 1E       		.byte	0x1e
 7910 0349 23       		.byte	0x23
 7911 034a 0C       		.uleb128 0xc
 7912 034b 9F       		.byte	0x9f
ARM GAS  C:\Users\Melody\AppData\Local\Temp\ccuHhgp0.s 			page 159


 7913 034c 4B000000 		.4byte	.LVL65-1
 7914 0350 0C010000 		.4byte	.LFE39
 7915 0354 0C00     		.2byte	0xc
 7916 0356 91       		.byte	0x91
 7917 0357 04       		.sleb128 4
 7918 0358 94       		.byte	0x94
 7919 0359 01       		.byte	0x1
 7920 035a 08       		.byte	0x8
 7921 035b FF       		.byte	0xff
 7922 035c 1A       		.byte	0x1a
 7923 035d 44       		.byte	0x44
 7924 035e 1E       		.byte	0x1e
 7925 035f 23       		.byte	0x23
 7926 0360 0C       		.uleb128 0xc
 7927 0361 9F       		.byte	0x9f
 7928 0362 00000000 		.4byte	0
 7929 0366 00000000 		.4byte	0
 7930              	.LLST20:
 7931 036a 5A000000 		.4byte	.LVL66
 7932 036e 96000000 		.4byte	.LVL69
 7933 0372 0500     		.2byte	0x5
 7934 0374 08       		.byte	0x8
 7935 0375 FF       		.byte	0xff
 7936 0376 40       		.byte	0x40
 7937 0377 24       		.byte	0x24
 7938 0378 9F       		.byte	0x9f
 7939 0379 A2000000 		.4byte	.LVL70
 7940 037d F2000000 		.4byte	.LVL75
 7941 0381 0100     		.2byte	0x1
 7942 0383 54       		.byte	0x54
 7943 0384 00000000 		.4byte	0
 7944 0388 00000000 		.4byte	0
 7945              	.LLST21:
 7946 038c 00000000 		.4byte	.LVL76
 7947 0390 24000000 		.4byte	.LVL84
 7948 0394 0100     		.2byte	0x1
 7949 0396 50       		.byte	0x50
 7950 0397 24000000 		.4byte	.LVL84
 7951 039b A4030000 		.4byte	.LFE40
 7952 039f 0400     		.2byte	0x4
 7953 03a1 F3       		.byte	0xf3
 7954 03a2 01       		.uleb128 0x1
 7955 03a3 50       		.byte	0x50
 7956 03a4 9F       		.byte	0x9f
 7957 03a5 00000000 		.4byte	0
 7958 03a9 00000000 		.4byte	0
 7959              	.LLST22:
 7960 03ad 00000000 		.4byte	.LVL76
 7961 03b1 16000000 		.4byte	.LVL81
 7962 03b5 0100     		.2byte	0x1
 7963 03b7 51       		.byte	0x51
 7964 03b8 16000000 		.4byte	.LVL81
 7965 03bc A4030000 		.4byte	.LFE40
 7966 03c0 0400     		.2byte	0x4
 7967 03c2 F3       		.byte	0xf3
 7968 03c3 01       		.uleb128 0x1
 7969 03c4 51       		.byte	0x51
ARM GAS  C:\Users\Melody\AppData\Local\Temp\ccuHhgp0.s 			page 160


 7970 03c5 9F       		.byte	0x9f
 7971 03c6 00000000 		.4byte	0
 7972 03ca 00000000 		.4byte	0
 7973              	.LLST23:
 7974 03ce 00000000 		.4byte	.LVL76
 7975 03d2 10000000 		.4byte	.LVL79
 7976 03d6 0100     		.2byte	0x1
 7977 03d8 52       		.byte	0x52
 7978 03d9 10000000 		.4byte	.LVL79
 7979 03dd A4030000 		.4byte	.LFE40
 7980 03e1 0400     		.2byte	0x4
 7981 03e3 F3       		.byte	0xf3
 7982 03e4 01       		.uleb128 0x1
 7983 03e5 52       		.byte	0x52
 7984 03e6 9F       		.byte	0x9f
 7985 03e7 00000000 		.4byte	0
 7986 03eb 00000000 		.4byte	0
 7987              	.LLST24:
 7988 03ef 00000000 		.4byte	.LVL76
 7989 03f3 08000000 		.4byte	.LVL77
 7990 03f7 0100     		.2byte	0x1
 7991 03f9 53       		.byte	0x53
 7992 03fa 08000000 		.4byte	.LVL77
 7993 03fe A4030000 		.4byte	.LFE40
 7994 0402 0400     		.2byte	0x4
 7995 0404 F3       		.byte	0xf3
 7996 0405 01       		.uleb128 0x1
 7997 0406 53       		.byte	0x53
 7998 0407 9F       		.byte	0x9f
 7999 0408 00000000 		.4byte	0
 8000 040c 00000000 		.4byte	0
 8001              	.LLST25:
 8002 0410 00000000 		.4byte	.LVL76
 8003 0414 08000000 		.4byte	.LVL77
 8004 0418 0200     		.2byte	0x2
 8005 041a 91       		.byte	0x91
 8006 041b 00       		.sleb128 0
 8007 041c 08000000 		.4byte	.LVL77
 8008 0420 0C000000 		.4byte	.LVL78
 8009 0424 0200     		.2byte	0x2
 8010 0426 73       		.byte	0x73
 8011 0427 00       		.sleb128 0
 8012 0428 0C000000 		.4byte	.LVL78
 8013 042c A4030000 		.4byte	.LFE40
 8014 0430 0200     		.2byte	0x2
 8015 0432 91       		.byte	0x91
 8016 0433 00       		.sleb128 0
 8017 0434 00000000 		.4byte	0
 8018 0438 00000000 		.4byte	0
 8019              	.LLST26:
 8020 043c 00000000 		.4byte	.LVL76
 8021 0440 08000000 		.4byte	.LVL77
 8022 0444 0200     		.2byte	0x2
 8023 0446 91       		.byte	0x91
 8024 0447 04       		.sleb128 4
 8025 0448 08000000 		.4byte	.LVL77
 8026 044c 0C000000 		.4byte	.LVL78
ARM GAS  C:\Users\Melody\AppData\Local\Temp\ccuHhgp0.s 			page 161


 8027 0450 0200     		.2byte	0x2
 8028 0452 73       		.byte	0x73
 8029 0453 04       		.sleb128 4
 8030 0454 0C000000 		.4byte	.LVL78
 8031 0458 12000000 		.4byte	.LVL80
 8032 045c 0200     		.2byte	0x2
 8033 045e 73       		.byte	0x73
 8034 045f 00       		.sleb128 0
 8035 0460 12000000 		.4byte	.LVL80
 8036 0464 A4030000 		.4byte	.LFE40
 8037 0468 0200     		.2byte	0x2
 8038 046a 91       		.byte	0x91
 8039 046b 04       		.sleb128 4
 8040 046c 00000000 		.4byte	0
 8041 0470 00000000 		.4byte	0
 8042              	.LLST27:
 8043 0474 2E000000 		.4byte	.LVL85
 8044 0478 32000000 		.4byte	.LVL86
 8045 047c 0100     		.2byte	0x1
 8046 047e 53       		.byte	0x53
 8047 047f 32000000 		.4byte	.LVL86
 8048 0483 A4030000 		.4byte	.LFE40
 8049 0487 0200     		.2byte	0x2
 8050 0489 91       		.byte	0x91
 8051 048a 60       		.sleb128 -32
 8052 048b 00000000 		.4byte	0
 8053 048f 00000000 		.4byte	0
 8054              	.LLST28:
 8055 0493 3E000000 		.4byte	.LVL87
 8056 0497 47000000 		.4byte	.LVL88-1
 8057 049b 0100     		.2byte	0x1
 8058 049d 53       		.byte	0x53
 8059 049e 47000000 		.4byte	.LVL88-1
 8060 04a2 A4030000 		.4byte	.LFE40
 8061 04a6 0200     		.2byte	0x2
 8062 04a8 91       		.byte	0x91
 8063 04a9 64       		.sleb128 -28
 8064 04aa 00000000 		.4byte	0
 8065 04ae 00000000 		.4byte	0
 8066              	.LLST29:
 8067 04b2 10000000 		.4byte	.LVL79
 8068 04b6 1C000000 		.4byte	.LVL82
 8069 04ba 0700     		.2byte	0x7
 8070 04bc 72       		.byte	0x72
 8071 04bd 00       		.sleb128 0
 8072 04be 44       		.byte	0x44
 8073 04bf 1E       		.byte	0x1e
 8074 04c0 23       		.byte	0x23
 8075 04c1 0C       		.uleb128 0xc
 8076 04c2 9F       		.byte	0x9f
 8077 04c3 1C000000 		.4byte	.LVL82
 8078 04c7 1E000000 		.4byte	.LVL83
 8079 04cb 0100     		.2byte	0x1
 8080 04cd 53       		.byte	0x53
 8081 04ce 1E000000 		.4byte	.LVL83
 8082 04d2 47000000 		.4byte	.LVL88-1
 8083 04d6 0700     		.2byte	0x7
ARM GAS  C:\Users\Melody\AppData\Local\Temp\ccuHhgp0.s 			page 162


 8084 04d8 72       		.byte	0x72
 8085 04d9 00       		.sleb128 0
 8086 04da 44       		.byte	0x44
 8087 04db 1E       		.byte	0x1e
 8088 04dc 23       		.byte	0x23
 8089 04dd 0C       		.uleb128 0xc
 8090 04de 9F       		.byte	0x9f
 8091 04df 47000000 		.4byte	.LVL88-1
 8092 04e3 A4030000 		.4byte	.LFE40
 8093 04e7 0C00     		.2byte	0xc
 8094 04e9 91       		.byte	0x91
 8095 04ea 04       		.sleb128 4
 8096 04eb 94       		.byte	0x94
 8097 04ec 01       		.byte	0x1
 8098 04ed 08       		.byte	0x8
 8099 04ee FF       		.byte	0xff
 8100 04ef 1A       		.byte	0x1a
 8101 04f0 44       		.byte	0x44
 8102 04f1 1E       		.byte	0x1e
 8103 04f2 23       		.byte	0x23
 8104 04f3 0C       		.uleb128 0xc
 8105 04f4 9F       		.byte	0x9f
 8106 04f5 00000000 		.4byte	0
 8107 04f9 00000000 		.4byte	0
 8108              	.LLST30:
 8109 04fd 86000000 		.4byte	.LVL91
 8110 0501 B4000000 		.4byte	.LVL93
 8111 0505 0600     		.2byte	0x6
 8112 0507 0C       		.byte	0xc
 8113 0508 00FFFF00 		.4byte	0xffff00
 8114 050c 9F       		.byte	0x9f
 8115 050d B4000000 		.4byte	.LVL93
 8116 0511 1A010000 		.4byte	.LVL97
 8117 0515 0500     		.2byte	0x5
 8118 0517 08       		.byte	0x8
 8119 0518 FF       		.byte	0xff
 8120 0519 40       		.byte	0x40
 8121 051a 24       		.byte	0x24
 8122 051b 9F       		.byte	0x9f
 8123 051c 1E010000 		.4byte	.LVL98
 8124 0520 BA010000 		.4byte	.LVL104
 8125 0524 0500     		.2byte	0x5
 8126 0526 08       		.byte	0x8
 8127 0527 FF       		.byte	0xff
 8128 0528 40       		.byte	0x40
 8129 0529 24       		.byte	0x24
 8130 052a 9F       		.byte	0x9f
 8131 052b BA010000 		.4byte	.LVL104
 8132 052f E8010000 		.4byte	.LVL106
 8133 0533 0600     		.2byte	0x6
 8134 0535 0C       		.byte	0xc
 8135 0536 00FFFF00 		.4byte	0xffff00
 8136 053a 9F       		.byte	0x9f
 8137 053b E8010000 		.4byte	.LVL106
 8138 053f EC020000 		.4byte	.LVL116
 8139 0543 0500     		.2byte	0x5
 8140 0545 08       		.byte	0x8
ARM GAS  C:\Users\Melody\AppData\Local\Temp\ccuHhgp0.s 			page 163


 8141 0546 FF       		.byte	0xff
 8142 0547 40       		.byte	0x40
 8143 0548 24       		.byte	0x24
 8144 0549 9F       		.byte	0x9f
 8145 054a EC020000 		.4byte	.LVL116
 8146 054e 42030000 		.4byte	.LVL118
 8147 0552 0400     		.2byte	0x4
 8148 0554 0A       		.byte	0xa
 8149 0555 00FF     		.2byte	0xff00
 8150 0557 9F       		.byte	0x9f
 8151 0558 00000000 		.4byte	0
 8152 055c 00000000 		.4byte	0
 8153              	.LLST31:
 8154 0560 52000000 		.4byte	.LVL89
 8155 0564 62000000 		.4byte	.LVL90
 8156 0568 0600     		.2byte	0x6
 8157 056a 76       		.byte	0x76
 8158 056b 00       		.sleb128 0
 8159 056c 08       		.byte	0x8
 8160 056d 7F       		.byte	0x7f
 8161 056e 1A       		.byte	0x1a
 8162 056f 9F       		.byte	0x9f
 8163 0570 00000000 		.4byte	0
 8164 0574 00000000 		.4byte	0
 8165              	.LLST32:
 8166 0578 00000000 		.4byte	.LVL121
 8167 057c 24000000 		.4byte	.LVL130
 8168 0580 0100     		.2byte	0x1
 8169 0582 50       		.byte	0x50
 8170 0583 24000000 		.4byte	.LVL130
 8171 0587 52000000 		.4byte	.LVL135
 8172 058b 0100     		.2byte	0x1
 8173 058d 54       		.byte	0x54
 8174 058e 52000000 		.4byte	.LVL135
 8175 0592 55000000 		.4byte	.LVL136-1
 8176 0596 0100     		.2byte	0x1
 8177 0598 50       		.byte	0x50
 8178 0599 55000000 		.4byte	.LVL136-1
 8179 059d 56000000 		.4byte	.LVL136
 8180 05a1 0700     		.2byte	0x7
 8181 05a3 74       		.byte	0x74
 8182 05a4 00       		.sleb128 0
 8183 05a5 0A       		.byte	0xa
 8184 05a6 5B03     		.2byte	0x35b
 8185 05a8 1E       		.byte	0x1e
 8186 05a9 9F       		.byte	0x9f
 8187 05aa 56000000 		.4byte	.LVL136
 8188 05ae 5A000000 		.4byte	.LVL137
 8189 05b2 0100     		.2byte	0x1
 8190 05b4 50       		.byte	0x50
 8191 05b5 5A000000 		.4byte	.LVL137
 8192 05b9 5C000000 		.4byte	.LVL138
 8193 05bd 0300     		.2byte	0x3
 8194 05bf 70       		.byte	0x70
 8195 05c0 6E       		.sleb128 -18
 8196 05c1 9F       		.byte	0x9f
 8197 05c2 5C000000 		.4byte	.LVL138
ARM GAS  C:\Users\Melody\AppData\Local\Temp\ccuHhgp0.s 			page 164


 8198 05c6 98000000 		.4byte	.LVL140
 8199 05ca 0100     		.2byte	0x1
 8200 05cc 50       		.byte	0x50
 8201 05cd 98000000 		.4byte	.LVL140
 8202 05d1 F4000000 		.4byte	.LVL146
 8203 05d5 0100     		.2byte	0x1
 8204 05d7 55       		.byte	0x55
 8205 05d8 00000000 		.4byte	0
 8206 05dc 00000000 		.4byte	0
 8207              	.LLST33:
 8208 05e0 00000000 		.4byte	.LVL121
 8209 05e4 18000000 		.4byte	.LVL127
 8210 05e8 0100     		.2byte	0x1
 8211 05ea 51       		.byte	0x51
 8212 05eb 18000000 		.4byte	.LVL127
 8213 05ef 24010000 		.4byte	.LFE41
 8214 05f3 0400     		.2byte	0x4
 8215 05f5 F3       		.byte	0xf3
 8216 05f6 01       		.uleb128 0x1
 8217 05f7 51       		.byte	0x51
 8218 05f8 9F       		.byte	0x9f
 8219 05f9 00000000 		.4byte	0
 8220 05fd 00000000 		.4byte	0
 8221              	.LLST34:
 8222 0601 00000000 		.4byte	.LVL121
 8223 0605 12000000 		.4byte	.LVL125
 8224 0609 0100     		.2byte	0x1
 8225 060b 52       		.byte	0x52
 8226 060c 12000000 		.4byte	.LVL125
 8227 0610 24010000 		.4byte	.LFE41
 8228 0614 0400     		.2byte	0x4
 8229 0616 F3       		.byte	0xf3
 8230 0617 01       		.uleb128 0x1
 8231 0618 52       		.byte	0x52
 8232 0619 9F       		.byte	0x9f
 8233 061a 00000000 		.4byte	0
 8234 061e 00000000 		.4byte	0
 8235              	.LLST35:
 8236 0622 00000000 		.4byte	.LVL121
 8237 0626 08000000 		.4byte	.LVL122
 8238 062a 0100     		.2byte	0x1
 8239 062c 53       		.byte	0x53
 8240 062d 08000000 		.4byte	.LVL122
 8241 0631 24010000 		.4byte	.LFE41
 8242 0635 0400     		.2byte	0x4
 8243 0637 F3       		.byte	0xf3
 8244 0638 01       		.uleb128 0x1
 8245 0639 53       		.byte	0x53
 8246 063a 9F       		.byte	0x9f
 8247 063b 00000000 		.4byte	0
 8248 063f 00000000 		.4byte	0
 8249              	.LLST36:
 8250 0643 00000000 		.4byte	.LVL121
 8251 0647 08000000 		.4byte	.LVL122
 8252 064b 0200     		.2byte	0x2
 8253 064d 91       		.byte	0x91
 8254 064e 00       		.sleb128 0
ARM GAS  C:\Users\Melody\AppData\Local\Temp\ccuHhgp0.s 			page 165


 8255 064f 08000000 		.4byte	.LVL122
 8256 0653 0A000000 		.4byte	.LVL123
 8257 0657 0200     		.2byte	0x2
 8258 0659 73       		.byte	0x73
 8259 065a 00       		.sleb128 0
 8260 065b 0A000000 		.4byte	.LVL123
 8261 065f 24010000 		.4byte	.LFE41
 8262 0663 0200     		.2byte	0x2
 8263 0665 91       		.byte	0x91
 8264 0666 00       		.sleb128 0
 8265 0667 00000000 		.4byte	0
 8266 066b 00000000 		.4byte	0
 8267              	.LLST37:
 8268 066f 00000000 		.4byte	.LVL121
 8269 0673 08000000 		.4byte	.LVL122
 8270 0677 0200     		.2byte	0x2
 8271 0679 91       		.byte	0x91
 8272 067a 04       		.sleb128 4
 8273 067b 08000000 		.4byte	.LVL122
 8274 067f 0A000000 		.4byte	.LVL123
 8275 0683 0200     		.2byte	0x2
 8276 0685 73       		.byte	0x73
 8277 0686 04       		.sleb128 4
 8278 0687 0A000000 		.4byte	.LVL123
 8279 068b 10000000 		.4byte	.LVL124
 8280 068f 0200     		.2byte	0x2
 8281 0691 91       		.byte	0x91
 8282 0692 04       		.sleb128 4
 8283 0693 10000000 		.4byte	.LVL124
 8284 0697 14000000 		.4byte	.LVL126
 8285 069b 0200     		.2byte	0x2
 8286 069d 73       		.byte	0x73
 8287 069e 00       		.sleb128 0
 8288 069f 14000000 		.4byte	.LVL126
 8289 06a3 24010000 		.4byte	.LFE41
 8290 06a7 0200     		.2byte	0x2
 8291 06a9 91       		.byte	0x91
 8292 06aa 04       		.sleb128 4
 8293 06ab 00000000 		.4byte	0
 8294 06af 00000000 		.4byte	0
 8295              	.LLST38:
 8296 06b3 2E000000 		.4byte	.LVL131
 8297 06b7 30000000 		.4byte	.LVL132
 8298 06bb 0100     		.2byte	0x1
 8299 06bd 53       		.byte	0x53
 8300 06be 30000000 		.4byte	.LVL132
 8301 06c2 24010000 		.4byte	.LFE41
 8302 06c6 0200     		.2byte	0x2
 8303 06c8 91       		.byte	0x91
 8304 06c9 58       		.sleb128 -40
 8305 06ca 00000000 		.4byte	0
 8306 06ce 00000000 		.4byte	0
 8307              	.LLST39:
 8308 06d2 40000000 		.4byte	.LVL133
 8309 06d6 49000000 		.4byte	.LVL134-1
 8310 06da 0100     		.2byte	0x1
 8311 06dc 53       		.byte	0x53
ARM GAS  C:\Users\Melody\AppData\Local\Temp\ccuHhgp0.s 			page 166


 8312 06dd 49000000 		.4byte	.LVL134-1
 8313 06e1 24010000 		.4byte	.LFE41
 8314 06e5 0200     		.2byte	0x2
 8315 06e7 91       		.byte	0x91
 8316 06e8 5C       		.sleb128 -36
 8317 06e9 00000000 		.4byte	0
 8318 06ed 00000000 		.4byte	0
 8319              	.LLST40:
 8320 06f1 12000000 		.4byte	.LVL125
 8321 06f5 1C000000 		.4byte	.LVL128
 8322 06f9 0700     		.2byte	0x7
 8323 06fb 72       		.byte	0x72
 8324 06fc 00       		.sleb128 0
 8325 06fd 44       		.byte	0x44
 8326 06fe 1E       		.byte	0x1e
 8327 06ff 23       		.byte	0x23
 8328 0700 0C       		.uleb128 0xc
 8329 0701 9F       		.byte	0x9f
 8330 0702 1C000000 		.4byte	.LVL128
 8331 0706 1E000000 		.4byte	.LVL129
 8332 070a 0100     		.2byte	0x1
 8333 070c 53       		.byte	0x53
 8334 070d 1E000000 		.4byte	.LVL129
 8335 0711 49000000 		.4byte	.LVL134-1
 8336 0715 0700     		.2byte	0x7
 8337 0717 72       		.byte	0x72
 8338 0718 00       		.sleb128 0
 8339 0719 44       		.byte	0x44
 8340 071a 1E       		.byte	0x1e
 8341 071b 23       		.byte	0x23
 8342 071c 0C       		.uleb128 0xc
 8343 071d 9F       		.byte	0x9f
 8344 071e 49000000 		.4byte	.LVL134-1
 8345 0722 24010000 		.4byte	.LFE41
 8346 0726 0C00     		.2byte	0xc
 8347 0728 91       		.byte	0x91
 8348 0729 04       		.sleb128 4
 8349 072a 94       		.byte	0x94
 8350 072b 01       		.byte	0x1
 8351 072c 08       		.byte	0x8
 8352 072d FF       		.byte	0xff
 8353 072e 1A       		.byte	0x1a
 8354 072f 44       		.byte	0x44
 8355 0730 1E       		.byte	0x1e
 8356 0731 23       		.byte	0x23
 8357 0732 0C       		.uleb128 0xc
 8358 0733 9F       		.byte	0x9f
 8359 0734 00000000 		.4byte	0
 8360 0738 00000000 		.4byte	0
 8361              	.LLST41:
 8362 073c 7E000000 		.4byte	.LVL139
 8363 0740 F4000000 		.4byte	.LVL145
 8364 0744 0100     		.2byte	0x1
 8365 0746 54       		.byte	0x54
 8366 0747 00000000 		.4byte	0
 8367 074b 00000000 		.4byte	0
 8368              	.LLST42:
ARM GAS  C:\Users\Melody\AppData\Local\Temp\ccuHhgp0.s 			page 167


 8369 074f 00000000 		.4byte	.LVL147
 8370 0753 2A000000 		.4byte	.LVL156
 8371 0757 0100     		.2byte	0x1
 8372 0759 50       		.byte	0x50
 8373 075a 2A000000 		.4byte	.LVL156
 8374 075e C0000000 		.4byte	.LFE44
 8375 0762 0400     		.2byte	0x4
 8376 0764 F3       		.byte	0xf3
 8377 0765 01       		.uleb128 0x1
 8378 0766 50       		.byte	0x50
 8379 0767 9F       		.byte	0x9f
 8380 0768 00000000 		.4byte	0
 8381 076c 00000000 		.4byte	0
 8382              	.LLST43:
 8383 0770 00000000 		.4byte	.LVL147
 8384 0774 14000000 		.4byte	.LVL151
 8385 0778 0100     		.2byte	0x1
 8386 077a 51       		.byte	0x51
 8387 077b 14000000 		.4byte	.LVL151
 8388 077f C0000000 		.4byte	.LFE44
 8389 0783 0400     		.2byte	0x4
 8390 0785 F3       		.byte	0xf3
 8391 0786 01       		.uleb128 0x1
 8392 0787 51       		.byte	0x51
 8393 0788 9F       		.byte	0x9f
 8394 0789 00000000 		.4byte	0
 8395 078d 00000000 		.4byte	0
 8396              	.LLST44:
 8397 0791 00000000 		.4byte	.LVL147
 8398 0795 06000000 		.4byte	.LVL148
 8399 0799 0100     		.2byte	0x1
 8400 079b 52       		.byte	0x52
 8401 079c 06000000 		.4byte	.LVL148
 8402 07a0 C0000000 		.4byte	.LFE44
 8403 07a4 0400     		.2byte	0x4
 8404 07a6 F3       		.byte	0xf3
 8405 07a7 01       		.uleb128 0x1
 8406 07a8 52       		.byte	0x52
 8407 07a9 9F       		.byte	0x9f
 8408 07aa 00000000 		.4byte	0
 8409 07ae 00000000 		.4byte	0
 8410              	.LLST45:
 8411 07b2 00000000 		.4byte	.LVL147
 8412 07b6 0C000000 		.4byte	.LVL149
 8413 07ba 0100     		.2byte	0x1
 8414 07bc 53       		.byte	0x53
 8415 07bd 0C000000 		.4byte	.LVL149
 8416 07c1 C0000000 		.4byte	.LFE44
 8417 07c5 0400     		.2byte	0x4
 8418 07c7 F3       		.byte	0xf3
 8419 07c8 01       		.uleb128 0x1
 8420 07c9 53       		.byte	0x53
 8421 07ca 9F       		.byte	0x9f
 8422 07cb 00000000 		.4byte	0
 8423 07cf 00000000 		.4byte	0
 8424              	.LLST46:
 8425 07d3 00000000 		.4byte	.LVL147
ARM GAS  C:\Users\Melody\AppData\Local\Temp\ccuHhgp0.s 			page 168


 8426 07d7 0C000000 		.4byte	.LVL149
 8427 07db 0200     		.2byte	0x2
 8428 07dd 91       		.byte	0x91
 8429 07de 00       		.sleb128 0
 8430 07df 0C000000 		.4byte	.LVL149
 8431 07e3 10000000 		.4byte	.LVL150
 8432 07e7 0200     		.2byte	0x2
 8433 07e9 73       		.byte	0x73
 8434 07ea 00       		.sleb128 0
 8435 07eb 10000000 		.4byte	.LVL150
 8436 07ef C0000000 		.4byte	.LFE44
 8437 07f3 0200     		.2byte	0x2
 8438 07f5 91       		.byte	0x91
 8439 07f6 00       		.sleb128 0
 8440 07f7 00000000 		.4byte	0
 8441 07fb 00000000 		.4byte	0
 8442              	.LLST47:
 8443 07ff 00000000 		.4byte	.LVL147
 8444 0803 0C000000 		.4byte	.LVL149
 8445 0807 0200     		.2byte	0x2
 8446 0809 91       		.byte	0x91
 8447 080a 04       		.sleb128 4
 8448 080b 0C000000 		.4byte	.LVL149
 8449 080f 10000000 		.4byte	.LVL150
 8450 0813 0200     		.2byte	0x2
 8451 0815 73       		.byte	0x73
 8452 0816 04       		.sleb128 4
 8453 0817 10000000 		.4byte	.LVL150
 8454 081b 16000000 		.4byte	.LVL152
 8455 081f 0200     		.2byte	0x2
 8456 0821 73       		.byte	0x73
 8457 0822 00       		.sleb128 0
 8458 0823 16000000 		.4byte	.LVL152
 8459 0827 C0000000 		.4byte	.LFE44
 8460 082b 0200     		.2byte	0x2
 8461 082d 91       		.byte	0x91
 8462 082e 04       		.sleb128 4
 8463 082f 00000000 		.4byte	0
 8464 0833 00000000 		.4byte	0
 8465              	.LLST48:
 8466 0837 36000000 		.4byte	.LVL157
 8467 083b 38000000 		.4byte	.LVL158
 8468 083f 0100     		.2byte	0x1
 8469 0841 53       		.byte	0x53
 8470 0842 38000000 		.4byte	.LVL158
 8471 0846 C0000000 		.4byte	.LFE44
 8472 084a 0200     		.2byte	0x2
 8473 084c 91       		.byte	0x91
 8474 084d 58       		.sleb128 -40
 8475 084e 00000000 		.4byte	0
 8476 0852 00000000 		.4byte	0
 8477              	.LLST49:
 8478 0856 40000000 		.4byte	.LVL159
 8479 085a 49000000 		.4byte	.LVL160-1
 8480 085e 0100     		.2byte	0x1
 8481 0860 53       		.byte	0x53
 8482 0861 49000000 		.4byte	.LVL160-1
ARM GAS  C:\Users\Melody\AppData\Local\Temp\ccuHhgp0.s 			page 169


 8483 0865 C0000000 		.4byte	.LFE44
 8484 0869 0200     		.2byte	0x2
 8485 086b 91       		.byte	0x91
 8486 086c 5C       		.sleb128 -36
 8487 086d 00000000 		.4byte	0
 8488 0871 00000000 		.4byte	0
 8489              	.LLST50:
 8490 0875 22000000 		.4byte	.LVL153
 8491 0879 24000000 		.4byte	.LVL154
 8492 087d 0100     		.2byte	0x1
 8493 087f 53       		.byte	0x53
 8494 0880 24000000 		.4byte	.LVL154
 8495 0884 49000000 		.4byte	.LVL160-1
 8496 0888 0700     		.2byte	0x7
 8497 088a 71       		.byte	0x71
 8498 088b 00       		.sleb128 0
 8499 088c 44       		.byte	0x44
 8500 088d 1E       		.byte	0x1e
 8501 088e 23       		.byte	0x23
 8502 088f 0C       		.uleb128 0xc
 8503 0890 9F       		.byte	0x9f
 8504 0891 49000000 		.4byte	.LVL160-1
 8505 0895 C0000000 		.4byte	.LFE44
 8506 0899 0C00     		.2byte	0xc
 8507 089b 91       		.byte	0x91
 8508 089c 04       		.sleb128 4
 8509 089d 94       		.byte	0x94
 8510 089e 01       		.byte	0x1
 8511 089f 08       		.byte	0x8
 8512 08a0 FF       		.byte	0xff
 8513 08a1 1A       		.byte	0x1a
 8514 08a2 44       		.byte	0x44
 8515 08a3 1E       		.byte	0x1e
 8516 08a4 23       		.byte	0x23
 8517 08a5 0C       		.uleb128 0xc
 8518 08a6 9F       		.byte	0x9f
 8519 08a7 00000000 		.4byte	0
 8520 08ab 00000000 		.4byte	0
 8521              	.LLST51:
 8522 08af 22000000 		.4byte	.LVL153
 8523 08b3 26000000 		.4byte	.LVL155
 8524 08b7 0100     		.2byte	0x1
 8525 08b9 52       		.byte	0x52
 8526 08ba 26000000 		.4byte	.LVL155
 8527 08be 2A000000 		.4byte	.LVL156
 8528 08c2 1000     		.2byte	0x10
 8529 08c4 08       		.byte	0x8
 8530 08c5 63       		.byte	0x63
 8531 08c6 40       		.byte	0x40
 8532 08c7 4B       		.byte	0x4b
 8533 08c8 24       		.byte	0x24
 8534 08c9 22       		.byte	0x22
 8535 08ca 70       		.byte	0x70
 8536 08cb 00       		.sleb128 0
 8537 08cc 40       		.byte	0x40
 8538 08cd 4B       		.byte	0x4b
 8539 08ce 24       		.byte	0x24
ARM GAS  C:\Users\Melody\AppData\Local\Temp\ccuHhgp0.s 			page 170


 8540 08cf 22       		.byte	0x22
 8541 08d0 2D       		.byte	0x2d
 8542 08d1 23       		.byte	0x23
 8543 08d2 03       		.uleb128 0x3
 8544 08d3 9F       		.byte	0x9f
 8545 08d4 2A000000 		.4byte	.LVL156
 8546 08d8 C0000000 		.4byte	.LFE44
 8547 08dc 1100     		.2byte	0x11
 8548 08de 08       		.byte	0x8
 8549 08df 63       		.byte	0x63
 8550 08e0 40       		.byte	0x40
 8551 08e1 4B       		.byte	0x4b
 8552 08e2 24       		.byte	0x24
 8553 08e3 22       		.byte	0x22
 8554 08e4 91       		.byte	0x91
 8555 08e5 54       		.sleb128 -44
 8556 08e6 06       		.byte	0x6
 8557 08e7 40       		.byte	0x40
 8558 08e8 4B       		.byte	0x4b
 8559 08e9 24       		.byte	0x24
 8560 08ea 22       		.byte	0x22
 8561 08eb 2D       		.byte	0x2d
 8562 08ec 23       		.byte	0x23
 8563 08ed 03       		.uleb128 0x3
 8564 08ee 9F       		.byte	0x9f
 8565 08ef 00000000 		.4byte	0
 8566 08f3 00000000 		.4byte	0
 8567              	.LLST52:
 8568 08f7 00000000 		.4byte	.LVL167
 8569 08fb 11000000 		.4byte	.LVL172-1
 8570 08ff 0100     		.2byte	0x1
 8571 0901 50       		.byte	0x50
 8572 0902 11000000 		.4byte	.LVL172-1
 8573 0906 14000000 		.4byte	.LFE43
 8574 090a 0400     		.2byte	0x4
 8575 090c F3       		.byte	0xf3
 8576 090d 01       		.uleb128 0x1
 8577 090e 50       		.byte	0x50
 8578 090f 9F       		.byte	0x9f
 8579 0910 00000000 		.4byte	0
 8580 0914 00000000 		.4byte	0
 8581              	.LLST53:
 8582 0918 00000000 		.4byte	.LVL167
 8583 091c 11000000 		.4byte	.LVL172-1
 8584 0920 0100     		.2byte	0x1
 8585 0922 51       		.byte	0x51
 8586 0923 11000000 		.4byte	.LVL172-1
 8587 0927 14000000 		.4byte	.LFE43
 8588 092b 0400     		.2byte	0x4
 8589 092d F3       		.byte	0xf3
 8590 092e 01       		.uleb128 0x1
 8591 092f 51       		.byte	0x51
 8592 0930 9F       		.byte	0x9f
 8593 0931 00000000 		.4byte	0
 8594 0935 00000000 		.4byte	0
 8595              	.LLST54:
 8596 0939 00000000 		.4byte	.LVL167
ARM GAS  C:\Users\Melody\AppData\Local\Temp\ccuHhgp0.s 			page 171


 8597 093d 11000000 		.4byte	.LVL172-1
 8598 0941 0100     		.2byte	0x1
 8599 0943 52       		.byte	0x52
 8600 0944 11000000 		.4byte	.LVL172-1
 8601 0948 14000000 		.4byte	.LFE43
 8602 094c 0400     		.2byte	0x4
 8603 094e F3       		.byte	0xf3
 8604 094f 01       		.uleb128 0x1
 8605 0950 52       		.byte	0x52
 8606 0951 9F       		.byte	0x9f
 8607 0952 00000000 		.4byte	0
 8608 0956 00000000 		.4byte	0
 8609              	.LLST55:
 8610 095a 00000000 		.4byte	.LVL167
 8611 095e 11000000 		.4byte	.LVL172-1
 8612 0962 0100     		.2byte	0x1
 8613 0964 53       		.byte	0x53
 8614 0965 11000000 		.4byte	.LVL172-1
 8615 0969 14000000 		.4byte	.LFE43
 8616 096d 0400     		.2byte	0x4
 8617 096f F3       		.byte	0xf3
 8618 0970 01       		.uleb128 0x1
 8619 0971 53       		.byte	0x53
 8620 0972 9F       		.byte	0x9f
 8621 0973 00000000 		.4byte	0
 8622 0977 00000000 		.4byte	0
 8623              	.LLST56:
 8624 097b 00000000 		.4byte	.LVL167
 8625 097f 04000000 		.4byte	.LVL168
 8626 0983 0200     		.2byte	0x2
 8627 0985 91       		.byte	0x91
 8628 0986 00       		.sleb128 0
 8629 0987 04000000 		.4byte	.LVL168
 8630 098b 0A000000 		.4byte	.LVL171
 8631 098f 0200     		.2byte	0x2
 8632 0991 74       		.byte	0x74
 8633 0992 00       		.sleb128 0
 8634 0993 0A000000 		.4byte	.LVL171
 8635 0997 14000000 		.4byte	.LFE43
 8636 099b 0200     		.2byte	0x2
 8637 099d 91       		.byte	0x91
 8638 099e 00       		.sleb128 0
 8639 099f 00000000 		.4byte	0
 8640 09a3 00000000 		.4byte	0
 8641              	.LLST57:
 8642 09a7 00000000 		.4byte	.LVL167
 8643 09ab 04000000 		.4byte	.LVL168
 8644 09af 0200     		.2byte	0x2
 8645 09b1 91       		.byte	0x91
 8646 09b2 04       		.sleb128 4
 8647 09b3 04000000 		.4byte	.LVL168
 8648 09b7 06000000 		.4byte	.LVL169
 8649 09bb 0200     		.2byte	0x2
 8650 09bd 74       		.byte	0x74
 8651 09be 04       		.sleb128 4
 8652 09bf 06000000 		.4byte	.LVL169
 8653 09c3 08000000 		.4byte	.LVL170
ARM GAS  C:\Users\Melody\AppData\Local\Temp\ccuHhgp0.s 			page 172


 8654 09c7 0200     		.2byte	0x2
 8655 09c9 75       		.byte	0x75
 8656 09ca 00       		.sleb128 0
 8657 09cb 08000000 		.4byte	.LVL170
 8658 09cf 0A000000 		.4byte	.LVL171
 8659 09d3 0200     		.2byte	0x2
 8660 09d5 74       		.byte	0x74
 8661 09d6 04       		.sleb128 4
 8662 09d7 0A000000 		.4byte	.LVL171
 8663 09db 14000000 		.4byte	.LFE43
 8664 09df 0200     		.2byte	0x2
 8665 09e1 91       		.byte	0x91
 8666 09e2 04       		.sleb128 4
 8667 09e3 00000000 		.4byte	0
 8668 09e7 00000000 		.4byte	0
 8669              	.LLST58:
 8670 09eb 00000000 		.4byte	.LVL173
 8671 09ef 22000000 		.4byte	.LVL181
 8672 09f3 0100     		.2byte	0x1
 8673 09f5 50       		.byte	0x50
 8674 09f6 22000000 		.4byte	.LVL181
 8675 09fa C4000000 		.4byte	.LFE45
 8676 09fe 0400     		.2byte	0x4
 8677 0a00 F3       		.byte	0xf3
 8678 0a01 01       		.uleb128 0x1
 8679 0a02 50       		.byte	0x50
 8680 0a03 9F       		.byte	0x9f
 8681 0a04 00000000 		.4byte	0
 8682 0a08 00000000 		.4byte	0
 8683              	.LLST59:
 8684 0a0c 00000000 		.4byte	.LVL173
 8685 0a10 16000000 		.4byte	.LVL178
 8686 0a14 0100     		.2byte	0x1
 8687 0a16 51       		.byte	0x51
 8688 0a17 16000000 		.4byte	.LVL178
 8689 0a1b C4000000 		.4byte	.LFE45
 8690 0a1f 0400     		.2byte	0x4
 8691 0a21 F3       		.byte	0xf3
 8692 0a22 01       		.uleb128 0x1
 8693 0a23 51       		.byte	0x51
 8694 0a24 9F       		.byte	0x9f
 8695 0a25 00000000 		.4byte	0
 8696 0a29 00000000 		.4byte	0
 8697              	.LLST60:
 8698 0a2d 00000000 		.4byte	.LVL173
 8699 0a31 10000000 		.4byte	.LVL176
 8700 0a35 0100     		.2byte	0x1
 8701 0a37 52       		.byte	0x52
 8702 0a38 10000000 		.4byte	.LVL176
 8703 0a3c C4000000 		.4byte	.LFE45
 8704 0a40 0400     		.2byte	0x4
 8705 0a42 F3       		.byte	0xf3
 8706 0a43 01       		.uleb128 0x1
 8707 0a44 52       		.byte	0x52
 8708 0a45 9F       		.byte	0x9f
 8709 0a46 00000000 		.4byte	0
 8710 0a4a 00000000 		.4byte	0
ARM GAS  C:\Users\Melody\AppData\Local\Temp\ccuHhgp0.s 			page 173


 8711              	.LLST61:
 8712 0a4e 00000000 		.4byte	.LVL173
 8713 0a52 08000000 		.4byte	.LVL174
 8714 0a56 0100     		.2byte	0x1
 8715 0a58 53       		.byte	0x53
 8716 0a59 08000000 		.4byte	.LVL174
 8717 0a5d C4000000 		.4byte	.LFE45
 8718 0a61 0400     		.2byte	0x4
 8719 0a63 F3       		.byte	0xf3
 8720 0a64 01       		.uleb128 0x1
 8721 0a65 53       		.byte	0x53
 8722 0a66 9F       		.byte	0x9f
 8723 0a67 00000000 		.4byte	0
 8724 0a6b 00000000 		.4byte	0
 8725              	.LLST62:
 8726 0a6f 00000000 		.4byte	.LVL173
 8727 0a73 08000000 		.4byte	.LVL174
 8728 0a77 0200     		.2byte	0x2
 8729 0a79 91       		.byte	0x91
 8730 0a7a 00       		.sleb128 0
 8731 0a7b 08000000 		.4byte	.LVL174
 8732 0a7f 0C000000 		.4byte	.LVL175
 8733 0a83 0200     		.2byte	0x2
 8734 0a85 73       		.byte	0x73
 8735 0a86 00       		.sleb128 0
 8736 0a87 0C000000 		.4byte	.LVL175
 8737 0a8b C4000000 		.4byte	.LFE45
 8738 0a8f 0200     		.2byte	0x2
 8739 0a91 91       		.byte	0x91
 8740 0a92 00       		.sleb128 0
 8741 0a93 00000000 		.4byte	0
 8742 0a97 00000000 		.4byte	0
 8743              	.LLST63:
 8744 0a9b 00000000 		.4byte	.LVL173
 8745 0a9f 08000000 		.4byte	.LVL174
 8746 0aa3 0200     		.2byte	0x2
 8747 0aa5 91       		.byte	0x91
 8748 0aa6 04       		.sleb128 4
 8749 0aa7 08000000 		.4byte	.LVL174
 8750 0aab 0C000000 		.4byte	.LVL175
 8751 0aaf 0200     		.2byte	0x2
 8752 0ab1 73       		.byte	0x73
 8753 0ab2 04       		.sleb128 4
 8754 0ab3 0C000000 		.4byte	.LVL175
 8755 0ab7 12000000 		.4byte	.LVL177
 8756 0abb 0200     		.2byte	0x2
 8757 0abd 73       		.byte	0x73
 8758 0abe 00       		.sleb128 0
 8759 0abf 12000000 		.4byte	.LVL177
 8760 0ac3 C4000000 		.4byte	.LFE45
 8761 0ac7 0200     		.2byte	0x2
 8762 0ac9 91       		.byte	0x91
 8763 0aca 04       		.sleb128 4
 8764 0acb 00000000 		.4byte	0
 8765 0acf 00000000 		.4byte	0
 8766              	.LLST64:
 8767 0ad3 30000000 		.4byte	.LVL182
ARM GAS  C:\Users\Melody\AppData\Local\Temp\ccuHhgp0.s 			page 174


 8768 0ad7 32000000 		.4byte	.LVL183
 8769 0adb 0100     		.2byte	0x1
 8770 0add 53       		.byte	0x53
 8771 0ade 32000000 		.4byte	.LVL183
 8772 0ae2 C4000000 		.4byte	.LFE45
 8773 0ae6 0200     		.2byte	0x2
 8774 0ae8 91       		.byte	0x91
 8775 0ae9 58       		.sleb128 -40
 8776 0aea 00000000 		.4byte	0
 8777 0aee 00000000 		.4byte	0
 8778              	.LLST65:
 8779 0af2 3A000000 		.4byte	.LVL184
 8780 0af6 43000000 		.4byte	.LVL185-1
 8781 0afa 0100     		.2byte	0x1
 8782 0afc 53       		.byte	0x53
 8783 0afd 43000000 		.4byte	.LVL185-1
 8784 0b01 C4000000 		.4byte	.LFE45
 8785 0b05 0200     		.2byte	0x2
 8786 0b07 91       		.byte	0x91
 8787 0b08 5C       		.sleb128 -36
 8788 0b09 00000000 		.4byte	0
 8789 0b0d 00000000 		.4byte	0
 8790              	.LLST66:
 8791 0b11 10000000 		.4byte	.LVL176
 8792 0b15 1A000000 		.4byte	.LVL179
 8793 0b19 0700     		.2byte	0x7
 8794 0b1b 72       		.byte	0x72
 8795 0b1c 00       		.sleb128 0
 8796 0b1d 44       		.byte	0x44
 8797 0b1e 1E       		.byte	0x1e
 8798 0b1f 23       		.byte	0x23
 8799 0b20 0C       		.uleb128 0xc
 8800 0b21 9F       		.byte	0x9f
 8801 0b22 1A000000 		.4byte	.LVL179
 8802 0b26 1C000000 		.4byte	.LVL180
 8803 0b2a 0100     		.2byte	0x1
 8804 0b2c 53       		.byte	0x53
 8805 0b2d 1C000000 		.4byte	.LVL180
 8806 0b31 43000000 		.4byte	.LVL185-1
 8807 0b35 0700     		.2byte	0x7
 8808 0b37 72       		.byte	0x72
 8809 0b38 00       		.sleb128 0
 8810 0b39 44       		.byte	0x44
 8811 0b3a 1E       		.byte	0x1e
 8812 0b3b 23       		.byte	0x23
 8813 0b3c 0C       		.uleb128 0xc
 8814 0b3d 9F       		.byte	0x9f
 8815 0b3e 43000000 		.4byte	.LVL185-1
 8816 0b42 C4000000 		.4byte	.LFE45
 8817 0b46 0C00     		.2byte	0xc
 8818 0b48 91       		.byte	0x91
 8819 0b49 04       		.sleb128 4
 8820 0b4a 94       		.byte	0x94
 8821 0b4b 01       		.byte	0x1
 8822 0b4c 08       		.byte	0x8
 8823 0b4d FF       		.byte	0xff
 8824 0b4e 1A       		.byte	0x1a
ARM GAS  C:\Users\Melody\AppData\Local\Temp\ccuHhgp0.s 			page 175


 8825 0b4f 44       		.byte	0x44
 8826 0b50 1E       		.byte	0x1e
 8827 0b51 23       		.byte	0x23
 8828 0b52 0C       		.uleb128 0xc
 8829 0b53 9F       		.byte	0x9f
 8830 0b54 00000000 		.4byte	0
 8831 0b58 00000000 		.4byte	0
 8832              	.LLST67:
 8833 0b5c 00000000 		.4byte	.LVL190
 8834 0b60 22000000 		.4byte	.LVL198
 8835 0b64 0100     		.2byte	0x1
 8836 0b66 50       		.byte	0x50
 8837 0b67 22000000 		.4byte	.LVL198
 8838 0b6b 24020000 		.4byte	.LFE46
 8839 0b6f 0400     		.2byte	0x4
 8840 0b71 F3       		.byte	0xf3
 8841 0b72 01       		.uleb128 0x1
 8842 0b73 50       		.byte	0x50
 8843 0b74 9F       		.byte	0x9f
 8844 0b75 00000000 		.4byte	0
 8845 0b79 00000000 		.4byte	0
 8846              	.LLST68:
 8847 0b7d 00000000 		.4byte	.LVL190
 8848 0b81 0A000000 		.4byte	.LVL191
 8849 0b85 0100     		.2byte	0x1
 8850 0b87 51       		.byte	0x51
 8851 0b88 0A000000 		.4byte	.LVL191
 8852 0b8c 24020000 		.4byte	.LFE46
 8853 0b90 0400     		.2byte	0x4
 8854 0b92 F3       		.byte	0xf3
 8855 0b93 01       		.uleb128 0x1
 8856 0b94 51       		.byte	0x51
 8857 0b95 9F       		.byte	0x9f
 8858 0b96 00000000 		.4byte	0
 8859 0b9a 00000000 		.4byte	0
 8860              	.LLST69:
 8861 0b9e 00000000 		.4byte	.LVL190
 8862 0ba2 18000000 		.4byte	.LVL195
 8863 0ba6 0100     		.2byte	0x1
 8864 0ba8 52       		.byte	0x52
 8865 0ba9 18000000 		.4byte	.LVL195
 8866 0bad 24020000 		.4byte	.LFE46
 8867 0bb1 0400     		.2byte	0x4
 8868 0bb3 F3       		.byte	0xf3
 8869 0bb4 01       		.uleb128 0x1
 8870 0bb5 52       		.byte	0x52
 8871 0bb6 9F       		.byte	0x9f
 8872 0bb7 00000000 		.4byte	0
 8873 0bbb 00000000 		.4byte	0
 8874              	.LLST70:
 8875 0bbf 00000000 		.4byte	.LVL190
 8876 0bc3 0E000000 		.4byte	.LVL192
 8877 0bc7 0100     		.2byte	0x1
 8878 0bc9 53       		.byte	0x53
 8879 0bca 0E000000 		.4byte	.LVL192
 8880 0bce 24020000 		.4byte	.LFE46
 8881 0bd2 0400     		.2byte	0x4
ARM GAS  C:\Users\Melody\AppData\Local\Temp\ccuHhgp0.s 			page 176


 8882 0bd4 F3       		.byte	0xf3
 8883 0bd5 01       		.uleb128 0x1
 8884 0bd6 53       		.byte	0x53
 8885 0bd7 9F       		.byte	0x9f
 8886 0bd8 00000000 		.4byte	0
 8887 0bdc 00000000 		.4byte	0
 8888              	.LLST71:
 8889 0be0 00000000 		.4byte	.LVL190
 8890 0be4 0E000000 		.4byte	.LVL192
 8891 0be8 0200     		.2byte	0x2
 8892 0bea 91       		.byte	0x91
 8893 0beb 00       		.sleb128 0
 8894 0bec 0E000000 		.4byte	.LVL192
 8895 0bf0 10000000 		.4byte	.LVL193
 8896 0bf4 0200     		.2byte	0x2
 8897 0bf6 73       		.byte	0x73
 8898 0bf7 00       		.sleb128 0
 8899 0bf8 10000000 		.4byte	.LVL193
 8900 0bfc 24020000 		.4byte	.LFE46
 8901 0c00 0200     		.2byte	0x2
 8902 0c02 91       		.byte	0x91
 8903 0c03 00       		.sleb128 0
 8904 0c04 00000000 		.4byte	0
 8905 0c08 00000000 		.4byte	0
 8906              	.LLST72:
 8907 0c0c 00000000 		.4byte	.LVL190
 8908 0c10 0E000000 		.4byte	.LVL192
 8909 0c14 0200     		.2byte	0x2
 8910 0c16 91       		.byte	0x91
 8911 0c17 04       		.sleb128 4
 8912 0c18 0E000000 		.4byte	.LVL192
 8913 0c1c 10000000 		.4byte	.LVL193
 8914 0c20 0200     		.2byte	0x2
 8915 0c22 73       		.byte	0x73
 8916 0c23 04       		.sleb128 4
 8917 0c24 10000000 		.4byte	.LVL193
 8918 0c28 16000000 		.4byte	.LVL194
 8919 0c2c 0200     		.2byte	0x2
 8920 0c2e 91       		.byte	0x91
 8921 0c2f 04       		.sleb128 4
 8922 0c30 16000000 		.4byte	.LVL194
 8923 0c34 26000000 		.4byte	.LVL199
 8924 0c38 0200     		.2byte	0x2
 8925 0c3a 73       		.byte	0x73
 8926 0c3b 00       		.sleb128 0
 8927 0c3c 26000000 		.4byte	.LVL199
 8928 0c40 24020000 		.4byte	.LFE46
 8929 0c44 0200     		.2byte	0x2
 8930 0c46 91       		.byte	0x91
 8931 0c47 04       		.sleb128 4
 8932 0c48 00000000 		.4byte	0
 8933 0c4c 00000000 		.4byte	0
 8934              	.LLST73:
 8935 0c50 2C000000 		.4byte	.LVL200
 8936 0c54 4E000000 		.4byte	.LVL204
 8937 0c58 0100     		.2byte	0x1
 8938 0c5a 55       		.byte	0x55
ARM GAS  C:\Users\Melody\AppData\Local\Temp\ccuHhgp0.s 			page 177


 8939 0c5b 4E000000 		.4byte	.LVL204
 8940 0c5f 24020000 		.4byte	.LFE46
 8941 0c63 1A00     		.2byte	0x1a
 8942 0c65 91       		.byte	0x91
 8943 0c66 58       		.sleb128 -40
 8944 0c67 06       		.byte	0x6
 8945 0c68 91       		.byte	0x91
 8946 0c69 60       		.sleb128 -32
 8947 0c6a 06       		.byte	0x6
 8948 0c6b 22       		.byte	0x22
 8949 0c6c 31       		.byte	0x31
 8950 0c6d 26       		.byte	0x26
 8951 0c6e 91       		.byte	0x91
 8952 0c6f 04       		.sleb128 4
 8953 0c70 94       		.byte	0x94
 8954 0c71 01       		.byte	0x1
 8955 0c72 08       		.byte	0x8
 8956 0c73 FF       		.byte	0xff
 8957 0c74 1A       		.byte	0x1a
 8958 0c75 44       		.byte	0x44
 8959 0c76 1E       		.byte	0x1e
 8960 0c77 23       		.byte	0x23
 8961 0c78 0C       		.uleb128 0xc
 8962 0c79 3A       		.byte	0x3a
 8963 0c7a 1E       		.byte	0x1e
 8964 0c7b 31       		.byte	0x31
 8965 0c7c 26       		.byte	0x26
 8966 0c7d 1C       		.byte	0x1c
 8967 0c7e 9F       		.byte	0x9f
 8968 0c7f 00000000 		.4byte	0
 8969 0c83 00000000 		.4byte	0
 8970              	.LLST74:
 8971 0c87 3E000000 		.4byte	.LVL201
 8972 0c8b 4C000000 		.4byte	.LVL203
 8973 0c8f 0100     		.2byte	0x1
 8974 0c91 56       		.byte	0x56
 8975 0c92 4C000000 		.4byte	.LVL203
 8976 0c96 24020000 		.4byte	.LFE46
 8977 0c9a 1700     		.2byte	0x17
 8978 0c9c 91       		.byte	0x91
 8979 0c9d 04       		.sleb128 4
 8980 0c9e 94       		.byte	0x94
 8981 0c9f 01       		.byte	0x1
 8982 0ca0 08       		.byte	0x8
 8983 0ca1 FF       		.byte	0xff
 8984 0ca2 1A       		.byte	0x1a
 8985 0ca3 09       		.byte	0x9
 8986 0ca4 EF       		.byte	0xef
 8987 0ca5 1E       		.byte	0x1e
 8988 0ca6 91       		.byte	0x91
 8989 0ca7 5C       		.sleb128 -36
 8990 0ca8 06       		.byte	0x6
 8991 0ca9 91       		.byte	0x91
 8992 0caa 64       		.sleb128 -28
 8993 0cab 06       		.byte	0x6
 8994 0cac 22       		.byte	0x22
 8995 0cad 31       		.byte	0x31
ARM GAS  C:\Users\Melody\AppData\Local\Temp\ccuHhgp0.s 			page 178


 8996 0cae 26       		.byte	0x26
 8997 0caf 22       		.byte	0x22
 8998 0cb0 35       		.byte	0x35
 8999 0cb1 1C       		.byte	0x1c
 9000 0cb2 9F       		.byte	0x9f
 9001 0cb3 00000000 		.4byte	0
 9002 0cb7 00000000 		.4byte	0
 9003              	.LLST75:
 9004 0cbb 18000000 		.4byte	.LVL195
 9005 0cbf 1E000000 		.4byte	.LVL196
 9006 0cc3 0700     		.2byte	0x7
 9007 0cc5 72       		.byte	0x72
 9008 0cc6 00       		.sleb128 0
 9009 0cc7 44       		.byte	0x44
 9010 0cc8 1E       		.byte	0x1e
 9011 0cc9 23       		.byte	0x23
 9012 0cca 0C       		.uleb128 0xc
 9013 0ccb 9F       		.byte	0x9f
 9014 0ccc 1E000000 		.4byte	.LVL196
 9015 0cd0 20000000 		.4byte	.LVL197
 9016 0cd4 0100     		.2byte	0x1
 9017 0cd6 55       		.byte	0x55
 9018 0cd7 20000000 		.4byte	.LVL197
 9019 0cdb 47000000 		.4byte	.LVL202-1
 9020 0cdf 0700     		.2byte	0x7
 9021 0ce1 72       		.byte	0x72
 9022 0ce2 00       		.sleb128 0
 9023 0ce3 44       		.byte	0x44
 9024 0ce4 1E       		.byte	0x1e
 9025 0ce5 23       		.byte	0x23
 9026 0ce6 0C       		.uleb128 0xc
 9027 0ce7 9F       		.byte	0x9f
 9028 0ce8 47000000 		.4byte	.LVL202-1
 9029 0cec 24020000 		.4byte	.LFE46
 9030 0cf0 0C00     		.2byte	0xc
 9031 0cf2 91       		.byte	0x91
 9032 0cf3 04       		.sleb128 4
 9033 0cf4 94       		.byte	0x94
 9034 0cf5 01       		.byte	0x1
 9035 0cf6 08       		.byte	0x8
 9036 0cf7 FF       		.byte	0xff
 9037 0cf8 1A       		.byte	0x1a
 9038 0cf9 44       		.byte	0x44
 9039 0cfa 1E       		.byte	0x1e
 9040 0cfb 23       		.byte	0x23
 9041 0cfc 0C       		.uleb128 0xc
 9042 0cfd 9F       		.byte	0x9f
 9043 0cfe 00000000 		.4byte	0
 9044 0d02 00000000 		.4byte	0
 9045              	.LLST76:
 9046 0d06 70000000 		.4byte	.LVL205
 9047 0d0a B4010000 		.4byte	.LVL217
 9048 0d0e 0500     		.2byte	0x5
 9049 0d10 08       		.byte	0x8
 9050 0d11 FF       		.byte	0xff
 9051 0d12 40       		.byte	0x40
 9052 0d13 24       		.byte	0x24
ARM GAS  C:\Users\Melody\AppData\Local\Temp\ccuHhgp0.s 			page 179


 9053 0d14 9F       		.byte	0x9f
 9054 0d15 B4010000 		.4byte	.LVL217
 9055 0d19 E8010000 		.4byte	.LVL219
 9056 0d1d 0400     		.2byte	0x4
 9057 0d1f 0A       		.byte	0xa
 9058 0d20 00FF     		.2byte	0xff00
 9059 0d22 9F       		.byte	0x9f
 9060 0d23 00000000 		.4byte	0
 9061 0d27 00000000 		.4byte	0
 9062              	.LLST77:
 9063 0d2b 00000000 		.4byte	.LVL222
 9064 0d2f 20000000 		.4byte	.LVL230
 9065 0d33 0100     		.2byte	0x1
 9066 0d35 50       		.byte	0x50
 9067 0d36 20000000 		.4byte	.LVL230
 9068 0d3a 8C000000 		.4byte	.LFE47
 9069 0d3e 0400     		.2byte	0x4
 9070 0d40 F3       		.byte	0xf3
 9071 0d41 01       		.uleb128 0x1
 9072 0d42 50       		.byte	0x50
 9073 0d43 9F       		.byte	0x9f
 9074 0d44 00000000 		.4byte	0
 9075 0d48 00000000 		.4byte	0
 9076              	.LLST78:
 9077 0d4c 00000000 		.4byte	.LVL222
 9078 0d50 16000000 		.4byte	.LVL227
 9079 0d54 0100     		.2byte	0x1
 9080 0d56 51       		.byte	0x51
 9081 0d57 16000000 		.4byte	.LVL227
 9082 0d5b 8C000000 		.4byte	.LFE47
 9083 0d5f 0400     		.2byte	0x4
 9084 0d61 F3       		.byte	0xf3
 9085 0d62 01       		.uleb128 0x1
 9086 0d63 51       		.byte	0x51
 9087 0d64 9F       		.byte	0x9f
 9088 0d65 00000000 		.4byte	0
 9089 0d69 00000000 		.4byte	0
 9090              	.LLST79:
 9091 0d6d 00000000 		.4byte	.LVL222
 9092 0d71 10000000 		.4byte	.LVL225
 9093 0d75 0100     		.2byte	0x1
 9094 0d77 52       		.byte	0x52
 9095 0d78 10000000 		.4byte	.LVL225
 9096 0d7c 8C000000 		.4byte	.LFE47
 9097 0d80 0400     		.2byte	0x4
 9098 0d82 F3       		.byte	0xf3
 9099 0d83 01       		.uleb128 0x1
 9100 0d84 52       		.byte	0x52
 9101 0d85 9F       		.byte	0x9f
 9102 0d86 00000000 		.4byte	0
 9103 0d8a 00000000 		.4byte	0
 9104              	.LLST80:
 9105 0d8e 00000000 		.4byte	.LVL222
 9106 0d92 08000000 		.4byte	.LVL223
 9107 0d96 0100     		.2byte	0x1
 9108 0d98 53       		.byte	0x53
 9109 0d99 08000000 		.4byte	.LVL223
ARM GAS  C:\Users\Melody\AppData\Local\Temp\ccuHhgp0.s 			page 180


 9110 0d9d 8C000000 		.4byte	.LFE47
 9111 0da1 0400     		.2byte	0x4
 9112 0da3 F3       		.byte	0xf3
 9113 0da4 01       		.uleb128 0x1
 9114 0da5 53       		.byte	0x53
 9115 0da6 9F       		.byte	0x9f
 9116 0da7 00000000 		.4byte	0
 9117 0dab 00000000 		.4byte	0
 9118              	.LLST81:
 9119 0daf 00000000 		.4byte	.LVL222
 9120 0db3 08000000 		.4byte	.LVL223
 9121 0db7 0200     		.2byte	0x2
 9122 0db9 91       		.byte	0x91
 9123 0dba 00       		.sleb128 0
 9124 0dbb 08000000 		.4byte	.LVL223
 9125 0dbf 0C000000 		.4byte	.LVL224
 9126 0dc3 0200     		.2byte	0x2
 9127 0dc5 73       		.byte	0x73
 9128 0dc6 00       		.sleb128 0
 9129 0dc7 0C000000 		.4byte	.LVL224
 9130 0dcb 8C000000 		.4byte	.LFE47
 9131 0dcf 0200     		.2byte	0x2
 9132 0dd1 91       		.byte	0x91
 9133 0dd2 00       		.sleb128 0
 9134 0dd3 00000000 		.4byte	0
 9135 0dd7 00000000 		.4byte	0
 9136              	.LLST82:
 9137 0ddb 00000000 		.4byte	.LVL222
 9138 0ddf 08000000 		.4byte	.LVL223
 9139 0de3 0200     		.2byte	0x2
 9140 0de5 91       		.byte	0x91
 9141 0de6 04       		.sleb128 4
 9142 0de7 08000000 		.4byte	.LVL223
 9143 0deb 0C000000 		.4byte	.LVL224
 9144 0def 0200     		.2byte	0x2
 9145 0df1 73       		.byte	0x73
 9146 0df2 04       		.sleb128 4
 9147 0df3 0C000000 		.4byte	.LVL224
 9148 0df7 12000000 		.4byte	.LVL226
 9149 0dfb 0200     		.2byte	0x2
 9150 0dfd 73       		.byte	0x73
 9151 0dfe 00       		.sleb128 0
 9152 0dff 12000000 		.4byte	.LVL226
 9153 0e03 8C000000 		.4byte	.LFE47
 9154 0e07 0200     		.2byte	0x2
 9155 0e09 91       		.byte	0x91
 9156 0e0a 04       		.sleb128 4
 9157 0e0b 00000000 		.4byte	0
 9158 0e0f 00000000 		.4byte	0
 9159              	.LLST83:
 9160 0e13 2C000000 		.4byte	.LVL231
 9161 0e17 2E000000 		.4byte	.LVL232
 9162 0e1b 0100     		.2byte	0x1
 9163 0e1d 53       		.byte	0x53
 9164 0e1e 2E000000 		.4byte	.LVL232
 9165 0e22 8C000000 		.4byte	.LFE47
 9166 0e26 0200     		.2byte	0x2
ARM GAS  C:\Users\Melody\AppData\Local\Temp\ccuHhgp0.s 			page 181


 9167 0e28 91       		.byte	0x91
 9168 0e29 4C       		.sleb128 -52
 9169 0e2a 00000000 		.4byte	0
 9170 0e2e 00000000 		.4byte	0
 9171              	.LLST84:
 9172 0e32 36000000 		.4byte	.LVL233
 9173 0e36 3F000000 		.4byte	.LVL234-1
 9174 0e3a 0100     		.2byte	0x1
 9175 0e3c 53       		.byte	0x53
 9176 0e3d 3F000000 		.4byte	.LVL234-1
 9177 0e41 8C000000 		.4byte	.LFE47
 9178 0e45 0200     		.2byte	0x2
 9179 0e47 91       		.byte	0x91
 9180 0e48 50       		.sleb128 -48
 9181 0e49 00000000 		.4byte	0
 9182 0e4d 00000000 		.4byte	0
 9183              	.LLST85:
 9184 0e51 10000000 		.4byte	.LVL225
 9185 0e55 1A000000 		.4byte	.LVL228
 9186 0e59 0700     		.2byte	0x7
 9187 0e5b 72       		.byte	0x72
 9188 0e5c 00       		.sleb128 0
 9189 0e5d 44       		.byte	0x44
 9190 0e5e 1E       		.byte	0x1e
 9191 0e5f 23       		.byte	0x23
 9192 0e60 0C       		.uleb128 0xc
 9193 0e61 9F       		.byte	0x9f
 9194 0e62 1A000000 		.4byte	.LVL228
 9195 0e66 1C000000 		.4byte	.LVL229
 9196 0e6a 0100     		.2byte	0x1
 9197 0e6c 53       		.byte	0x53
 9198 0e6d 1C000000 		.4byte	.LVL229
 9199 0e71 3F000000 		.4byte	.LVL234-1
 9200 0e75 0700     		.2byte	0x7
 9201 0e77 72       		.byte	0x72
 9202 0e78 00       		.sleb128 0
 9203 0e79 44       		.byte	0x44
 9204 0e7a 1E       		.byte	0x1e
 9205 0e7b 23       		.byte	0x23
 9206 0e7c 0C       		.uleb128 0xc
 9207 0e7d 9F       		.byte	0x9f
 9208 0e7e 3F000000 		.4byte	.LVL234-1
 9209 0e82 8C000000 		.4byte	.LFE47
 9210 0e86 0C00     		.2byte	0xc
 9211 0e88 91       		.byte	0x91
 9212 0e89 04       		.sleb128 4
 9213 0e8a 94       		.byte	0x94
 9214 0e8b 01       		.byte	0x1
 9215 0e8c 08       		.byte	0x8
 9216 0e8d FF       		.byte	0xff
 9217 0e8e 1A       		.byte	0x1a
 9218 0e8f 44       		.byte	0x44
 9219 0e90 1E       		.byte	0x1e
 9220 0e91 23       		.byte	0x23
 9221 0e92 0C       		.uleb128 0xc
 9222 0e93 9F       		.byte	0x9f
 9223 0e94 00000000 		.4byte	0
ARM GAS  C:\Users\Melody\AppData\Local\Temp\ccuHhgp0.s 			page 182


 9224 0e98 00000000 		.4byte	0
 9225              	.LLST86:
 9226 0e9c 00000000 		.4byte	.LVL239
 9227 0ea0 20000000 		.4byte	.LVL247
 9228 0ea4 0100     		.2byte	0x1
 9229 0ea6 50       		.byte	0x50
 9230 0ea7 20000000 		.4byte	.LVL247
 9231 0eab 9C000000 		.4byte	.LFE48
 9232 0eaf 0200     		.2byte	0x2
 9233 0eb1 91       		.byte	0x91
 9234 0eb2 54       		.sleb128 -44
 9235 0eb3 00000000 		.4byte	0
 9236 0eb7 00000000 		.4byte	0
 9237              	.LLST87:
 9238 0ebb 00000000 		.4byte	.LVL239
 9239 0ebf 16000000 		.4byte	.LVL244
 9240 0ec3 0100     		.2byte	0x1
 9241 0ec5 51       		.byte	0x51
 9242 0ec6 16000000 		.4byte	.LVL244
 9243 0eca 9C000000 		.4byte	.LFE48
 9244 0ece 0400     		.2byte	0x4
 9245 0ed0 F3       		.byte	0xf3
 9246 0ed1 01       		.uleb128 0x1
 9247 0ed2 51       		.byte	0x51
 9248 0ed3 9F       		.byte	0x9f
 9249 0ed4 00000000 		.4byte	0
 9250 0ed8 00000000 		.4byte	0
 9251              	.LLST88:
 9252 0edc 00000000 		.4byte	.LVL239
 9253 0ee0 10000000 		.4byte	.LVL242
 9254 0ee4 0100     		.2byte	0x1
 9255 0ee6 52       		.byte	0x52
 9256 0ee7 10000000 		.4byte	.LVL242
 9257 0eeb 9C000000 		.4byte	.LFE48
 9258 0eef 0400     		.2byte	0x4
 9259 0ef1 F3       		.byte	0xf3
 9260 0ef2 01       		.uleb128 0x1
 9261 0ef3 52       		.byte	0x52
 9262 0ef4 9F       		.byte	0x9f
 9263 0ef5 00000000 		.4byte	0
 9264 0ef9 00000000 		.4byte	0
 9265              	.LLST89:
 9266 0efd 00000000 		.4byte	.LVL239
 9267 0f01 08000000 		.4byte	.LVL240
 9268 0f05 0100     		.2byte	0x1
 9269 0f07 53       		.byte	0x53
 9270 0f08 08000000 		.4byte	.LVL240
 9271 0f0c 9C000000 		.4byte	.LFE48
 9272 0f10 0400     		.2byte	0x4
 9273 0f12 F3       		.byte	0xf3
 9274 0f13 01       		.uleb128 0x1
 9275 0f14 53       		.byte	0x53
 9276 0f15 9F       		.byte	0x9f
 9277 0f16 00000000 		.4byte	0
 9278 0f1a 00000000 		.4byte	0
 9279              	.LLST90:
 9280 0f1e 00000000 		.4byte	.LVL239
ARM GAS  C:\Users\Melody\AppData\Local\Temp\ccuHhgp0.s 			page 183


 9281 0f22 08000000 		.4byte	.LVL240
 9282 0f26 0200     		.2byte	0x2
 9283 0f28 91       		.byte	0x91
 9284 0f29 00       		.sleb128 0
 9285 0f2a 08000000 		.4byte	.LVL240
 9286 0f2e 0C000000 		.4byte	.LVL241
 9287 0f32 0200     		.2byte	0x2
 9288 0f34 73       		.byte	0x73
 9289 0f35 00       		.sleb128 0
 9290 0f36 0C000000 		.4byte	.LVL241
 9291 0f3a 9C000000 		.4byte	.LFE48
 9292 0f3e 0200     		.2byte	0x2
 9293 0f40 91       		.byte	0x91
 9294 0f41 00       		.sleb128 0
 9295 0f42 00000000 		.4byte	0
 9296 0f46 00000000 		.4byte	0
 9297              	.LLST91:
 9298 0f4a 00000000 		.4byte	.LVL239
 9299 0f4e 08000000 		.4byte	.LVL240
 9300 0f52 0200     		.2byte	0x2
 9301 0f54 91       		.byte	0x91
 9302 0f55 04       		.sleb128 4
 9303 0f56 08000000 		.4byte	.LVL240
 9304 0f5a 0C000000 		.4byte	.LVL241
 9305 0f5e 0200     		.2byte	0x2
 9306 0f60 73       		.byte	0x73
 9307 0f61 04       		.sleb128 4
 9308 0f62 0C000000 		.4byte	.LVL241
 9309 0f66 12000000 		.4byte	.LVL243
 9310 0f6a 0200     		.2byte	0x2
 9311 0f6c 73       		.byte	0x73
 9312 0f6d 00       		.sleb128 0
 9313 0f6e 12000000 		.4byte	.LVL243
 9314 0f72 9C000000 		.4byte	.LFE48
 9315 0f76 0200     		.2byte	0x2
 9316 0f78 91       		.byte	0x91
 9317 0f79 04       		.sleb128 4
 9318 0f7a 00000000 		.4byte	0
 9319 0f7e 00000000 		.4byte	0
 9320              	.LLST92:
 9321 0f82 2C000000 		.4byte	.LVL248
 9322 0f86 2E000000 		.4byte	.LVL249
 9323 0f8a 0100     		.2byte	0x1
 9324 0f8c 53       		.byte	0x53
 9325 0f8d 2E000000 		.4byte	.LVL249
 9326 0f91 9C000000 		.4byte	.LFE48
 9327 0f95 0200     		.2byte	0x2
 9328 0f97 91       		.byte	0x91
 9329 0f98 4C       		.sleb128 -52
 9330 0f99 00000000 		.4byte	0
 9331 0f9d 00000000 		.4byte	0
 9332              	.LLST93:
 9333 0fa1 36000000 		.4byte	.LVL250
 9334 0fa5 3F000000 		.4byte	.LVL251-1
 9335 0fa9 0100     		.2byte	0x1
 9336 0fab 53       		.byte	0x53
 9337 0fac 3F000000 		.4byte	.LVL251-1
ARM GAS  C:\Users\Melody\AppData\Local\Temp\ccuHhgp0.s 			page 184


 9338 0fb0 9C000000 		.4byte	.LFE48
 9339 0fb4 0200     		.2byte	0x2
 9340 0fb6 91       		.byte	0x91
 9341 0fb7 50       		.sleb128 -48
 9342 0fb8 00000000 		.4byte	0
 9343 0fbc 00000000 		.4byte	0
 9344              	.LLST94:
 9345 0fc0 10000000 		.4byte	.LVL242
 9346 0fc4 1A000000 		.4byte	.LVL245
 9347 0fc8 0700     		.2byte	0x7
 9348 0fca 72       		.byte	0x72
 9349 0fcb 00       		.sleb128 0
 9350 0fcc 44       		.byte	0x44
 9351 0fcd 1E       		.byte	0x1e
 9352 0fce 23       		.byte	0x23
 9353 0fcf 0C       		.uleb128 0xc
 9354 0fd0 9F       		.byte	0x9f
 9355 0fd1 1A000000 		.4byte	.LVL245
 9356 0fd5 1C000000 		.4byte	.LVL246
 9357 0fd9 0100     		.2byte	0x1
 9358 0fdb 53       		.byte	0x53
 9359 0fdc 1C000000 		.4byte	.LVL246
 9360 0fe0 3F000000 		.4byte	.LVL251-1
 9361 0fe4 0700     		.2byte	0x7
 9362 0fe6 72       		.byte	0x72
 9363 0fe7 00       		.sleb128 0
 9364 0fe8 44       		.byte	0x44
 9365 0fe9 1E       		.byte	0x1e
 9366 0fea 23       		.byte	0x23
 9367 0feb 0C       		.uleb128 0xc
 9368 0fec 9F       		.byte	0x9f
 9369 0fed 3F000000 		.4byte	.LVL251-1
 9370 0ff1 9C000000 		.4byte	.LFE48
 9371 0ff5 0C00     		.2byte	0xc
 9372 0ff7 91       		.byte	0x91
 9373 0ff8 04       		.sleb128 4
 9374 0ff9 94       		.byte	0x94
 9375 0ffa 01       		.byte	0x1
 9376 0ffb 08       		.byte	0x8
 9377 0ffc FF       		.byte	0xff
 9378 0ffd 1A       		.byte	0x1a
 9379 0ffe 44       		.byte	0x44
 9380 0fff 1E       		.byte	0x1e
 9381 1000 23       		.byte	0x23
 9382 1001 0C       		.uleb128 0xc
 9383 1002 9F       		.byte	0x9f
 9384 1003 00000000 		.4byte	0
 9385 1007 00000000 		.4byte	0
 9386              	.LLST95:
 9387 100b 40000000 		.4byte	.LVL251
 9388 100f 54000000 		.4byte	.LVL256
 9389 1013 0200     		.2byte	0x2
 9390 1015 30       		.byte	0x30
 9391 1016 9F       		.byte	0x9f
 9392 1017 54000000 		.4byte	.LVL256
 9393 101b 5B000000 		.4byte	.LVL257-1
 9394 101f 0100     		.2byte	0x1
ARM GAS  C:\Users\Melody\AppData\Local\Temp\ccuHhgp0.s 			page 185


 9395 1021 53       		.byte	0x53
 9396 1022 00000000 		.4byte	0
 9397 1026 00000000 		.4byte	0
 9398              	.LLST96:
 9399 102a 40000000 		.4byte	.LVL251
 9400 102e 42000000 		.4byte	.LVL252
 9401 1032 0200     		.2byte	0x2
 9402 1034 30       		.byte	0x30
 9403 1035 9F       		.byte	0x9f
 9404 1036 46000000 		.4byte	.LVL253
 9405 103a 4C000000 		.4byte	.LVL254
 9406 103e 0100     		.2byte	0x1
 9407 1040 52       		.byte	0x52
 9408 1041 4C000000 		.4byte	.LVL254
 9409 1045 4E000000 		.4byte	.LVL255
 9410 1049 0300     		.2byte	0x3
 9411 104b 71       		.byte	0x71
 9412 104c 01       		.sleb128 1
 9413 104d 9F       		.byte	0x9f
 9414 104e 4E000000 		.4byte	.LVL255
 9415 1052 54000000 		.4byte	.LVL256
 9416 1056 0300     		.2byte	0x3
 9417 1058 72       		.byte	0x72
 9418 1059 01       		.sleb128 1
 9419 105a 9F       		.byte	0x9f
 9420 105b 00000000 		.4byte	0
 9421 105f 00000000 		.4byte	0
 9422              		.section	.debug_aranges,"",%progbits
 9423 0000 7C000000 		.4byte	0x7c
 9424 0004 0200     		.2byte	0x2
 9425 0006 00000000 		.4byte	.Ldebug_info0
 9426 000a 04       		.byte	0x4
 9427 000b 00       		.byte	0
 9428 000c 0000     		.2byte	0
 9429 000e 0000     		.2byte	0
 9430 0010 00000000 		.4byte	.LFB35
 9431 0014 70000000 		.4byte	.LFE35-.LFB35
 9432 0018 00000000 		.4byte	.LFB36
 9433 001c 7C000000 		.4byte	.LFE36-.LFB36
 9434 0020 00000000 		.4byte	.LFB37
 9435 0024 48000000 		.4byte	.LFE37-.LFB37
 9436 0028 00000000 		.4byte	.LFB38
 9437 002c 5C010000 		.4byte	.LFE38-.LFB38
 9438 0030 00000000 		.4byte	.LFB39
 9439 0034 0C010000 		.4byte	.LFE39-.LFB39
 9440 0038 00000000 		.4byte	.LFB40
 9441 003c A4030000 		.4byte	.LFE40-.LFB40
 9442 0040 00000000 		.4byte	.LFB41
 9443 0044 24010000 		.4byte	.LFE41-.LFB41
 9444 0048 00000000 		.4byte	.LFB44
 9445 004c C0000000 		.4byte	.LFE44-.LFB44
 9446 0050 00000000 		.4byte	.LFB43
 9447 0054 14000000 		.4byte	.LFE43-.LFB43
 9448 0058 00000000 		.4byte	.LFB45
 9449 005c C4000000 		.4byte	.LFE45-.LFB45
 9450 0060 00000000 		.4byte	.LFB46
 9451 0064 24020000 		.4byte	.LFE46-.LFB46
ARM GAS  C:\Users\Melody\AppData\Local\Temp\ccuHhgp0.s 			page 186


 9452 0068 00000000 		.4byte	.LFB47
 9453 006c 8C000000 		.4byte	.LFE47-.LFB47
 9454 0070 00000000 		.4byte	.LFB48
 9455 0074 9C000000 		.4byte	.LFE48-.LFB48
 9456 0078 00000000 		.4byte	0
 9457 007c 00000000 		.4byte	0
 9458              		.section	.debug_ranges,"",%progbits
 9459              	.Ldebug_ranges0:
 9460 0000 64000000 		.4byte	.LBB4
 9461 0004 66000000 		.4byte	.LBE4
 9462 0008 6A000000 		.4byte	.LBB5
 9463 000c 84000000 		.4byte	.LBE5
 9464 0010 00000000 		.4byte	0
 9465 0014 00000000 		.4byte	0
 9466 0018 00000000 		.4byte	.LFB35
 9467 001c 70000000 		.4byte	.LFE35
 9468 0020 00000000 		.4byte	.LFB36
 9469 0024 7C000000 		.4byte	.LFE36
 9470 0028 00000000 		.4byte	.LFB37
 9471 002c 48000000 		.4byte	.LFE37
 9472 0030 00000000 		.4byte	.LFB38
 9473 0034 5C010000 		.4byte	.LFE38
 9474 0038 00000000 		.4byte	.LFB39
 9475 003c 0C010000 		.4byte	.LFE39
 9476 0040 00000000 		.4byte	.LFB40
 9477 0044 A4030000 		.4byte	.LFE40
 9478 0048 00000000 		.4byte	.LFB41
 9479 004c 24010000 		.4byte	.LFE41
 9480 0050 00000000 		.4byte	.LFB44
 9481 0054 C0000000 		.4byte	.LFE44
 9482 0058 00000000 		.4byte	.LFB43
 9483 005c 14000000 		.4byte	.LFE43
 9484 0060 00000000 		.4byte	.LFB45
 9485 0064 C4000000 		.4byte	.LFE45
 9486 0068 00000000 		.4byte	.LFB46
 9487 006c 24020000 		.4byte	.LFE46
 9488 0070 00000000 		.4byte	.LFB47
 9489 0074 8C000000 		.4byte	.LFE47
 9490 0078 00000000 		.4byte	.LFB48
 9491 007c 9C000000 		.4byte	.LFE48
 9492 0080 00000000 		.4byte	0
 9493 0084 00000000 		.4byte	0
 9494              		.section	.debug_line,"",%progbits
 9495              	.Ldebug_line0:
 9496 0000 89040000 		.section	.debug_str,"MS",%progbits,1
 9496      02000F02 
 9496      00000201 
 9496      FB0E0D00 
 9496      01010101 
 9497              	.LASF144:
 9498 0000 43794465 		.ascii	"CyDelay\000"
 9498      6C617900 
 9499              	.LASF119:
 9500 0008 64617461 		.ascii	"data_s\000"
 9500      5F7300
 9501              	.LASF52:
 9502 000f 464F4E54 		.ascii	"FONT_TYPE_8BPP\000"
ARM GAS  C:\Users\Melody\AppData\Local\Temp\ccuHhgp0.s 			page 187


 9502      5F545950 
 9502      455F3842 
 9502      505000
 9503              	.LASF40:
 9504 001e 494D445F 		.ascii	"IMD_OK\000"
 9504      4F4B00
 9505              	.LASF108:
 9506 0025 6465736B 		.ascii	"desktop_color\000"
 9506      746F705F 
 9506      636F6C6F 
 9506      7200
 9507              	.LASF63:
 9508 0033 746F7563 		.ascii	"touch_state\000"
 9508      685F7374 
 9508      61746500 
 9509              	.LASF77:
 9510 003f 55475F43 		.ascii	"UG_COLOR\000"
 9510      4F4C4F52 
 9510      00
 9511              	.LASF48:
 9512 0048 55475F55 		.ascii	"UG_U16\000"
 9512      313600
 9513              	.LASF13:
 9514 004f 756E7369 		.ascii	"unsigned int\000"
 9514      676E6564 
 9514      20696E74 
 9514      00
 9515              	.LASF107:
 9516 005c 63686172 		.ascii	"char_v_space\000"
 9516      5F765F73 
 9516      70616365 
 9516      00
 9517              	.LASF29:
 9518 0069 4E4F4E45 		.ascii	"NONE\000"
 9518      00
 9519              	.LASF95:
 9520 006e 795F656E 		.ascii	"y_end\000"
 9520      6400
 9521              	.LASF105:
 9522 0074 636F6E73 		.ascii	"console\000"
 9522      6F6C6500 
 9523              	.LASF72:
 9524 007c 535F5749 		.ascii	"S_WINDOW\000"
 9524      4E444F57 
 9524      00
 9525              	.LASF42:
 9526 0085 53687574 		.ascii	"Shutdown_Final\000"
 9526      646F776E 
 9526      5F46696E 
 9526      616C00
 9527              	.LASF34:
 9528 0094 53454E53 		.ascii	"SENSOR_DISCREPANCY\000"
 9528      4F525F44 
 9528      49534352 
 9528      4550414E 
 9528      435900
 9529              	.LASF64:
ARM GAS  C:\Users\Melody\AppData\Local\Temp\ccuHhgp0.s 			page 188


 9530 00a7 75706461 		.ascii	"update\000"
 9530      746500
 9531              	.LASF100:
 9532 00ae 795F6469 		.ascii	"y_dim\000"
 9532      6D00
 9533              	.LASF37:
 9534 00b4 554E4341 		.ascii	"UNCALIBRATED\000"
 9534      4C494252 
 9534      41544544 
 9534      00
 9535              	.LASF35:
 9536 00c1 4252414B 		.ascii	"BRAKE_IMPLAUSIBLE\000"
 9536      455F494D 
 9536      504C4155 
 9536      5349424C 
 9536      4500
 9537              	.LASF39:
 9538 00d3 4D435F46 		.ascii	"MC_FAULT\000"
 9538      41554C54 
 9538      00
 9539              	.LASF143:
 9540 00dc 55475F46 		.ascii	"UG_FillFrame\000"
 9540      696C6C46 
 9540      72616D65 
 9540      00
 9541              	.LASF74:
 9542 00e9 6F626A6C 		.ascii	"objlst\000"
 9542      737400
 9543              	.LASF102:
 9544 00f0 6E657874 		.ascii	"next_window\000"
 9544      5F77696E 
 9544      646F7700 
 9545              	.LASF76:
 9546 00fc 7469746C 		.ascii	"title\000"
 9546      6500
 9547              	.LASF18:
 9548 0102 75696E74 		.ascii	"uint32_t\000"
 9548      33325F74 
 9548      00
 9549              	.LASF14:
 9550 010b 696E7438 		.ascii	"int8_t\000"
 9550      5F7400
 9551              	.LASF50:
 9552 0112 55475F55 		.ascii	"UG_U32\000"
 9552      333200
 9553              	.LASF94:
 9554 0119 785F656E 		.ascii	"x_end\000"
 9554      6400
 9555              	.LASF20:
 9556 011f 666C6F61 		.ascii	"float\000"
 9556      7400
 9557              	.LASF68:
 9558 0125 6576656E 		.ascii	"event\000"
 9558      7400
 9559              	.LASF104:
 9560 012b 6C617374 		.ascii	"last_window\000"
 9560      5F77696E 
ARM GAS  C:\Users\Melody\AppData\Local\Temp\ccuHhgp0.s 			page 189


 9560      646F7700 
 9561              	.LASF97:
 9562 0137 6261636B 		.ascii	"back_color\000"
 9562      5F636F6C 
 9562      6F7200
 9563              	.LASF27:
 9564 0142 44524956 		.ascii	"DRIVE\000"
 9564      4500
 9565              	.LASF16:
 9566 0148 696E7431 		.ascii	"int16_t\000"
 9566      365F7400 
 9567              	.LASF132:
 9568 0150 464F4E54 		.ascii	"FONT_12X16\000"
 9568      5F313258 
 9568      313600
 9569              	.LASF12:
 9570 015b 6C6F6E67 		.ascii	"long long unsigned int\000"
 9570      206C6F6E 
 9570      6720756E 
 9570      7369676E 
 9570      65642069 
 9571              	.LASF110:
 9572 0172 63616C69 		.ascii	"calibrateScreen\000"
 9572      62726174 
 9572      65536372 
 9572      65656E00 
 9573              	.LASF6:
 9574 0182 5F5F7569 		.ascii	"__uint16_t\000"
 9574      6E743136 
 9574      5F7400
 9575              	.LASF103:
 9576 018d 61637469 		.ascii	"active_window\000"
 9576      76655F77 
 9576      696E646F 
 9576      7700
 9577              	.LASF73:
 9578 019b 6F626A63 		.ascii	"objcnt\000"
 9578      6E7400
 9579              	.LASF49:
 9580 01a2 55475F53 		.ascii	"UG_S16\000"
 9580      313600
 9581              	.LASF96:
 9582 01a9 666F7265 		.ascii	"fore_color\000"
 9582      5F636F6C 
 9582      6F7200
 9583              	.LASF91:
 9584 01b4 795F706F 		.ascii	"y_pos\000"
 9584      7300
 9585              	.LASF118:
 9586 01ba 636F6C6F 		.ascii	"color\000"
 9586      7200
 9587              	.LASF141:
 9588 01c0 6C617374 		.ascii	"last_shutdown_color\000"
 9588      5F736875 
 9588      74646F77 
 9588      6E5F636F 
 9588      6C6F7200 
ARM GAS  C:\Users\Melody\AppData\Local\Temp\ccuHhgp0.s 			page 190


 9589              	.LASF147:
 9590 01d4 55475F50 		.ascii	"UG_PutColorString\000"
 9590      7574436F 
 9590      6C6F7253 
 9590      7472696E 
 9590      6700
 9591              	.LASF32:
 9592 01e6 4252414B 		.ascii	"BRAKE_NOT_PRESSED\000"
 9592      455F4E4F 
 9592      545F5052 
 9592      45535345 
 9592      4400
 9593              	.LASF142:
 9594 01f8 55475F46 		.ascii	"UG_FillScreen\000"
 9594      696C6C53 
 9594      63726565 
 9594      6E00
 9595              	.LASF135:
 9596 0206 6C617374 		.ascii	"last_SOC_color\000"
 9596      5F534F43 
 9596      5F636F6C 
 9596      6F7200
 9597              	.LASF127:
 9598 0215 64697370 		.ascii	"disp_shutdown_circuit\000"
 9598      5F736875 
 9598      74646F77 
 9598      6E5F6369 
 9598      72637569 
 9599              	.LASF55:
 9600 022b 63686172 		.ascii	"char_width\000"
 9600      5F776964 
 9600      746800
 9601              	.LASF33:
 9602 0236 48565F44 		.ascii	"HV_DISABLED_WHILE_DRIVING\000"
 9602      49534142 
 9602      4C45445F 
 9602      5748494C 
 9602      455F4452 
 9603              	.LASF124:
 9604 0250 64697370 		.ascii	"disp_glv_v\000"
 9604      5F676C76 
 9604      5F7600
 9605              	.LASF128:
 9606 025b 73687574 		.ascii	"shutdown_flags\000"
 9606      646F776E 
 9606      5F666C61 
 9606      677300
 9607              	.LASF38:
 9608 026a 48415244 		.ascii	"HARD_BSPD\000"
 9608      5F425350 
 9608      4400
 9609              	.LASF122:
 9610 0274 64697370 		.ascii	"disp_state\000"
 9610      5F737461 
 9610      746500
 9611              	.LASF140:
 9612 027f 6C617374 		.ascii	"last_motor_temp_color\000"
ARM GAS  C:\Users\Melody\AppData\Local\Temp\ccuHhgp0.s 			page 191


 9612      5F6D6F74 
 9612      6F725F74 
 9612      656D705F 
 9612      636F6C6F 
 9613              	.LASF36:
 9614 0295 53485554 		.ascii	"SHUTDOWN_CIRCUIT_OPEN\000"
 9614      444F574E 
 9614      5F434952 
 9614      43554954 
 9614      5F4F5045 
 9615              	.LASF26:
 9616 02ab 48565F45 		.ascii	"HV_ENABLED\000"
 9616      4E41424C 
 9616      454400
 9617              	.LASF93:
 9618 02b6 795F7374 		.ascii	"y_start\000"
 9618      61727400 
 9619              	.LASF84:
 9620 02be 765F7370 		.ascii	"v_space\000"
 9620      61636500 
 9621              	.LASF22:
 9622 02c6 63686172 		.ascii	"char\000"
 9622      00
 9623              	.LASF31:
 9624 02cb 434F4E53 		.ascii	"CONSERVATIVE_TIMER_MAXED\000"
 9624      45525641 
 9624      54495645 
 9624      5F54494D 
 9624      45525F4D 
 9625              	.LASF116:
 9626 02e4 79466F6E 		.ascii	"yFont\000"
 9626      7400
 9627              	.LASF54:
 9628 02ea 666F6E74 		.ascii	"font_type\000"
 9628      5F747970 
 9628      6500
 9629              	.LASF53:
 9630 02f4 464F4E54 		.ascii	"FONT_TYPE\000"
 9630      5F545950 
 9630      4500
 9631              	.LASF78:
 9632 02fe 55475F41 		.ascii	"UG_AREA\000"
 9632      52454100 
 9633              	.LASF80:
 9634 0306 55475F4D 		.ascii	"UG_MESSAGE\000"
 9634      45535341 
 9634      474500
 9635              	.LASF69:
 9636 0311 64617461 		.ascii	"data\000"
 9636      00
 9637              	.LASF43:
 9638 0316 41495231 		.ascii	"AIR1\000"
 9638      00
 9639              	.LASF44:
 9640 031b 41495232 		.ascii	"AIR2\000"
 9640      00
 9641              	.LASF15:
ARM GAS  C:\Users\Melody\AppData\Local\Temp\ccuHhgp0.s 			page 192


 9642 0320 75696E74 		.ascii	"uint8_t\000"
 9642      385F7400 
 9643              	.LASF101:
 9644 0328 746F7563 		.ascii	"touch\000"
 9644      6800
 9645              	.LASF88:
 9646 032e 64726976 		.ascii	"driver\000"
 9646      657200
 9647              	.LASF45:
 9648 0335 50726563 		.ascii	"Precharge\000"
 9648      68617267 
 9648      6500
 9649              	.LASF47:
 9650 033f 55475F53 		.ascii	"UG_S8\000"
 9650      3800
 9651              	.LASF99:
 9652 0345 785F6469 		.ascii	"x_dim\000"
 9652      6D00
 9653              	.LASF11:
 9654 034b 6C6F6E67 		.ascii	"long long int\000"
 9654      206C6F6E 
 9654      6720696E 
 9654      7400
 9655              	.LASF136:
 9656 0359 6C617374 		.ascii	"last_max_pack_temp_color\000"
 9656      5F6D6178 
 9656      5F706163 
 9656      6B5F7465 
 9656      6D705F63 
 9657              	.LASF4:
 9658 0372 5F5F696E 		.ascii	"__int16_t\000"
 9658      7431365F 
 9658      7400
 9659              	.LASF61:
 9660 037c 55475F4F 		.ascii	"UG_OBJECT\000"
 9660      424A4543 
 9660      5400
 9661              	.LASF98:
 9662 0386 70736574 		.ascii	"pset\000"
 9662      00
 9663              	.LASF79:
 9664 038b 7375625F 		.ascii	"sub_id\000"
 9664      696400
 9665              	.LASF113:
 9666 0392 73697A65 		.ascii	"size\000"
 9666      00
 9667              	.LASF126:
 9668 0397 64697370 		.ascii	"disp_gen_voltage\000"
 9668      5F67656E 
 9668      5F766F6C 
 9668      74616765 
 9668      00
 9669              	.LASF86:
 9670 03a8 68656967 		.ascii	"height\000"
 9670      687400
 9671              	.LASF57:
 9672 03af 73746172 		.ascii	"start_char\000"
ARM GAS  C:\Users\Melody\AppData\Local\Temp\ccuHhgp0.s 			page 193


 9672      745F6368 
 9672      617200
 9673              	.LASF25:
 9674 03ba 50524543 		.ascii	"PRECHARGING\000"
 9674      48415247 
 9674      494E4700 
 9675              	.LASF46:
 9676 03c6 55475F55 		.ascii	"UG_U8\000"
 9676      3800
 9677              	.LASF0:
 9678 03cc 5F5F696E 		.ascii	"__int8_t\000"
 9678      74385F74 
 9678      00
 9679              	.LASF59:
 9680 03d5 77696474 		.ascii	"widths\000"
 9680      687300
 9681              	.LASF145:
 9682 03dc 55475F50 		.ascii	"UG_PutString\000"
 9682      75745374 
 9682      72696E67 
 9682      00
 9683              	.LASF23:
 9684 03e9 6C6F6E67 		.ascii	"long double\000"
 9684      20646F75 
 9684      626C6500 
 9685              	.LASF146:
 9686 03f5 73707269 		.ascii	"sprintf\000"
 9686      6E746600 
 9687              	.LASF17:
 9688 03fd 75696E74 		.ascii	"uint16_t\000"
 9688      31365F74 
 9688      00
 9689              	.LASF134:
 9690 0406 67756931 		.ascii	"gui1963\000"
 9690      39363300 
 9691              	.LASF87:
 9692 040e 55475F54 		.ascii	"UG_TITLE\000"
 9692      49544C45 
 9692      00
 9693              	.LASF89:
 9694 0417 55475F44 		.ascii	"UG_DRIVER\000"
 9694      52495645 
 9694      5200
 9695              	.LASF90:
 9696 0421 785F706F 		.ascii	"x_pos\000"
 9696      7300
 9697              	.LASF56:
 9698 0427 63686172 		.ascii	"char_height\000"
 9698      5F686569 
 9698      67687400 
 9699              	.LASF5:
 9700 0433 73686F72 		.ascii	"short int\000"
 9700      7420696E 
 9700      7400
 9701              	.LASF137:
 9702 043d 6C617374 		.ascii	"last_state_color\000"
 9702      5F737461 
ARM GAS  C:\Users\Melody\AppData\Local\Temp\ccuHhgp0.s 			page 194


 9702      74655F63 
 9702      6F6C6F72 
 9702      00
 9703              	.LASF8:
 9704 044e 6C6F6E67 		.ascii	"long int\000"
 9704      20696E74 
 9704      00
 9705              	.LASF70:
 9706 0457 55475F57 		.ascii	"UG_WINDOW\000"
 9706      494E444F 
 9706      5700
 9707              	.LASF152:
 9708 0461 64697370 		.ascii	"disp_motor_temp\000"
 9708      5F6D6F74 
 9708      6F725F74 
 9708      656D7000 
 9709              	.LASF58:
 9710 0471 656E645F 		.ascii	"end_char\000"
 9710      63686172 
 9710      00
 9711              	.LASF60:
 9712 047a 55475F46 		.ascii	"UG_FONT\000"
 9712      4F4E5400 
 9713              	.LASF1:
 9714 0482 5F5F7569 		.ascii	"__uint8_t\000"
 9714      6E74385F 
 9714      7400
 9715              	.LASF151:
 9716 048c 433A5C55 		.ascii	"C:\\Users\\Melody\\Desktop\\Programming_Stuff\\FRUC"
 9716      73657273 
 9716      5C4D656C 
 9716      6F64795C 
 9716      4465736B 
 9717 04ba 445C4461 		.ascii	"D\\Dashboard-Firmware-FE10\\Dashboard-Firmware-FE9\\"
 9717      7368626F 
 9717      6172642D 
 9717      4669726D 
 9717      77617265 
 9718 04eb 44617368 		.ascii	"Dashboard.cydsn\000"
 9718      626F6172 
 9718      642E6379 
 9718      64736E00 
 9719              	.LASF115:
 9720 04fb 78466F6E 		.ascii	"xFont\000"
 9720      7400
 9721              	.LASF82:
 9722 0501 666F6E74 		.ascii	"font\000"
 9722      00
 9723              	.LASF24:
 9724 0506 73697A65 		.ascii	"sizetype\000"
 9724      74797065 
 9724      00
 9725              	.LASF10:
 9726 050f 6C6F6E67 		.ascii	"long unsigned int\000"
 9726      20756E73 
 9726      69676E65 
 9726      6420696E 
ARM GAS  C:\Users\Melody\AppData\Local\Temp\ccuHhgp0.s 			page 195


 9726      7400
 9727              	.LASF111:
 9728 0521 64656275 		.ascii	"debugTemplate\000"
 9728      6754656D 
 9728      706C6174 
 9728      6500
 9729              	.LASF133:
 9730 052f 464F4E54 		.ascii	"FONT_32X53\000"
 9730      5F333258 
 9730      353300
 9731              	.LASF41:
 9732 053a 424D535F 		.ascii	"BMS_OK\000"
 9732      4F4B00
 9733              	.LASF121:
 9734 0541 64697370 		.ascii	"disp_max_pack_temp\000"
 9734      5F6D6178 
 9734      5F706163 
 9734      6B5F7465 
 9734      6D7000
 9735              	.LASF117:
 9736 0554 686F7269 		.ascii	"horizFontSize\000"
 9736      7A466F6E 
 9736      7453697A 
 9736      6500
 9737              	.LASF138:
 9738 0562 6C617374 		.ascii	"last_glv_v_color\000"
 9738      5F676C76 
 9738      5F765F63 
 9738      6F6C6F72 
 9738      00
 9739              	.LASF67:
 9740 0573 74797065 		.ascii	"type\000"
 9740      00
 9741              	.LASF3:
 9742 0578 756E7369 		.ascii	"unsigned char\000"
 9742      676E6564 
 9742      20636861 
 9742      7200
 9743              	.LASF9:
 9744 0586 5F5F7569 		.ascii	"__uint32_t\000"
 9744      6E743332 
 9744      5F7400
 9745              	.LASF130:
 9746 0591 64697370 		.ascii	"disp_mc_fault\000"
 9746      5F6D635F 
 9746      6661756C 
 9746      7400
 9747              	.LASF83:
 9748 059f 685F7370 		.ascii	"h_space\000"
 9748      61636500 
 9749              	.LASF112:
 9750 05a7 64726976 		.ascii	"driveTemplate\000"
 9750      6554656D 
 9750      706C6174 
 9750      6500
 9751              	.LASF92:
 9752 05b5 785F7374 		.ascii	"x_start\000"
ARM GAS  C:\Users\Melody\AppData\Local\Temp\ccuHhgp0.s 			page 196


 9752      61727400 
 9753              	.LASF28:
 9754 05bd 4641554C 		.ascii	"FAULT\000"
 9754      5400
 9755              	.LASF149:
 9756 05c3 474E5520 		.ascii	"GNU C11 5.4.1 20160609 (release) [ARM/embedded-5-br"
 9756      43313120 
 9756      352E342E 
 9756      31203230 
 9756      31363036 
 9757 05f6 616E6368 		.ascii	"anch revision 237715] -mcpu=cortex-m0 -mthumb -g -O"
 9757      20726576 
 9757      6973696F 
 9757      6E203233 
 9757      37373135 
 9758 0629 73202D66 		.ascii	"s -ffunction-sections -ffat-lto-objects\000"
 9758      66756E63 
 9758      74696F6E 
 9758      2D736563 
 9758      74696F6E 
 9759              	.LASF139:
 9760 0651 6C617374 		.ascii	"last_mc_temp_color\000"
 9760      5F6D635F 
 9760      74656D70 
 9760      5F636F6C 
 9760      6F7200
 9761              	.LASF75:
 9762 0664 7374796C 		.ascii	"style\000"
 9762      6500
 9763              	.LASF62:
 9764 066a 73746174 		.ascii	"state\000"
 9764      6500
 9765              	.LASF129:
 9766 0670 64697370 		.ascii	"disp_debug\000"
 9766      5F646562 
 9766      756700
 9767              	.LASF120:
 9768 067b 64697370 		.ascii	"disp_SOC\000"
 9768      5F534F43 
 9768      00
 9769              	.LASF114:
 9770 0684 73747269 		.ascii	"stringSize\000"
 9770      6E675369 
 9770      7A6500
 9771              	.LASF109:
 9772 068f 55475F47 		.ascii	"UG_GUI\000"
 9772      554900
 9773              	.LASF66:
 9774 0696 615F7265 		.ascii	"a_rel\000"
 9774      6C00
 9775              	.LASF81:
 9776 069c 55475F54 		.ascii	"UG_TOUCH\000"
 9776      4F554348 
 9776      00
 9777              	.LASF2:
 9778 06a5 7369676E 		.ascii	"signed char\000"
 9778      65642063 
ARM GAS  C:\Users\Melody\AppData\Local\Temp\ccuHhgp0.s 			page 197


 9778      68617200 
 9779              	.LASF7:
 9780 06b1 73686F72 		.ascii	"short unsigned int\000"
 9780      7420756E 
 9780      7369676E 
 9780      65642069 
 9780      6E7400
 9781              	.LASF150:
 9782 06c4 66727563 		.ascii	"frucd_display.c\000"
 9782      645F6469 
 9782      73706C61 
 9782      792E6300 
 9783              	.LASF131:
 9784 06d4 7072696E 		.ascii	"printed_data\000"
 9784      7465645F 
 9784      64617461 
 9784      00
 9785              	.LASF19:
 9786 06e1 75696E74 		.ascii	"uint8\000"
 9786      3800
 9787              	.LASF21:
 9788 06e7 646F7562 		.ascii	"double\000"
 9788      6C6500
 9789              	.LASF148:
 9790 06ee 55475F46 		.ascii	"UG_FontSelect\000"
 9790      6F6E7453 
 9790      656C6563 
 9790      7400
 9791              	.LASF30:
 9792 06fc 44524956 		.ascii	"DRIVE_REQUEST_FROM_LV\000"
 9792      455F5245 
 9792      51554553 
 9792      545F4652 
 9792      4F4D5F4C 
 9793              	.LASF71:
 9794 0712 535F4F42 		.ascii	"S_OBJECT\000"
 9794      4A454354 
 9794      00
 9795              	.LASF85:
 9796 071b 616C6967 		.ascii	"align\000"
 9796      6E00
 9797              	.LASF65:
 9798 0721 615F6162 		.ascii	"a_abs\000"
 9798      7300
 9799              	.LASF123:
 9800 0727 6661756C 		.ascii	"fault\000"
 9800      7400
 9801              	.LASF51:
 9802 072d 464F4E54 		.ascii	"FONT_TYPE_1BPP\000"
 9802      5F545950 
 9802      455F3142 
 9802      505000
 9803              	.LASF125:
 9804 073c 64697370 		.ascii	"disp_gen_temp\000"
 9804      5F67656E 
 9804      5F74656D 
 9804      7000
ARM GAS  C:\Users\Melody\AppData\Local\Temp\ccuHhgp0.s 			page 198


 9805              	.LASF106:
 9806 074a 63686172 		.ascii	"char_h_space\000"
 9806      5F685F73 
 9806      70616365 
 9806      00
 9807              		.ident	"GCC: (GNU Tools for ARM Embedded Processors) 5.4.1 20160609 (release) [ARM/embedded-5-bran
