ARM GAS  C:\Users\leoja\AppData\Local\Temp\ccM6wJLr.s 			page 1


   1              		.syntax unified
   2              		.cpu cortex-m0
   3              		.fpu softvfp
   4              		.eabi_attribute 20, 1
   5              		.eabi_attribute 21, 1
   6              		.eabi_attribute 23, 3
   7              		.eabi_attribute 24, 1
   8              		.eabi_attribute 25, 1
   9              		.eabi_attribute 26, 1
  10              		.eabi_attribute 30, 4
  11              		.eabi_attribute 34, 0
  12              		.eabi_attribute 18, 4
  13              		.thumb
  14              		.syntax unified
  15              		.file	"frucd_display.c"
  16              		.text
  17              	.Ltext0:
  18              		.cfi_sections	.debug_frame
  19              		.section	.text.calibrateScreen,"ax",%progbits
  20              		.align	1
  21              		.global	calibrateScreen
  22              		.code	16
  23              		.thumb_func
  24              		.type	calibrateScreen, %function
  25              	calibrateScreen:
  26              	.LFB35:
  27              		.file 1 "frucd_display.c"
   1:frucd_display.c **** /* ========================================
   2:frucd_display.c ****  *
   3:frucd_display.c ****  * APIs for updating FRUCD Dashboard display
   4:frucd_display.c ****  *
   5:frucd_display.c ****  * ========================================
   6:frucd_display.c **** */
   7:frucd_display.c **** #include "frucd_display.h"
   8:frucd_display.c **** 
   9:frucd_display.c **** // Just a test function that displays elements at the supposed corners of the screen
  10:frucd_display.c **** void calibrateScreen() {
  28              		.loc 1 10 0
  29              		.cfi_startproc
  30              		@ args = 0, pretend = 0, frame = 0
  31              		@ frame_needed = 0, uses_anonymous_args = 0
  32 0000 F7B5     		push	{r0, r1, r2, r4, r5, r6, r7, lr}
  33              		.cfi_def_cfa_offset 32
  34              		.cfi_offset 0, -32
  35              		.cfi_offset 1, -28
  36              		.cfi_offset 2, -24
  37              		.cfi_offset 4, -20
  38              		.cfi_offset 5, -16
  39              		.cfi_offset 6, -12
  40              		.cfi_offset 7, -8
  41              		.cfi_offset 14, -4
  11:frucd_display.c ****     UG_FillScreen(C_WHITE);
  42              		.loc 1 11 0
  43 0002 1948     		ldr	r0, .L2
  44 0004 FFF7FEFF 		bl	UG_FillScreen
  45              	.LVL0:
  12:frucd_display.c ****     //libTFT_FillRectangle(0, 0, 10, 10, RED);
ARM GAS  C:\Users\leoja\AppData\Local\Temp\ccM6wJLr.s 			page 2


  13:frucd_display.c ****     UG_FillFrame(0, 0, 10, 10, C_RED);
  46              		.loc 1 13 0
  47 0008 FF23     		movs	r3, #255
  48 000a 1B04     		lsls	r3, r3, #16
  49 000c 0093     		str	r3, [sp]
  50 000e 0021     		movs	r1, #0
  51 0010 0A23     		movs	r3, #10
  52 0012 0800     		movs	r0, r1
  53 0014 1A00     		movs	r2, r3
  14:frucd_display.c ****     //libTFT_FillRectangle(0, 262, 10, 10, BLUE);
  15:frucd_display.c ****     UG_FillFrame(0, 262, 10, 272, C_BLUE);
  54              		.loc 1 15 0
  55 0016 8827     		movs	r7, #136
  56 0018 8325     		movs	r5, #131
  13:frucd_display.c ****     //libTFT_FillRectangle(0, 262, 10, 10, BLUE);
  57              		.loc 1 13 0
  58 001a FFF7FEFF 		bl	UG_FillFrame
  59              	.LVL1:
  60              		.loc 1 15 0
  61 001e FF23     		movs	r3, #255
  62 0020 7F00     		lsls	r7, r7, #1
  63 0022 6D00     		lsls	r5, r5, #1
  64 0024 2900     		movs	r1, r5
  65 0026 0093     		str	r3, [sp]
  66 0028 0A22     		movs	r2, #10
  67 002a 3B00     		movs	r3, r7
  68 002c 0020     		movs	r0, #0
  69 002e FFF7FEFF 		bl	UG_FillFrame
  70              	.LVL2:
  16:frucd_display.c ****     //libTFT_FillRectangle(470, 0, 10, 10, GREEN);
  17:frucd_display.c ****     UG_FillFrame(470, 0, 480, 10, C_GREEN);
  71              		.loc 1 17 0
  72 0032 F026     		movs	r6, #240
  73 0034 EB24     		movs	r4, #235
  74 0036 FF23     		movs	r3, #255
  75 0038 7600     		lsls	r6, r6, #1
  76 003a 6400     		lsls	r4, r4, #1
  77 003c 1B02     		lsls	r3, r3, #8
  78 003e 3200     		movs	r2, r6
  79 0040 0093     		str	r3, [sp]
  80 0042 2000     		movs	r0, r4
  81 0044 0A23     		movs	r3, #10
  82 0046 0021     		movs	r1, #0
  83 0048 FFF7FEFF 		bl	UG_FillFrame
  84              	.LVL3:
  18:frucd_display.c ****     //libTFT_FillRectangle(470, 262, 10, 10, YELLOW);
  19:frucd_display.c ****     UG_FillFrame(470, 262, 480, 272, C_YELLOW);
  85              		.loc 1 19 0
  86 004c 074B     		ldr	r3, .L2+4
  87 004e 3200     		movs	r2, r6
  88 0050 2900     		movs	r1, r5
  89 0052 0093     		str	r3, [sp]
  90 0054 2000     		movs	r0, r4
  91 0056 3B00     		movs	r3, r7
  92 0058 FFF7FEFF 		bl	UG_FillFrame
  93              	.LVL4:
  20:frucd_display.c ****     CyDelay(300);
ARM GAS  C:\Users\leoja\AppData\Local\Temp\ccM6wJLr.s 			page 3


  94              		.loc 1 20 0
  95 005c 9620     		movs	r0, #150
  96 005e 4000     		lsls	r0, r0, #1
  97 0060 FFF7FEFF 		bl	CyDelay
  98              	.LVL5:
  21:frucd_display.c **** }
  99              		.loc 1 21 0
 100              		@ sp needed
 101 0064 F7BD     		pop	{r0, r1, r2, r4, r5, r6, r7, pc}
 102              	.L3:
 103 0066 C046     		.align	2
 104              	.L2:
 105 0068 FFFFFF00 		.word	16777215
 106 006c 00FFFF00 		.word	16776960
 107              		.cfi_endproc
 108              	.LFE35:
 109              		.size	calibrateScreen, .-calibrateScreen
 110              		.section	.text.debugTemplate,"ax",%progbits
 111              		.align	1
 112              		.global	debugTemplate
 113              		.code	16
 114              		.thumb_func
 115              		.type	debugTemplate, %function
 116              	debugTemplate:
 117              	.LFB36:
  22:frucd_display.c **** 
  23:frucd_display.c **** // Initializes dashboard layout/label
  24:frucd_display.c **** /*
  25:frucd_display.c **** void initDashTemplate() {
  26:frucd_display.c ****     UG_FillScreen(C_BLACK);
  27:frucd_display.c ****     UG_PutString(68, 10, "PACK SOC");
  28:frucd_display.c ****     UG_PutString(297, 10, "MAX PACK T");
  29:frucd_display.c ****     UG_PutString(10, 195, "STATE:");
  30:frucd_display.c ****     UG_PutString(10, 240, "GLV V:");
  31:frucd_display.c ****     UG_PutString(339, 195, "MC T:");
  32:frucd_display.c ****     UG_PutString(300, 240, "MOTOR T:");
  33:frucd_display.c **** }
  34:frucd_display.c **** */
  35:frucd_display.c **** 
  36:frucd_display.c **** void debugTemplate(){
 118              		.loc 1 36 0
 119              		.cfi_startproc
 120              		@ args = 0, pretend = 0, frame = 0
 121              		@ frame_needed = 0, uses_anonymous_args = 0
 122 0000 10B5     		push	{r4, lr}
 123              		.cfi_def_cfa_offset 8
 124              		.cfi_offset 4, -8
 125              		.cfi_offset 14, -4
  37:frucd_display.c ****     UG_FillScreen(C_BLACK);
 126              		.loc 1 37 0
 127 0002 0020     		movs	r0, #0
 128 0004 FFF7FEFF 		bl	UG_FillScreen
 129              	.LVL6:
  38:frucd_display.c ****     UG_PutString(10, 10, "PACK SOC:");
 130              		.loc 1 38 0
 131 0008 0A21     		movs	r1, #10
 132 000a 144A     		ldr	r2, .L5
ARM GAS  C:\Users\leoja\AppData\Local\Temp\ccM6wJLr.s 			page 4


 133 000c 0800     		movs	r0, r1
 134 000e FFF7FEFF 		bl	UG_PutString
 135              	.LVL7:
  39:frucd_display.c ****     UG_PutString(250, 10, "MAX PACK T:");
 136              		.loc 1 39 0
 137 0012 134A     		ldr	r2, .L5+4
 138 0014 0A21     		movs	r1, #10
 139 0016 FA20     		movs	r0, #250
 140 0018 FFF7FEFF 		bl	UG_PutString
 141              	.LVL8:
  40:frucd_display.c ****     UG_PutString(10, 75, "STATE:");
 142              		.loc 1 40 0
 143 001c 114A     		ldr	r2, .L5+8
 144 001e 4B21     		movs	r1, #75
 145 0020 0A20     		movs	r0, #10
 146 0022 FFF7FEFF 		bl	UG_PutString
 147              	.LVL9:
  41:frucd_display.c ****     UG_PutString(250, 75, "MC T:");
 148              		.loc 1 41 0
 149 0026 104A     		ldr	r2, .L5+12
 150 0028 4B21     		movs	r1, #75
 151 002a FA20     		movs	r0, #250
 152 002c FFF7FEFF 		bl	UG_PutString
 153              	.LVL10:
  42:frucd_display.c ****     UG_PutString(10, 140, "GLV V:");
 154              		.loc 1 42 0
 155 0030 0E4A     		ldr	r2, .L5+16
 156 0032 8C21     		movs	r1, #140
 157 0034 0A20     		movs	r0, #10
 158 0036 FFF7FEFF 		bl	UG_PutString
 159              	.LVL11:
  43:frucd_display.c ****     UG_PutString(250, 140, "MOTOR T:");
 160              		.loc 1 43 0
 161 003a 0D4A     		ldr	r2, .L5+20
 162 003c 8C21     		movs	r1, #140
 163 003e FA20     		movs	r0, #250
 164 0040 FFF7FEFF 		bl	UG_PutString
 165              	.LVL12:
  44:frucd_display.c ****     UG_PutString(10, 205, "SHUTDOWN:");
 166              		.loc 1 44 0
 167 0044 0B4A     		ldr	r2, .L5+24
 168 0046 CD21     		movs	r1, #205
 169 0048 0A20     		movs	r0, #10
 170 004a FFF7FEFF 		bl	UG_PutString
 171              	.LVL13:
  45:frucd_display.c ****     UG_PutString(250, 205, "MC FAULT:");
 172              		.loc 1 45 0
 173 004e 0A4A     		ldr	r2, .L5+28
 174 0050 CD21     		movs	r1, #205
 175 0052 FA20     		movs	r0, #250
 176 0054 FFF7FEFF 		bl	UG_PutString
 177              	.LVL14:
  46:frucd_display.c **** }
 178              		.loc 1 46 0
 179              		@ sp needed
 180 0058 10BD     		pop	{r4, pc}
 181              	.L6:
ARM GAS  C:\Users\leoja\AppData\Local\Temp\ccM6wJLr.s 			page 5


 182 005a C046     		.align	2
 183              	.L5:
 184 005c 00000000 		.word	.LC0
 185 0060 0A000000 		.word	.LC2
 186 0064 16000000 		.word	.LC4
 187 0068 1D000000 		.word	.LC6
 188 006c 23000000 		.word	.LC8
 189 0070 2A000000 		.word	.LC10
 190 0074 33000000 		.word	.LC12
 191 0078 3D000000 		.word	.LC14
 192              		.cfi_endproc
 193              	.LFE36:
 194              		.size	debugTemplate, .-debugTemplate
 195              		.section	.text.driveTemplate,"ax",%progbits
 196              		.align	1
 197              		.global	driveTemplate
 198              		.code	16
 199              		.thumb_func
 200              		.type	driveTemplate, %function
 201              	driveTemplate:
 202              	.LFB37:
  47:frucd_display.c **** void driveTemplate(){
 203              		.loc 1 47 0
 204              		.cfi_startproc
 205              		@ args = 0, pretend = 0, frame = 0
 206              		@ frame_needed = 0, uses_anonymous_args = 0
 207 0000 10B5     		push	{r4, lr}
 208              		.cfi_def_cfa_offset 8
 209              		.cfi_offset 4, -8
 210              		.cfi_offset 14, -4
  48:frucd_display.c ****     UG_FillScreen(C_BLACK);
 211              		.loc 1 48 0
 212 0002 0020     		movs	r0, #0
 213 0004 FFF7FEFF 		bl	UG_FillScreen
 214              	.LVL15:
  49:frucd_display.c ****     UG_PutString(68, 10, "PACK SOC");
 215              		.loc 1 49 0
 216 0008 0B4A     		ldr	r2, .L8
 217 000a 0A21     		movs	r1, #10
 218 000c 4420     		movs	r0, #68
 219 000e FFF7FEFF 		bl	UG_PutString
 220              	.LVL16:
  50:frucd_display.c ****     UG_PutString(297, 10, "MAX PACK T");
 221              		.loc 1 50 0
 222 0012 2A20     		movs	r0, #42
 223 0014 094A     		ldr	r2, .L8+4
 224 0016 0A21     		movs	r1, #10
 225 0018 FF30     		adds	r0, r0, #255
 226 001a FFF7FEFF 		bl	UG_PutString
 227              	.LVL17:
  51:frucd_display.c ****     UG_PutString(5, 180, "STATE:");
 228              		.loc 1 51 0
 229 001e 084A     		ldr	r2, .L8+8
 230 0020 B421     		movs	r1, #180
 231 0022 0520     		movs	r0, #5
 232 0024 FFF7FEFF 		bl	UG_PutString
 233              	.LVL18:
ARM GAS  C:\Users\leoja\AppData\Local\Temp\ccM6wJLr.s 			page 6


  52:frucd_display.c ****     UG_PutString(275, 180, "GLV V:");
 234              		.loc 1 52 0
 235 0028 1420     		movs	r0, #20
 236 002a 064A     		ldr	r2, .L8+12
 237 002c B421     		movs	r1, #180
 238 002e FF30     		adds	r0, r0, #255
 239 0030 FFF7FEFF 		bl	UG_PutString
 240              	.LVL19:
  53:frucd_display.c ****     
  54:frucd_display.c **** }
 241              		.loc 1 54 0
 242              		@ sp needed
 243 0034 10BD     		pop	{r4, pc}
 244              	.L9:
 245 0036 C046     		.align	2
 246              	.L8:
 247 0038 47000000 		.word	.LC16
 248 003c 50000000 		.word	.LC18
 249 0040 16000000 		.word	.LC4
 250 0044 23000000 		.word	.LC8
 251              		.cfi_endproc
 252              	.LFE37:
 253              		.size	driveTemplate, .-driveTemplate
 254              		.section	.text.disp_SOC,"ax",%progbits
 255              		.align	1
 256              		.global	disp_SOC
 257              		.code	16
 258              		.thumb_func
 259              		.type	disp_SOC, %function
 260              	disp_SOC:
 261              	.LFB38:
  55:frucd_display.c **** /*
  56:frucd_display.c ****  * BEGIN: functions to show data on dash
  57:frucd_display.c ****  * - handle variety of digit counts
  58:frucd_display.c ****  * - color decision logic is in here
  59:frucd_display.c ****  */
  60:frucd_display.c **** 
  61:frucd_display.c **** 
  62:frucd_display.c **** 
  63:frucd_display.c **** /* Left in non-generalized functions for future reference*/
  64:frucd_display.c **** 
  65:frucd_display.c **** 
  66:frucd_display.c **** /*
  67:frucd_display.c **** void disp_SOC(uint8_t data) {
  68:frucd_display.c ****     UG_FontSelect(&FONT_32X53);
  69:frucd_display.c ****     UG_COLOR color;
  70:frucd_display.c ****     if (data == 100) {
  71:frucd_display.c ****         // handle 100% case
  72:frucd_display.c ****         color = C_GREEN;
  73:frucd_display.c ****         if (color != last_SOC_color) {
  74:frucd_display.c ****             // only draw rectangle if color changed
  75:frucd_display.c ****             UG_FillFrame(30, 35, 210, 170, color);
  76:frucd_display.c ****             last_SOC_color = color;
  77:frucd_display.c ****         }
  78:frucd_display.c ****         UG_PutColorString(55, 80, "100%", C_BLACK, C_GREEN);
  79:frucd_display.c ****     } else {
  80:frucd_display.c ****         // handle other cases
ARM GAS  C:\Users\leoja\AppData\Local\Temp\ccM6wJLr.s 			page 7


  81:frucd_display.c ****         char data_s[4];
  82:frucd_display.c ****         sprintf(data_s, "%d", data);
  83:frucd_display.c ****         if (data >= 10) {
  84:frucd_display.c ****             // handle 2 digit cases
  85:frucd_display.c ****             // choose color
  86:frucd_display.c ****             if (data > 75) {
  87:frucd_display.c ****                 color = C_GREEN;
  88:frucd_display.c ****             } else if (data > 50) {
  89:frucd_display.c ****                 color = C_YELLOW;
  90:frucd_display.c ****             } else if (data > 25) {
  91:frucd_display.c ****                 color = C_ORANGE;
  92:frucd_display.c ****             } else {
  93:frucd_display.c ****                 color = C_RED;
  94:frucd_display.c ****             }
  95:frucd_display.c ****             data_s[2] = '%';
  96:frucd_display.c ****             data_s[3] = '\0';
  97:frucd_display.c ****             if (color != last_SOC_color) {
  98:frucd_display.c ****                 // only draw rectangle if color changed
  99:frucd_display.c ****                 UG_FillFrame(30, 35, 210, 170, color);
 100:frucd_display.c ****                 last_SOC_color = color;
 101:frucd_display.c ****             }
 102:frucd_display.c ****             UG_PutColorString(70, 80, data_s, C_BLACK, color);
 103:frucd_display.c ****         } else {
 104:frucd_display.c ****             // handle 1 digit cases
 105:frucd_display.c ****             data_s[1] = '%';
 106:frucd_display.c ****             data_s[2] = '\0';
 107:frucd_display.c ****             color = C_RED;
 108:frucd_display.c ****             
 109:frucd_display.c ****             
 110:frucd_display.c ****             
 111:frucd_display.c ****             
 112:frucd_display.c ****             //why is this here?
 113:frucd_display.c ****             UG_FillFrame(30, 35, 210, 170, C_BLACK);
 114:frucd_display.c ****             
 115:frucd_display.c ****             
 116:frucd_display.c ****             
 117:frucd_display.c ****             
 118:frucd_display.c ****             
 119:frucd_display.c ****             
 120:frucd_display.c ****             
 121:frucd_display.c ****             UG_FillFrame(30, 35, 210, 170, color);
 122:frucd_display.c ****             UG_PutColorString(90, 80, data_s, C_BLACK, color);
 123:frucd_display.c ****         }   
 124:frucd_display.c ****     }
 125:frucd_display.c ****     UG_FontSelect(&FONT_12X16);
 126:frucd_display.c **** }
 127:frucd_display.c **** 
 128:frucd_display.c **** 
 129:frucd_display.c **** */
 130:frucd_display.c **** 
 131:frucd_display.c **** 
 132:frucd_display.c **** // size is big if 1, small if not
 133:frucd_display.c **** void disp_SOC(uint16_t data, uint16_t x1, uint16_t y1, uint16_t x2, uint16_t y2, uint8_t size) {
 262              		.loc 1 133 0
 263              		.cfi_startproc
 264              		@ args = 8, pretend = 0, frame = 24
 265              		@ frame_needed = 0, uses_anonymous_args = 0
ARM GAS  C:\Users\leoja\AppData\Local\Temp\ccM6wJLr.s 			page 8


 266              	.LVL20:
 267 0000 F0B5     		push	{r4, r5, r6, r7, lr}
 268              		.cfi_def_cfa_offset 20
 269              		.cfi_offset 4, -20
 270              		.cfi_offset 5, -16
 271              		.cfi_offset 6, -12
 272              		.cfi_offset 7, -8
 273              		.cfi_offset 14, -4
 274 0002 89B0     		sub	sp, sp, #36
 275              		.cfi_def_cfa_offset 56
 276              		.loc 1 133 0
 277 0004 0293     		str	r3, [sp, #8]
 278 0006 0EAB     		add	r3, sp, #56
 279              	.LVL21:
 280 0008 1B88     		ldrh	r3, [r3]
 281              	.LVL22:
 282 000a 1600     		movs	r6, r2
 283 000c 0393     		str	r3, [sp, #12]
 284 000e 0FAB     		add	r3, sp, #60
 285              	.LVL23:
 286 0010 1F78     		ldrb	r7, [r3]
 134:frucd_display.c ****     int stringSize;
 135:frucd_display.c ****     int xFont, yFont;
 136:frucd_display.c ****     int horizFontSize = 12 + 20*size;
 287              		.loc 1 136 0
 288 0012 1423     		movs	r3, #20
 289              	.LVL24:
 290 0014 7B43     		muls	r3, r7
 133:frucd_display.c ****     int stringSize;
 291              		.loc 1 133 0
 292 0016 0400     		movs	r4, r0
 293 0018 0D00     		movs	r5, r1
 294              		.loc 1 136 0
 295 001a 0C33     		adds	r3, r3, #12
 296              	.LVL25:
 137:frucd_display.c ****     if (data >= 100) {
 138:frucd_display.c ****         stringSize = 4;
 297              		.loc 1 138 0
 298 001c 0422     		movs	r2, #4
 299              	.LVL26:
 137:frucd_display.c ****     if (data >= 100) {
 300              		.loc 1 137 0
 301 001e 6328     		cmp	r0, #99
 302 0020 04D8     		bhi	.L11
 139:frucd_display.c ****     }else if (data >= 10){
 140:frucd_display.c ****         stringSize = 3;
 141:frucd_display.c ****     }else{
 142:frucd_display.c ****         stringSize = 2;
 303              		.loc 1 142 0
 304 0022 0532     		adds	r2, r2, #5
 305 0024 8242     		cmp	r2, r0
 306 0026 9241     		sbcs	r2, r2, r2
 307 0028 5242     		rsbs	r2, r2, #0
 308 002a 0232     		adds	r2, r2, #2
 309              	.L11:
 310              	.LVL27:
 143:frucd_display.c ****     }
ARM GAS  C:\Users\leoja\AppData\Local\Temp\ccM6wJLr.s 			page 9


 144:frucd_display.c ****     
 145:frucd_display.c ****     xFont = (x1 + x2)/2 - ((horizFontSize*stringSize)/2);
 311              		.loc 1 145 0
 312 002c 5343     		muls	r3, r2
 313              	.LVL28:
 314 002e 0299     		ldr	r1, [sp, #8]
 315              	.LVL29:
 316 0030 5B10     		asrs	r3, r3, #1
 317 0032 6918     		adds	r1, r5, r1
 318 0034 4910     		asrs	r1, r1, #1
 319 0036 CB1A     		subs	r3, r1, r3
 146:frucd_display.c ****     yFont = (y1 + y2)/2 - 5 - (size*17);    
 320              		.loc 1 146 0
 321 0038 1121     		movs	r1, #17
 145:frucd_display.c ****     yFont = (y1 + y2)/2 - 5 - (size*17);    
 322              		.loc 1 145 0
 323 003a 0493     		str	r3, [sp, #16]
 324              	.LVL30:
 325              		.loc 1 146 0
 326 003c 4942     		rsbs	r1, r1, #0
 327 003e 039B     		ldr	r3, [sp, #12]
 328              	.LVL31:
 329 0040 7943     		muls	r1, r7
 330 0042 F318     		adds	r3, r6, r3
 331 0044 5B10     		asrs	r3, r3, #1
 332 0046 053B     		subs	r3, r3, #5
 333 0048 5B18     		adds	r3, r3, r1
 334 004a 0593     		str	r3, [sp, #20]
 335              	.LVL32:
 147:frucd_display.c ****     if(size == 1){
 336              		.loc 1 147 0
 337 004c 012F     		cmp	r7, #1
 338 004e 02D1     		bne	.L12
 148:frucd_display.c ****         UG_FontSelect(&FONT_32X53);
 339              		.loc 1 148 0
 340 0050 1D48     		ldr	r0, .L23
 341              	.LVL33:
 342 0052 FFF7FEFF 		bl	UG_FontSelect
 343              	.LVL34:
 344              	.L12:
 149:frucd_display.c ****        
 150:frucd_display.c ****     }
 151:frucd_display.c ****         
 152:frucd_display.c ****     UG_COLOR color;
 153:frucd_display.c ****     
 154:frucd_display.c ****     char data_s[5];
 155:frucd_display.c ****     sprintf(data_s, "%d%%", data);
 345              		.loc 1 155 0
 346 0056 2200     		movs	r2, r4
 347 0058 1C49     		ldr	r1, .L23+4
 348 005a 06A8     		add	r0, sp, #24
 349 005c FFF7FEFF 		bl	sprintf
 350              	.LVL35:
 156:frucd_display.c ****     
 157:frucd_display.c ****     if (data >= 100) {
 351              		.loc 1 157 0
 352 0060 632C     		cmp	r4, #99
ARM GAS  C:\Users\leoja\AppData\Local\Temp\ccM6wJLr.s 			page 10


 353 0062 09D8     		bhi	.L19
 158:frucd_display.c ****         // handle 100% case
 159:frucd_display.c ****         color = C_GREEN;
 160:frucd_display.c ****     } else {
 161:frucd_display.c ****         if (data >= 10) {
 354              		.loc 1 161 0
 355 0064 092C     		cmp	r4, #9
 356 0066 0CD9     		bls	.L21
 162:frucd_display.c ****             // handle 2 digit cases
 163:frucd_display.c ****             // choose color
 164:frucd_display.c ****             if (data > 75) {
 357              		.loc 1 164 0
 358 0068 4B2C     		cmp	r4, #75
 359 006a 05D8     		bhi	.L19
 165:frucd_display.c ****                 color = C_GREEN;
 166:frucd_display.c ****             } else if (data > 50) {
 360              		.loc 1 166 0
 361 006c 322C     		cmp	r4, #50
 362 006e 06D8     		bhi	.L20
 167:frucd_display.c ****                 color = C_YELLOW;
 168:frucd_display.c ****             } else if (data > 25) {
 363              		.loc 1 168 0
 364 0070 192C     		cmp	r4, #25
 365 0072 06D9     		bls	.L21
 169:frucd_display.c ****                 color = C_ORANGE;
 366              		.loc 1 169 0
 367 0074 164C     		ldr	r4, .L23+8
 368 0076 06E0     		b	.L13
 369              	.L19:
 159:frucd_display.c ****     } else {
 370              		.loc 1 159 0
 371 0078 FF24     		movs	r4, #255
 372 007a 2402     		lsls	r4, r4, #8
 373 007c 03E0     		b	.L13
 374              	.L20:
 167:frucd_display.c ****                 color = C_YELLOW;
 375              		.loc 1 167 0
 376 007e 154C     		ldr	r4, .L23+12
 377 0080 01E0     		b	.L13
 378              	.L21:
 170:frucd_display.c ****             } else {
 171:frucd_display.c ****                 color = C_RED;
 379              		.loc 1 171 0
 380 0082 FF24     		movs	r4, #255
 381 0084 2404     		lsls	r4, r4, #16
 382              	.L13:
 383              	.LVL36:
 172:frucd_display.c ****             }
 173:frucd_display.c ****         } else {
 174:frucd_display.c ****             color = C_RED;
 175:frucd_display.c ****             
 176:frucd_display.c ****         }   
 177:frucd_display.c ****     }
 178:frucd_display.c ****     if (color != last_SOC_color) {
 384              		.loc 1 178 0
 385 0086 144F     		ldr	r7, .L23+16
 386              	.LVL37:
ARM GAS  C:\Users\leoja\AppData\Local\Temp\ccM6wJLr.s 			page 11


 387 0088 3B68     		ldr	r3, [r7]
 388 008a 9C42     		cmp	r4, r3
 389 008c 0BD0     		beq	.L14
 179:frucd_display.c ****     // only draw rectangle if color changed
 180:frucd_display.c ****         UG_FillFrame(x1, y1, x2, y2, color);
 390              		.loc 1 180 0
 391 008e 6B46     		mov	r3, sp
 392 0090 0C22     		movs	r2, #12
 393 0092 9B5E     		ldrsh	r3, [r3, r2]
 394 0094 6A46     		mov	r2, sp
 395 0096 28B2     		sxth	r0, r5
 396 0098 0821     		movs	r1, #8
 397 009a 525E     		ldrsh	r2, [r2, r1]
 398 009c 31B2     		sxth	r1, r6
 399 009e 0094     		str	r4, [sp]
 400 00a0 FFF7FEFF 		bl	UG_FillFrame
 401              	.LVL38:
 181:frucd_display.c ****         last_SOC_color = color;
 402              		.loc 1 181 0
 403 00a4 3C60     		str	r4, [r7]
 404              	.L14:
 182:frucd_display.c ****     }
 183:frucd_display.c ****     UG_PutColorString(xFont, yFont, data_s, C_BLACK, color);
 405              		.loc 1 183 0
 406 00a6 6B46     		mov	r3, sp
 407 00a8 1421     		movs	r1, #20
 408 00aa 595E     		ldrsh	r1, [r3, r1]
 409 00ac 6B46     		mov	r3, sp
 410 00ae 06AA     		add	r2, sp, #24
 411 00b0 1020     		movs	r0, #16
 412 00b2 185E     		ldrsh	r0, [r3, r0]
 413 00b4 0023     		movs	r3, #0
 414 00b6 0094     		str	r4, [sp]
 415 00b8 FFF7FEFF 		bl	UG_PutColorString
 416              	.LVL39:
 184:frucd_display.c ****     
 185:frucd_display.c ****     UG_FontSelect(&FONT_12X16);
 417              		.loc 1 185 0
 418 00bc 0748     		ldr	r0, .L23+20
 419 00be FFF7FEFF 		bl	UG_FontSelect
 420              	.LVL40:
 186:frucd_display.c **** }
 421              		.loc 1 186 0
 422 00c2 09B0     		add	sp, sp, #36
 423              		@ sp needed
 424              	.LVL41:
 425 00c4 F0BD     		pop	{r4, r5, r6, r7, pc}
 426              	.L24:
 427 00c6 C046     		.align	2
 428              	.L23:
 429 00c8 00000000 		.word	FONT_32X53
 430 00cc 5B000000 		.word	.LC23
 431 00d0 00A5FF00 		.word	16753920
 432 00d4 00FFFF00 		.word	16776960
 433 00d8 00000000 		.word	last_SOC_color
 434 00dc 00000000 		.word	FONT_12X16
 435              		.cfi_endproc
ARM GAS  C:\Users\leoja\AppData\Local\Temp\ccM6wJLr.s 			page 12


 436              	.LFE38:
 437              		.size	disp_SOC, .-disp_SOC
 438              		.section	.text.disp_max_pack_temp,"ax",%progbits
 439              		.align	1
 440              		.global	disp_max_pack_temp
 441              		.code	16
 442              		.thumb_func
 443              		.type	disp_max_pack_temp, %function
 444              	disp_max_pack_temp:
 445              	.LFB39:
 187:frucd_display.c **** 
 188:frucd_display.c **** /*
 189:frucd_display.c **** 
 190:frucd_display.c **** void disp_max_pack_temp(uint8_t data) {
 191:frucd_display.c ****     // choose color
 192:frucd_display.c ****     UG_COLOR color;
 193:frucd_display.c ****     if (data < 45) {
 194:frucd_display.c ****         color = C_GREEN;
 195:frucd_display.c ****     } else if (data < 50) {
 196:frucd_display.c ****         color = C_YELLOW;
 197:frucd_display.c ****     } else if (data < 55) {
 198:frucd_display.c ****         color = C_ORANGE;
 199:frucd_display.c ****     } else {
 200:frucd_display.c ****         color = C_RED;
 201:frucd_display.c **** 
 202:frucd_display.c ****         UG_FillFrame(270, 35, 450, 170, C_BLACK);
 203:frucd_display.c ****         UG_FillFrame(270, 35, 450, 170, color);
 204:frucd_display.c ****         
 205:frucd_display.c ****     }
 206:frucd_display.c ****     
 207:frucd_display.c ****     if (color != last_max_pack_temp_color) {
 208:frucd_display.c ****         // only draw rectangle if color changed
 209:frucd_display.c ****         UG_FillFrame(270, 35, 450, 170, color);
 210:frucd_display.c ****         last_max_pack_temp_color = color;
 211:frucd_display.c ****     }
 212:frucd_display.c ****     UG_FontSelect(&FONT_32X53);
 213:frucd_display.c ****     char data_s[4];
 214:frucd_display.c ****     sprintf(data_s, "%d", data);
 215:frucd_display.c ****     data_s[2] = 'C';
 216:frucd_display.c ****     data_s[3] = '\0';
 217:frucd_display.c ****     UG_PutColorString(310, 80, data_s, C_BLACK, color);
 218:frucd_display.c ****     UG_FontSelect(&FONT_12X16);
 219:frucd_display.c **** }
 220:frucd_display.c **** 
 221:frucd_display.c **** */
 222:frucd_display.c **** 
 223:frucd_display.c **** 
 224:frucd_display.c **** void disp_max_pack_temp(uint8_t data, uint16_t x1, uint16_t y1, uint16_t x2, uint16_t y2, uint8_t s
 446              		.loc 1 224 0
 447              		.cfi_startproc
 448              		@ args = 8, pretend = 0, frame = 40
 449              		@ frame_needed = 0, uses_anonymous_args = 0
 450              	.LVL42:
 451 0000 F0B5     		push	{r4, r5, r6, r7, lr}
 452              		.cfi_def_cfa_offset 20
 453              		.cfi_offset 4, -20
 454              		.cfi_offset 5, -16
ARM GAS  C:\Users\leoja\AppData\Local\Temp\ccM6wJLr.s 			page 13


 455              		.cfi_offset 6, -12
 456              		.cfi_offset 7, -8
 457              		.cfi_offset 14, -4
 458 0002 8DB0     		sub	sp, sp, #52
 459              		.cfi_def_cfa_offset 72
 460              		.loc 1 224 0
 461 0004 0593     		str	r3, [sp, #20]
 462 0006 12AB     		add	r3, sp, #72
 463              	.LVL43:
 464 0008 1B88     		ldrh	r3, [r3]
 465              	.LVL44:
 466 000a 0492     		str	r2, [sp, #16]
 467 000c 0693     		str	r3, [sp, #24]
 468 000e 13AB     		add	r3, sp, #76
 469              	.LVL45:
 470 0010 1A78     		ldrb	r2, [r3]
 471              	.LVL46:
 225:frucd_display.c ****     int xFont, yFont;
 226:frucd_display.c ****     int horizFontSize = 12 + 20*size;
 227:frucd_display.c ****     int stringSize;
 228:frucd_display.c ****     stringSize = 3;
 229:frucd_display.c ****     xFont = (x1 + x2)/2 - ((horizFontSize*stringSize)/2);
 472              		.loc 1 229 0
 473 0012 1423     		movs	r3, #20
 474              	.LVL47:
 224:frucd_display.c ****     int xFont, yFont;
 475              		.loc 1 224 0
 476 0014 0391     		str	r1, [sp, #12]
 477              		.loc 1 229 0
 478 0016 0321     		movs	r1, #3
 479              	.LVL48:
 480 0018 5343     		muls	r3, r2
 481 001a 0C33     		adds	r3, r3, #12
 482              	.LVL49:
 483 001c 4B43     		muls	r3, r1
 484              	.LVL50:
 224:frucd_display.c ****     int xFont, yFont;
 485              		.loc 1 224 0
 486 001e 0290     		str	r0, [sp, #8]
 487              		.loc 1 229 0
 488 0020 0399     		ldr	r1, [sp, #12]
 489 0022 0598     		ldr	r0, [sp, #20]
 490              	.LVL51:
 491 0024 5B10     		asrs	r3, r3, #1
 492 0026 0818     		adds	r0, r1, r0
 493 0028 4010     		asrs	r0, r0, #1
 494 002a C31A     		subs	r3, r0, r3
 230:frucd_display.c ****     yFont = (y1 + y2)/2 - 5 - (size*17);    
 495              		.loc 1 230 0
 496 002c 0699     		ldr	r1, [sp, #24]
 229:frucd_display.c ****     yFont = (y1 + y2)/2 - 5 - (size*17);    
 497              		.loc 1 229 0
 498 002e 0893     		str	r3, [sp, #32]
 499              	.LVL52:
 500              		.loc 1 230 0
 501 0030 049B     		ldr	r3, [sp, #16]
 502              	.LVL53:
ARM GAS  C:\Users\leoja\AppData\Local\Temp\ccM6wJLr.s 			page 14


 503 0032 5B18     		adds	r3, r3, r1
 504 0034 1121     		movs	r1, #17
 505 0036 4942     		rsbs	r1, r1, #0
 506 0038 5143     		muls	r1, r2
 507 003a 5B10     		asrs	r3, r3, #1
 508 003c 053B     		subs	r3, r3, #5
 509 003e 5B18     		adds	r3, r3, r1
 510 0040 0993     		str	r3, [sp, #36]
 511              	.LVL54:
 231:frucd_display.c ****     if(size == 1){
 512              		.loc 1 231 0
 513 0042 012A     		cmp	r2, #1
 514 0044 02D1     		bne	.L26
 232:frucd_display.c ****         UG_FontSelect(&FONT_32X53);
 515              		.loc 1 232 0
 516 0046 2B48     		ldr	r0, .L32
 517 0048 FFF7FEFF 		bl	UG_FontSelect
 518              	.LVL55:
 519              	.L26:
 233:frucd_display.c ****     }
 234:frucd_display.c ****     
 235:frucd_display.c ****     // choose color
 236:frucd_display.c ****     UG_COLOR color;
 237:frucd_display.c ****     if (data < 45) {
 520              		.loc 1 237 0
 521 004c 029B     		ldr	r3, [sp, #8]
 522 004e 2C2B     		cmp	r3, #44
 523 0050 21D9     		bls	.L29
 238:frucd_display.c ****         color = C_GREEN;
 239:frucd_display.c ****     } else if (data < 50) {
 524              		.loc 1 239 0
 525 0052 312B     		cmp	r3, #49
 526 0054 22D9     		bls	.L30
 240:frucd_display.c ****         color = C_YELLOW;
 241:frucd_display.c ****     } else if (data < 55) {
 527              		.loc 1 241 0
 528 0056 362B     		cmp	r3, #54
 529 0058 22D9     		bls	.L31
 530              	.LVL56:
 242:frucd_display.c ****         color = C_ORANGE;
 243:frucd_display.c ****     } else {
 244:frucd_display.c ****         color = C_RED; 
 245:frucd_display.c ****         
 246:frucd_display.c ****         UG_FillFrame(x1, y1, x2, y2, C_BLACK);
 531              		.loc 1 246 0
 532 005a 6B46     		mov	r3, sp
 533 005c 0C25     		movs	r5, #12
 534 005e 5D5F     		ldrsh	r5, [r3, r5]
 535 0060 6B46     		mov	r3, sp
 536 0062 1026     		movs	r6, #16
 537 0064 9E5F     		ldrsh	r6, [r3, r6]
 538 0066 6B46     		mov	r3, sp
 539 0068 1427     		movs	r7, #20
 540 006a DF5F     		ldrsh	r7, [r3, r7]
 541 006c 6B46     		mov	r3, sp
 247:frucd_display.c ****         UG_FillFrame(x1, y1, x2, y2, color);
 542              		.loc 1 247 0
ARM GAS  C:\Users\leoja\AppData\Local\Temp\ccM6wJLr.s 			page 15


 543 006e FF24     		movs	r4, #255
 246:frucd_display.c ****         UG_FillFrame(x1, y1, x2, y2, color);
 544              		.loc 1 246 0
 545 0070 1822     		movs	r2, #24
 546 0072 9B5E     		ldrsh	r3, [r3, r2]
 547 0074 0022     		movs	r2, #0
 548 0076 3100     		movs	r1, r6
 549 0078 0092     		str	r2, [sp]
 550 007a 2800     		movs	r0, r5
 551 007c 3A00     		movs	r2, r7
 552              		.loc 1 247 0
 553 007e 2404     		lsls	r4, r4, #16
 246:frucd_display.c ****         UG_FillFrame(x1, y1, x2, y2, color);
 554              		.loc 1 246 0
 555 0080 0793     		str	r3, [sp, #28]
 556 0082 FFF7FEFF 		bl	UG_FillFrame
 557              	.LVL57:
 558              		.loc 1 247 0
 559 0086 0094     		str	r4, [sp]
 560 0088 079B     		ldr	r3, [sp, #28]
 561 008a 3A00     		movs	r2, r7
 562 008c 3100     		movs	r1, r6
 563 008e 2800     		movs	r0, r5
 564 0090 FFF7FEFF 		bl	UG_FillFrame
 565              	.LVL58:
 566 0094 05E0     		b	.L27
 567              	.LVL59:
 568              	.L29:
 238:frucd_display.c ****     } else if (data < 50) {
 569              		.loc 1 238 0
 570 0096 FF24     		movs	r4, #255
 571 0098 2402     		lsls	r4, r4, #8
 572 009a 02E0     		b	.L27
 573              	.L30:
 240:frucd_display.c ****     } else if (data < 55) {
 574              		.loc 1 240 0
 575 009c 164C     		ldr	r4, .L32+4
 576 009e 00E0     		b	.L27
 577              	.L31:
 242:frucd_display.c ****     } else {
 578              		.loc 1 242 0
 579 00a0 164C     		ldr	r4, .L32+8
 580              	.L27:
 581              	.LVL60:
 248:frucd_display.c ****     
 249:frucd_display.c ****     }
 250:frucd_display.c **** 
 251:frucd_display.c ****    
 252:frucd_display.c ****     
 253:frucd_display.c ****    
 254:frucd_display.c ****     if (color != last_max_pack_temp_color) {
 582              		.loc 1 254 0
 583 00a2 174D     		ldr	r5, .L32+12
 584 00a4 2B68     		ldr	r3, [r5]
 585 00a6 9C42     		cmp	r4, r3
 586 00a8 0FD0     		beq	.L28
 255:frucd_display.c ****         UG_FillFrame(x1, y1, x2, y2, color);
ARM GAS  C:\Users\leoja\AppData\Local\Temp\ccM6wJLr.s 			page 16


 587              		.loc 1 255 0
 588 00aa 6B46     		mov	r3, sp
 589 00ac 1822     		movs	r2, #24
 590 00ae 9B5E     		ldrsh	r3, [r3, r2]
 591 00b0 6A46     		mov	r2, sp
 592 00b2 1421     		movs	r1, #20
 593 00b4 525E     		ldrsh	r2, [r2, r1]
 594 00b6 6946     		mov	r1, sp
 595 00b8 1020     		movs	r0, #16
 596 00ba 095E     		ldrsh	r1, [r1, r0]
 597 00bc 6846     		mov	r0, sp
 598 00be 0C26     		movs	r6, #12
 599 00c0 805F     		ldrsh	r0, [r0, r6]
 600 00c2 0094     		str	r4, [sp]
 601 00c4 FFF7FEFF 		bl	UG_FillFrame
 602              	.LVL61:
 256:frucd_display.c ****         last_max_pack_temp_color = color;
 603              		.loc 1 256 0
 604 00c8 2C60     		str	r4, [r5]
 605              	.L28:
 257:frucd_display.c ****     }
 258:frucd_display.c **** 
 259:frucd_display.c ****     char data_s[4];
 260:frucd_display.c ****     sprintf(data_s, "%d C", data);
 606              		.loc 1 260 0
 607 00ca 029A     		ldr	r2, [sp, #8]
 608 00cc 0D49     		ldr	r1, .L32+16
 609 00ce 0BA8     		add	r0, sp, #44
 610 00d0 FFF7FEFF 		bl	sprintf
 611              	.LVL62:
 261:frucd_display.c ****    // data_s[2] = 'C';
 262:frucd_display.c ****     //data_s[3] = '\0';
 263:frucd_display.c ****     UG_PutColorString(xFont, yFont, data_s, C_BLACK, color);
 612              		.loc 1 263 0
 613 00d4 6B46     		mov	r3, sp
 614 00d6 2421     		movs	r1, #36
 615 00d8 595E     		ldrsh	r1, [r3, r1]
 616 00da 6B46     		mov	r3, sp
 617 00dc 0BAA     		add	r2, sp, #44
 618 00de 2020     		movs	r0, #32
 619 00e0 185E     		ldrsh	r0, [r3, r0]
 620 00e2 0023     		movs	r3, #0
 621 00e4 0094     		str	r4, [sp]
 622 00e6 FFF7FEFF 		bl	UG_PutColorString
 623              	.LVL63:
 264:frucd_display.c ****     UG_FontSelect(&FONT_12X16);
 624              		.loc 1 264 0
 625 00ea 0748     		ldr	r0, .L32+20
 626 00ec FFF7FEFF 		bl	UG_FontSelect
 627              	.LVL64:
 265:frucd_display.c **** }
 628              		.loc 1 265 0
 629 00f0 0DB0     		add	sp, sp, #52
 630              		@ sp needed
 631              	.LVL65:
 632 00f2 F0BD     		pop	{r4, r5, r6, r7, pc}
 633              	.L33:
ARM GAS  C:\Users\leoja\AppData\Local\Temp\ccM6wJLr.s 			page 17


 634              		.align	2
 635              	.L32:
 636 00f4 00000000 		.word	FONT_32X53
 637 00f8 00FFFF00 		.word	16776960
 638 00fc 00A5FF00 		.word	16753920
 639 0100 00000000 		.word	last_max_pack_temp_color
 640 0104 60000000 		.word	.LC29
 641 0108 00000000 		.word	FONT_12X16
 642              		.cfi_endproc
 643              	.LFE39:
 644              		.size	disp_max_pack_temp, .-disp_max_pack_temp
 645              		.section	.text.disp_state,"ax",%progbits
 646              		.align	1
 647              		.global	disp_state
 648              		.code	16
 649              		.thumb_func
 650              		.type	disp_state, %function
 651              	disp_state:
 652              	.LFB40:
 266:frucd_display.c **** 
 267:frucd_display.c **** 
 268:frucd_display.c **** /*
 269:frucd_display.c **** 
 270:frucd_display.c **** void disp_state(uint8_t state) { // TODO
 271:frucd_display.c ****     UG_COLOR color;
 272:frucd_display.c ****     // check fault bit
 273:frucd_display.c ****     if (state & 0x80) {
 274:frucd_display.c ****         // *************** FAULTS ***************
 275:frucd_display.c ****         uint8 fault = state & 0x7f; // mask off fault bit
 276:frucd_display.c ****         switch(fault) {
 277:frucd_display.c ****             case NONE: // STARTUP (effectively)
 278:frucd_display.c ****                 // not obtainable via CAN
 279:frucd_display.c ****                 // would only show when hardcoded on startup
 280:frucd_display.c ****                 color = C_YELLOW;
 281:frucd_display.c ****                 if (color != last_state_color) {
 282:frucd_display.c ****                     // only draw rectangle if color changed
 283:frucd_display.c ****                     UG_FillFrame(95, 185, 240, 215, color);
 284:frucd_display.c ****                     last_state_color = color;
 285:frucd_display.c ****                 }
 286:frucd_display.c ****                 UG_PutColorString(100, 195, " STARTUP  ", C_BLACK, color);
 287:frucd_display.c ****                 break;
 288:frucd_display.c ****             case DRIVE_REQUEST_FROM_LV:
 289:frucd_display.c ****                 color = C_RED;
 290:frucd_display.c ****                 if (color != last_state_color) {
 291:frucd_display.c ****                     // only draw rectangle if color changed
 292:frucd_display.c ****                     UG_FillFrame(95, 185, 240, 215, color);
 293:frucd_display.c ****                     last_state_color = color;
 294:frucd_display.c ****                 }
 295:frucd_display.c ****                 UG_PutColorString(100, 195, "DRV FRM LV", C_BLACK, color);
 296:frucd_display.c ****                 break;
 297:frucd_display.c ****             case CONSERVATIVE_TIMER_MAXED:
 298:frucd_display.c ****                 color = C_RED;
 299:frucd_display.c ****                 if (color != last_state_color) {
 300:frucd_display.c ****                     // only draw rectangle if color changed
 301:frucd_display.c ****                     UG_FillFrame(95, 185, 240, 215, color);
 302:frucd_display.c ****                     last_state_color = color;
 303:frucd_display.c ****                 }
ARM GAS  C:\Users\leoja\AppData\Local\Temp\ccM6wJLr.s 			page 18


 304:frucd_display.c ****                 UG_PutColorString(100, 195, "PRE TM OUT", C_BLACK, color);
 305:frucd_display.c ****                 break;
 306:frucd_display.c ****             case BRAKE_NOT_PRESSED:
 307:frucd_display.c ****                 color = C_RED;
 308:frucd_display.c ****                 if (color != last_state_color) {
 309:frucd_display.c ****                     // only draw rectangle if color changed
 310:frucd_display.c ****                     UG_FillFrame(95, 185, 240, 215, color);
 311:frucd_display.c ****                     last_state_color = color;
 312:frucd_display.c ****                 }
 313:frucd_display.c ****                 UG_PutColorString(100, 195, "BR NOT PRS", C_BLACK, color);
 314:frucd_display.c ****                 break;
 315:frucd_display.c ****             case HV_DISABLED_WHILE_DRIVING:
 316:frucd_display.c ****                 color = C_RED;
 317:frucd_display.c ****                 if (color != last_state_color) {
 318:frucd_display.c ****                     // only draw rectangle if color changed
 319:frucd_display.c ****                     UG_FillFrame(95, 185, 240, 215, color);
 320:frucd_display.c ****                     last_state_color = color;
 321:frucd_display.c ****                 }
 322:frucd_display.c ****                 UG_PutColorString(100, 195, "HV OFF DRV", C_BLACK, color);
 323:frucd_display.c ****                 break;
 324:frucd_display.c ****             case SENSOR_DISCREPANCY:
 325:frucd_display.c ****                 color = C_RED;
 326:frucd_display.c ****                 if (color != last_state_color) {
 327:frucd_display.c ****                     // only draw rectangle if color changed
 328:frucd_display.c ****                     UG_FillFrame(95, 185, 240, 215, color);
 329:frucd_display.c ****                     last_state_color = color;
 330:frucd_display.c ****                 }
 331:frucd_display.c ****                 UG_PutColorString(100, 195, "SNSR DSCRP", C_BLACK, color);
 332:frucd_display.c ****                 break;
 333:frucd_display.c ****             case BRAKE_IMPLAUSIBLE:
 334:frucd_display.c ****                 color = C_YELLOW;
 335:frucd_display.c ****                 if (color != last_state_color) {
 336:frucd_display.c ****                     // only draw rectangle if color changed
 337:frucd_display.c ****                     UG_FillFrame(95, 185, 240, 215, color);
 338:frucd_display.c ****                     last_state_color = color;
 339:frucd_display.c ****                 }
 340:frucd_display.c ****                 UG_PutColorString(100, 195, "BSPD TRIPD", C_BLACK, color); //whitespace to clear
 341:frucd_display.c ****                 break;
 342:frucd_display.c ****             case ESTOP:
 343:frucd_display.c ****                 color = C_RED;
 344:frucd_display.c ****                 if (color != last_state_color) {
 345:frucd_display.c ****                     // only draw rectangle if color changed
 346:frucd_display.c ****                     UG_FillFrame(95, 185, 240, 215, color);
 347:frucd_display.c ****                     last_state_color = color;
 348:frucd_display.c ****                 }
 349:frucd_display.c ****                 UG_PutColorString(100, 195, "SHTDWN OPN", C_BLACK, color); //whitespace to clear
 350:frucd_display.c ****                 break;
 351:frucd_display.c ****         }
 352:frucd_display.c ****         
 353:frucd_display.c ****     } else {
 354:frucd_display.c ****         // *************** NO FAULTS ***************
 355:frucd_display.c ****         color = C_GREEN;
 356:frucd_display.c ****         if (color != last_state_color) {
 357:frucd_display.c ****             // only draw rectangle if color changed
 358:frucd_display.c ****             UG_FillFrame(95, 185, 240, 215, color);
 359:frucd_display.c ****             last_state_color = color;
 360:frucd_display.c ****         }
ARM GAS  C:\Users\leoja\AppData\Local\Temp\ccM6wJLr.s 			page 19


 361:frucd_display.c ****         switch(state) {
 362:frucd_display.c ****             case LV:
 363:frucd_display.c ****                 UG_PutColorString(100, 195, "    LV    ", C_BLACK, color);
 364:frucd_display.c ****                 break;
 365:frucd_display.c ****             case PRECHARGING:
 366:frucd_display.c ****                 UG_PutColorString(100, 195, "PRECHARGE ", C_BLACK, color);
 367:frucd_display.c ****                 break;
 368:frucd_display.c ****             case HV_ENABLED:
 369:frucd_display.c ****                 UG_PutColorString(100, 195, "HV ENABLED", C_BLACK, color);
 370:frucd_display.c ****                 break;
 371:frucd_display.c ****             case DRIVE:
 372:frucd_display.c ****                 UG_PutColorString(100, 195, "  DRIVE   ", C_BLACK, color);
 373:frucd_display.c ****                 break;
 374:frucd_display.c ****         }
 375:frucd_display.c ****     }
 376:frucd_display.c **** }
 377:frucd_display.c **** 
 378:frucd_display.c **** 
 379:frucd_display.c **** */
 380:frucd_display.c **** 
 381:frucd_display.c **** 
 382:frucd_display.c **** void disp_state(uint8_t state, uint16_t x1, uint16_t y1, uint16_t x2, uint16_t y2, uint8_t size) { 
 653              		.loc 1 382 0
 654              		.cfi_startproc
 655              		@ args = 8, pretend = 0, frame = 24
 656              		@ frame_needed = 0, uses_anonymous_args = 0
 657              	.LVL66:
 658 0000 F0B5     		push	{r4, r5, r6, r7, lr}
 659              		.cfi_def_cfa_offset 20
 660              		.cfi_offset 4, -20
 661              		.cfi_offset 5, -16
 662              		.cfi_offset 6, -12
 663              		.cfi_offset 7, -8
 664              		.cfi_offset 14, -4
 665 0002 89B0     		sub	sp, sp, #36
 666              		.cfi_def_cfa_offset 56
 667              		.loc 1 382 0
 668 0004 0593     		str	r3, [sp, #20]
 669 0006 0EAB     		add	r3, sp, #56
 670              	.LVL67:
 671 0008 1C88     		ldrh	r4, [r3]
 672 000a 0FAB     		add	r3, sp, #60
 673              	.LVL68:
 674 000c 0492     		str	r2, [sp, #16]
 675 000e 1A78     		ldrb	r2, [r3]
 676              	.LVL69:
 383:frucd_display.c ****     int xFont, yFont;
 384:frucd_display.c ****     int horizFontSize = 12 + 20*size;
 385:frucd_display.c ****     int stringSize;
 386:frucd_display.c ****     stringSize = 10;
 387:frucd_display.c ****     xFont = (x1 + x2)/2 - ((horizFontSize*stringSize)/2);
 677              		.loc 1 387 0
 678 0010 1423     		movs	r3, #20
 679              	.LVL70:
 382:frucd_display.c ****     int xFont, yFont;
 680              		.loc 1 382 0
 681 0012 0391     		str	r1, [sp, #12]
ARM GAS  C:\Users\leoja\AppData\Local\Temp\ccM6wJLr.s 			page 20


 682              		.loc 1 387 0
 683 0014 0A21     		movs	r1, #10
 684              	.LVL71:
 388:frucd_display.c ****     yFont = (y1 + y2)/2 - 5 - (size*17);    
 685              		.loc 1 388 0
 686 0016 1127     		movs	r7, #17
 387:frucd_display.c ****     yFont = (y1 + y2)/2 - 5 - (size*17);    
 687              		.loc 1 387 0
 688 0018 5343     		muls	r3, r2
 689 001a 0C33     		adds	r3, r3, #12
 690              	.LVL72:
 691 001c 4B43     		muls	r3, r1
 692              	.LVL73:
 382:frucd_display.c ****     int xFont, yFont;
 693              		.loc 1 382 0
 694 001e 0600     		movs	r6, r0
 387:frucd_display.c ****     yFont = (y1 + y2)/2 - 5 - (size*17);    
 695              		.loc 1 387 0
 696 0020 0399     		ldr	r1, [sp, #12]
 697 0022 0598     		ldr	r0, [sp, #20]
 698              	.LVL74:
 699 0024 5B10     		asrs	r3, r3, #1
 700 0026 0918     		adds	r1, r1, r0
 701 0028 4910     		asrs	r1, r1, #1
 702 002a CB1A     		subs	r3, r1, r3
 703 002c 0693     		str	r3, [sp, #24]
 704              	.LVL75:
 705              		.loc 1 388 0
 706 002e 7F42     		rsbs	r7, r7, #0
 707 0030 049B     		ldr	r3, [sp, #16]
 708              	.LVL76:
 709 0032 5743     		muls	r7, r2
 710 0034 1B19     		adds	r3, r3, r4
 711 0036 5B10     		asrs	r3, r3, #1
 712 0038 053B     		subs	r3, r3, #5
 713 003a DB19     		adds	r3, r3, r7
 714 003c 0793     		str	r3, [sp, #28]
 715              	.LVL77:
 389:frucd_display.c ****     if(size == 1){
 716              		.loc 1 389 0
 717 003e 012A     		cmp	r2, #1
 718 0040 02D1     		bne	.L35
 390:frucd_display.c ****         UG_FontSelect(&FONT_32X53);
 719              		.loc 1 390 0
 720 0042 C448     		ldr	r0, .L71
 721 0044 FFF7FEFF 		bl	UG_FontSelect
 722              	.LVL78:
 723              	.L35:
 391:frucd_display.c ****         
 392:frucd_display.c ****     }
 393:frucd_display.c ****     UG_COLOR color;
 394:frucd_display.c ****     // check fault bit
 395:frucd_display.c ****     if (state & 0x80) {
 724              		.loc 1 395 0
 725 0048 73B2     		sxtb	r3, r6
 726 004a C34D     		ldr	r5, .L71+4
 727 004c 002B     		cmp	r3, #0
ARM GAS  C:\Users\leoja\AppData\Local\Temp\ccM6wJLr.s 			page 21


 728 004e 00DB     		blt	.LCB642
 729 0050 4CE1     		b	.L36	@long jump
 730              	.LCB642:
 731              	.LVL79:
 732 0052 6B46     		mov	r3, sp
 733              	.LBB2:
 396:frucd_display.c ****         // *************** FAULTS ***************
 397:frucd_display.c ****         uint8 fault = state & 0x7f; // mask off fault bit
 398:frucd_display.c ****         switch(fault) {
 734              		.loc 1 398 0
 735 0054 7F20     		movs	r0, #127
 736 0056 1C27     		movs	r7, #28
 737 0058 DF5F     		ldrsh	r7, [r3, r7]
 738 005a 6B46     		mov	r3, sp
 739 005c 3040     		ands	r0, r6
 740 005e 1826     		movs	r6, #24
 741 0060 9E5F     		ldrsh	r6, [r3, r6]
 742              	.LVL80:
 399:frucd_display.c ****             case NONE: // STARTUP (effectively)
 400:frucd_display.c ****                 // not obtainable via CAN
 401:frucd_display.c ****                 // would only show when hardcoded on startup
 402:frucd_display.c ****                 color = C_YELLOW;
 403:frucd_display.c ****                 if (color != last_state_color) {
 404:frucd_display.c ****                     // only draw rectangle if color changed
 405:frucd_display.c ****                     UG_FillFrame(x1, y1, x2, y2, color);
 406:frucd_display.c ****                     last_state_color = color;
 407:frucd_display.c ****                 }
 408:frucd_display.c ****                 UG_PutColorString(xFont, yFont, " STARTUP  ", C_BLACK, color);
 409:frucd_display.c ****                 break;
 410:frucd_display.c ****             case DRIVE_REQUEST_FROM_LV:
 411:frucd_display.c ****                 color = C_RED;
 412:frucd_display.c ****                 if (color != last_state_color) {
 413:frucd_display.c ****                     // only draw rectangle if color changed
 414:frucd_display.c ****                     UG_FillFrame(x1, y1, x2, y2, color);
 415:frucd_display.c ****                     last_state_color = color;
 416:frucd_display.c ****                 }
 417:frucd_display.c ****                 UG_PutColorString(xFont, yFont, "DRV FRM LV", C_BLACK, color);
 418:frucd_display.c ****                 break;
 419:frucd_display.c ****             case CONSERVATIVE_TIMER_MAXED:
 420:frucd_display.c ****                 color = C_RED;
 421:frucd_display.c ****                 if (color != last_state_color) {
 422:frucd_display.c ****                     // only draw rectangle if color changed
 423:frucd_display.c ****                     UG_FillFrame(x1, y1, x2, y2, color);
 424:frucd_display.c ****                     last_state_color = color;
 425:frucd_display.c ****                 }
 426:frucd_display.c ****                 UG_PutColorString(xFont, yFont, "PRE TM OUT", C_BLACK, color);
 427:frucd_display.c ****                 break;
 428:frucd_display.c ****             case BRAKE_NOT_PRESSED:
 429:frucd_display.c ****                 color = C_RED;
 430:frucd_display.c ****                 if (color != last_state_color) {
 431:frucd_display.c ****                     // only draw rectangle if color changed
 432:frucd_display.c ****                     UG_FillFrame(x1, y1, x2, y2, color);
 433:frucd_display.c ****                     last_state_color = color;
 434:frucd_display.c ****                 }
 435:frucd_display.c ****                 UG_PutColorString(xFont, yFont, "BR NOT PRS", C_BLACK, color);
 436:frucd_display.c ****                 break;
 437:frucd_display.c ****             case HV_DISABLED_WHILE_DRIVING:
ARM GAS  C:\Users\leoja\AppData\Local\Temp\ccM6wJLr.s 			page 22


 438:frucd_display.c ****                 color = C_RED;
 439:frucd_display.c ****                 if (color != last_state_color) {
 440:frucd_display.c ****                     // only draw rectangle if color changed
 441:frucd_display.c ****                     UG_FillFrame(x1, y1, x2, y2, color);
 442:frucd_display.c ****                     last_state_color = color;
 443:frucd_display.c ****                 }
 444:frucd_display.c ****                 UG_PutColorString(xFont, yFont, "HV OFF DRV", C_BLACK, color);
 445:frucd_display.c ****                 break;
 446:frucd_display.c ****             case SENSOR_DISCREPANCY:
 447:frucd_display.c ****                 color = C_RED;
 448:frucd_display.c ****                 if (color != last_state_color) {
 449:frucd_display.c ****                     // only draw rectangle if color changed
 450:frucd_display.c ****                     UG_FillFrame(x1, y1, x2, y2, color);
 451:frucd_display.c ****                     last_state_color = color;
 452:frucd_display.c ****                 }
 453:frucd_display.c ****                 UG_PutColorString(xFont, yFont, "SNSR DSCRP", C_BLACK, color);
 454:frucd_display.c ****                 break;
 455:frucd_display.c ****             case BRAKE_IMPLAUSIBLE:
 456:frucd_display.c ****                 color = C_YELLOW;
 457:frucd_display.c ****                 if (color != last_state_color) {
 458:frucd_display.c ****                     // only draw rectangle if color changed
 459:frucd_display.c ****                     UG_FillFrame(x1, y1, x2, y2, color);
 460:frucd_display.c ****                     last_state_color = color;
 461:frucd_display.c ****                 }
 462:frucd_display.c ****                 UG_PutColorString(xFont, yFont, "BSPD TRIPD", C_BLACK, color); //whitespace to clea
 463:frucd_display.c ****                 break;
 464:frucd_display.c ****             case SHUTDOWN_CIRCUIT_OPEN:
 465:frucd_display.c ****                 color = C_RED;
 466:frucd_display.c ****                 if (color != last_state_color) {
 467:frucd_display.c ****                     // only draw rectangle if color changed
 468:frucd_display.c ****                     UG_FillFrame(x1, y1, x2, y2, color);
 469:frucd_display.c ****                     last_state_color = color;
 470:frucd_display.c ****                 }
 471:frucd_display.c ****                 UG_PutColorString(xFont, yFont, "SHTDWN OPN", C_BLACK, color); //whitespace to clea
 472:frucd_display.c ****                 break;
 473:frucd_display.c ****             case UNCALIBRATED:
 474:frucd_display.c ****                 color = C_RED;
 475:frucd_display.c ****                 if (color != last_state_color) {
 476:frucd_display.c ****                     // only draw rectangle if color changed
 477:frucd_display.c ****                     UG_FillFrame(x1, y1, x2, y2, color);
 478:frucd_display.c ****                     last_state_color = color;
 479:frucd_display.c ****                 }
 480:frucd_display.c ****                 UG_PutColorString(xFont, yFont, "UNCALIBRTD", C_BLACK, color); //whitespace to clea
 481:frucd_display.c ****                 break;
 482:frucd_display.c ****             case HARD_BSPD:
 483:frucd_display.c ****                 color = C_RED;
 484:frucd_display.c ****                 if (color != last_state_color) {
 485:frucd_display.c ****                     // only draw rectangle if color changed
 486:frucd_display.c ****                     UG_FillFrame(x1, y1, x2, y2, color);
 487:frucd_display.c ****                     last_state_color = color;
 488:frucd_display.c ****                 }
 489:frucd_display.c ****                 UG_PutColorString(xFont, yFont, "HARD BSPD", C_BLACK, color); //whitespace to clear
 490:frucd_display.c ****                 break;
 491:frucd_display.c ****             case MC_FAULT:
 492:frucd_display.c ****                 color = C_RED;
 493:frucd_display.c ****                 if (color != last_state_color) {
 494:frucd_display.c ****                     // only draw rectangle if color changed
ARM GAS  C:\Users\leoja\AppData\Local\Temp\ccM6wJLr.s 			page 23


 495:frucd_display.c ****                     UG_FillFrame(x1, y1, x2, y2, color);
 496:frucd_display.c ****                     last_state_color = color;
 497:frucd_display.c ****                 }
 498:frucd_display.c ****                 UG_PutColorString(xFont, yFont, "MC FAULT", C_BLACK, color); //whitespace to clear
 499:frucd_display.c ****                 break;
 500:frucd_display.c ****             default:
 501:frucd_display.c ****                 color = C_RED;
 502:frucd_display.c ****                 if (color != last_state_color) {
 743              		.loc 1 502 0
 744 0062 2B68     		ldr	r3, [r5]
 745 0064 1A00     		movs	r2, r3
 398:frucd_display.c ****             case NONE: // STARTUP (effectively)
 746              		.loc 1 398 0
 747 0066 0A28     		cmp	r0, #10
 748 0068 00D9     		bls	.LCB656
 749 006a 25E1     		b	.L37	@long jump
 750              	.LCB656:
 751 006c FFF7FEFF 		bl	__gnu_thumb1_case_uhi
 752              	.L39:
 753 0070 0B00     		.2byte	(.L38-.L39)/2
 754 0072 2200     		.2byte	(.L40-.L39)/2
 755 0074 3C00     		.2byte	(.L41-.L39)/2
 756 0076 5700     		.2byte	(.L42-.L39)/2
 757 0078 7100     		.2byte	(.L43-.L39)/2
 758 007a 8B00     		.2byte	(.L44-.L39)/2
 759 007c A500     		.2byte	(.L45-.L39)/2
 760 007e BC00     		.2byte	(.L46-.L39)/2
 761 0080 D600     		.2byte	(.L47-.L39)/2
 762 0082 F000     		.2byte	(.L48-.L39)/2
 763 0084 0A01     		.2byte	(.L49-.L39)/2
 764              		.p2align 1
 765              	.L38:
 766              	.LVL81:
 403:frucd_display.c ****                     // only draw rectangle if color changed
 767              		.loc 1 403 0
 768 0086 B54B     		ldr	r3, .L71+8
 769 0088 9A42     		cmp	r2, r3
 770 008a 0ED0     		beq	.L50
 405:frucd_display.c ****                     last_state_color = color;
 771              		.loc 1 405 0
 772 008c 6A46     		mov	r2, sp
 773 008e 1421     		movs	r1, #20
 774 0090 525E     		ldrsh	r2, [r2, r1]
 775 0092 6946     		mov	r1, sp
 776 0094 1020     		movs	r0, #16
 777 0096 095E     		ldrsh	r1, [r1, r0]
 778 0098 6846     		mov	r0, sp
 779 009a 23B2     		sxth	r3, r4
 780 009c 0C24     		movs	r4, #12
 781 009e 005F     		ldrsh	r0, [r0, r4]
 782 00a0 AE4C     		ldr	r4, .L71+8
 783 00a2 0094     		str	r4, [sp]
 784 00a4 FFF7FEFF 		bl	UG_FillFrame
 785              	.LVL82:
 406:frucd_display.c ****                 }
 786              		.loc 1 406 0
 787 00a8 2C60     		str	r4, [r5]
ARM GAS  C:\Users\leoja\AppData\Local\Temp\ccM6wJLr.s 			page 24


 788              	.L50:
 408:frucd_display.c ****                 break;
 789              		.loc 1 408 0
 790 00aa AC4B     		ldr	r3, .L71+8
 791 00ac AC4A     		ldr	r2, .L71+12
 792 00ae 0093     		str	r3, [sp]
 793 00b0 0023     		movs	r3, #0
 794 00b2 32E0     		b	.L70
 795              	.LVL83:
 796              	.L40:
 412:frucd_display.c ****                     // only draw rectangle if color changed
 797              		.loc 1 412 0
 798 00b4 FF23     		movs	r3, #255
 799 00b6 1B04     		lsls	r3, r3, #16
 800 00b8 9A42     		cmp	r2, r3
 801 00ba 0FD0     		beq	.L52
 414:frucd_display.c ****                     last_state_color = color;
 802              		.loc 1 414 0
 803 00bc 6A46     		mov	r2, sp
 804 00be 1421     		movs	r1, #20
 805 00c0 525E     		ldrsh	r2, [r2, r1]
 806 00c2 6946     		mov	r1, sp
 807 00c4 1020     		movs	r0, #16
 808 00c6 095E     		ldrsh	r1, [r1, r0]
 809 00c8 6846     		mov	r0, sp
 810 00ca 23B2     		sxth	r3, r4
 811 00cc 0C24     		movs	r4, #12
 812 00ce 005F     		ldrsh	r0, [r0, r4]
 813 00d0 FF24     		movs	r4, #255
 814 00d2 2404     		lsls	r4, r4, #16
 815 00d4 0094     		str	r4, [sp]
 816 00d6 FFF7FEFF 		bl	UG_FillFrame
 817              	.LVL84:
 415:frucd_display.c ****                 }
 818              		.loc 1 415 0
 819 00da 2C60     		str	r4, [r5]
 820              	.L52:
 417:frucd_display.c ****                 break;
 821              		.loc 1 417 0
 822 00dc FF23     		movs	r3, #255
 823 00de 1B04     		lsls	r3, r3, #16
 824 00e0 0093     		str	r3, [sp]
 825 00e2 A04A     		ldr	r2, .L71+16
 826 00e4 0023     		movs	r3, #0
 827 00e6 18E0     		b	.L70
 828              	.LVL85:
 829              	.L41:
 421:frucd_display.c ****                     // only draw rectangle if color changed
 830              		.loc 1 421 0
 831 00e8 FF23     		movs	r3, #255
 832 00ea 1B04     		lsls	r3, r3, #16
 833 00ec 9A42     		cmp	r2, r3
 834 00ee 0FD0     		beq	.L53
 423:frucd_display.c ****                     last_state_color = color;
 835              		.loc 1 423 0
 836 00f0 6A46     		mov	r2, sp
 837 00f2 1421     		movs	r1, #20
ARM GAS  C:\Users\leoja\AppData\Local\Temp\ccM6wJLr.s 			page 25


 838 00f4 525E     		ldrsh	r2, [r2, r1]
 839 00f6 6946     		mov	r1, sp
 840 00f8 1020     		movs	r0, #16
 841 00fa 095E     		ldrsh	r1, [r1, r0]
 842 00fc 6846     		mov	r0, sp
 843 00fe 23B2     		sxth	r3, r4
 844 0100 0C24     		movs	r4, #12
 845 0102 005F     		ldrsh	r0, [r0, r4]
 846 0104 FF24     		movs	r4, #255
 847 0106 2404     		lsls	r4, r4, #16
 848 0108 0094     		str	r4, [sp]
 849 010a FFF7FEFF 		bl	UG_FillFrame
 850              	.LVL86:
 424:frucd_display.c ****                 }
 851              		.loc 1 424 0
 852 010e 2C60     		str	r4, [r5]
 853              	.L53:
 426:frucd_display.c ****                 break;
 854              		.loc 1 426 0
 855 0110 FF23     		movs	r3, #255
 856 0112 1B04     		lsls	r3, r3, #16
 857 0114 0093     		str	r3, [sp]
 858 0116 0023     		movs	r3, #0
 859 0118 934A     		ldr	r2, .L71+20
 860              	.LVL87:
 861              	.L70:
 862 011a 3900     		movs	r1, r7
 863 011c 11E1     		b	.L69
 864              	.L42:
 865              	.LVL88:
 430:frucd_display.c ****                     // only draw rectangle if color changed
 866              		.loc 1 430 0
 867 011e FF23     		movs	r3, #255
 868 0120 1B04     		lsls	r3, r3, #16
 869 0122 9A42     		cmp	r2, r3
 870 0124 0FD0     		beq	.L54
 432:frucd_display.c ****                     last_state_color = color;
 871              		.loc 1 432 0
 872 0126 6A46     		mov	r2, sp
 873 0128 1421     		movs	r1, #20
 874 012a 525E     		ldrsh	r2, [r2, r1]
 875 012c 6946     		mov	r1, sp
 876 012e 1020     		movs	r0, #16
 877 0130 095E     		ldrsh	r1, [r1, r0]
 878 0132 6846     		mov	r0, sp
 879 0134 23B2     		sxth	r3, r4
 880 0136 0C24     		movs	r4, #12
 881 0138 005F     		ldrsh	r0, [r0, r4]
 882 013a FF24     		movs	r4, #255
 883 013c 2404     		lsls	r4, r4, #16
 884 013e 0094     		str	r4, [sp]
 885 0140 FFF7FEFF 		bl	UG_FillFrame
 886              	.LVL89:
 433:frucd_display.c ****                 }
 887              		.loc 1 433 0
 888 0144 2C60     		str	r4, [r5]
 889              	.L54:
ARM GAS  C:\Users\leoja\AppData\Local\Temp\ccM6wJLr.s 			page 26


 435:frucd_display.c ****                 break;
 890              		.loc 1 435 0
 891 0146 FF23     		movs	r3, #255
 892 0148 1B04     		lsls	r3, r3, #16
 893 014a 0093     		str	r3, [sp]
 894 014c 874A     		ldr	r2, .L71+24
 895 014e 0023     		movs	r3, #0
 896 0150 E3E7     		b	.L70
 897              	.LVL90:
 898              	.L43:
 439:frucd_display.c ****                     // only draw rectangle if color changed
 899              		.loc 1 439 0
 900 0152 FF23     		movs	r3, #255
 901 0154 1B04     		lsls	r3, r3, #16
 902 0156 9A42     		cmp	r2, r3
 903 0158 0FD0     		beq	.L55
 441:frucd_display.c ****                     last_state_color = color;
 904              		.loc 1 441 0
 905 015a 6A46     		mov	r2, sp
 906 015c 1421     		movs	r1, #20
 907 015e 525E     		ldrsh	r2, [r2, r1]
 908 0160 6946     		mov	r1, sp
 909 0162 1020     		movs	r0, #16
 910 0164 095E     		ldrsh	r1, [r1, r0]
 911 0166 6846     		mov	r0, sp
 912 0168 23B2     		sxth	r3, r4
 913 016a 0C24     		movs	r4, #12
 914 016c 005F     		ldrsh	r0, [r0, r4]
 915 016e FF24     		movs	r4, #255
 916 0170 2404     		lsls	r4, r4, #16
 917 0172 0094     		str	r4, [sp]
 918 0174 FFF7FEFF 		bl	UG_FillFrame
 919              	.LVL91:
 442:frucd_display.c ****                 }
 920              		.loc 1 442 0
 921 0178 2C60     		str	r4, [r5]
 922              	.L55:
 444:frucd_display.c ****                 break;
 923              		.loc 1 444 0
 924 017a FF23     		movs	r3, #255
 925 017c 1B04     		lsls	r3, r3, #16
 926 017e 0093     		str	r3, [sp]
 927 0180 7B4A     		ldr	r2, .L71+28
 928 0182 0023     		movs	r3, #0
 929 0184 C9E7     		b	.L70
 930              	.LVL92:
 931              	.L44:
 448:frucd_display.c ****                     // only draw rectangle if color changed
 932              		.loc 1 448 0
 933 0186 FF23     		movs	r3, #255
 934 0188 1B04     		lsls	r3, r3, #16
 935 018a 9A42     		cmp	r2, r3
 936 018c 0FD0     		beq	.L56
 450:frucd_display.c ****                     last_state_color = color;
 937              		.loc 1 450 0
 938 018e 6A46     		mov	r2, sp
 939 0190 1421     		movs	r1, #20
ARM GAS  C:\Users\leoja\AppData\Local\Temp\ccM6wJLr.s 			page 27


 940 0192 525E     		ldrsh	r2, [r2, r1]
 941 0194 6946     		mov	r1, sp
 942 0196 1020     		movs	r0, #16
 943 0198 095E     		ldrsh	r1, [r1, r0]
 944 019a 6846     		mov	r0, sp
 945 019c 23B2     		sxth	r3, r4
 946 019e 0C24     		movs	r4, #12
 947 01a0 005F     		ldrsh	r0, [r0, r4]
 948 01a2 FF24     		movs	r4, #255
 949 01a4 2404     		lsls	r4, r4, #16
 950 01a6 0094     		str	r4, [sp]
 951 01a8 FFF7FEFF 		bl	UG_FillFrame
 952              	.LVL93:
 451:frucd_display.c ****                 }
 953              		.loc 1 451 0
 954 01ac 2C60     		str	r4, [r5]
 955              	.L56:
 453:frucd_display.c ****                 break;
 956              		.loc 1 453 0
 957 01ae FF23     		movs	r3, #255
 958 01b0 1B04     		lsls	r3, r3, #16
 959 01b2 0093     		str	r3, [sp]
 960 01b4 6F4A     		ldr	r2, .L71+32
 961 01b6 0023     		movs	r3, #0
 962 01b8 AFE7     		b	.L70
 963              	.LVL94:
 964              	.L45:
 457:frucd_display.c ****                     // only draw rectangle if color changed
 965              		.loc 1 457 0
 966 01ba 684B     		ldr	r3, .L71+8
 967 01bc 9A42     		cmp	r2, r3
 968 01be 0ED0     		beq	.L57
 459:frucd_display.c ****                     last_state_color = color;
 969              		.loc 1 459 0
 970 01c0 6A46     		mov	r2, sp
 971 01c2 1421     		movs	r1, #20
 972 01c4 525E     		ldrsh	r2, [r2, r1]
 973 01c6 6946     		mov	r1, sp
 974 01c8 1020     		movs	r0, #16
 975 01ca 095E     		ldrsh	r1, [r1, r0]
 976 01cc 6846     		mov	r0, sp
 977 01ce 23B2     		sxth	r3, r4
 978 01d0 0C24     		movs	r4, #12
 979 01d2 005F     		ldrsh	r0, [r0, r4]
 980 01d4 614C     		ldr	r4, .L71+8
 981 01d6 0094     		str	r4, [sp]
 982 01d8 FFF7FEFF 		bl	UG_FillFrame
 983              	.LVL95:
 460:frucd_display.c ****                 }
 984              		.loc 1 460 0
 985 01dc 2C60     		str	r4, [r5]
 986              	.L57:
 462:frucd_display.c ****                 break;
 987              		.loc 1 462 0
 988 01de 5F4B     		ldr	r3, .L71+8
 989 01e0 654A     		ldr	r2, .L71+36
 990 01e2 0093     		str	r3, [sp]
ARM GAS  C:\Users\leoja\AppData\Local\Temp\ccM6wJLr.s 			page 28


 991 01e4 0023     		movs	r3, #0
 992 01e6 98E7     		b	.L70
 993              	.LVL96:
 994              	.L46:
 466:frucd_display.c ****                     // only draw rectangle if color changed
 995              		.loc 1 466 0
 996 01e8 FF23     		movs	r3, #255
 997 01ea 1B04     		lsls	r3, r3, #16
 998 01ec 9A42     		cmp	r2, r3
 999 01ee 0FD0     		beq	.L58
 468:frucd_display.c ****                     last_state_color = color;
 1000              		.loc 1 468 0
 1001 01f0 6A46     		mov	r2, sp
 1002 01f2 1421     		movs	r1, #20
 1003 01f4 525E     		ldrsh	r2, [r2, r1]
 1004 01f6 6946     		mov	r1, sp
 1005 01f8 1020     		movs	r0, #16
 1006 01fa 095E     		ldrsh	r1, [r1, r0]
 1007 01fc 6846     		mov	r0, sp
 1008 01fe 23B2     		sxth	r3, r4
 1009 0200 0C24     		movs	r4, #12
 1010 0202 005F     		ldrsh	r0, [r0, r4]
 1011 0204 FF24     		movs	r4, #255
 1012 0206 2404     		lsls	r4, r4, #16
 1013 0208 0094     		str	r4, [sp]
 1014 020a FFF7FEFF 		bl	UG_FillFrame
 1015              	.LVL97:
 469:frucd_display.c ****                 }
 1016              		.loc 1 469 0
 1017 020e 2C60     		str	r4, [r5]
 1018              	.L58:
 471:frucd_display.c ****                 break;
 1019              		.loc 1 471 0
 1020 0210 FF23     		movs	r3, #255
 1021 0212 1B04     		lsls	r3, r3, #16
 1022 0214 0093     		str	r3, [sp]
 1023 0216 594A     		ldr	r2, .L71+40
 1024 0218 0023     		movs	r3, #0
 1025 021a 7EE7     		b	.L70
 1026              	.LVL98:
 1027              	.L47:
 475:frucd_display.c ****                     // only draw rectangle if color changed
 1028              		.loc 1 475 0
 1029 021c FF23     		movs	r3, #255
 1030 021e 1B04     		lsls	r3, r3, #16
 1031 0220 9A42     		cmp	r2, r3
 1032 0222 0FD0     		beq	.L59
 477:frucd_display.c ****                     last_state_color = color;
 1033              		.loc 1 477 0
 1034 0224 6A46     		mov	r2, sp
 1035 0226 1421     		movs	r1, #20
 1036 0228 525E     		ldrsh	r2, [r2, r1]
 1037 022a 6946     		mov	r1, sp
 1038 022c 1020     		movs	r0, #16
 1039 022e 095E     		ldrsh	r1, [r1, r0]
 1040 0230 6846     		mov	r0, sp
 1041 0232 23B2     		sxth	r3, r4
ARM GAS  C:\Users\leoja\AppData\Local\Temp\ccM6wJLr.s 			page 29


 1042 0234 0C24     		movs	r4, #12
 1043 0236 005F     		ldrsh	r0, [r0, r4]
 1044 0238 FF24     		movs	r4, #255
 1045 023a 2404     		lsls	r4, r4, #16
 1046 023c 0094     		str	r4, [sp]
 1047 023e FFF7FEFF 		bl	UG_FillFrame
 1048              	.LVL99:
 478:frucd_display.c ****                 }
 1049              		.loc 1 478 0
 1050 0242 2C60     		str	r4, [r5]
 1051              	.L59:
 480:frucd_display.c ****                 break;
 1052              		.loc 1 480 0
 1053 0244 FF23     		movs	r3, #255
 1054 0246 1B04     		lsls	r3, r3, #16
 1055 0248 0093     		str	r3, [sp]
 1056 024a 4D4A     		ldr	r2, .L71+44
 1057 024c 0023     		movs	r3, #0
 1058 024e 64E7     		b	.L70
 1059              	.LVL100:
 1060              	.L48:
 484:frucd_display.c ****                     // only draw rectangle if color changed
 1061              		.loc 1 484 0
 1062 0250 FF23     		movs	r3, #255
 1063 0252 1B04     		lsls	r3, r3, #16
 1064 0254 9A42     		cmp	r2, r3
 1065 0256 0FD0     		beq	.L60
 486:frucd_display.c ****                     last_state_color = color;
 1066              		.loc 1 486 0
 1067 0258 6A46     		mov	r2, sp
 1068 025a 1421     		movs	r1, #20
 1069 025c 525E     		ldrsh	r2, [r2, r1]
 1070 025e 6946     		mov	r1, sp
 1071 0260 1020     		movs	r0, #16
 1072 0262 095E     		ldrsh	r1, [r1, r0]
 1073 0264 6846     		mov	r0, sp
 1074 0266 23B2     		sxth	r3, r4
 1075 0268 0C24     		movs	r4, #12
 1076 026a 005F     		ldrsh	r0, [r0, r4]
 1077 026c FF24     		movs	r4, #255
 1078 026e 2404     		lsls	r4, r4, #16
 1079 0270 0094     		str	r4, [sp]
 1080 0272 FFF7FEFF 		bl	UG_FillFrame
 1081              	.LVL101:
 487:frucd_display.c ****                 }
 1082              		.loc 1 487 0
 1083 0276 2C60     		str	r4, [r5]
 1084              	.L60:
 489:frucd_display.c ****                 break;
 1085              		.loc 1 489 0
 1086 0278 FF23     		movs	r3, #255
 1087 027a 1B04     		lsls	r3, r3, #16
 1088 027c 0093     		str	r3, [sp]
 1089 027e 414A     		ldr	r2, .L71+48
 1090 0280 0023     		movs	r3, #0
 1091 0282 4AE7     		b	.L70
 1092              	.LVL102:
ARM GAS  C:\Users\leoja\AppData\Local\Temp\ccM6wJLr.s 			page 30


 1093              	.L49:
 493:frucd_display.c ****                     // only draw rectangle if color changed
 1094              		.loc 1 493 0
 1095 0284 FF23     		movs	r3, #255
 1096 0286 1B04     		lsls	r3, r3, #16
 1097 0288 9A42     		cmp	r2, r3
 1098 028a 0FD0     		beq	.L61
 495:frucd_display.c ****                     last_state_color = color;
 1099              		.loc 1 495 0
 1100 028c 6A46     		mov	r2, sp
 1101 028e 1421     		movs	r1, #20
 1102 0290 525E     		ldrsh	r2, [r2, r1]
 1103 0292 6946     		mov	r1, sp
 1104 0294 1020     		movs	r0, #16
 1105 0296 095E     		ldrsh	r1, [r1, r0]
 1106 0298 6846     		mov	r0, sp
 1107 029a 23B2     		sxth	r3, r4
 1108 029c 0C24     		movs	r4, #12
 1109 029e 005F     		ldrsh	r0, [r0, r4]
 1110 02a0 FF24     		movs	r4, #255
 1111 02a2 2404     		lsls	r4, r4, #16
 1112 02a4 0094     		str	r4, [sp]
 1113 02a6 FFF7FEFF 		bl	UG_FillFrame
 1114              	.LVL103:
 496:frucd_display.c ****                 }
 1115              		.loc 1 496 0
 1116 02aa 2C60     		str	r4, [r5]
 1117              	.L61:
 498:frucd_display.c ****                 break;
 1118              		.loc 1 498 0
 1119 02ac FF23     		movs	r3, #255
 1120 02ae 1B04     		lsls	r3, r3, #16
 1121 02b0 0093     		str	r3, [sp]
 1122 02b2 354A     		ldr	r2, .L71+52
 1123 02b4 0023     		movs	r3, #0
 1124 02b6 30E7     		b	.L70
 1125              	.LVL104:
 1126              	.L37:
 1127              		.loc 1 502 0
 1128 02b8 FF23     		movs	r3, #255
 1129 02ba 1B04     		lsls	r3, r3, #16
 1130 02bc 9A42     		cmp	r2, r3
 1131 02be 0FD0     		beq	.L62
 503:frucd_display.c ****                     // only draw rectangle if color changed
 504:frucd_display.c ****                     UG_FillFrame(x1, y1, x2, y2, color);
 1132              		.loc 1 504 0
 1133 02c0 6A46     		mov	r2, sp
 1134 02c2 1421     		movs	r1, #20
 1135 02c4 525E     		ldrsh	r2, [r2, r1]
 1136 02c6 6946     		mov	r1, sp
 1137 02c8 1020     		movs	r0, #16
 1138 02ca 095E     		ldrsh	r1, [r1, r0]
 1139 02cc 6846     		mov	r0, sp
 1140 02ce 23B2     		sxth	r3, r4
 1141 02d0 0C24     		movs	r4, #12
 1142 02d2 005F     		ldrsh	r0, [r0, r4]
 1143 02d4 FF24     		movs	r4, #255
ARM GAS  C:\Users\leoja\AppData\Local\Temp\ccM6wJLr.s 			page 31


 1144 02d6 2404     		lsls	r4, r4, #16
 1145 02d8 0094     		str	r4, [sp]
 1146 02da FFF7FEFF 		bl	UG_FillFrame
 1147              	.LVL105:
 505:frucd_display.c ****                     last_state_color = color;
 1148              		.loc 1 505 0
 1149 02de 2C60     		str	r4, [r5]
 1150              	.L62:
 506:frucd_display.c ****                 }
 507:frucd_display.c ****                 UG_PutColorString(xFont, yFont, "YO WTF?", C_BLACK, color); //whitespace to clear
 1151              		.loc 1 507 0
 1152 02e0 FF23     		movs	r3, #255
 1153 02e2 1B04     		lsls	r3, r3, #16
 1154 02e4 0093     		str	r3, [sp]
 1155 02e6 294A     		ldr	r2, .L71+56
 1156 02e8 0023     		movs	r3, #0
 1157 02ea 16E7     		b	.L70
 1158              	.LVL106:
 1159              	.L36:
 1160              	.LBE2:
 508:frucd_display.c ****                 break;
 509:frucd_display.c ****            
 510:frucd_display.c ****         }
 511:frucd_display.c ****     } else {
 512:frucd_display.c ****         // *************** NO FAULTS ***************
 513:frucd_display.c ****         color = C_GREEN;
 514:frucd_display.c ****         if (color != last_state_color) {
 1161              		.loc 1 514 0
 1162 02ec FF27     		movs	r7, #255
 1163 02ee 2B68     		ldr	r3, [r5]
 1164 02f0 3F02     		lsls	r7, r7, #8
 1165 02f2 BB42     		cmp	r3, r7
 1166 02f4 0DD0     		beq	.L63
 515:frucd_display.c ****             // only draw rectangle if color changed
 516:frucd_display.c ****             UG_FillFrame(x1, y1, x2, y2, color);
 1167              		.loc 1 516 0
 1168 02f6 6A46     		mov	r2, sp
 1169 02f8 1421     		movs	r1, #20
 1170 02fa 525E     		ldrsh	r2, [r2, r1]
 1171 02fc 6946     		mov	r1, sp
 1172 02fe 1020     		movs	r0, #16
 1173 0300 095E     		ldrsh	r1, [r1, r0]
 1174 0302 6846     		mov	r0, sp
 1175 0304 23B2     		sxth	r3, r4
 1176 0306 0C24     		movs	r4, #12
 1177 0308 005F     		ldrsh	r0, [r0, r4]
 1178 030a 0097     		str	r7, [sp]
 1179 030c FFF7FEFF 		bl	UG_FillFrame
 1180              	.LVL107:
 517:frucd_display.c ****             last_state_color = color;
 1181              		.loc 1 517 0
 1182 0310 2F60     		str	r7, [r5]
 1183              	.L63:
 518:frucd_display.c ****         }
 519:frucd_display.c ****         switch(state) {
 1184              		.loc 1 519 0
 1185 0312 032E     		cmp	r6, #3
ARM GAS  C:\Users\leoja\AppData\Local\Temp\ccM6wJLr.s 			page 32


 1186 0314 18D8     		bhi	.L51
 1187 0316 6B46     		mov	r3, sp
 1188 0318 1C21     		movs	r1, #28
 1189 031a 595E     		ldrsh	r1, [r3, r1]
 1190 031c 6B46     		mov	r3, sp
 1191 031e 3000     		movs	r0, r6
 1192 0320 1826     		movs	r6, #24
 1193 0322 9E5F     		ldrsh	r6, [r3, r6]
 1194 0324 FF23     		movs	r3, #255
 1195 0326 1B02     		lsls	r3, r3, #8
 520:frucd_display.c ****             case LV:
 521:frucd_display.c ****                 UG_PutColorString(xFont, yFont, "    LV    ", C_BLACK, color);
 522:frucd_display.c ****                 break;
 523:frucd_display.c ****             case PRECHARGING:
 524:frucd_display.c ****                 UG_PutColorString(xFont, yFont, "PRECHARGE ", C_BLACK, color);
 525:frucd_display.c ****                 break;
 526:frucd_display.c ****             case HV_ENABLED:
 527:frucd_display.c ****                 UG_PutColorString(xFont, yFont, "HV ENABLED", C_BLACK, color);
 528:frucd_display.c ****                 break;
 529:frucd_display.c ****             case DRIVE:
 530:frucd_display.c ****                 UG_PutColorString(xFont, yFont, "  DRIVE   ", C_BLACK, color);
 1196              		.loc 1 530 0
 1197 0328 0093     		str	r3, [sp]
 1198 032a 0023     		movs	r3, #0
 519:frucd_display.c ****             case LV:
 1199              		.loc 1 519 0
 1200 032c FFF7FEFF 		bl	__gnu_thumb1_case_uqi
 1201              	.L65:
 1202 0330 02       		.byte	(.L64-.L65)/2
 1203 0331 04       		.byte	(.L66-.L65)/2
 1204 0332 06       		.byte	(.L67-.L65)/2
 1205 0333 08       		.byte	(.L68-.L65)/2
 1206              		.p2align 1
 1207              	.L64:
 521:frucd_display.c ****                 break;
 1208              		.loc 1 521 0
 1209 0334 164A     		ldr	r2, .L71+60
 1210 0336 04E0     		b	.L69
 1211              	.L66:
 524:frucd_display.c ****                 break;
 1212              		.loc 1 524 0
 1213 0338 164A     		ldr	r2, .L71+64
 1214 033a 02E0     		b	.L69
 1215              	.L67:
 527:frucd_display.c ****                 break;
 1216              		.loc 1 527 0
 1217 033c 164A     		ldr	r2, .L71+68
 1218 033e 00E0     		b	.L69
 1219              	.L68:
 1220              		.loc 1 530 0
 1221 0340 164A     		ldr	r2, .L71+72
 1222              	.LVL108:
 1223              	.L69:
 1224 0342 3000     		movs	r0, r6
 1225 0344 FFF7FEFF 		bl	UG_PutColorString
 1226              	.LVL109:
 1227              	.L51:
ARM GAS  C:\Users\leoja\AppData\Local\Temp\ccM6wJLr.s 			page 33


 531:frucd_display.c ****                 break;
 532:frucd_display.c ****         }
 533:frucd_display.c ****     }
 534:frucd_display.c ****      UG_FontSelect(&FONT_12X16);
 1228              		.loc 1 534 0
 1229 0348 1548     		ldr	r0, .L71+76
 1230 034a FFF7FEFF 		bl	UG_FontSelect
 1231              	.LVL110:
 535:frucd_display.c **** }
 1232              		.loc 1 535 0
 1233 034e 09B0     		add	sp, sp, #36
 1234              		@ sp needed
 1235 0350 F0BD     		pop	{r4, r5, r6, r7, pc}
 1236              	.L72:
 1237 0352 C046     		.align	2
 1238              	.L71:
 1239 0354 00000000 		.word	FONT_32X53
 1240 0358 00000000 		.word	last_state_color
 1241 035c 00FFFF00 		.word	16776960
 1242 0360 65000000 		.word	.LC34
 1243 0364 70000000 		.word	.LC36
 1244 0368 7B000000 		.word	.LC38
 1245 036c 86000000 		.word	.LC40
 1246 0370 91000000 		.word	.LC42
 1247 0374 9C000000 		.word	.LC44
 1248 0378 A7000000 		.word	.LC46
 1249 037c B2000000 		.word	.LC48
 1250 0380 BD000000 		.word	.LC50
 1251 0384 C8000000 		.word	.LC52
 1252 0388 D2000000 		.word	.LC54
 1253 038c DB000000 		.word	.LC56
 1254 0390 E3000000 		.word	.LC58
 1255 0394 EE000000 		.word	.LC60
 1256 0398 F9000000 		.word	.LC62
 1257 039c 04010000 		.word	.LC64
 1258 03a0 00000000 		.word	FONT_12X16
 1259              		.cfi_endproc
 1260              	.LFE40:
 1261              		.size	disp_state, .-disp_state
 1262              		.global	__aeabi_uidiv
 1263              		.section	.text.disp_glv_v,"ax",%progbits
 1264              		.align	1
 1265              		.global	disp_glv_v
 1266              		.code	16
 1267              		.thumb_func
 1268              		.type	disp_glv_v, %function
 1269              	disp_glv_v:
 1270              	.LFB41:
 536:frucd_display.c **** 
 537:frucd_display.c **** /*
 538:frucd_display.c **** 
 539:frucd_display.c **** void disp_glv_v(uint32_t data) {
 540:frucd_display.c ****     // translate from voltage divider measurement to true voltage
 541:frucd_display.c ****     // y = 0.4295x + 18.254
 542:frucd_display.c ****     data *= 859;
 543:frucd_display.c ****     data /= 2000; // 0.4295
 544:frucd_display.c ****     data += 18;
ARM GAS  C:\Users\leoja\AppData\Local\Temp\ccM6wJLr.s 			page 34


 545:frucd_display.c ****     UG_COLOR color;
 546:frucd_display.c ****     if (data > 1150) {
 547:frucd_display.c ****         color = C_GREEN;
 548:frucd_display.c ****     } else if (data > 1100) {
 549:frucd_display.c ****         color = C_YELLOW;
 550:frucd_display.c ****     } else if (data > 1050) {
 551:frucd_display.c ****         color = C_ORANGE;
 552:frucd_display.c ****     } else {
 553:frucd_display.c ****         color = C_RED;
 554:frucd_display.c ****     }
 555:frucd_display.c ****     if (color != last_glv_v_color) {
 556:frucd_display.c ****         // only draw rectangle if color changed
 557:frucd_display.c ****         UG_FillFrame(95, 230, 182, 260, color);
 558:frucd_display.c ****         last_glv_v_color = color;
 559:frucd_display.c ****     }
 560:frucd_display.c ****     char data_s[7];
 561:frucd_display.c ****     sprintf(data_s, "%d", data);
 562:frucd_display.c ****     // handle 3 digit cases; 2 and 1 are practically impossible
 563:frucd_display.c ****     if (data < 1000) {
 564:frucd_display.c ****         data_s[3] = data_s[2];
 565:frucd_display.c ****         data_s[2] = data_s[1];
 566:frucd_display.c ****         data_s[1] = data_s[0];  
 567:frucd_display.c ****         data_s[0] = ' ';
 568:frucd_display.c ****     }
 569:frucd_display.c ****     // shift over fractional part
 570:frucd_display.c ****     data_s[4] = data_s[3];
 571:frucd_display.c ****     data_s[3] = data_s[2];
 572:frucd_display.c ****     // add syntax
 573:frucd_display.c ****     data_s[2] = '.';
 574:frucd_display.c ****     data_s[5] = 'V';
 575:frucd_display.c ****     data_s[6] = '\0';
 576:frucd_display.c ****     UG_PutColorString(100, 240, data_s, C_BLACK, color);
 577:frucd_display.c **** }
 578:frucd_display.c **** 
 579:frucd_display.c **** */
 580:frucd_display.c **** 
 581:frucd_display.c **** 
 582:frucd_display.c **** void disp_glv_v(uint32_t data, uint16_t x1, uint16_t y1, uint16_t x2, uint16_t y2, uint8_t size) { 
 1271              		.loc 1 582 0
 1272              		.cfi_startproc
 1273              		@ args = 8, pretend = 0, frame = 32
 1274              		@ frame_needed = 0, uses_anonymous_args = 0
 1275              	.LVL111:
 1276 0000 F0B5     		push	{r4, r5, r6, r7, lr}
 1277              		.cfi_def_cfa_offset 20
 1278              		.cfi_offset 4, -20
 1279              		.cfi_offset 5, -16
 1280              		.cfi_offset 6, -12
 1281              		.cfi_offset 7, -8
 1282              		.cfi_offset 14, -4
 1283 0002 8BB0     		sub	sp, sp, #44
 1284              		.cfi_def_cfa_offset 64
 1285              		.loc 1 582 0
 1286 0004 0493     		str	r3, [sp, #16]
 1287 0006 10AB     		add	r3, sp, #64
 1288              	.LVL112:
 1289 0008 1B88     		ldrh	r3, [r3]
ARM GAS  C:\Users\leoja\AppData\Local\Temp\ccM6wJLr.s 			page 35


 1290              	.LVL113:
 1291 000a 0392     		str	r2, [sp, #12]
 1292 000c 0593     		str	r3, [sp, #20]
 1293 000e 11AB     		add	r3, sp, #68
 1294              	.LVL114:
 1295 0010 1A78     		ldrb	r2, [r3]
 1296              	.LVL115:
 583:frucd_display.c ****     int xFont, yFont;
 584:frucd_display.c ****     int horizFontSize = 12 + 20*size;
 585:frucd_display.c ****     int stringSize;
 586:frucd_display.c ****     stringSize = 6;
 587:frucd_display.c ****     xFont = (x1 + x2)/2 - ((horizFontSize*stringSize)/2);
 1297              		.loc 1 587 0
 1298 0012 1423     		movs	r3, #20
 1299              	.LVL116:
 582:frucd_display.c ****     int xFont, yFont;
 1300              		.loc 1 582 0
 1301 0014 0E00     		movs	r6, r1
 1302              		.loc 1 587 0
 1303 0016 0621     		movs	r1, #6
 1304              	.LVL117:
 1305 0018 5343     		muls	r3, r2
 1306 001a 0C33     		adds	r3, r3, #12
 1307              	.LVL118:
 1308 001c 4B43     		muls	r3, r1
 1309              	.LVL119:
 1310 001e 0499     		ldr	r1, [sp, #16]
 582:frucd_display.c ****     int xFont, yFont;
 1311              		.loc 1 582 0
 1312 0020 0400     		movs	r4, r0
 1313              		.loc 1 587 0
 1314 0022 7018     		adds	r0, r6, r1
 1315              	.LVL120:
 1316 0024 5B10     		asrs	r3, r3, #1
 1317 0026 4010     		asrs	r0, r0, #1
 1318 0028 C31A     		subs	r3, r0, r3
 588:frucd_display.c ****     yFont = (y1 + y2)/2 - 5 - (size*17);    
 1319              		.loc 1 588 0
 1320 002a 0599     		ldr	r1, [sp, #20]
 587:frucd_display.c ****     yFont = (y1 + y2)/2 - 5 - (size*17);    
 1321              		.loc 1 587 0
 1322 002c 0693     		str	r3, [sp, #24]
 1323              	.LVL121:
 1324              		.loc 1 588 0
 1325 002e 039B     		ldr	r3, [sp, #12]
 1326              	.LVL122:
 1327 0030 5B18     		adds	r3, r3, r1
 1328 0032 1121     		movs	r1, #17
 1329 0034 4942     		rsbs	r1, r1, #0
 1330 0036 5143     		muls	r1, r2
 1331 0038 5B10     		asrs	r3, r3, #1
 1332 003a 053B     		subs	r3, r3, #5
 1333 003c 5B18     		adds	r3, r3, r1
 1334 003e 0793     		str	r3, [sp, #28]
 1335              	.LVL123:
 589:frucd_display.c ****     
 590:frucd_display.c ****     
ARM GAS  C:\Users\leoja\AppData\Local\Temp\ccM6wJLr.s 			page 36


 591:frucd_display.c ****     if(size == 1){
 1336              		.loc 1 591 0
 1337 0040 012A     		cmp	r2, #1
 1338 0042 02D1     		bne	.L74
 592:frucd_display.c ****         UG_FontSelect(&FONT_32X53);  
 1339              		.loc 1 592 0
 1340 0044 2C48     		ldr	r0, .L81
 1341 0046 FFF7FEFF 		bl	UG_FontSelect
 1342              	.LVL124:
 1343              	.L74:
 593:frucd_display.c ****     }
 594:frucd_display.c ****     // translate from voltage divider measurement to true voltage
 595:frucd_display.c ****     // y = 0.4295x + 18.254
 596:frucd_display.c ****     data *= 859;
 597:frucd_display.c ****     data /= 2000; // 0.4295
 1344              		.loc 1 597 0
 1345 004a FA21     		movs	r1, #250
 596:frucd_display.c ****     data /= 2000; // 0.4295
 1346              		.loc 1 596 0
 1347 004c 2B48     		ldr	r0, .L81+4
 1348              		.loc 1 597 0
 1349 004e C900     		lsls	r1, r1, #3
 596:frucd_display.c ****     data /= 2000; // 0.4295
 1350              		.loc 1 596 0
 1351 0050 6043     		muls	r0, r4
 1352              	.LVL125:
 1353              		.loc 1 597 0
 1354 0052 FFF7FEFF 		bl	__aeabi_uidiv
 1355              	.LVL126:
 598:frucd_display.c ****     data += 18;
 599:frucd_display.c ****     UG_COLOR color;
 600:frucd_display.c ****     if (data > 1150) {
 1356              		.loc 1 600 0
 1357 0056 2A4B     		ldr	r3, .L81+8
 598:frucd_display.c ****     data += 18;
 1358              		.loc 1 598 0
 1359 0058 1230     		adds	r0, r0, #18
 1360              	.LVL127:
 1361 005a 0500     		movs	r5, r0
 1362              	.LVL128:
 1363              		.loc 1 600 0
 1364 005c 9842     		cmp	r0, r3
 1365 005e 08D8     		bhi	.L78
 601:frucd_display.c ****         color = C_GREEN;
 602:frucd_display.c ****     } else if (data > 1100) {
 1366              		.loc 1 602 0
 1367 0060 284B     		ldr	r3, .L81+12
 1368 0062 9842     		cmp	r0, r3
 1369 0064 08D8     		bhi	.L79
 603:frucd_display.c ****         color = C_YELLOW;
 604:frucd_display.c ****     } else if (data > 1050) {
 1370              		.loc 1 604 0
 1371 0066 284B     		ldr	r3, .L81+16
 1372 0068 9842     		cmp	r0, r3
 1373 006a 07D8     		bhi	.L80
 605:frucd_display.c ****         color = C_ORANGE;
 606:frucd_display.c ****     } else {
ARM GAS  C:\Users\leoja\AppData\Local\Temp\ccM6wJLr.s 			page 37


 607:frucd_display.c ****         color = C_RED;
 1374              		.loc 1 607 0
 1375 006c FF24     		movs	r4, #255
 1376 006e 2404     		lsls	r4, r4, #16
 1377 0070 05E0     		b	.L75
 1378              	.L78:
 601:frucd_display.c ****     } else if (data > 1100) {
 1379              		.loc 1 601 0
 1380 0072 FF24     		movs	r4, #255
 1381 0074 2402     		lsls	r4, r4, #8
 1382 0076 02E0     		b	.L75
 1383              	.L79:
 603:frucd_display.c ****         color = C_YELLOW;
 1384              		.loc 1 603 0
 1385 0078 244C     		ldr	r4, .L81+20
 1386 007a 00E0     		b	.L75
 1387              	.L80:
 605:frucd_display.c ****         color = C_ORANGE;
 1388              		.loc 1 605 0
 1389 007c 244C     		ldr	r4, .L81+24
 1390              	.L75:
 1391              	.LVL129:
 608:frucd_display.c ****     }
 609:frucd_display.c ****     if (color != last_glv_v_color) {
 1392              		.loc 1 609 0
 1393 007e 254F     		ldr	r7, .L81+28
 1394 0080 3B68     		ldr	r3, [r7]
 1395 0082 9C42     		cmp	r4, r3
 1396 0084 0DD0     		beq	.L76
 610:frucd_display.c ****         // only draw rectangle if color changed
 611:frucd_display.c ****         UG_FillFrame(x1, y1, x2, y2, color);
 1397              		.loc 1 611 0
 1398 0086 6B46     		mov	r3, sp
 1399 0088 1422     		movs	r2, #20
 1400 008a 9B5E     		ldrsh	r3, [r3, r2]
 1401 008c 6A46     		mov	r2, sp
 1402 008e 1021     		movs	r1, #16
 1403 0090 525E     		ldrsh	r2, [r2, r1]
 1404 0092 6946     		mov	r1, sp
 1405 0094 0C20     		movs	r0, #12
 1406 0096 095E     		ldrsh	r1, [r1, r0]
 1407              	.LVL130:
 1408 0098 30B2     		sxth	r0, r6
 1409 009a 0094     		str	r4, [sp]
 1410 009c FFF7FEFF 		bl	UG_FillFrame
 1411              	.LVL131:
 612:frucd_display.c ****         last_glv_v_color = color;
 1412              		.loc 1 612 0
 1413 00a0 3C60     		str	r4, [r7]
 1414              	.L76:
 613:frucd_display.c ****     }
 614:frucd_display.c ****     char data_s[7];
 615:frucd_display.c ****     sprintf(data_s, "%lu", data);
 1415              		.loc 1 615 0
 1416 00a2 08AE     		add	r6, sp, #32
 1417 00a4 2A00     		movs	r2, r5
 1418 00a6 1C49     		ldr	r1, .L81+32
ARM GAS  C:\Users\leoja\AppData\Local\Temp\ccM6wJLr.s 			page 38


 1419 00a8 3000     		movs	r0, r6
 1420 00aa FFF7FEFF 		bl	sprintf
 1421              	.LVL132:
 616:frucd_display.c ****     // handle 3 digit cases; 2 and 1 are practically impossible
 617:frucd_display.c ****     if (data < 1000) {
 1422              		.loc 1 617 0
 1423 00ae 1B4B     		ldr	r3, .L81+36
 1424 00b0 9D42     		cmp	r5, r3
 1425 00b2 07D8     		bhi	.L77
 618:frucd_display.c ****         data_s[3] = data_s[2];
 1426              		.loc 1 618 0
 1427 00b4 B378     		ldrb	r3, [r6, #2]
 1428 00b6 F370     		strb	r3, [r6, #3]
 619:frucd_display.c ****         data_s[2] = data_s[1];
 1429              		.loc 1 619 0
 1430 00b8 7378     		ldrb	r3, [r6, #1]
 1431 00ba B370     		strb	r3, [r6, #2]
 620:frucd_display.c ****         data_s[1] = data_s[0];  
 1432              		.loc 1 620 0
 1433 00bc 3378     		ldrb	r3, [r6]
 1434 00be 7370     		strb	r3, [r6, #1]
 621:frucd_display.c ****         data_s[0] = ' ';
 1435              		.loc 1 621 0
 1436 00c0 2023     		movs	r3, #32
 1437 00c2 3370     		strb	r3, [r6]
 1438              	.L77:
 622:frucd_display.c ****     }
 623:frucd_display.c ****     // shift over fractional part
 624:frucd_display.c ****     data_s[4] = data_s[3];
 1439              		.loc 1 624 0
 1440 00c4 F378     		ldrb	r3, [r6, #3]
 625:frucd_display.c ****     data_s[3] = data_s[2];
 626:frucd_display.c ****     // add syntax
 627:frucd_display.c ****     data_s[2] = '.';
 628:frucd_display.c ****     data_s[5] = 'V';
 629:frucd_display.c ****     data_s[6] = '\0';
 630:frucd_display.c ****     UG_PutColorString(xFont, yFont, data_s, C_BLACK, color);
 1441              		.loc 1 630 0
 1442 00c6 6A46     		mov	r2, sp
 624:frucd_display.c ****     data_s[3] = data_s[2];
 1443              		.loc 1 624 0
 1444 00c8 3371     		strb	r3, [r6, #4]
 625:frucd_display.c ****     data_s[3] = data_s[2];
 1445              		.loc 1 625 0
 1446 00ca B378     		ldrb	r3, [r6, #2]
 1447              		.loc 1 630 0
 1448 00cc 1C21     		movs	r1, #28
 1449 00ce 515E     		ldrsh	r1, [r2, r1]
 625:frucd_display.c ****     data_s[3] = data_s[2];
 1450              		.loc 1 625 0
 1451 00d0 F370     		strb	r3, [r6, #3]
 627:frucd_display.c ****     data_s[5] = 'V';
 1452              		.loc 1 627 0
 1453 00d2 2E23     		movs	r3, #46
 1454 00d4 B370     		strb	r3, [r6, #2]
 628:frucd_display.c ****     data_s[6] = '\0';
 1455              		.loc 1 628 0
ARM GAS  C:\Users\leoja\AppData\Local\Temp\ccM6wJLr.s 			page 39


 1456 00d6 2833     		adds	r3, r3, #40
 1457 00d8 7371     		strb	r3, [r6, #5]
 1458              		.loc 1 630 0
 1459 00da 6A46     		mov	r2, sp
 629:frucd_display.c ****     UG_PutColorString(xFont, yFont, data_s, C_BLACK, color);
 1460              		.loc 1 629 0
 1461 00dc 0023     		movs	r3, #0
 1462              		.loc 1 630 0
 1463 00de 1820     		movs	r0, #24
 1464 00e0 105E     		ldrsh	r0, [r2, r0]
 629:frucd_display.c ****     UG_PutColorString(xFont, yFont, data_s, C_BLACK, color);
 1465              		.loc 1 629 0
 1466 00e2 B371     		strb	r3, [r6, #6]
 1467              		.loc 1 630 0
 1468 00e4 3200     		movs	r2, r6
 1469 00e6 0094     		str	r4, [sp]
 1470 00e8 FFF7FEFF 		bl	UG_PutColorString
 1471              	.LVL133:
 631:frucd_display.c ****     UG_FontSelect(&FONT_12X16);
 1472              		.loc 1 631 0
 1473 00ec 0C48     		ldr	r0, .L81+40
 1474 00ee FFF7FEFF 		bl	UG_FontSelect
 1475              	.LVL134:
 632:frucd_display.c **** }
 1476              		.loc 1 632 0
 1477 00f2 0BB0     		add	sp, sp, #44
 1478              		@ sp needed
 1479              	.LVL135:
 1480              	.LVL136:
 1481 00f4 F0BD     		pop	{r4, r5, r6, r7, pc}
 1482              	.L82:
 1483 00f6 C046     		.align	2
 1484              	.L81:
 1485 00f8 00000000 		.word	FONT_32X53
 1486 00fc 5B030000 		.word	859
 1487 0100 7E040000 		.word	1150
 1488 0104 4C040000 		.word	1100
 1489 0108 1A040000 		.word	1050
 1490 010c 00FFFF00 		.word	16776960
 1491 0110 00A5FF00 		.word	16753920
 1492 0114 00000000 		.word	last_glv_v_color
 1493 0118 0F010000 		.word	.LC69
 1494 011c E7030000 		.word	999
 1495 0120 00000000 		.word	FONT_12X16
 1496              		.cfi_endproc
 1497              	.LFE41:
 1498              		.size	disp_glv_v, .-disp_glv_v
 1499              		.section	.text.disp_gen_temp,"ax",%progbits
 1500              		.align	1
 1501              		.global	disp_gen_temp
 1502              		.code	16
 1503              		.thumb_func
 1504              		.type	disp_gen_temp, %function
 1505              	disp_gen_temp:
 1506              	.LFB44:
 633:frucd_display.c **** 
 634:frucd_display.c **** 
ARM GAS  C:\Users\leoja\AppData\Local\Temp\ccM6wJLr.s 			page 40


 635:frucd_display.c **** /*
 636:frucd_display.c **** void disp_mc_temp(uint16_t data) {
 637:frucd_display.c ****     if (data >= 100) {
 638:frucd_display.c ****         // handle 3 digit cases
 639:frucd_display.c ****         UG_FillFrame(410, 185, 470, 215, C_GREEN);
 640:frucd_display.c ****         char data_s[5];
 641:frucd_display.c ****         sprintf(data_s, "%d", data);
 642:frucd_display.c ****         data_s[3] = 'C';
 643:frucd_display.c ****         data_s[4] = '\0';
 644:frucd_display.c ****         UG_PutColorString(415, 195, data_s, C_BLACK, C_GREEN);
 645:frucd_display.c ****     } else {
 646:frucd_display.c ****         // handle 2 digit cases
 647:frucd_display.c ****         UG_FillFrame(410, 185, 470, 215, C_GREEN);
 648:frucd_display.c ****         char data_s[4];
 649:frucd_display.c ****         sprintf(data_s, "%d", data);
 650:frucd_display.c ****         data_s[2] = 'C';
 651:frucd_display.c ****         data_s[3] = '\0';
 652:frucd_display.c ****         UG_PutColorString(422, 195, data_s, C_BLACK, C_GREEN);
 653:frucd_display.c ****     }
 654:frucd_display.c **** }
 655:frucd_display.c **** */
 656:frucd_display.c **** 
 657:frucd_display.c **** void disp_mc_temp(uint16_t data, uint16_t x1, uint16_t y1, uint16_t x2, uint16_t y2, uint8_t size){
 658:frucd_display.c ****     disp_gen_temp(data, x1, y1, x2, y2, size);
 659:frucd_display.c **** }
 660:frucd_display.c **** /*
 661:frucd_display.c **** void disp_motor_temp(uint16_t data) {
 662:frucd_display.c ****     if (data >= 100) {
 663:frucd_display.c ****         // handle 3 digit cases
 664:frucd_display.c ****         UG_FillFrame(410, 230, 470, 260, C_GREEN);
 665:frucd_display.c ****         char data_s[5];
 666:frucd_display.c ****         sprintf(data_s, "%d", data);
 667:frucd_display.c ****         data_s[3] = 'C';
 668:frucd_display.c ****         data_s[4] = '\0';
 669:frucd_display.c ****         UG_PutColorString(415, 240, data_s, C_BLACK, C_GREEN);
 670:frucd_display.c ****     } else {
 671:frucd_display.c ****         // handle 2 digit cases
 672:frucd_display.c ****         UG_FillFrame(410, 230, 470, 260, C_GREEN);
 673:frucd_display.c ****         char data_s[4];
 674:frucd_display.c ****         sprintf(data_s, "%d", data);
 675:frucd_display.c ****         data_s[2] = 'C';
 676:frucd_display.c ****         data_s[3] = '\0';
 677:frucd_display.c ****         UG_PutColorString(422, 240, data_s, C_BLACK, C_GREEN);
 678:frucd_display.c ****     }
 679:frucd_display.c **** }
 680:frucd_display.c **** */
 681:frucd_display.c **** 
 682:frucd_display.c **** void disp_motor_temp(uint16_t data, uint16_t x1, uint16_t y1, uint16_t x2, uint16_t y2, uint8_t siz
 683:frucd_display.c ****     disp_gen_temp(data, x1, y1, x2, y2, size);
 684:frucd_display.c **** }
 685:frucd_display.c **** 
 686:frucd_display.c **** 
 687:frucd_display.c **** 
 688:frucd_display.c **** void disp_gen_temp(uint16_t data, uint16_t x1, uint16_t y1, uint16_t x2, uint16_t y2, uint8_t size)
 1507              		.loc 1 688 0
 1508              		.cfi_startproc
 1509              		@ args = 8, pretend = 0, frame = 24
ARM GAS  C:\Users\leoja\AppData\Local\Temp\ccM6wJLr.s 			page 41


 1510              		@ frame_needed = 0, uses_anonymous_args = 0
 1511              	.LVL137:
 1512 0000 F0B5     		push	{r4, r5, r6, r7, lr}
 1513              		.cfi_def_cfa_offset 20
 1514              		.cfi_offset 4, -20
 1515              		.cfi_offset 5, -16
 1516              		.cfi_offset 6, -12
 1517              		.cfi_offset 7, -8
 1518              		.cfi_offset 14, -4
 1519 0002 1500     		movs	r5, r2
 689:frucd_display.c ****     int xFont, yFont;
 690:frucd_display.c ****     int horizFontSize = 12 + 20*size;
 691:frucd_display.c ****     int stringSize;
 692:frucd_display.c ****     if (data >= 100) {
 693:frucd_display.c ****         stringSize = 4;
 694:frucd_display.c ****     }else{
 695:frucd_display.c ****         stringSize = 3;
 1520              		.loc 1 695 0
 1521 0004 6322     		movs	r2, #99
 1522              	.LVL138:
 688:frucd_display.c ****     int xFont, yFont;
 1523              		.loc 1 688 0
 1524 0006 89B0     		sub	sp, sp, #36
 1525              		.cfi_def_cfa_offset 56
 688:frucd_display.c ****     int xFont, yFont;
 1526              		.loc 1 688 0
 1527 0008 1E00     		movs	r6, r3
 1528 000a 0EAB     		add	r3, sp, #56
 1529              	.LVL139:
 1530 000c 1F88     		ldrh	r7, [r3]
 1531 000e 0FAB     		add	r3, sp, #60
 1532              	.LVL140:
 1533 0010 0C00     		movs	r4, r1
 1534 0012 1978     		ldrb	r1, [r3]
 1535              	.LVL141:
 690:frucd_display.c ****     int stringSize;
 1536              		.loc 1 690 0
 1537 0014 1423     		movs	r3, #20
 1538              	.LVL142:
 1539              		.loc 1 695 0
 1540 0016 8242     		cmp	r2, r0
 1541 0018 9241     		sbcs	r2, r2, r2
 690:frucd_display.c ****     int stringSize;
 1542              		.loc 1 690 0
 1543 001a 4B43     		muls	r3, r1
 1544              		.loc 1 695 0
 1545 001c 5242     		rsbs	r2, r2, #0
 1546 001e 0332     		adds	r2, r2, #3
 690:frucd_display.c ****     int stringSize;
 1547              		.loc 1 690 0
 1548 0020 0C33     		adds	r3, r3, #12
 1549              	.LVL143:
 696:frucd_display.c ****     }
 697:frucd_display.c ****     xFont = (x1 + x2)/2 - ((horizFontSize*stringSize)/2);
 1550              		.loc 1 697 0
 1551 0022 5343     		muls	r3, r2
 1552              	.LVL144:
ARM GAS  C:\Users\leoja\AppData\Local\Temp\ccM6wJLr.s 			page 42


 698:frucd_display.c ****     yFont = (y1 + y2)/2 - 5 - (size*17);    
 1553              		.loc 1 698 0
 1554 0024 1122     		movs	r2, #17
 1555              	.LVL145:
 688:frucd_display.c ****     int xFont, yFont;
 1556              		.loc 1 688 0
 1557 0026 0390     		str	r0, [sp, #12]
 697:frucd_display.c ****     yFont = (y1 + y2)/2 - 5 - (size*17);    
 1558              		.loc 1 697 0
 1559 0028 A019     		adds	r0, r4, r6
 1560              	.LVL146:
 1561 002a 4010     		asrs	r0, r0, #1
 1562 002c 5B10     		asrs	r3, r3, #1
 1563              		.loc 1 698 0
 1564 002e 5242     		rsbs	r2, r2, #0
 697:frucd_display.c ****     yFont = (y1 + y2)/2 - 5 - (size*17);    
 1565              		.loc 1 697 0
 1566 0030 C31A     		subs	r3, r0, r3
 1567              		.loc 1 698 0
 1568 0032 4A43     		muls	r2, r1
 697:frucd_display.c ****     yFont = (y1 + y2)/2 - 5 - (size*17);    
 1569              		.loc 1 697 0
 1570 0034 0493     		str	r3, [sp, #16]
 1571              	.LVL147:
 1572              		.loc 1 698 0
 1573 0036 EB19     		adds	r3, r5, r7
 1574              	.LVL148:
 1575 0038 5B10     		asrs	r3, r3, #1
 1576 003a 053B     		subs	r3, r3, #5
 1577 003c 9B18     		adds	r3, r3, r2
 1578 003e 0593     		str	r3, [sp, #20]
 1579              	.LVL149:
 699:frucd_display.c ****     if(size == 1){
 1580              		.loc 1 699 0
 1581 0040 0129     		cmp	r1, #1
 1582 0042 02D1     		bne	.L85
 700:frucd_display.c ****         UG_FontSelect(&FONT_32X53);
 1583              		.loc 1 700 0
 1584 0044 1B48     		ldr	r0, .L90
 1585 0046 FFF7FEFF 		bl	UG_FontSelect
 1586              	.LVL150:
 1587              	.L85:
 1588 004a 20B2     		sxth	r0, r4
 1589 004c 6C46     		mov	r4, sp
 1590 004e 29B2     		sxth	r1, r5
 1591 0050 FF25     		movs	r5, #255
 1592 0052 32B2     		sxth	r2, r6
 1593 0054 3BB2     		sxth	r3, r7
 1594 0056 1426     		movs	r6, #20
 1595 0058 A75F     		ldrsh	r7, [r4, r6]
 1596 005a 1026     		movs	r6, #16
 1597 005c A65F     		ldrsh	r6, [r4, r6]
 1598 005e 2D02     		lsls	r5, r5, #8
 1599 0060 3400     		movs	r4, r6
 701:frucd_display.c ****         
 702:frucd_display.c ****     }
 703:frucd_display.c ****     if (data >= 100) {
ARM GAS  C:\Users\leoja\AppData\Local\Temp\ccM6wJLr.s 			page 43


 1600              		.loc 1 703 0
 1601 0062 039E     		ldr	r6, [sp, #12]
 1602              	.LBB3:
 704:frucd_display.c ****         // handle 3 digit cases
 705:frucd_display.c ****         UG_FillFrame(x1, y1, x2, y2, C_GREEN);
 1603              		.loc 1 705 0
 1604 0064 0095     		str	r5, [sp]
 1605              	.LBE3:
 703:frucd_display.c ****         // handle 3 digit cases
 1606              		.loc 1 703 0
 1607 0066 632E     		cmp	r6, #99
 1608 0068 0CD9     		bls	.L86
 1609              	.LBB4:
 706:frucd_display.c ****         char data_s[5];
 707:frucd_display.c ****         sprintf(data_s, "%d", data);
 1610              		.loc 1 707 0
 1611 006a 06AE     		add	r6, sp, #24
 705:frucd_display.c ****         char data_s[5];
 1612              		.loc 1 705 0
 1613 006c FFF7FEFF 		bl	UG_FillFrame
 1614              	.LVL151:
 1615              		.loc 1 707 0
 1616 0070 039A     		ldr	r2, [sp, #12]
 1617 0072 1149     		ldr	r1, .L90+4
 1618 0074 3000     		movs	r0, r6
 1619 0076 FFF7FEFF 		bl	sprintf
 1620              	.LVL152:
 708:frucd_display.c ****         data_s[3] = 'C';
 1621              		.loc 1 708 0
 1622 007a 4323     		movs	r3, #67
 1623 007c F370     		strb	r3, [r6, #3]
 709:frucd_display.c ****         data_s[4] = '\0';
 1624              		.loc 1 709 0
 1625 007e 0023     		movs	r3, #0
 1626 0080 3371     		strb	r3, [r6, #4]
 1627 0082 0BE0     		b	.L89
 1628              	.L86:
 1629              	.LBE4:
 1630              	.LBB5:
 710:frucd_display.c ****         UG_PutColorString(xFont, yFont, data_s, C_BLACK, C_GREEN);
 711:frucd_display.c ****     } else {
 712:frucd_display.c ****         // handle 2 digit cases
 713:frucd_display.c ****         UG_FillFrame(x1, y1, x2, y2, C_GREEN);
 714:frucd_display.c ****         char data_s[4];
 715:frucd_display.c ****         sprintf(data_s, "%d", data);
 1631              		.loc 1 715 0
 1632 0084 06AE     		add	r6, sp, #24
 713:frucd_display.c ****         char data_s[4];
 1633              		.loc 1 713 0
 1634 0086 FFF7FEFF 		bl	UG_FillFrame
 1635              	.LVL153:
 1636              		.loc 1 715 0
 1637 008a 039A     		ldr	r2, [sp, #12]
 1638 008c 0A49     		ldr	r1, .L90+4
 1639 008e 3000     		movs	r0, r6
 1640 0090 FFF7FEFF 		bl	sprintf
 1641              	.LVL154:
ARM GAS  C:\Users\leoja\AppData\Local\Temp\ccM6wJLr.s 			page 44


 716:frucd_display.c ****         data_s[2] = 'C';
 1642              		.loc 1 716 0
 1643 0094 4323     		movs	r3, #67
 1644 0096 B370     		strb	r3, [r6, #2]
 717:frucd_display.c ****         data_s[3] = '\0';
 1645              		.loc 1 717 0
 1646 0098 0023     		movs	r3, #0
 1647 009a F370     		strb	r3, [r6, #3]
 1648              	.L89:
 718:frucd_display.c ****         UG_PutColorString(xFont, yFont, data_s, C_BLACK, C_GREEN);
 1649              		.loc 1 718 0
 1650 009c 3200     		movs	r2, r6
 1651 009e 3900     		movs	r1, r7
 1652 00a0 2000     		movs	r0, r4
 1653 00a2 0095     		str	r5, [sp]
 1654 00a4 FFF7FEFF 		bl	UG_PutColorString
 1655              	.LVL155:
 1656              	.LBE5:
 719:frucd_display.c ****     }
 720:frucd_display.c ****      UG_FontSelect(&FONT_12X16);
 1657              		.loc 1 720 0
 1658 00a8 0448     		ldr	r0, .L90+8
 1659 00aa FFF7FEFF 		bl	UG_FontSelect
 1660              	.LVL156:
 721:frucd_display.c **** }
 1661              		.loc 1 721 0
 1662 00ae 09B0     		add	sp, sp, #36
 1663              		@ sp needed
 1664 00b0 F0BD     		pop	{r4, r5, r6, r7, pc}
 1665              	.L91:
 1666 00b2 C046     		.align	2
 1667              	.L90:
 1668 00b4 00000000 		.word	FONT_32X53
 1669 00b8 13010000 		.word	.LC73
 1670 00bc 00000000 		.word	FONT_12X16
 1671              		.cfi_endproc
 1672              	.LFE44:
 1673              		.size	disp_gen_temp, .-disp_gen_temp
 1674              		.section	.text.disp_motor_temp,"ax",%progbits
 1675              		.align	1
 1676              		.global	disp_motor_temp
 1677              		.code	16
 1678              		.thumb_func
 1679              		.type	disp_motor_temp, %function
 1680              	disp_motor_temp:
 1681              	.LFB43:
 682:frucd_display.c ****     disp_gen_temp(data, x1, y1, x2, y2, size);
 1682              		.loc 1 682 0
 1683              		.cfi_startproc
 1684              		@ args = 8, pretend = 0, frame = 0
 1685              		@ frame_needed = 0, uses_anonymous_args = 0
 1686              	.LVL157:
 1687 0000 37B5     		push	{r0, r1, r2, r4, r5, lr}
 1688              		.cfi_def_cfa_offset 24
 1689              		.cfi_offset 0, -24
 1690              		.cfi_offset 1, -20
 1691              		.cfi_offset 2, -16
ARM GAS  C:\Users\leoja\AppData\Local\Temp\ccM6wJLr.s 			page 45


 1692              		.cfi_offset 4, -12
 1693              		.cfi_offset 5, -8
 1694              		.cfi_offset 14, -4
 682:frucd_display.c ****     disp_gen_temp(data, x1, y1, x2, y2, size);
 1695              		.loc 1 682 0
 1696 0002 06AC     		add	r4, sp, #24
 1697              	.LVL158:
 1698 0004 07AD     		add	r5, sp, #28
 1699              	.LVL159:
 1700 0006 2D78     		ldrb	r5, [r5]
 1701              	.LVL160:
 1702 0008 2488     		ldrh	r4, [r4]
 1703              	.LVL161:
 683:frucd_display.c **** }
 1704              		.loc 1 683 0
 1705 000a 0195     		str	r5, [sp, #4]
 1706 000c 0094     		str	r4, [sp]
 1707 000e FFF7FEFF 		bl	disp_gen_temp
 1708              	.LVL162:
 684:frucd_display.c **** 
 1709              		.loc 1 684 0
 1710              		@ sp needed
 1711 0012 37BD     		pop	{r0, r1, r2, r4, r5, pc}
 1712              		.cfi_endproc
 1713              	.LFE43:
 1714              		.size	disp_motor_temp, .-disp_motor_temp
 1715              		.section	.text.disp_mc_temp,"ax",%progbits
 1716              		.align	1
 1717              		.global	disp_mc_temp
 1718              		.code	16
 1719              		.thumb_func
 1720              		.type	disp_mc_temp, %function
 1721              	disp_mc_temp:
 1722              	.LFB51:
 1723              		.cfi_startproc
 1724              		@ args = 8, pretend = 0, frame = 0
 1725              		@ frame_needed = 0, uses_anonymous_args = 0
 1726 0000 37B5     		push	{r0, r1, r2, r4, r5, lr}
 1727              		.cfi_def_cfa_offset 24
 1728              		.cfi_offset 0, -24
 1729              		.cfi_offset 1, -20
 1730              		.cfi_offset 2, -16
 1731              		.cfi_offset 4, -12
 1732              		.cfi_offset 5, -8
 1733              		.cfi_offset 14, -4
 1734 0002 06AC     		add	r4, sp, #24
 1735 0004 07AD     		add	r5, sp, #28
 1736 0006 2D78     		ldrb	r5, [r5]
 1737 0008 2488     		ldrh	r4, [r4]
 1738 000a 0195     		str	r5, [sp, #4]
 1739 000c 0094     		str	r4, [sp]
 1740 000e FFF7FEFF 		bl	disp_gen_temp
 1741              		@ sp needed
 1742 0012 37BD     		pop	{r0, r1, r2, r4, r5, pc}
 1743              		.cfi_endproc
 1744              	.LFE51:
 1745              		.size	disp_mc_temp, .-disp_mc_temp
ARM GAS  C:\Users\leoja\AppData\Local\Temp\ccM6wJLr.s 			page 46


 1746              		.section	.text.disp_gen_voltage,"ax",%progbits
 1747              		.align	1
 1748              		.global	disp_gen_voltage
 1749              		.code	16
 1750              		.thumb_func
 1751              		.type	disp_gen_voltage, %function
 1752              	disp_gen_voltage:
 1753              	.LFB45:
 722:frucd_display.c **** 
 723:frucd_display.c **** void disp_gen_voltage(uint16_t data, uint16_t x1, uint16_t y1, uint16_t x2, uint16_t y2, uint8_t si
 1754              		.loc 1 723 0
 1755              		.cfi_startproc
 1756              		@ args = 8, pretend = 0, frame = 24
 1757              		@ frame_needed = 0, uses_anonymous_args = 0
 1758              	.LVL163:
 1759              		.loc 1 723 0
 1760 0000 F0B5     		push	{r4, r5, r6, r7, lr}
 1761              		.cfi_def_cfa_offset 20
 1762              		.cfi_offset 4, -20
 1763              		.cfi_offset 5, -16
 1764              		.cfi_offset 6, -12
 1765              		.cfi_offset 7, -8
 1766              		.cfi_offset 14, -4
 1767 0002 89B0     		sub	sp, sp, #36
 1768              		.cfi_def_cfa_offset 56
 1769              		.loc 1 723 0
 1770 0004 1D00     		movs	r5, r3
 1771 0006 0EAB     		add	r3, sp, #56
 1772              	.LVL164:
 1773 0008 1E88     		ldrh	r6, [r3]
 1774 000a 0FAB     		add	r3, sp, #60
 1775              	.LVL165:
 1776 000c 1400     		movs	r4, r2
 1777 000e 1A78     		ldrb	r2, [r3]
 1778              	.LVL166:
 724:frucd_display.c ****     int xFont, yFont;
 725:frucd_display.c ****     int horizFontSize = 12 + 20*size;
 726:frucd_display.c ****     int stringSize;
 727:frucd_display.c ****     stringSize = 6;
 728:frucd_display.c ****    
 729:frucd_display.c ****     xFont = (x1 + x2)/2 - ((horizFontSize*stringSize)/2);
 1779              		.loc 1 729 0
 1780 0010 1423     		movs	r3, #20
 1781              	.LVL167:
 723:frucd_display.c ****     int xFont, yFont;
 1782              		.loc 1 723 0
 1783 0012 0391     		str	r1, [sp, #12]
 1784              		.loc 1 729 0
 1785 0014 0621     		movs	r1, #6
 1786              	.LVL168:
 1787 0016 5343     		muls	r3, r2
 1788 0018 0C33     		adds	r3, r3, #12
 1789              	.LVL169:
 1790 001a 4B43     		muls	r3, r1
 1791              	.LVL170:
 1792 001c 0399     		ldr	r1, [sp, #12]
 723:frucd_display.c ****     int xFont, yFont;
ARM GAS  C:\Users\leoja\AppData\Local\Temp\ccM6wJLr.s 			page 47


 1793              		.loc 1 723 0
 1794 001e 0700     		movs	r7, r0
 1795              		.loc 1 729 0
 1796 0020 4819     		adds	r0, r1, r5
 1797              	.LVL171:
 730:frucd_display.c ****     yFont = (y1 + y2)/2 - 5 - (size*17);    
 1798              		.loc 1 730 0
 1799 0022 1121     		movs	r1, #17
 729:frucd_display.c ****     yFont = (y1 + y2)/2 - 5 - (size*17);    
 1800              		.loc 1 729 0
 1801 0024 5B10     		asrs	r3, r3, #1
 1802 0026 4010     		asrs	r0, r0, #1
 1803              		.loc 1 730 0
 1804 0028 4942     		rsbs	r1, r1, #0
 729:frucd_display.c ****     yFont = (y1 + y2)/2 - 5 - (size*17);    
 1805              		.loc 1 729 0
 1806 002a C31A     		subs	r3, r0, r3
 1807              		.loc 1 730 0
 1808 002c 5143     		muls	r1, r2
 729:frucd_display.c ****     yFont = (y1 + y2)/2 - 5 - (size*17);    
 1809              		.loc 1 729 0
 1810 002e 0493     		str	r3, [sp, #16]
 1811              	.LVL172:
 1812              		.loc 1 730 0
 1813 0030 A319     		adds	r3, r4, r6
 1814              	.LVL173:
 1815 0032 5B10     		asrs	r3, r3, #1
 1816 0034 053B     		subs	r3, r3, #5
 1817 0036 5B18     		adds	r3, r3, r1
 1818 0038 0593     		str	r3, [sp, #20]
 1819              	.LVL174:
 731:frucd_display.c ****     if(size == 1){
 1820              		.loc 1 731 0
 1821 003a 012A     		cmp	r2, #1
 1822 003c 02D1     		bne	.L95
 732:frucd_display.c ****         UG_FontSelect(&FONT_32X53);
 1823              		.loc 1 732 0
 1824 003e 1D48     		ldr	r0, .L97
 1825 0040 FFF7FEFF 		bl	UG_FontSelect
 1826              	.LVL175:
 1827              	.L95:
 733:frucd_display.c ****         
 734:frucd_display.c ****     }
 735:frucd_display.c ****     UG_FillFrame(x1, y1, x2, y2, C_GREEN);
 1828              		.loc 1 735 0
 1829 0044 6846     		mov	r0, sp
 1830 0046 21B2     		sxth	r1, r4
 1831 0048 0C24     		movs	r4, #12
 1832 004a 005F     		ldrsh	r0, [r0, r4]
 1833 004c FF24     		movs	r4, #255
 1834 004e 2402     		lsls	r4, r4, #8
 1835 0050 33B2     		sxth	r3, r6
 1836 0052 2AB2     		sxth	r2, r5
 1837 0054 0094     		str	r4, [sp]
 736:frucd_display.c ****     char data_s[7];
 737:frucd_display.c ****     sprintf(data_s, "%d", data);
 1838              		.loc 1 737 0
ARM GAS  C:\Users\leoja\AppData\Local\Temp\ccM6wJLr.s 			page 48


 1839 0056 06AC     		add	r4, sp, #24
 735:frucd_display.c ****     char data_s[7];
 1840              		.loc 1 735 0
 1841 0058 FFF7FEFF 		bl	UG_FillFrame
 1842              	.LVL176:
 1843              		.loc 1 737 0
 1844 005c 3A00     		movs	r2, r7
 1845 005e 1649     		ldr	r1, .L97+4
 1846 0060 2000     		movs	r0, r4
 1847 0062 FFF7FEFF 		bl	sprintf
 1848              	.LVL177:
 738:frucd_display.c ****     // handle 3 digit cases; 2 and 1 are practically impossible
 739:frucd_display.c ****     if (data < 1000) {
 1849              		.loc 1 739 0
 1850 0066 154B     		ldr	r3, .L97+8
 1851 0068 9F42     		cmp	r7, r3
 1852 006a 07D8     		bhi	.L96
 740:frucd_display.c ****         data_s[3] = data_s[2];
 1853              		.loc 1 740 0
 1854 006c A378     		ldrb	r3, [r4, #2]
 1855 006e E370     		strb	r3, [r4, #3]
 741:frucd_display.c ****         data_s[2] = data_s[1];
 1856              		.loc 1 741 0
 1857 0070 6378     		ldrb	r3, [r4, #1]
 1858 0072 A370     		strb	r3, [r4, #2]
 742:frucd_display.c ****         data_s[1] = data_s[0];  
 1859              		.loc 1 742 0
 1860 0074 2378     		ldrb	r3, [r4]
 1861 0076 6370     		strb	r3, [r4, #1]
 743:frucd_display.c ****         data_s[0] = ' ';
 1862              		.loc 1 743 0
 1863 0078 2023     		movs	r3, #32
 1864 007a 2370     		strb	r3, [r4]
 1865              	.L96:
 744:frucd_display.c ****     }
 745:frucd_display.c ****     // shift over fractional part
 746:frucd_display.c ****     data_s[4] = data_s[3];
 747:frucd_display.c ****     data_s[3] = data_s[2];
 748:frucd_display.c ****     // add syntax
 749:frucd_display.c ****     data_s[2] = '.';
 750:frucd_display.c ****     data_s[5] = 'V';
 751:frucd_display.c ****     data_s[6] = '\0';
 752:frucd_display.c ****     UG_PutColorString(xFont, yFont, data_s, C_BLACK, C_GREEN);
 1866              		.loc 1 752 0
 1867 007c 6A46     		mov	r2, sp
 746:frucd_display.c ****     data_s[3] = data_s[2];
 1868              		.loc 1 746 0
 1869 007e E378     		ldrb	r3, [r4, #3]
 1870              		.loc 1 752 0
 1871 0080 1421     		movs	r1, #20
 1872 0082 515E     		ldrsh	r1, [r2, r1]
 746:frucd_display.c ****     data_s[3] = data_s[2];
 1873              		.loc 1 746 0
 1874 0084 2371     		strb	r3, [r4, #4]
 747:frucd_display.c ****     // add syntax
 1875              		.loc 1 747 0
 1876 0086 A378     		ldrb	r3, [r4, #2]
ARM GAS  C:\Users\leoja\AppData\Local\Temp\ccM6wJLr.s 			page 49


 1877              		.loc 1 752 0
 1878 0088 6A46     		mov	r2, sp
 747:frucd_display.c ****     // add syntax
 1879              		.loc 1 747 0
 1880 008a E370     		strb	r3, [r4, #3]
 749:frucd_display.c ****     data_s[5] = 'V';
 1881              		.loc 1 749 0
 1882 008c 2E23     		movs	r3, #46
 1883              		.loc 1 752 0
 1884 008e 1020     		movs	r0, #16
 1885 0090 105E     		ldrsh	r0, [r2, r0]
 749:frucd_display.c ****     data_s[5] = 'V';
 1886              		.loc 1 749 0
 1887 0092 A370     		strb	r3, [r4, #2]
 1888              		.loc 1 752 0
 1889 0094 FF22     		movs	r2, #255
 750:frucd_display.c ****     data_s[6] = '\0';
 1890              		.loc 1 750 0
 1891 0096 2833     		adds	r3, r3, #40
 1892 0098 6371     		strb	r3, [r4, #5]
 751:frucd_display.c ****     UG_PutColorString(xFont, yFont, data_s, C_BLACK, C_GREEN);
 1893              		.loc 1 751 0
 1894 009a 0023     		movs	r3, #0
 1895              		.loc 1 752 0
 1896 009c 1202     		lsls	r2, r2, #8
 751:frucd_display.c ****     UG_PutColorString(xFont, yFont, data_s, C_BLACK, C_GREEN);
 1897              		.loc 1 751 0
 1898 009e A371     		strb	r3, [r4, #6]
 1899              		.loc 1 752 0
 1900 00a0 0092     		str	r2, [sp]
 1901 00a2 2200     		movs	r2, r4
 1902 00a4 FFF7FEFF 		bl	UG_PutColorString
 1903              	.LVL178:
 753:frucd_display.c ****     
 754:frucd_display.c ****     UG_FontSelect(&FONT_12X16);
 1904              		.loc 1 754 0
 1905 00a8 0548     		ldr	r0, .L97+12
 1906 00aa FFF7FEFF 		bl	UG_FontSelect
 1907              	.LVL179:
 755:frucd_display.c **** }
 1908              		.loc 1 755 0
 1909 00ae 09B0     		add	sp, sp, #36
 1910              		@ sp needed
 1911 00b0 F0BD     		pop	{r4, r5, r6, r7, pc}
 1912              	.L98:
 1913 00b2 C046     		.align	2
 1914              	.L97:
 1915 00b4 00000000 		.word	FONT_32X53
 1916 00b8 13010000 		.word	.LC73
 1917 00bc E7030000 		.word	999
 1918 00c0 00000000 		.word	FONT_12X16
 1919              		.cfi_endproc
 1920              	.LFE45:
 1921              		.size	disp_gen_voltage, .-disp_gen_voltage
 1922              		.section	.text.disp_shutdown_circuit,"ax",%progbits
 1923              		.align	1
 1924              		.global	disp_shutdown_circuit
ARM GAS  C:\Users\leoja\AppData\Local\Temp\ccM6wJLr.s 			page 50


 1925              		.code	16
 1926              		.thumb_func
 1927              		.type	disp_shutdown_circuit, %function
 1928              	disp_shutdown_circuit:
 1929              	.LFB46:
 756:frucd_display.c **** 
 757:frucd_display.c **** void disp_shutdown_circuit(uint8_t shutdown_flags, uint16_t x1, uint16_t y1, uint16_t x2, uint16_t 
 1930              		.loc 1 757 0
 1931              		.cfi_startproc
 1932              		@ args = 8, pretend = 0, frame = 16
 1933              		@ frame_needed = 0, uses_anonymous_args = 0
 1934              	.LVL180:
 1935 0000 F0B5     		push	{r4, r5, r6, r7, lr}
 1936              		.cfi_def_cfa_offset 20
 1937              		.cfi_offset 4, -20
 1938              		.cfi_offset 5, -16
 1939              		.cfi_offset 6, -12
 1940              		.cfi_offset 7, -8
 1941              		.cfi_offset 14, -4
 758:frucd_display.c ****     int xFont, yFont;
 759:frucd_display.c ****     int horizFontSize = 12 + 20*size;
 760:frucd_display.c ****     int stringSize;
 761:frucd_display.c ****     stringSize = 10;
 762:frucd_display.c ****     xFont = (x1 + x2)/2 - ((horizFontSize*stringSize)/2);
 1942              		.loc 1 762 0
 1943 0002 1426     		movs	r6, #20
 757:frucd_display.c ****     int xFont, yFont;
 1944              		.loc 1 757 0
 1945 0004 87B0     		sub	sp, sp, #28
 1946              		.cfi_def_cfa_offset 48
 757:frucd_display.c ****     int xFont, yFont;
 1947              		.loc 1 757 0
 1948 0006 0291     		str	r1, [sp, #8]
 1949              		.loc 1 762 0
 1950 0008 0A21     		movs	r1, #10
 1951              	.LVL181:
 757:frucd_display.c ****     int xFont, yFont;
 1952              		.loc 1 757 0
 1953 000a 0493     		str	r3, [sp, #16]
 1954 000c 0CAB     		add	r3, sp, #48
 1955              	.LVL182:
 1956 000e 1C88     		ldrh	r4, [r3]
 1957 0010 0DAB     		add	r3, sp, #52
 1958              	.LVL183:
 1959 0012 0392     		str	r2, [sp, #12]
 1960 0014 1A78     		ldrb	r2, [r3]
 1961              	.LVL184:
 1962 0016 0590     		str	r0, [sp, #20]
 1963              		.loc 1 762 0
 1964 0018 5643     		muls	r6, r2
 1965 001a 0C36     		adds	r6, r6, #12
 1966              	.LVL185:
 1967 001c 4E43     		muls	r6, r1
 1968              	.LVL186:
 1969 001e 0498     		ldr	r0, [sp, #16]
 1970              	.LVL187:
 1971 0020 0299     		ldr	r1, [sp, #8]
ARM GAS  C:\Users\leoja\AppData\Local\Temp\ccM6wJLr.s 			page 51


 1972 0022 7310     		asrs	r3, r6, #1
 1973              	.LVL188:
 1974 0024 0E18     		adds	r6, r1, r0
 1975 0026 7610     		asrs	r6, r6, #1
 1976 0028 F61A     		subs	r6, r6, r3
 1977              	.LVL189:
 763:frucd_display.c ****     yFont = (y1 + y2)/2 - 5 - (size*17);    
 1978              		.loc 1 763 0
 1979 002a 039B     		ldr	r3, [sp, #12]
 1980 002c 1F19     		adds	r7, r3, r4
 1981 002e 7F10     		asrs	r7, r7, #1
 1982 0030 7B1F     		subs	r3, r7, #5
 1983 0032 1127     		movs	r7, #17
 1984 0034 7F42     		rsbs	r7, r7, #0
 1985 0036 5743     		muls	r7, r2
 1986 0038 DF19     		adds	r7, r3, r7
 1987              	.LVL190:
 764:frucd_display.c ****     if(size == 1){
 1988              		.loc 1 764 0
 1989 003a 012A     		cmp	r2, #1
 1990 003c 02D1     		bne	.L100
 765:frucd_display.c ****         UG_FontSelect(&FONT_32X53);
 1991              		.loc 1 765 0
 1992 003e 7248     		ldr	r0, .L116
 1993 0040 FFF7FEFF 		bl	UG_FontSelect
 1994              	.LVL191:
 1995              	.L100:
 766:frucd_display.c ****         
 767:frucd_display.c ****     }
 768:frucd_display.c ****     UG_COLOR color;
 769:frucd_display.c ****     
 770:frucd_display.c ****     // 00| IMD_OK | BMS_OK | Shutdown Final | AIR1 | AIR2 | Precharge
 771:frucd_display.c ****     if (shutdown_flags & 0b00100000){
 1996              		.loc 1 771 0
 1997 0044 059B     		ldr	r3, [sp, #20]
 1998 0046 714D     		ldr	r5, .L116+4
 1999 0048 3FB2     		sxth	r7, r7
 2000              	.LVL192:
 2001 004a 36B2     		sxth	r6, r6
 2002              	.LVL193:
 2003 004c 9B06     		lsls	r3, r3, #26
 2004 004e 1BD5     		bpl	.L101
 2005              	.LVL194:
 772:frucd_display.c ****         color = C_RED;
 773:frucd_display.c ****         if (color != last_shutdown_color) {
 2006              		.loc 1 773 0
 2007 0050 2B68     		ldr	r3, [r5]
 2008 0052 1A00     		movs	r2, r3
 2009 0054 FF23     		movs	r3, #255
 2010 0056 1B04     		lsls	r3, r3, #16
 2011 0058 9A42     		cmp	r2, r3
 2012 005a 0FD0     		beq	.L102
 774:frucd_display.c ****             // only draw rectangle if color changed
 775:frucd_display.c ****             UG_FillFrame(x1, y1, x2, y2, color);
 2013              		.loc 1 775 0
 2014 005c 6A46     		mov	r2, sp
 2015 005e 1021     		movs	r1, #16
ARM GAS  C:\Users\leoja\AppData\Local\Temp\ccM6wJLr.s 			page 52


 2016 0060 525E     		ldrsh	r2, [r2, r1]
 2017 0062 6946     		mov	r1, sp
 2018 0064 0C20     		movs	r0, #12
 2019 0066 095E     		ldrsh	r1, [r1, r0]
 2020 0068 6846     		mov	r0, sp
 2021 006a 23B2     		sxth	r3, r4
 2022 006c 0824     		movs	r4, #8
 2023 006e 005F     		ldrsh	r0, [r0, r4]
 2024              	.LVL195:
 2025 0070 FF24     		movs	r4, #255
 2026 0072 2404     		lsls	r4, r4, #16
 2027 0074 0094     		str	r4, [sp]
 2028 0076 FFF7FEFF 		bl	UG_FillFrame
 2029              	.LVL196:
 776:frucd_display.c ****             last_shutdown_color = color;
 2030              		.loc 1 776 0
 2031 007a 2C60     		str	r4, [r5]
 2032              	.L102:
 777:frucd_display.c ****         }
 778:frucd_display.c ****         UG_PutColorString(xFont, yFont, "IMD_OK", C_BLACK, color);
 2033              		.loc 1 778 0
 2034 007c FF23     		movs	r3, #255
 2035 007e 1B04     		lsls	r3, r3, #16
 2036 0080 0093     		str	r3, [sp]
 2037 0082 634A     		ldr	r2, .L116+8
 2038 0084 0023     		movs	r3, #0
 2039 0086 B5E0     		b	.L115
 2040              	.LVL197:
 2041              	.L101:
 779:frucd_display.c ****     }
 780:frucd_display.c ****     else if (shutdown_flags & 0b00010000) {
 2042              		.loc 1 780 0
 2043 0088 059B     		ldr	r3, [sp, #20]
 2044 008a DB06     		lsls	r3, r3, #27
 2045 008c 1BD5     		bpl	.L104
 2046              	.LVL198:
 781:frucd_display.c ****         color = C_RED;
 782:frucd_display.c ****         if (color != last_shutdown_color) {
 2047              		.loc 1 782 0
 2048 008e 2B68     		ldr	r3, [r5]
 2049 0090 1A00     		movs	r2, r3
 2050 0092 FF23     		movs	r3, #255
 2051 0094 1B04     		lsls	r3, r3, #16
 2052 0096 9A42     		cmp	r2, r3
 2053 0098 0FD0     		beq	.L105
 783:frucd_display.c ****             // only draw rectangle if color changed
 784:frucd_display.c ****             UG_FillFrame(x1, y1, x2, y2, color);
 2054              		.loc 1 784 0
 2055 009a 6A46     		mov	r2, sp
 2056 009c 1021     		movs	r1, #16
 2057 009e 525E     		ldrsh	r2, [r2, r1]
 2058 00a0 6946     		mov	r1, sp
 2059 00a2 0C20     		movs	r0, #12
 2060 00a4 095E     		ldrsh	r1, [r1, r0]
 2061 00a6 6846     		mov	r0, sp
 2062 00a8 23B2     		sxth	r3, r4
 2063 00aa 0824     		movs	r4, #8
ARM GAS  C:\Users\leoja\AppData\Local\Temp\ccM6wJLr.s 			page 53


 2064 00ac 005F     		ldrsh	r0, [r0, r4]
 2065              	.LVL199:
 2066 00ae FF24     		movs	r4, #255
 2067 00b0 2404     		lsls	r4, r4, #16
 2068 00b2 0094     		str	r4, [sp]
 2069 00b4 FFF7FEFF 		bl	UG_FillFrame
 2070              	.LVL200:
 785:frucd_display.c ****             last_shutdown_color = color;
 2071              		.loc 1 785 0
 2072 00b8 2C60     		str	r4, [r5]
 2073              	.L105:
 786:frucd_display.c ****         }
 787:frucd_display.c ****         UG_PutColorString(xFont, yFont, "BMS_OK", C_BLACK, color);
 2074              		.loc 1 787 0
 2075 00ba FF23     		movs	r3, #255
 2076 00bc 1B04     		lsls	r3, r3, #16
 2077 00be 0093     		str	r3, [sp]
 2078 00c0 544A     		ldr	r2, .L116+12
 2079 00c2 0023     		movs	r3, #0
 2080 00c4 96E0     		b	.L115
 2081              	.LVL201:
 2082              	.L104:
 788:frucd_display.c ****     }
 789:frucd_display.c ****     else if (shutdown_flags & 0b00001000) {
 2083              		.loc 1 789 0
 2084 00c6 059B     		ldr	r3, [sp, #20]
 2085 00c8 1B07     		lsls	r3, r3, #28
 2086 00ca 1BD5     		bpl	.L106
 2087              	.LVL202:
 790:frucd_display.c ****         color = C_RED;
 791:frucd_display.c ****         if (color != last_shutdown_color) {
 2088              		.loc 1 791 0
 2089 00cc 2B68     		ldr	r3, [r5]
 2090 00ce 1A00     		movs	r2, r3
 2091 00d0 FF23     		movs	r3, #255
 2092 00d2 1B04     		lsls	r3, r3, #16
 2093 00d4 9A42     		cmp	r2, r3
 2094 00d6 0FD0     		beq	.L107
 792:frucd_display.c ****             // only draw rectangle if color changed
 793:frucd_display.c ****             UG_FillFrame(x1, y1, x2, y2, color);
 2095              		.loc 1 793 0
 2096 00d8 6A46     		mov	r2, sp
 2097 00da 1021     		movs	r1, #16
 2098 00dc 525E     		ldrsh	r2, [r2, r1]
 2099 00de 6946     		mov	r1, sp
 2100 00e0 0C20     		movs	r0, #12
 2101 00e2 095E     		ldrsh	r1, [r1, r0]
 2102 00e4 6846     		mov	r0, sp
 2103 00e6 23B2     		sxth	r3, r4
 2104 00e8 0824     		movs	r4, #8
 2105 00ea 005F     		ldrsh	r0, [r0, r4]
 2106              	.LVL203:
 2107 00ec FF24     		movs	r4, #255
 2108 00ee 2404     		lsls	r4, r4, #16
 2109 00f0 0094     		str	r4, [sp]
 2110 00f2 FFF7FEFF 		bl	UG_FillFrame
 2111              	.LVL204:
ARM GAS  C:\Users\leoja\AppData\Local\Temp\ccM6wJLr.s 			page 54


 794:frucd_display.c ****             last_shutdown_color = color;
 2112              		.loc 1 794 0
 2113 00f6 2C60     		str	r4, [r5]
 2114              	.L107:
 795:frucd_display.c ****         }
 796:frucd_display.c ****         UG_PutColorString(xFont, yFont, "Shutdown_Final", C_BLACK, color);
 2115              		.loc 1 796 0
 2116 00f8 FF23     		movs	r3, #255
 2117 00fa 1B04     		lsls	r3, r3, #16
 2118 00fc 0093     		str	r3, [sp]
 2119 00fe 464A     		ldr	r2, .L116+16
 2120 0100 0023     		movs	r3, #0
 2121 0102 77E0     		b	.L115
 2122              	.LVL205:
 2123              	.L106:
 797:frucd_display.c ****     }
 798:frucd_display.c ****     else if (shutdown_flags & 0b00000100) {
 2124              		.loc 1 798 0
 2125 0104 059B     		ldr	r3, [sp, #20]
 2126 0106 5B07     		lsls	r3, r3, #29
 2127 0108 1BD5     		bpl	.L108
 2128              	.LVL206:
 799:frucd_display.c ****         color = C_RED;
 800:frucd_display.c ****         if (color != last_shutdown_color) {
 2129              		.loc 1 800 0
 2130 010a 2B68     		ldr	r3, [r5]
 2131 010c 1A00     		movs	r2, r3
 2132 010e FF23     		movs	r3, #255
 2133 0110 1B04     		lsls	r3, r3, #16
 2134 0112 9A42     		cmp	r2, r3
 2135 0114 0FD0     		beq	.L109
 801:frucd_display.c ****             // only draw rectangle if color changed
 802:frucd_display.c ****             UG_FillFrame(x1, y1, x2, y2, color);
 2136              		.loc 1 802 0
 2137 0116 6A46     		mov	r2, sp
 2138 0118 1021     		movs	r1, #16
 2139 011a 525E     		ldrsh	r2, [r2, r1]
 2140 011c 6946     		mov	r1, sp
 2141 011e 0C20     		movs	r0, #12
 2142 0120 095E     		ldrsh	r1, [r1, r0]
 2143 0122 6846     		mov	r0, sp
 2144 0124 23B2     		sxth	r3, r4
 2145 0126 0824     		movs	r4, #8
 2146 0128 005F     		ldrsh	r0, [r0, r4]
 2147              	.LVL207:
 2148 012a FF24     		movs	r4, #255
 2149 012c 2404     		lsls	r4, r4, #16
 2150 012e 0094     		str	r4, [sp]
 2151 0130 FFF7FEFF 		bl	UG_FillFrame
 2152              	.LVL208:
 803:frucd_display.c ****             last_shutdown_color = color;
 2153              		.loc 1 803 0
 2154 0134 2C60     		str	r4, [r5]
 2155              	.L109:
 804:frucd_display.c ****         }
 805:frucd_display.c ****         UG_PutColorString(xFont, yFont, "AIR_1", C_BLACK, color);
 2156              		.loc 1 805 0
ARM GAS  C:\Users\leoja\AppData\Local\Temp\ccM6wJLr.s 			page 55


 2157 0136 FF23     		movs	r3, #255
 2158 0138 1B04     		lsls	r3, r3, #16
 2159 013a 0093     		str	r3, [sp]
 2160 013c 374A     		ldr	r2, .L116+20
 2161 013e 0023     		movs	r3, #0
 2162 0140 58E0     		b	.L115
 2163              	.LVL209:
 2164              	.L108:
 806:frucd_display.c ****     }
 807:frucd_display.c ****     else if (shutdown_flags & 0b00000010) {
 2165              		.loc 1 807 0
 2166 0142 059B     		ldr	r3, [sp, #20]
 2167 0144 9B07     		lsls	r3, r3, #30
 2168 0146 1BD5     		bpl	.L110
 2169              	.LVL210:
 808:frucd_display.c ****         color = C_RED;
 809:frucd_display.c ****         if (color != last_shutdown_color) {
 2170              		.loc 1 809 0
 2171 0148 2B68     		ldr	r3, [r5]
 2172 014a 1A00     		movs	r2, r3
 2173 014c FF23     		movs	r3, #255
 2174 014e 1B04     		lsls	r3, r3, #16
 2175 0150 9A42     		cmp	r2, r3
 2176 0152 0FD0     		beq	.L111
 810:frucd_display.c ****             // only draw rectangle if color changed
 811:frucd_display.c ****             UG_FillFrame(x1, y1, x2, y2, color);
 2177              		.loc 1 811 0
 2178 0154 6A46     		mov	r2, sp
 2179 0156 1021     		movs	r1, #16
 2180 0158 525E     		ldrsh	r2, [r2, r1]
 2181 015a 6946     		mov	r1, sp
 2182 015c 0C20     		movs	r0, #12
 2183 015e 095E     		ldrsh	r1, [r1, r0]
 2184 0160 6846     		mov	r0, sp
 2185 0162 23B2     		sxth	r3, r4
 2186 0164 0824     		movs	r4, #8
 2187 0166 005F     		ldrsh	r0, [r0, r4]
 2188              	.LVL211:
 2189 0168 FF24     		movs	r4, #255
 2190 016a 2404     		lsls	r4, r4, #16
 2191 016c 0094     		str	r4, [sp]
 2192 016e FFF7FEFF 		bl	UG_FillFrame
 2193              	.LVL212:
 812:frucd_display.c ****             last_shutdown_color = color;
 2194              		.loc 1 812 0
 2195 0172 2C60     		str	r4, [r5]
 2196              	.L111:
 813:frucd_display.c ****         }
 814:frucd_display.c ****         UG_PutColorString(xFont, yFont, "AIR_2", C_BLACK, color);
 2197              		.loc 1 814 0
 2198 0174 FF23     		movs	r3, #255
 2199 0176 1B04     		lsls	r3, r3, #16
 2200 0178 0093     		str	r3, [sp]
 2201 017a 294A     		ldr	r2, .L116+24
 2202 017c 0023     		movs	r3, #0
 2203 017e 39E0     		b	.L115
 2204              	.LVL213:
ARM GAS  C:\Users\leoja\AppData\Local\Temp\ccM6wJLr.s 			page 56


 2205              	.L110:
 815:frucd_display.c ****     }
 816:frucd_display.c ****     else if (shutdown_flags & 0b00000001) {
 2206              		.loc 1 816 0
 2207 0180 059B     		ldr	r3, [sp, #20]
 2208 0182 DB07     		lsls	r3, r3, #31
 2209 0184 1BD5     		bpl	.L112
 2210              	.LVL214:
 817:frucd_display.c ****         color = C_RED;
 818:frucd_display.c ****         if (color != last_shutdown_color) {
 2211              		.loc 1 818 0
 2212 0186 2B68     		ldr	r3, [r5]
 2213 0188 1A00     		movs	r2, r3
 2214 018a FF23     		movs	r3, #255
 2215 018c 1B04     		lsls	r3, r3, #16
 2216 018e 9A42     		cmp	r2, r3
 2217 0190 0FD0     		beq	.L113
 819:frucd_display.c ****             // only draw rectangle if color changed
 820:frucd_display.c ****             UG_FillFrame(x1, y1, x2, y2, color);
 2218              		.loc 1 820 0
 2219 0192 6A46     		mov	r2, sp
 2220 0194 1021     		movs	r1, #16
 2221 0196 525E     		ldrsh	r2, [r2, r1]
 2222 0198 6946     		mov	r1, sp
 2223 019a 0C20     		movs	r0, #12
 2224 019c 095E     		ldrsh	r1, [r1, r0]
 2225 019e 6846     		mov	r0, sp
 2226 01a0 23B2     		sxth	r3, r4
 2227 01a2 0824     		movs	r4, #8
 2228 01a4 005F     		ldrsh	r0, [r0, r4]
 2229              	.LVL215:
 2230 01a6 FF24     		movs	r4, #255
 2231 01a8 2404     		lsls	r4, r4, #16
 2232 01aa 0094     		str	r4, [sp]
 2233 01ac FFF7FEFF 		bl	UG_FillFrame
 2234              	.LVL216:
 821:frucd_display.c ****             last_shutdown_color = color;
 2235              		.loc 1 821 0
 2236 01b0 2C60     		str	r4, [r5]
 2237              	.L113:
 822:frucd_display.c ****         }
 823:frucd_display.c ****         UG_PutColorString(xFont, yFont, "Precharge", C_BLACK, color);
 2238              		.loc 1 823 0
 2239 01b2 FF23     		movs	r3, #255
 2240 01b4 1B04     		lsls	r3, r3, #16
 2241 01b6 0093     		str	r3, [sp]
 2242 01b8 1A4A     		ldr	r2, .L116+28
 2243 01ba 0023     		movs	r3, #0
 2244 01bc 1AE0     		b	.L115
 2245              	.LVL217:
 2246              	.L112:
 824:frucd_display.c ****     }
 825:frucd_display.c ****     else {
 826:frucd_display.c ****         color = C_GREEN;
 827:frucd_display.c ****         if (color != last_shutdown_color) {
 2247              		.loc 1 827 0
 2248 01be 2B68     		ldr	r3, [r5]
ARM GAS  C:\Users\leoja\AppData\Local\Temp\ccM6wJLr.s 			page 57


 2249 01c0 1A00     		movs	r2, r3
 2250 01c2 FF23     		movs	r3, #255
 2251 01c4 1B02     		lsls	r3, r3, #8
 2252 01c6 9A42     		cmp	r2, r3
 2253 01c8 0FD0     		beq	.L114
 828:frucd_display.c ****             // only draw rectangle if color changed
 829:frucd_display.c ****             UG_FillFrame(x1, y1, x2, y2, color);
 2254              		.loc 1 829 0
 2255 01ca 6A46     		mov	r2, sp
 2256 01cc 1021     		movs	r1, #16
 2257 01ce 525E     		ldrsh	r2, [r2, r1]
 2258 01d0 6946     		mov	r1, sp
 2259 01d2 0C20     		movs	r0, #12
 2260 01d4 095E     		ldrsh	r1, [r1, r0]
 2261 01d6 6846     		mov	r0, sp
 2262 01d8 23B2     		sxth	r3, r4
 2263 01da 0824     		movs	r4, #8
 2264 01dc 005F     		ldrsh	r0, [r0, r4]
 2265              	.LVL218:
 2266 01de FF24     		movs	r4, #255
 2267 01e0 2402     		lsls	r4, r4, #8
 2268 01e2 0094     		str	r4, [sp]
 2269 01e4 FFF7FEFF 		bl	UG_FillFrame
 2270              	.LVL219:
 830:frucd_display.c ****             last_shutdown_color = color;
 2271              		.loc 1 830 0
 2272 01e8 2C60     		str	r4, [r5]
 2273              	.L114:
 831:frucd_display.c ****         }
 832:frucd_display.c ****         UG_PutColorString(xFont, yFont, "None", C_BLACK, color);
 2274              		.loc 1 832 0
 2275 01ea FF23     		movs	r3, #255
 2276 01ec 1B02     		lsls	r3, r3, #8
 2277 01ee 0093     		str	r3, [sp]
 2278 01f0 0023     		movs	r3, #0
 2279 01f2 0D4A     		ldr	r2, .L116+32
 2280              	.LVL220:
 2281              	.L115:
 2282 01f4 3900     		movs	r1, r7
 2283 01f6 3000     		movs	r0, r6
 2284 01f8 FFF7FEFF 		bl	UG_PutColorString
 2285              	.LVL221:
 833:frucd_display.c ****     }
 834:frucd_display.c ****     
 835:frucd_display.c ****     
 836:frucd_display.c ****     UG_FontSelect(&FONT_12X16);
 2286              		.loc 1 836 0
 2287 01fc 0B48     		ldr	r0, .L116+36
 2288 01fe FFF7FEFF 		bl	UG_FontSelect
 2289              	.LVL222:
 837:frucd_display.c **** }
 2290              		.loc 1 837 0
 2291 0202 07B0     		add	sp, sp, #28
 2292              		@ sp needed
 2293 0204 F0BD     		pop	{r4, r5, r6, r7, pc}
 2294              	.L117:
 2295 0206 C046     		.align	2
ARM GAS  C:\Users\leoja\AppData\Local\Temp\ccM6wJLr.s 			page 58


 2296              	.L116:
 2297 0208 00000000 		.word	FONT_32X53
 2298 020c 00000000 		.word	last_shutdown_color
 2299 0210 16010000 		.word	.LC81
 2300 0214 1D010000 		.word	.LC83
 2301 0218 24010000 		.word	.LC85
 2302 021c 33010000 		.word	.LC87
 2303 0220 39010000 		.word	.LC89
 2304 0224 3F010000 		.word	.LC91
 2305 0228 49010000 		.word	.LC93
 2306 022c 00000000 		.word	FONT_12X16
 2307              		.cfi_endproc
 2308              	.LFE46:
 2309              		.size	disp_shutdown_circuit, .-disp_shutdown_circuit
 2310              		.section	.text.disp_debug,"ax",%progbits
 2311              		.align	1
 2312              		.global	disp_debug
 2313              		.code	16
 2314              		.thumb_func
 2315              		.type	disp_debug, %function
 2316              	disp_debug:
 2317              	.LFB47:
 838:frucd_display.c **** 
 839:frucd_display.c **** void disp_debug(uint16_t data, uint16_t x1, uint16_t y1, uint16_t x2, uint16_t y2, uint8_t size) {
 2318              		.loc 1 839 0
 2319              		.cfi_startproc
 2320              		@ args = 8, pretend = 0, frame = 32
 2321              		@ frame_needed = 0, uses_anonymous_args = 0
 2322              	.LVL223:
 2323 0000 F0B5     		push	{r4, r5, r6, r7, lr}
 2324              		.cfi_def_cfa_offset 20
 2325              		.cfi_offset 4, -20
 2326              		.cfi_offset 5, -16
 2327              		.cfi_offset 6, -12
 2328              		.cfi_offset 7, -8
 2329              		.cfi_offset 14, -4
 2330 0002 8BB0     		sub	sp, sp, #44
 2331              		.cfi_def_cfa_offset 64
 2332              		.loc 1 839 0
 2333 0004 1F00     		movs	r7, r3
 2334 0006 10AB     		add	r3, sp, #64
 2335              	.LVL224:
 2336 0008 1E88     		ldrh	r6, [r3]
 2337 000a 11AB     		add	r3, sp, #68
 2338              	.LVL225:
 2339 000c 1500     		movs	r5, r2
 2340 000e 1A78     		ldrb	r2, [r3]
 2341              	.LVL226:
 840:frucd_display.c ****     int xFont, yFont;
 841:frucd_display.c ****     int horizFontSize = 12 + 20*size;
 842:frucd_display.c ****     int stringSize;
 843:frucd_display.c ****     stringSize = 10;
 844:frucd_display.c ****     xFont = (x1 + x2)/2 - ((horizFontSize*stringSize)/2);
 2342              		.loc 1 844 0
 2343 0010 1423     		movs	r3, #20
 2344              	.LVL227:
 839:frucd_display.c ****     int xFont, yFont;
ARM GAS  C:\Users\leoja\AppData\Local\Temp\ccM6wJLr.s 			page 59


 2345              		.loc 1 839 0
 2346 0012 0C00     		movs	r4, r1
 2347              		.loc 1 844 0
 2348 0014 0A21     		movs	r1, #10
 2349              	.LVL228:
 2350 0016 5343     		muls	r3, r2
 2351 0018 0C33     		adds	r3, r3, #12
 2352              	.LVL229:
 2353 001a 4B43     		muls	r3, r1
 2354              	.LVL230:
 839:frucd_display.c ****     int xFont, yFont;
 2355              		.loc 1 839 0
 2356 001c 0590     		str	r0, [sp, #20]
 2357              		.loc 1 844 0
 2358 001e E019     		adds	r0, r4, r7
 2359              	.LVL231:
 2360 0020 5B10     		asrs	r3, r3, #1
 2361 0022 4010     		asrs	r0, r0, #1
 845:frucd_display.c ****     yFont = (y1 + y2)/2 - 5 - (size*17);    
 2362              		.loc 1 845 0
 2363 0024 1B39     		subs	r1, r1, #27
 844:frucd_display.c ****     yFont = (y1 + y2)/2 - 5 - (size*17);    
 2364              		.loc 1 844 0
 2365 0026 C31A     		subs	r3, r0, r3
 2366              		.loc 1 845 0
 2367 0028 5143     		muls	r1, r2
 844:frucd_display.c ****     yFont = (y1 + y2)/2 - 5 - (size*17);    
 2368              		.loc 1 844 0
 2369 002a 0393     		str	r3, [sp, #12]
 2370              	.LVL232:
 2371              		.loc 1 845 0
 2372 002c AB19     		adds	r3, r5, r6
 2373              	.LVL233:
 2374 002e 5B10     		asrs	r3, r3, #1
 2375 0030 053B     		subs	r3, r3, #5
 2376 0032 5B18     		adds	r3, r3, r1
 2377 0034 0493     		str	r3, [sp, #16]
 2378              	.LVL234:
 846:frucd_display.c ****     if(size == 1){
 2379              		.loc 1 846 0
 2380 0036 012A     		cmp	r2, #1
 2381 0038 02D1     		bne	.L119
 847:frucd_display.c ****         UG_FontSelect(&FONT_32X53);
 2382              		.loc 1 847 0
 2383 003a 1048     		ldr	r0, .L120
 2384 003c FFF7FEFF 		bl	UG_FontSelect
 2385              	.LVL235:
 2386              	.L119:
 848:frucd_display.c ****     }
 849:frucd_display.c ****     
 850:frucd_display.c ****     // choose color
 851:frucd_display.c ****     UG_COLOR color = C_GREEN_YELLOW;
 852:frucd_display.c **** 
 853:frucd_display.c ****     char data_s[10];
 854:frucd_display.c ****     sprintf(data_s, "%d", data);
 2387              		.loc 1 854 0
 2388 0040 059A     		ldr	r2, [sp, #20]
ARM GAS  C:\Users\leoja\AppData\Local\Temp\ccM6wJLr.s 			page 60


 2389 0042 0F49     		ldr	r1, .L120+4
 2390 0044 07A8     		add	r0, sp, #28
 2391 0046 FFF7FEFF 		bl	sprintf
 2392              	.LVL236:
 855:frucd_display.c ****     UG_FillFrame(x1, y1, x2, y2, color);
 2393              		.loc 1 855 0
 2394 004a 3AB2     		sxth	r2, r7
 2395 004c 0D4F     		ldr	r7, .L120+8
 2396 004e 33B2     		sxth	r3, r6
 2397 0050 29B2     		sxth	r1, r5
 2398 0052 20B2     		sxth	r0, r4
 2399 0054 0097     		str	r7, [sp]
 2400 0056 FFF7FEFF 		bl	UG_FillFrame
 2401              	.LVL237:
 856:frucd_display.c ****     UG_PutColorString(xFont, yFont, data_s, C_BLACK, color);
 2402              		.loc 1 856 0
 2403 005a 6B46     		mov	r3, sp
 2404 005c 1021     		movs	r1, #16
 2405 005e 595E     		ldrsh	r1, [r3, r1]
 2406 0060 6B46     		mov	r3, sp
 2407 0062 07AA     		add	r2, sp, #28
 2408 0064 0C20     		movs	r0, #12
 2409 0066 185E     		ldrsh	r0, [r3, r0]
 2410 0068 0023     		movs	r3, #0
 2411 006a 0097     		str	r7, [sp]
 2412 006c FFF7FEFF 		bl	UG_PutColorString
 2413              	.LVL238:
 857:frucd_display.c ****     UG_FontSelect(&FONT_12X16);
 2414              		.loc 1 857 0
 2415 0070 0548     		ldr	r0, .L120+12
 2416 0072 FFF7FEFF 		bl	UG_FontSelect
 2417              	.LVL239:
 858:frucd_display.c **** }
 2418              		.loc 1 858 0
 2419 0076 0BB0     		add	sp, sp, #44
 2420              		@ sp needed
 2421 0078 F0BD     		pop	{r4, r5, r6, r7, pc}
 2422              	.L121:
 2423 007a C046     		.align	2
 2424              	.L120:
 2425 007c 00000000 		.word	FONT_32X53
 2426 0080 13010000 		.word	.LC73
 2427 0084 2FFFAD00 		.word	11403055
 2428 0088 00000000 		.word	FONT_12X16
 2429              		.cfi_endproc
 2430              	.LFE47:
 2431              		.size	disp_debug, .-disp_debug
 2432              		.section	.text.disp_mc_fault,"ax",%progbits
 2433              		.align	1
 2434              		.global	disp_mc_fault
 2435              		.code	16
 2436              		.thumb_func
 2437              		.type	disp_mc_fault, %function
 2438              	disp_mc_fault:
 2439              	.LFB48:
 859:frucd_display.c **** 
 860:frucd_display.c **** void disp_mc_fault(uint8_t data[8], uint16_t x1, uint16_t y1, uint16_t x2, uint16_t y2, uint8_t siz
ARM GAS  C:\Users\leoja\AppData\Local\Temp\ccM6wJLr.s 			page 61


 2440              		.loc 1 860 0
 2441              		.cfi_startproc
 2442              		@ args = 8, pretend = 0, frame = 32
 2443              		@ frame_needed = 0, uses_anonymous_args = 0
 2444              	.LVL240:
 2445 0000 F0B5     		push	{r4, r5, r6, r7, lr}
 2446              		.cfi_def_cfa_offset 20
 2447              		.cfi_offset 4, -20
 2448              		.cfi_offset 5, -16
 2449              		.cfi_offset 6, -12
 2450              		.cfi_offset 7, -8
 2451              		.cfi_offset 14, -4
 2452 0002 8BB0     		sub	sp, sp, #44
 2453              		.cfi_def_cfa_offset 64
 2454              		.loc 1 860 0
 2455 0004 1E00     		movs	r6, r3
 2456 0006 10AB     		add	r3, sp, #64
 2457              	.LVL241:
 2458 0008 1F88     		ldrh	r7, [r3]
 2459 000a 11AB     		add	r3, sp, #68
 2460              	.LVL242:
 2461 000c 1500     		movs	r5, r2
 2462 000e 1A78     		ldrb	r2, [r3]
 2463              	.LVL243:
 861:frucd_display.c ****     int xFont, yFont;
 862:frucd_display.c ****     int horizFontSize = 12 + 20*size;
 863:frucd_display.c ****     int stringSize;
 864:frucd_display.c ****     stringSize = 10;
 865:frucd_display.c ****     xFont = (x1 + x2)/2 - ((horizFontSize*stringSize)/2);
 2464              		.loc 1 865 0
 2465 0010 1423     		movs	r3, #20
 2466              	.LVL244:
 860:frucd_display.c ****     int xFont, yFont;
 2467              		.loc 1 860 0
 2468 0012 0C00     		movs	r4, r1
 2469              		.loc 1 865 0
 2470 0014 0A21     		movs	r1, #10
 2471              	.LVL245:
 2472 0016 5343     		muls	r3, r2
 2473 0018 0C33     		adds	r3, r3, #12
 2474              	.LVL246:
 2475 001a 4B43     		muls	r3, r1
 2476              	.LVL247:
 860:frucd_display.c ****     int xFont, yFont;
 2477              		.loc 1 860 0
 2478 001c 0590     		str	r0, [sp, #20]
 2479              		.loc 1 865 0
 2480 001e A019     		adds	r0, r4, r6
 2481              	.LVL248:
 2482 0020 5B10     		asrs	r3, r3, #1
 2483 0022 4010     		asrs	r0, r0, #1
 866:frucd_display.c ****     yFont = (y1 + y2)/2 - 5 - (size*17);    
 2484              		.loc 1 866 0
 2485 0024 1B39     		subs	r1, r1, #27
 865:frucd_display.c ****     yFont = (y1 + y2)/2 - 5 - (size*17);    
 2486              		.loc 1 865 0
 2487 0026 C31A     		subs	r3, r0, r3
ARM GAS  C:\Users\leoja\AppData\Local\Temp\ccM6wJLr.s 			page 62


 2488              		.loc 1 866 0
 2489 0028 5143     		muls	r1, r2
 865:frucd_display.c ****     yFont = (y1 + y2)/2 - 5 - (size*17);    
 2490              		.loc 1 865 0
 2491 002a 0393     		str	r3, [sp, #12]
 2492              	.LVL249:
 2493              		.loc 1 866 0
 2494 002c EB19     		adds	r3, r5, r7
 2495              	.LVL250:
 2496 002e 5B10     		asrs	r3, r3, #1
 2497 0030 053B     		subs	r3, r3, #5
 2498 0032 5B18     		adds	r3, r3, r1
 2499 0034 0493     		str	r3, [sp, #16]
 2500              	.LVL251:
 867:frucd_display.c ****     if(size == 1){
 2501              		.loc 1 867 0
 2502 0036 012A     		cmp	r2, #1
 2503 0038 02D1     		bne	.L123
 868:frucd_display.c ****         UG_FontSelect(&FONT_32X53);
 2504              		.loc 1 868 0
 2505 003a 1548     		ldr	r0, .L127
 2506 003c FFF7FEFF 		bl	UG_FontSelect
 2507              	.LVL252:
 2508              	.L123:
 860:frucd_display.c ****     int xFont, yFont;
 2509              		.loc 1 860 0
 2510 0040 0021     		movs	r1, #0
 2511              	.LVL253:
 2512              	.L125:
 869:frucd_display.c ****     }
 870:frucd_display.c ****     
 871:frucd_display.c ****     // choose color
 872:frucd_display.c ****     UG_COLOR color = C_GREEN;
 873:frucd_display.c ****     
 874:frucd_display.c ****     uint8_t printed_data = 0; 
 875:frucd_display.c ****     uint8_t i = 0;
 876:frucd_display.c ****     for (; i < 8; i++) {
 877:frucd_display.c ****         if (data[i] > 0) {
 2513              		.loc 1 877 0
 2514 0042 059B     		ldr	r3, [sp, #20]
 2515 0044 CAB2     		uxtb	r2, r1
 2516              	.LVL254:
 2517 0046 5B5C     		ldrb	r3, [r3, r1]
 2518 0048 002B     		cmp	r3, #0
 2519 004a 03D1     		bne	.L124
 2520              	.LVL255:
 2521 004c 0131     		adds	r1, r1, #1
 2522              	.LVL256:
 876:frucd_display.c ****         if (data[i] > 0) {
 2523              		.loc 1 876 0
 2524 004e 0829     		cmp	r1, #8
 2525 0050 F7D1     		bne	.L125
 2526 0052 0A00     		movs	r2, r1
 2527              	.LVL257:
 2528              	.L124:
 878:frucd_display.c ****             printed_data = data[i];
 879:frucd_display.c ****             break;
ARM GAS  C:\Users\leoja\AppData\Local\Temp\ccM6wJLr.s 			page 63


 880:frucd_display.c ****         }
 881:frucd_display.c ****     }
 882:frucd_display.c **** 
 883:frucd_display.c ****     char data_s[10];
 884:frucd_display.c ****     sprintf(data_s, "%d:%d", i, printed_data);
 2529              		.loc 1 884 0
 2530 0054 0F49     		ldr	r1, .L127+4
 2531 0056 07A8     		add	r0, sp, #28
 2532 0058 FFF7FEFF 		bl	sprintf
 2533              	.LVL258:
 885:frucd_display.c ****     UG_FillFrame(x1, y1, x2, y2, color);
 2534              		.loc 1 885 0
 2535 005c 32B2     		sxth	r2, r6
 2536 005e FF26     		movs	r6, #255
 2537 0060 3602     		lsls	r6, r6, #8
 2538 0062 3BB2     		sxth	r3, r7
 2539 0064 29B2     		sxth	r1, r5
 2540 0066 20B2     		sxth	r0, r4
 2541 0068 0096     		str	r6, [sp]
 2542 006a FFF7FEFF 		bl	UG_FillFrame
 2543              	.LVL259:
 886:frucd_display.c ****     UG_PutColorString(xFont, yFont, data_s, C_BLACK, color);
 2544              		.loc 1 886 0
 2545 006e 6B46     		mov	r3, sp
 2546 0070 1021     		movs	r1, #16
 2547 0072 595E     		ldrsh	r1, [r3, r1]
 2548 0074 6B46     		mov	r3, sp
 2549 0076 07AA     		add	r2, sp, #28
 2550 0078 0C20     		movs	r0, #12
 2551 007a 185E     		ldrsh	r0, [r3, r0]
 2552 007c 0023     		movs	r3, #0
 2553 007e 0096     		str	r6, [sp]
 2554 0080 FFF7FEFF 		bl	UG_PutColorString
 2555              	.LVL260:
 887:frucd_display.c ****     UG_FontSelect(&FONT_12X16);
 2556              		.loc 1 887 0
 2557 0084 0448     		ldr	r0, .L127+8
 2558 0086 FFF7FEFF 		bl	UG_FontSelect
 2559              	.LVL261:
 888:frucd_display.c **** }
 2560              		.loc 1 888 0
 2561 008a 0BB0     		add	sp, sp, #44
 2562              		@ sp needed
 2563 008c F0BD     		pop	{r4, r5, r6, r7, pc}
 2564              	.L128:
 2565 008e C046     		.align	2
 2566              	.L127:
 2567 0090 00000000 		.word	FONT_32X53
 2568 0094 4E010000 		.word	.LC102
 2569 0098 00000000 		.word	FONT_12X16
 2570              		.cfi_endproc
 2571              	.LFE48:
 2572              		.size	disp_mc_fault, .-disp_mc_fault
 2573              		.section	.text.clear_colors,"ax",%progbits
 2574              		.align	1
 2575              		.global	clear_colors
 2576              		.code	16
ARM GAS  C:\Users\leoja\AppData\Local\Temp\ccM6wJLr.s 			page 64


 2577              		.thumb_func
 2578              		.type	clear_colors, %function
 2579              	clear_colors:
 2580              	.LFB49:
 889:frucd_display.c **** 
 890:frucd_display.c **** void clear_colors(void)
 891:frucd_display.c **** {
 2581              		.loc 1 891 0
 2582              		.cfi_startproc
 2583              		@ args = 0, pretend = 0, frame = 0
 2584              		@ frame_needed = 0, uses_anonymous_args = 0
 2585              		@ link register save eliminated.
 892:frucd_display.c ****     last_SOC_color = C_BLACK;
 2586              		.loc 1 892 0
 2587 0000 0023     		movs	r3, #0
 2588 0002 074A     		ldr	r2, .L130
 893:frucd_display.c ****     last_max_pack_temp_color = C_BLACK;
 894:frucd_display.c ****     last_state_color = C_BLACK;
 895:frucd_display.c ****     last_glv_v_color = C_BLACK;
 896:frucd_display.c ****     last_mc_temp_color = C_BLACK;
 897:frucd_display.c ****     last_motor_temp_color = C_BLACK;
 898:frucd_display.c ****     last_shutdown_color = C_BLACK;
 899:frucd_display.c **** }
 2589              		.loc 1 899 0
 2590              		@ sp needed
 892:frucd_display.c ****     last_SOC_color = C_BLACK;
 2591              		.loc 1 892 0
 2592 0004 1360     		str	r3, [r2]
 893:frucd_display.c ****     last_max_pack_temp_color = C_BLACK;
 2593              		.loc 1 893 0
 2594 0006 074A     		ldr	r2, .L130+4
 2595 0008 1360     		str	r3, [r2]
 894:frucd_display.c ****     last_glv_v_color = C_BLACK;
 2596              		.loc 1 894 0
 2597 000a 074A     		ldr	r2, .L130+8
 2598 000c 1360     		str	r3, [r2]
 895:frucd_display.c ****     last_mc_temp_color = C_BLACK;
 2599              		.loc 1 895 0
 2600 000e 074A     		ldr	r2, .L130+12
 2601 0010 1360     		str	r3, [r2]
 896:frucd_display.c ****     last_motor_temp_color = C_BLACK;
 2602              		.loc 1 896 0
 2603 0012 074A     		ldr	r2, .L130+16
 2604 0014 1360     		str	r3, [r2]
 897:frucd_display.c ****     last_shutdown_color = C_BLACK;
 2605              		.loc 1 897 0
 2606 0016 074A     		ldr	r2, .L130+20
 2607 0018 1360     		str	r3, [r2]
 898:frucd_display.c **** }
 2608              		.loc 1 898 0
 2609 001a 074A     		ldr	r2, .L130+24
 2610 001c 1360     		str	r3, [r2]
 2611              		.loc 1 899 0
 2612 001e 7047     		bx	lr
 2613              	.L131:
 2614              		.align	2
 2615              	.L130:
ARM GAS  C:\Users\leoja\AppData\Local\Temp\ccM6wJLr.s 			page 65


 2616 0020 00000000 		.word	last_SOC_color
 2617 0024 00000000 		.word	last_max_pack_temp_color
 2618 0028 00000000 		.word	last_state_color
 2619 002c 00000000 		.word	last_glv_v_color
 2620 0030 00000000 		.word	last_mc_temp_color
 2621 0034 00000000 		.word	last_motor_temp_color
 2622 0038 00000000 		.word	last_shutdown_color
 2623              		.cfi_endproc
 2624              	.LFE49:
 2625              		.size	clear_colors, .-clear_colors
 2626              		.comm	last_shutdown_color,4,4
 2627              		.comm	last_motor_temp_color,4,4
 2628              		.comm	last_mc_temp_color,4,4
 2629              		.comm	last_glv_v_color,4,4
 2630              		.comm	last_state_color,4,4
 2631              		.comm	last_max_pack_temp_color,4,4
 2632              		.comm	last_SOC_color,4,4
 2633              		.comm	gui1963,120,4
 2634              		.section	.rodata.str1.1,"aMS",%progbits,1
 2635              	.LC0:
 2636 0000 5041434B 		.ascii	"PACK SOC:\000"
 2636      20534F43 
 2636      3A00
 2637              	.LC2:
 2638 000a 4D415820 		.ascii	"MAX PACK T:\000"
 2638      5041434B 
 2638      20543A00 
 2639              	.LC4:
 2640 0016 53544154 		.ascii	"STATE:\000"
 2640      453A00
 2641              	.LC6:
 2642 001d 4D432054 		.ascii	"MC T:\000"
 2642      3A00
 2643              	.LC8:
 2644 0023 474C5620 		.ascii	"GLV V:\000"
 2644      563A00
 2645              	.LC10:
 2646 002a 4D4F544F 		.ascii	"MOTOR T:\000"
 2646      5220543A 
 2646      00
 2647              	.LC12:
 2648 0033 53485554 		.ascii	"SHUTDOWN:\000"
 2648      444F574E 
 2648      3A00
 2649              	.LC14:
 2650 003d 4D432046 		.ascii	"MC FAULT:\000"
 2650      41554C54 
 2650      3A00
 2651              	.LC16:
 2652 0047 5041434B 		.ascii	"PACK SOC\000"
 2652      20534F43 
 2652      00
 2653              	.LC18:
 2654 0050 4D415820 		.ascii	"MAX PACK T\000"
 2654      5041434B 
 2654      205400
 2655              	.LC23:
ARM GAS  C:\Users\leoja\AppData\Local\Temp\ccM6wJLr.s 			page 66


 2656 005b 25642525 		.ascii	"%d%%\000"
 2656      00
 2657              	.LC29:
 2658 0060 25642043 		.ascii	"%d C\000"
 2658      00
 2659              	.LC34:
 2660 0065 20535441 		.ascii	" STARTUP  \000"
 2660      52545550 
 2660      202000
 2661              	.LC36:
 2662 0070 44525620 		.ascii	"DRV FRM LV\000"
 2662      46524D20 
 2662      4C5600
 2663              	.LC38:
 2664 007b 50524520 		.ascii	"PRE TM OUT\000"
 2664      544D204F 
 2664      555400
 2665              	.LC40:
 2666 0086 4252204E 		.ascii	"BR NOT PRS\000"
 2666      4F542050 
 2666      525300
 2667              	.LC42:
 2668 0091 4856204F 		.ascii	"HV OFF DRV\000"
 2668      46462044 
 2668      525600
 2669              	.LC44:
 2670 009c 534E5352 		.ascii	"SNSR DSCRP\000"
 2670      20445343 
 2670      525000
 2671              	.LC46:
 2672 00a7 42535044 		.ascii	"BSPD TRIPD\000"
 2672      20545249 
 2672      504400
 2673              	.LC48:
 2674 00b2 53485444 		.ascii	"SHTDWN OPN\000"
 2674      574E204F 
 2674      504E00
 2675              	.LC50:
 2676 00bd 554E4341 		.ascii	"UNCALIBRTD\000"
 2676      4C494252 
 2676      544400
 2677              	.LC52:
 2678 00c8 48415244 		.ascii	"HARD BSPD\000"
 2678      20425350 
 2678      4400
 2679              	.LC54:
 2680 00d2 4D432046 		.ascii	"MC FAULT\000"
 2680      41554C54 
 2680      00
 2681              	.LC56:
 2682 00db 594F2057 		.ascii	"YO WTF?\000"
 2682      54463F00 
 2683              	.LC58:
 2684 00e3 20202020 		.ascii	"    LV    \000"
 2684      4C562020 
 2684      202000
 2685              	.LC60:
ARM GAS  C:\Users\leoja\AppData\Local\Temp\ccM6wJLr.s 			page 67


 2686 00ee 50524543 		.ascii	"PRECHARGE \000"
 2686      48415247 
 2686      452000
 2687              	.LC62:
 2688 00f9 48562045 		.ascii	"HV ENABLED\000"
 2688      4E41424C 
 2688      454400
 2689              	.LC64:
 2690 0104 20204452 		.ascii	"  DRIVE   \000"
 2690      49564520 
 2690      202000
 2691              	.LC69:
 2692 010f 256C7500 		.ascii	"%lu\000"
 2693              	.LC73:
 2694 0113 256400   		.ascii	"%d\000"
 2695              	.LC81:
 2696 0116 494D445F 		.ascii	"IMD_OK\000"
 2696      4F4B00
 2697              	.LC83:
 2698 011d 424D535F 		.ascii	"BMS_OK\000"
 2698      4F4B00
 2699              	.LC85:
 2700 0124 53687574 		.ascii	"Shutdown_Final\000"
 2700      646F776E 
 2700      5F46696E 
 2700      616C00
 2701              	.LC87:
 2702 0133 4149525F 		.ascii	"AIR_1\000"
 2702      3100
 2703              	.LC89:
 2704 0139 4149525F 		.ascii	"AIR_2\000"
 2704      3200
 2705              	.LC91:
 2706 013f 50726563 		.ascii	"Precharge\000"
 2706      68617267 
 2706      6500
 2707              	.LC93:
 2708 0149 4E6F6E65 		.ascii	"None\000"
 2708      00
 2709              	.LC102:
 2710 014e 25643A25 		.ascii	"%d:%d\000"
 2710      6400
 2711              		.text
 2712              	.Letext0:
 2713              		.file 2 "c:\\program files (x86)\\cypress\\psoc creator\\4.4\\psoc creator\\import\\gnu\\arm\\5.4.
 2714              		.file 3 "c:\\program files (x86)\\cypress\\psoc creator\\4.4\\psoc creator\\import\\gnu\\arm\\5.4.
 2715              		.file 4 "Generated_Source\\PSoC4/cytypes.h"
 2716              		.file 5 "data.h"
 2717              		.file 6 "ugui_config.h"
 2718              		.file 7 "ugui.h"
 2719              		.file 8 "ugui_SSD1963.h"
 2720              		.file 9 "frucd_display.h"
 2721              		.file 10 "Generated_Source\\PSoC4/CyLib.h"
 2722              		.file 11 "c:\\program files (x86)\\cypress\\psoc creator\\4.4\\psoc creator\\import\\gnu\\arm\\5.4