ARM GAS  C:\Users\leoja\AppData\Local\Temp\ccByxJuZ.s 			page 1


   1              		.syntax unified
   2              		.cpu cortex-m0
   3              		.fpu softvfp
   4              		.eabi_attribute 20, 1
   5              		.eabi_attribute 21, 1
   6              		.eabi_attribute 23, 3
   7              		.eabi_attribute 24, 1
   8              		.eabi_attribute 25, 1
   9              		.eabi_attribute 26, 1
  10              		.eabi_attribute 30, 4
  11              		.eabi_attribute 34, 0
  12              		.eabi_attribute 18, 4
  13              		.thumb
  14              		.syntax unified
  15              		.file	"frucd_display.c"
  16              		.text
  17              	.Ltext0:
  18              		.cfi_sections	.debug_frame
  19              		.section	.text.calibrateScreen,"ax",%progbits
  20              		.align	1
  21              		.global	calibrateScreen
  22              		.code	16
  23              		.thumb_func
  24              		.type	calibrateScreen, %function
  25              	calibrateScreen:
  26              	.LFB35:
  27              		.file 1 "frucd_display.c"
   1:frucd_display.c **** /* ========================================
   2:frucd_display.c ****  *
   3:frucd_display.c ****  * APIs for updating FRUCD Dashboard display
   4:frucd_display.c ****  *
   5:frucd_display.c ****  * ========================================
   6:frucd_display.c **** */
   7:frucd_display.c **** #include "frucd_display.h"
   8:frucd_display.c **** 
   9:frucd_display.c **** // Just a test function that displays elements at the supposed corners of the screen
  10:frucd_display.c **** void calibrateScreen() {
  28              		.loc 1 10 0
  29              		.cfi_startproc
  30              		@ args = 0, pretend = 0, frame = 0
  31              		@ frame_needed = 0, uses_anonymous_args = 0
  32 0000 F7B5     		push	{r0, r1, r2, r4, r5, r6, r7, lr}
  33              		.cfi_def_cfa_offset 32
  34              		.cfi_offset 0, -32
  35              		.cfi_offset 1, -28
  36              		.cfi_offset 2, -24
  37              		.cfi_offset 4, -20
  38              		.cfi_offset 5, -16
  39              		.cfi_offset 6, -12
  40              		.cfi_offset 7, -8
  41              		.cfi_offset 14, -4
  11:frucd_display.c ****     UG_FillScreen(C_WHITE);
  42              		.loc 1 11 0
  43 0002 1948     		ldr	r0, .L2
  44 0004 FFF7FEFF 		bl	UG_FillScreen
  45              	.LVL0:
  12:frucd_display.c ****     //libTFT_FillRectangle(0, 0, 10, 10, RED);
ARM GAS  C:\Users\leoja\AppData\Local\Temp\ccByxJuZ.s 			page 2


  13:frucd_display.c ****     UG_FillFrame(0, 0, 10, 10, C_RED);
  46              		.loc 1 13 0
  47 0008 FF23     		movs	r3, #255
  48 000a 1B04     		lsls	r3, r3, #16
  49 000c 0093     		str	r3, [sp]
  50 000e 0021     		movs	r1, #0
  51 0010 0A23     		movs	r3, #10
  52 0012 0800     		movs	r0, r1
  53 0014 1A00     		movs	r2, r3
  14:frucd_display.c ****     //libTFT_FillRectangle(0, 262, 10, 10, BLUE);
  15:frucd_display.c ****     UG_FillFrame(0, 262, 10, 272, C_BLUE);
  54              		.loc 1 15 0
  55 0016 8827     		movs	r7, #136
  56 0018 8325     		movs	r5, #131
  13:frucd_display.c ****     //libTFT_FillRectangle(0, 262, 10, 10, BLUE);
  57              		.loc 1 13 0
  58 001a FFF7FEFF 		bl	UG_FillFrame
  59              	.LVL1:
  60              		.loc 1 15 0
  61 001e FF23     		movs	r3, #255
  62 0020 7F00     		lsls	r7, r7, #1
  63 0022 6D00     		lsls	r5, r5, #1
  64 0024 2900     		movs	r1, r5
  65 0026 0093     		str	r3, [sp]
  66 0028 0A22     		movs	r2, #10
  67 002a 3B00     		movs	r3, r7
  68 002c 0020     		movs	r0, #0
  69 002e FFF7FEFF 		bl	UG_FillFrame
  70              	.LVL2:
  16:frucd_display.c ****     //libTFT_FillRectangle(470, 0, 10, 10, GREEN);
  17:frucd_display.c ****     UG_FillFrame(470, 0, 480, 10, C_GREEN);
  71              		.loc 1 17 0
  72 0032 F026     		movs	r6, #240
  73 0034 EB24     		movs	r4, #235
  74 0036 FF23     		movs	r3, #255
  75 0038 7600     		lsls	r6, r6, #1
  76 003a 6400     		lsls	r4, r4, #1
  77 003c 1B02     		lsls	r3, r3, #8
  78 003e 3200     		movs	r2, r6
  79 0040 0093     		str	r3, [sp]
  80 0042 2000     		movs	r0, r4
  81 0044 0A23     		movs	r3, #10
  82 0046 0021     		movs	r1, #0
  83 0048 FFF7FEFF 		bl	UG_FillFrame
  84              	.LVL3:
  18:frucd_display.c ****     //libTFT_FillRectangle(470, 262, 10, 10, YELLOW);
  19:frucd_display.c ****     UG_FillFrame(470, 262, 480, 272, C_YELLOW);
  85              		.loc 1 19 0
  86 004c 074B     		ldr	r3, .L2+4
  87 004e 3200     		movs	r2, r6
  88 0050 2900     		movs	r1, r5
  89 0052 0093     		str	r3, [sp]
  90 0054 2000     		movs	r0, r4
  91 0056 3B00     		movs	r3, r7
  92 0058 FFF7FEFF 		bl	UG_FillFrame
  93              	.LVL4:
  20:frucd_display.c ****     CyDelay(300);
ARM GAS  C:\Users\leoja\AppData\Local\Temp\ccByxJuZ.s 			page 3


  94              		.loc 1 20 0
  95 005c 9620     		movs	r0, #150
  96 005e 4000     		lsls	r0, r0, #1
  97 0060 FFF7FEFF 		bl	CyDelay
  98              	.LVL5:
  21:frucd_display.c **** }
  99              		.loc 1 21 0
 100              		@ sp needed
 101 0064 F7BD     		pop	{r0, r1, r2, r4, r5, r6, r7, pc}
 102              	.L3:
 103 0066 C046     		.align	2
 104              	.L2:
 105 0068 FFFFFF00 		.word	16777215
 106 006c 00FFFF00 		.word	16776960
 107              		.cfi_endproc
 108              	.LFE35:
 109              		.size	calibrateScreen, .-calibrateScreen
 110              		.section	.text.debugTemplate,"ax",%progbits
 111              		.align	1
 112              		.global	debugTemplate
 113              		.code	16
 114              		.thumb_func
 115              		.type	debugTemplate, %function
 116              	debugTemplate:
 117              	.LFB36:
  22:frucd_display.c **** 
  23:frucd_display.c **** // Initializes dashboard layout/label
  24:frucd_display.c **** /*
  25:frucd_display.c **** void initDashTemplate() {
  26:frucd_display.c ****     UG_FillScreen(C_BLACK);
  27:frucd_display.c ****     UG_PutString(68, 10, "PACK SOC");
  28:frucd_display.c ****     UG_PutString(297, 10, "MAX PACK T");
  29:frucd_display.c ****     UG_PutString(10, 195, "STATE:");
  30:frucd_display.c ****     UG_PutString(10, 240, "GLV V:");
  31:frucd_display.c ****     UG_PutString(339, 195, "MC T:");
  32:frucd_display.c ****     UG_PutString(300, 240, "MOTOR T:");
  33:frucd_display.c **** }
  34:frucd_display.c **** */
  35:frucd_display.c **** 
  36:frucd_display.c **** void debugTemplate(){
 118              		.loc 1 36 0
 119              		.cfi_startproc
 120              		@ args = 0, pretend = 0, frame = 0
 121              		@ frame_needed = 0, uses_anonymous_args = 0
 122 0000 10B5     		push	{r4, lr}
 123              		.cfi_def_cfa_offset 8
 124              		.cfi_offset 4, -8
 125              		.cfi_offset 14, -4
  37:frucd_display.c ****     UG_FillScreen(C_BLACK);
 126              		.loc 1 37 0
 127 0002 0020     		movs	r0, #0
 128 0004 FFF7FEFF 		bl	UG_FillScreen
 129              	.LVL6:
  38:frucd_display.c ****     UG_PutString(10, 10, "PACK SOC:");
 130              		.loc 1 38 0
 131 0008 0A21     		movs	r1, #10
 132 000a 144A     		ldr	r2, .L5
ARM GAS  C:\Users\leoja\AppData\Local\Temp\ccByxJuZ.s 			page 4


 133 000c 0800     		movs	r0, r1
 134 000e FFF7FEFF 		bl	UG_PutString
 135              	.LVL7:
  39:frucd_display.c ****     UG_PutString(250, 10, "MAX PACK T:");
 136              		.loc 1 39 0
 137 0012 134A     		ldr	r2, .L5+4
 138 0014 0A21     		movs	r1, #10
 139 0016 FA20     		movs	r0, #250
 140 0018 FFF7FEFF 		bl	UG_PutString
 141              	.LVL8:
  40:frucd_display.c ****     UG_PutString(10, 75, "STATE:");
 142              		.loc 1 40 0
 143 001c 114A     		ldr	r2, .L5+8
 144 001e 4B21     		movs	r1, #75
 145 0020 0A20     		movs	r0, #10
 146 0022 FFF7FEFF 		bl	UG_PutString
 147              	.LVL9:
  41:frucd_display.c ****     UG_PutString(250, 75, "MC T:");
 148              		.loc 1 41 0
 149 0026 104A     		ldr	r2, .L5+12
 150 0028 4B21     		movs	r1, #75
 151 002a FA20     		movs	r0, #250
 152 002c FFF7FEFF 		bl	UG_PutString
 153              	.LVL10:
  42:frucd_display.c ****     UG_PutString(10, 140, "GLV V:");
 154              		.loc 1 42 0
 155 0030 0E4A     		ldr	r2, .L5+16
 156 0032 8C21     		movs	r1, #140
 157 0034 0A20     		movs	r0, #10
 158 0036 FFF7FEFF 		bl	UG_PutString
 159              	.LVL11:
  43:frucd_display.c ****     UG_PutString(250, 140, "MOTOR T:");
 160              		.loc 1 43 0
 161 003a 0D4A     		ldr	r2, .L5+20
 162 003c 8C21     		movs	r1, #140
 163 003e FA20     		movs	r0, #250
 164 0040 FFF7FEFF 		bl	UG_PutString
 165              	.LVL12:
  44:frucd_display.c ****     UG_PutString(10, 205, "SHUTDOWN:");
 166              		.loc 1 44 0
 167 0044 0B4A     		ldr	r2, .L5+24
 168 0046 CD21     		movs	r1, #205
 169 0048 0A20     		movs	r0, #10
 170 004a FFF7FEFF 		bl	UG_PutString
 171              	.LVL13:
  45:frucd_display.c ****     UG_PutString(250, 205, "DEBUG:");
 172              		.loc 1 45 0
 173 004e 0A4A     		ldr	r2, .L5+28
 174 0050 CD21     		movs	r1, #205
 175 0052 FA20     		movs	r0, #250
 176 0054 FFF7FEFF 		bl	UG_PutString
 177              	.LVL14:
  46:frucd_display.c **** }
 178              		.loc 1 46 0
 179              		@ sp needed
 180 0058 10BD     		pop	{r4, pc}
 181              	.L6:
ARM GAS  C:\Users\leoja\AppData\Local\Temp\ccByxJuZ.s 			page 5


 182 005a C046     		.align	2
 183              	.L5:
 184 005c 00000000 		.word	.LC0
 185 0060 0A000000 		.word	.LC2
 186 0064 16000000 		.word	.LC4
 187 0068 1D000000 		.word	.LC6
 188 006c 23000000 		.word	.LC8
 189 0070 2A000000 		.word	.LC10
 190 0074 33000000 		.word	.LC12
 191 0078 3D000000 		.word	.LC14
 192              		.cfi_endproc
 193              	.LFE36:
 194              		.size	debugTemplate, .-debugTemplate
 195              		.section	.text.driveTemplate,"ax",%progbits
 196              		.align	1
 197              		.global	driveTemplate
 198              		.code	16
 199              		.thumb_func
 200              		.type	driveTemplate, %function
 201              	driveTemplate:
 202              	.LFB37:
  47:frucd_display.c **** void driveTemplate(){
 203              		.loc 1 47 0
 204              		.cfi_startproc
 205              		@ args = 0, pretend = 0, frame = 0
 206              		@ frame_needed = 0, uses_anonymous_args = 0
 207 0000 10B5     		push	{r4, lr}
 208              		.cfi_def_cfa_offset 8
 209              		.cfi_offset 4, -8
 210              		.cfi_offset 14, -4
  48:frucd_display.c ****     UG_FillScreen(C_BLACK);
 211              		.loc 1 48 0
 212 0002 0020     		movs	r0, #0
 213 0004 FFF7FEFF 		bl	UG_FillScreen
 214              	.LVL15:
  49:frucd_display.c ****     UG_PutString(68, 10, "PACK SOC");
 215              		.loc 1 49 0
 216 0008 0B4A     		ldr	r2, .L8
 217 000a 0A21     		movs	r1, #10
 218 000c 4420     		movs	r0, #68
 219 000e FFF7FEFF 		bl	UG_PutString
 220              	.LVL16:
  50:frucd_display.c ****     UG_PutString(297, 10, "MAX PACK T");
 221              		.loc 1 50 0
 222 0012 2A20     		movs	r0, #42
 223 0014 094A     		ldr	r2, .L8+4
 224 0016 0A21     		movs	r1, #10
 225 0018 FF30     		adds	r0, r0, #255
 226 001a FFF7FEFF 		bl	UG_PutString
 227              	.LVL17:
  51:frucd_display.c ****     UG_PutString(5, 180, "STATE:");
 228              		.loc 1 51 0
 229 001e 084A     		ldr	r2, .L8+8
 230 0020 B421     		movs	r1, #180
 231 0022 0520     		movs	r0, #5
 232 0024 FFF7FEFF 		bl	UG_PutString
 233              	.LVL18:
ARM GAS  C:\Users\leoja\AppData\Local\Temp\ccByxJuZ.s 			page 6


  52:frucd_display.c ****     UG_PutString(275, 180, "GLV V:");
 234              		.loc 1 52 0
 235 0028 1420     		movs	r0, #20
 236 002a 064A     		ldr	r2, .L8+12
 237 002c B421     		movs	r1, #180
 238 002e FF30     		adds	r0, r0, #255
 239 0030 FFF7FEFF 		bl	UG_PutString
 240              	.LVL19:
  53:frucd_display.c ****     
  54:frucd_display.c **** }
 241              		.loc 1 54 0
 242              		@ sp needed
 243 0034 10BD     		pop	{r4, pc}
 244              	.L9:
 245 0036 C046     		.align	2
 246              	.L8:
 247 0038 44000000 		.word	.LC16
 248 003c 4D000000 		.word	.LC18
 249 0040 16000000 		.word	.LC4
 250 0044 23000000 		.word	.LC8
 251              		.cfi_endproc
 252              	.LFE37:
 253              		.size	driveTemplate, .-driveTemplate
 254              		.section	.text.disp_SOC,"ax",%progbits
 255              		.align	1
 256              		.global	disp_SOC
 257              		.code	16
 258              		.thumb_func
 259              		.type	disp_SOC, %function
 260              	disp_SOC:
 261              	.LFB38:
  55:frucd_display.c **** /*
  56:frucd_display.c ****  * BEGIN: functions to show data on dash
  57:frucd_display.c ****  * - handle variety of digit counts
  58:frucd_display.c ****  * - color decision logic is in here
  59:frucd_display.c ****  */
  60:frucd_display.c **** 
  61:frucd_display.c **** 
  62:frucd_display.c **** 
  63:frucd_display.c **** /* Left in non-generalized functions for future reference*/
  64:frucd_display.c **** 
  65:frucd_display.c **** 
  66:frucd_display.c **** /*
  67:frucd_display.c **** void disp_SOC(uint8_t data) {
  68:frucd_display.c ****     UG_FontSelect(&FONT_32X53);
  69:frucd_display.c ****     UG_COLOR color;
  70:frucd_display.c ****     if (data == 100) {
  71:frucd_display.c ****         // handle 100% case
  72:frucd_display.c ****         color = C_GREEN;
  73:frucd_display.c ****         if (color != last_SOC_color) {
  74:frucd_display.c ****             // only draw rectangle if color changed
  75:frucd_display.c ****             UG_FillFrame(30, 35, 210, 170, color);
  76:frucd_display.c ****             last_SOC_color = color;
  77:frucd_display.c ****         }
  78:frucd_display.c ****         UG_PutColorString(55, 80, "100%", C_BLACK, C_GREEN);
  79:frucd_display.c ****     } else {
  80:frucd_display.c ****         // handle other cases
ARM GAS  C:\Users\leoja\AppData\Local\Temp\ccByxJuZ.s 			page 7


  81:frucd_display.c ****         char data_s[4];
  82:frucd_display.c ****         sprintf(data_s, "%d", data);
  83:frucd_display.c ****         if (data >= 10) {
  84:frucd_display.c ****             // handle 2 digit cases
  85:frucd_display.c ****             // choose color
  86:frucd_display.c ****             if (data > 75) {
  87:frucd_display.c ****                 color = C_GREEN;
  88:frucd_display.c ****             } else if (data > 50) {
  89:frucd_display.c ****                 color = C_YELLOW;
  90:frucd_display.c ****             } else if (data > 25) {
  91:frucd_display.c ****                 color = C_ORANGE;
  92:frucd_display.c ****             } else {
  93:frucd_display.c ****                 color = C_RED;
  94:frucd_display.c ****             }
  95:frucd_display.c ****             data_s[2] = '%';
  96:frucd_display.c ****             data_s[3] = '\0';
  97:frucd_display.c ****             if (color != last_SOC_color) {
  98:frucd_display.c ****                 // only draw rectangle if color changed
  99:frucd_display.c ****                 UG_FillFrame(30, 35, 210, 170, color);
 100:frucd_display.c ****                 last_SOC_color = color;
 101:frucd_display.c ****             }
 102:frucd_display.c ****             UG_PutColorString(70, 80, data_s, C_BLACK, color);
 103:frucd_display.c ****         } else {
 104:frucd_display.c ****             // handle 1 digit cases
 105:frucd_display.c ****             data_s[1] = '%';
 106:frucd_display.c ****             data_s[2] = '\0';
 107:frucd_display.c ****             color = C_RED;
 108:frucd_display.c ****             
 109:frucd_display.c ****             
 110:frucd_display.c ****             
 111:frucd_display.c ****             
 112:frucd_display.c ****             //why is this here?
 113:frucd_display.c ****             UG_FillFrame(30, 35, 210, 170, C_BLACK);
 114:frucd_display.c ****             
 115:frucd_display.c ****             
 116:frucd_display.c ****             
 117:frucd_display.c ****             
 118:frucd_display.c ****             
 119:frucd_display.c ****             
 120:frucd_display.c ****             
 121:frucd_display.c ****             UG_FillFrame(30, 35, 210, 170, color);
 122:frucd_display.c ****             UG_PutColorString(90, 80, data_s, C_BLACK, color);
 123:frucd_display.c ****         }   
 124:frucd_display.c ****     }
 125:frucd_display.c ****     UG_FontSelect(&FONT_12X16);
 126:frucd_display.c **** }
 127:frucd_display.c **** 
 128:frucd_display.c **** 
 129:frucd_display.c **** */
 130:frucd_display.c **** 
 131:frucd_display.c **** 
 132:frucd_display.c **** // size is big if 1, small if not
 133:frucd_display.c **** void disp_SOC(uint8_t data, uint16_t x1, uint16_t y1, uint16_t x2, uint16_t y2, uint8_t size) {
 262              		.loc 1 133 0
 263              		.cfi_startproc
 264              		@ args = 8, pretend = 0, frame = 32
 265              		@ frame_needed = 0, uses_anonymous_args = 0
ARM GAS  C:\Users\leoja\AppData\Local\Temp\ccByxJuZ.s 			page 8


 266              	.LVL20:
 267 0000 F0B5     		push	{r4, r5, r6, r7, lr}
 268              		.cfi_def_cfa_offset 20
 269              		.cfi_offset 4, -20
 270              		.cfi_offset 5, -16
 271              		.cfi_offset 6, -12
 272              		.cfi_offset 7, -8
 273              		.cfi_offset 14, -4
 274 0002 8BB0     		sub	sp, sp, #44
 275              		.cfi_def_cfa_offset 64
 276              		.loc 1 133 0
 277 0004 0493     		str	r3, [sp, #16]
 278 0006 10AB     		add	r3, sp, #64
 279              	.LVL21:
 280 0008 1B88     		ldrh	r3, [r3]
 281              	.LVL22:
 282 000a 0391     		str	r1, [sp, #12]
 283 000c 0593     		str	r3, [sp, #20]
 284 000e 11AB     		add	r3, sp, #68
 285              	.LVL23:
 286 0010 1978     		ldrb	r1, [r3]
 287              	.LVL24:
 134:frucd_display.c ****     int stringSize;
 135:frucd_display.c ****     int xFont, yFont;
 136:frucd_display.c ****     int horizFontSize = 12 + 20*size;
 288              		.loc 1 136 0
 289 0012 1423     		movs	r3, #20
 290              	.LVL25:
 291 0014 4B43     		muls	r3, r1
 133:frucd_display.c ****     int stringSize;
 292              		.loc 1 133 0
 293 0016 1400     		movs	r4, r2
 294 0018 0500     		movs	r5, r0
 295              		.loc 1 136 0
 296 001a 0C33     		adds	r3, r3, #12
 297              	.LVL26:
 137:frucd_display.c ****     if (data >= 100) {
 138:frucd_display.c ****         stringSize = 4;
 298              		.loc 1 138 0
 299 001c 0422     		movs	r2, #4
 300              	.LVL27:
 137:frucd_display.c ****     if (data >= 100) {
 301              		.loc 1 137 0
 302 001e 6328     		cmp	r0, #99
 303 0020 04D8     		bhi	.L11
 139:frucd_display.c ****     }else if (data >= 10){
 140:frucd_display.c ****         stringSize = 3;
 141:frucd_display.c ****     }else{
 142:frucd_display.c ****         stringSize = 2;
 304              		.loc 1 142 0
 305 0022 0532     		adds	r2, r2, #5
 306 0024 8242     		cmp	r2, r0
 307 0026 9241     		sbcs	r2, r2, r2
 308 0028 5242     		rsbs	r2, r2, #0
 309 002a 0232     		adds	r2, r2, #2
 310              	.L11:
 311              	.LVL28:
ARM GAS  C:\Users\leoja\AppData\Local\Temp\ccByxJuZ.s 			page 9


 143:frucd_display.c ****     }
 144:frucd_display.c ****     
 145:frucd_display.c ****     xFont = (x1 + x2)/2 - ((horizFontSize*stringSize)/2);
 312              		.loc 1 145 0
 313 002c 5343     		muls	r3, r2
 314              	.LVL29:
 315 002e 0398     		ldr	r0, [sp, #12]
 316              	.LVL30:
 317 0030 049E     		ldr	r6, [sp, #16]
 318 0032 5B10     		asrs	r3, r3, #1
 319 0034 8619     		adds	r6, r0, r6
 320 0036 7010     		asrs	r0, r6, #1
 321 0038 C61A     		subs	r6, r0, r3
 322              	.LVL31:
 146:frucd_display.c ****     yFont = (y1 + y2)/2 - 5 - (size*17);    
 323              		.loc 1 146 0
 324 003a 059B     		ldr	r3, [sp, #20]
 325 003c E718     		adds	r7, r4, r3
 326 003e 7F10     		asrs	r7, r7, #1
 327 0040 7B1F     		subs	r3, r7, #5
 328 0042 1127     		movs	r7, #17
 329 0044 7F42     		rsbs	r7, r7, #0
 330 0046 4F43     		muls	r7, r1
 331 0048 DF19     		adds	r7, r3, r7
 332              	.LVL32:
 147:frucd_display.c ****     if(size == 1){
 333              		.loc 1 147 0
 334 004a 0129     		cmp	r1, #1
 335 004c 02D1     		bne	.L12
 148:frucd_display.c ****         UG_FontSelect(&FONT_32X53);
 336              		.loc 1 148 0
 337 004e 3C48     		ldr	r0, .L29
 338 0050 FFF7FEFF 		bl	UG_FontSelect
 339              	.LVL33:
 340              	.L12:
 341 0054 3BB2     		sxth	r3, r7
 342 0056 0693     		str	r3, [sp, #24]
 343 0058 33B2     		sxth	r3, r6
 344 005a 0793     		str	r3, [sp, #28]
 149:frucd_display.c ****        
 150:frucd_display.c ****     }
 151:frucd_display.c ****         
 152:frucd_display.c ****     UG_COLOR color;
 153:frucd_display.c ****     if (data == 100) {
 345              		.loc 1 153 0
 346 005c 642D     		cmp	r5, #100
 347 005e 19D1     		bne	.L13
 348              	.LVL34:
 154:frucd_display.c ****         // handle 100% case
 155:frucd_display.c ****         color = C_GREEN;
 156:frucd_display.c ****         if (color != last_SOC_color) {
 349              		.loc 1 156 0
 350 0060 FF25     		movs	r5, #255
 351 0062 384E     		ldr	r6, .L29+4
 352              	.LVL35:
 353 0064 2D02     		lsls	r5, r5, #8
 354 0066 3368     		ldr	r3, [r6]
ARM GAS  C:\Users\leoja\AppData\Local\Temp\ccByxJuZ.s 			page 10


 355 0068 AB42     		cmp	r3, r5
 356 006a 0DD0     		beq	.L14
 157:frucd_display.c ****             // only draw rectangle if color changed
 158:frucd_display.c ****             UG_FillFrame(x1, y1, x2, y2, color);
 357              		.loc 1 158 0
 358 006c 6B46     		mov	r3, sp
 359 006e 6846     		mov	r0, sp
 360 0070 1422     		movs	r2, #20
 361 0072 9B5E     		ldrsh	r3, [r3, r2]
 362 0074 6A46     		mov	r2, sp
 363 0076 1021     		movs	r1, #16
 364 0078 525E     		ldrsh	r2, [r2, r1]
 365 007a 21B2     		sxth	r1, r4
 366 007c 0C24     		movs	r4, #12
 367 007e 005F     		ldrsh	r0, [r0, r4]
 368 0080 0095     		str	r5, [sp]
 369 0082 FFF7FEFF 		bl	UG_FillFrame
 370              	.LVL36:
 159:frucd_display.c ****             last_SOC_color = color;
 371              		.loc 1 159 0
 372 0086 3560     		str	r5, [r6]
 373              	.L14:
 160:frucd_display.c ****         }
 161:frucd_display.c ****         
 162:frucd_display.c ****         UG_PutColorString(xFont, yFont, "100%", C_BLACK, C_GREEN);
 374              		.loc 1 162 0
 375 0088 FF23     		movs	r3, #255
 376 008a 1B02     		lsls	r3, r3, #8
 377 008c 0093     		str	r3, [sp]
 378 008e 2E4A     		ldr	r2, .L29+8
 379 0090 0023     		movs	r3, #0
 380 0092 4CE0     		b	.L26
 381              	.LVL37:
 382              	.L13:
 383              	.LBB2:
 163:frucd_display.c ****     } else {
 164:frucd_display.c ****         // handle other cases
 165:frucd_display.c ****         char data_s[4];
 166:frucd_display.c ****         sprintf(data_s, "%d", data);
 384              		.loc 1 166 0
 385 0094 09AF     		add	r7, sp, #36
 386              	.LVL38:
 387 0096 2A00     		movs	r2, r5
 388 0098 2C49     		ldr	r1, .L29+12
 389 009a 3800     		movs	r0, r7
 390 009c FFF7FEFF 		bl	sprintf
 391              	.LVL39:
 167:frucd_display.c ****         if (data >= 10) {
 392              		.loc 1 167 0
 393 00a0 092D     		cmp	r5, #9
 394 00a2 27D9     		bls	.L16
 168:frucd_display.c ****             // handle 2 digit cases
 169:frucd_display.c ****             // choose color
 170:frucd_display.c ****             if (data > 75) {
 395              		.loc 1 170 0
 396 00a4 4B2D     		cmp	r5, #75
 397 00a6 06D8     		bhi	.L23
ARM GAS  C:\Users\leoja\AppData\Local\Temp\ccByxJuZ.s 			page 11


 171:frucd_display.c ****                 color = C_GREEN;
 172:frucd_display.c ****             } else if (data > 50) {
 398              		.loc 1 172 0
 399 00a8 322D     		cmp	r5, #50
 400 00aa 07D8     		bhi	.L24
 173:frucd_display.c ****                 color = C_YELLOW;
 174:frucd_display.c ****             } else if (data > 25) {
 401              		.loc 1 174 0
 402 00ac 192D     		cmp	r5, #25
 403 00ae 07D8     		bhi	.L25
 175:frucd_display.c ****                 color = C_ORANGE;
 176:frucd_display.c ****             } else {
 177:frucd_display.c ****                 color = C_RED;
 404              		.loc 1 177 0
 405 00b0 FF25     		movs	r5, #255
 406 00b2 2D04     		lsls	r5, r5, #16
 407 00b4 05E0     		b	.L17
 408              	.L23:
 171:frucd_display.c ****             } else if (data > 50) {
 409              		.loc 1 171 0
 410 00b6 FF25     		movs	r5, #255
 411 00b8 2D02     		lsls	r5, r5, #8
 412 00ba 02E0     		b	.L17
 413              	.L24:
 173:frucd_display.c ****                 color = C_YELLOW;
 414              		.loc 1 173 0
 415 00bc 244D     		ldr	r5, .L29+16
 416 00be 00E0     		b	.L17
 417              	.L25:
 175:frucd_display.c ****                 color = C_ORANGE;
 418              		.loc 1 175 0
 419 00c0 244D     		ldr	r5, .L29+20
 420              	.L17:
 421              	.LVL40:
 178:frucd_display.c ****             }
 179:frucd_display.c ****             data_s[2] = '%';
 422              		.loc 1 179 0
 423 00c2 2522     		movs	r2, #37
 424 00c4 09AB     		add	r3, sp, #36
 425 00c6 9A70     		strb	r2, [r3, #2]
 180:frucd_display.c ****             data_s[3] = '\0';
 426              		.loc 1 180 0
 427 00c8 0022     		movs	r2, #0
 181:frucd_display.c ****             if (color != last_SOC_color) {
 428              		.loc 1 181 0
 429 00ca 1E4E     		ldr	r6, .L29+4
 430              	.LVL41:
 180:frucd_display.c ****             data_s[3] = '\0';
 431              		.loc 1 180 0
 432 00cc DA70     		strb	r2, [r3, #3]
 433              		.loc 1 181 0
 434 00ce 3368     		ldr	r3, [r6]
 435 00d0 9D42     		cmp	r5, r3
 436 00d2 0DD0     		beq	.L18
 182:frucd_display.c ****                 // only draw rectangle if color changed
 183:frucd_display.c ****                 UG_FillFrame(x1, y1, x2, y2, color);
 437              		.loc 1 183 0
ARM GAS  C:\Users\leoja\AppData\Local\Temp\ccByxJuZ.s 			page 12


 438 00d4 6B46     		mov	r3, sp
 439 00d6 6846     		mov	r0, sp
 440 00d8 1422     		movs	r2, #20
 441 00da 9B5E     		ldrsh	r3, [r3, r2]
 442 00dc 6A46     		mov	r2, sp
 443 00de 1021     		movs	r1, #16
 444 00e0 525E     		ldrsh	r2, [r2, r1]
 445 00e2 21B2     		sxth	r1, r4
 446 00e4 0C24     		movs	r4, #12
 447 00e6 005F     		ldrsh	r0, [r0, r4]
 448              	.LVL42:
 449 00e8 0095     		str	r5, [sp]
 450 00ea FFF7FEFF 		bl	UG_FillFrame
 451              	.LVL43:
 184:frucd_display.c ****                 last_SOC_color = color;
 452              		.loc 1 184 0
 453 00ee 3560     		str	r5, [r6]
 454              	.L18:
 185:frucd_display.c ****             }
 186:frucd_display.c ****             UG_PutColorString(xFont, yFont, data_s, C_BLACK, color);
 455              		.loc 1 186 0
 456 00f0 0095     		str	r5, [sp]
 457 00f2 1AE0     		b	.L27
 458              	.LVL44:
 459              	.L16:
 187:frucd_display.c ****         } else {
 188:frucd_display.c ****             // handle 1 digit cases
 189:frucd_display.c ****             data_s[1] = '%';
 460              		.loc 1 189 0
 461 00f4 2523     		movs	r3, #37
 462 00f6 7B70     		strb	r3, [r7, #1]
 190:frucd_display.c ****             data_s[2] = '\0';
 463              		.loc 1 190 0
 464 00f8 0023     		movs	r3, #0
 191:frucd_display.c ****             color = C_RED;
 192:frucd_display.c ****             if (color != last_SOC_color) {
 465              		.loc 1 192 0
 466 00fa FF25     		movs	r5, #255
 467 00fc 114E     		ldr	r6, .L29+4
 468              	.LVL45:
 190:frucd_display.c ****             data_s[2] = '\0';
 469              		.loc 1 190 0
 470 00fe BB70     		strb	r3, [r7, #2]
 471              	.LVL46:
 472              		.loc 1 192 0
 473 0100 3368     		ldr	r3, [r6]
 474 0102 2D04     		lsls	r5, r5, #16
 475 0104 AB42     		cmp	r3, r5
 476 0106 0DD0     		beq	.L20
 193:frucd_display.c ****             // only draw rectangle if color changed
 194:frucd_display.c ****                 UG_FillFrame(x1, y1, x2, y2, color);
 477              		.loc 1 194 0
 478 0108 6B46     		mov	r3, sp
 479 010a 6846     		mov	r0, sp
 480 010c 1422     		movs	r2, #20
 481 010e 9B5E     		ldrsh	r3, [r3, r2]
 482 0110 6A46     		mov	r2, sp
ARM GAS  C:\Users\leoja\AppData\Local\Temp\ccByxJuZ.s 			page 13


 483 0112 1021     		movs	r1, #16
 484 0114 525E     		ldrsh	r2, [r2, r1]
 485 0116 21B2     		sxth	r1, r4
 486 0118 0C24     		movs	r4, #12
 487 011a 005F     		ldrsh	r0, [r0, r4]
 488              	.LVL47:
 489 011c 0095     		str	r5, [sp]
 490 011e FFF7FEFF 		bl	UG_FillFrame
 491              	.LVL48:
 195:frucd_display.c ****                 last_SOC_color = color;
 492              		.loc 1 195 0
 493 0122 3560     		str	r5, [r6]
 494              	.L20:
 196:frucd_display.c ****             }
 197:frucd_display.c ****            
 198:frucd_display.c ****             UG_PutColorString(xFont, yFont, data_s, C_BLACK, color);
 495              		.loc 1 198 0
 496 0124 FF23     		movs	r3, #255
 497 0126 1B04     		lsls	r3, r3, #16
 498 0128 0093     		str	r3, [sp]
 499              	.LVL49:
 500              	.L27:
 501 012a 0023     		movs	r3, #0
 502 012c 3A00     		movs	r2, r7
 503              	.L26:
 504 012e 0699     		ldr	r1, [sp, #24]
 505 0130 0798     		ldr	r0, [sp, #28]
 506 0132 FFF7FEFF 		bl	UG_PutColorString
 507              	.LVL50:
 508              	.LBE2:
 199:frucd_display.c ****         }   
 200:frucd_display.c ****     }
 201:frucd_display.c ****     UG_FontSelect(&FONT_12X16);
 509              		.loc 1 201 0
 510 0136 0848     		ldr	r0, .L29+24
 511 0138 FFF7FEFF 		bl	UG_FontSelect
 512              	.LVL51:
 202:frucd_display.c **** }
 513              		.loc 1 202 0
 514 013c 0BB0     		add	sp, sp, #44
 515              		@ sp needed
 516 013e F0BD     		pop	{r4, r5, r6, r7, pc}
 517              	.L30:
 518              		.align	2
 519              	.L29:
 520 0140 00000000 		.word	FONT_32X53
 521 0144 00000000 		.word	last_SOC_color
 522 0148 58000000 		.word	.LC24
 523 014c 5D000000 		.word	.LC26
 524 0150 00FFFF00 		.word	16776960
 525 0154 00A5FF00 		.word	16753920
 526 0158 00000000 		.word	FONT_12X16
 527              		.cfi_endproc
 528              	.LFE38:
 529              		.size	disp_SOC, .-disp_SOC
 530              		.section	.text.disp_max_pack_temp,"ax",%progbits
 531              		.align	1
ARM GAS  C:\Users\leoja\AppData\Local\Temp\ccByxJuZ.s 			page 14


 532              		.global	disp_max_pack_temp
 533              		.code	16
 534              		.thumb_func
 535              		.type	disp_max_pack_temp, %function
 536              	disp_max_pack_temp:
 537              	.LFB39:
 203:frucd_display.c **** 
 204:frucd_display.c **** /*
 205:frucd_display.c **** 
 206:frucd_display.c **** void disp_max_pack_temp(uint8_t data) {
 207:frucd_display.c ****     // choose color
 208:frucd_display.c ****     UG_COLOR color;
 209:frucd_display.c ****     if (data < 45) {
 210:frucd_display.c ****         color = C_GREEN;
 211:frucd_display.c ****     } else if (data < 50) {
 212:frucd_display.c ****         color = C_YELLOW;
 213:frucd_display.c ****     } else if (data < 55) {
 214:frucd_display.c ****         color = C_ORANGE;
 215:frucd_display.c ****     } else {
 216:frucd_display.c ****         color = C_RED;
 217:frucd_display.c **** 
 218:frucd_display.c ****         UG_FillFrame(270, 35, 450, 170, C_BLACK);
 219:frucd_display.c ****         UG_FillFrame(270, 35, 450, 170, color);
 220:frucd_display.c ****         
 221:frucd_display.c ****     }
 222:frucd_display.c ****     
 223:frucd_display.c ****     if (color != last_max_pack_temp_color) {
 224:frucd_display.c ****         // only draw rectangle if color changed
 225:frucd_display.c ****         UG_FillFrame(270, 35, 450, 170, color);
 226:frucd_display.c ****         last_max_pack_temp_color = color;
 227:frucd_display.c ****     }
 228:frucd_display.c ****     UG_FontSelect(&FONT_32X53);
 229:frucd_display.c ****     char data_s[4];
 230:frucd_display.c ****     sprintf(data_s, "%d", data);
 231:frucd_display.c ****     data_s[2] = 'C';
 232:frucd_display.c ****     data_s[3] = '\0';
 233:frucd_display.c ****     UG_PutColorString(310, 80, data_s, C_BLACK, color);
 234:frucd_display.c ****     UG_FontSelect(&FONT_12X16);
 235:frucd_display.c **** }
 236:frucd_display.c **** 
 237:frucd_display.c **** */
 238:frucd_display.c **** 
 239:frucd_display.c **** 
 240:frucd_display.c **** void disp_max_pack_temp(uint8_t data, uint16_t x1, uint16_t y1, uint16_t x2, uint16_t y2, uint8_t s
 538              		.loc 1 240 0
 539              		.cfi_startproc
 540              		@ args = 8, pretend = 0, frame = 40
 541              		@ frame_needed = 0, uses_anonymous_args = 0
 542              	.LVL52:
 543 0000 F0B5     		push	{r4, r5, r6, r7, lr}
 544              		.cfi_def_cfa_offset 20
 545              		.cfi_offset 4, -20
 546              		.cfi_offset 5, -16
 547              		.cfi_offset 6, -12
 548              		.cfi_offset 7, -8
 549              		.cfi_offset 14, -4
 550 0002 8DB0     		sub	sp, sp, #52
ARM GAS  C:\Users\leoja\AppData\Local\Temp\ccByxJuZ.s 			page 15


 551              		.cfi_def_cfa_offset 72
 552              		.loc 1 240 0
 553 0004 0593     		str	r3, [sp, #20]
 554 0006 12AB     		add	r3, sp, #72
 555              	.LVL53:
 556 0008 1B88     		ldrh	r3, [r3]
 557              	.LVL54:
 558 000a 0492     		str	r2, [sp, #16]
 559 000c 0693     		str	r3, [sp, #24]
 560 000e 13AB     		add	r3, sp, #76
 561              	.LVL55:
 562 0010 1A78     		ldrb	r2, [r3]
 563              	.LVL56:
 241:frucd_display.c ****     int xFont, yFont;
 242:frucd_display.c ****     int horizFontSize = 12 + 20*size;
 243:frucd_display.c ****     int stringSize;
 244:frucd_display.c ****     stringSize = 3;
 245:frucd_display.c ****     xFont = (x1 + x2)/2 - ((horizFontSize*stringSize)/2);
 564              		.loc 1 245 0
 565 0012 1423     		movs	r3, #20
 566              	.LVL57:
 240:frucd_display.c ****     int xFont, yFont;
 567              		.loc 1 240 0
 568 0014 0391     		str	r1, [sp, #12]
 569              		.loc 1 245 0
 570 0016 0321     		movs	r1, #3
 571              	.LVL58:
 572 0018 5343     		muls	r3, r2
 573 001a 0C33     		adds	r3, r3, #12
 574              	.LVL59:
 575 001c 4B43     		muls	r3, r1
 576              	.LVL60:
 240:frucd_display.c ****     int xFont, yFont;
 577              		.loc 1 240 0
 578 001e 0290     		str	r0, [sp, #8]
 579              		.loc 1 245 0
 580 0020 0399     		ldr	r1, [sp, #12]
 581 0022 0598     		ldr	r0, [sp, #20]
 582              	.LVL61:
 583 0024 5B10     		asrs	r3, r3, #1
 584 0026 0818     		adds	r0, r1, r0
 585 0028 4010     		asrs	r0, r0, #1
 586 002a C31A     		subs	r3, r0, r3
 246:frucd_display.c ****     yFont = (y1 + y2)/2 - 5 - (size*17);    
 587              		.loc 1 246 0
 588 002c 0699     		ldr	r1, [sp, #24]
 245:frucd_display.c ****     yFont = (y1 + y2)/2 - 5 - (size*17);    
 589              		.loc 1 245 0
 590 002e 0893     		str	r3, [sp, #32]
 591              	.LVL62:
 592              		.loc 1 246 0
 593 0030 049B     		ldr	r3, [sp, #16]
 594              	.LVL63:
 595 0032 5B18     		adds	r3, r3, r1
 596 0034 1121     		movs	r1, #17
 597 0036 4942     		rsbs	r1, r1, #0
 598 0038 5143     		muls	r1, r2
ARM GAS  C:\Users\leoja\AppData\Local\Temp\ccByxJuZ.s 			page 16


 599 003a 5B10     		asrs	r3, r3, #1
 600 003c 053B     		subs	r3, r3, #5
 601 003e 5B18     		adds	r3, r3, r1
 602 0040 0993     		str	r3, [sp, #36]
 603              	.LVL64:
 247:frucd_display.c ****     if(size == 1){
 604              		.loc 1 247 0
 605 0042 012A     		cmp	r2, #1
 606 0044 02D1     		bne	.L32
 248:frucd_display.c ****         UG_FontSelect(&FONT_32X53);
 607              		.loc 1 248 0
 608 0046 2B48     		ldr	r0, .L38
 609 0048 FFF7FEFF 		bl	UG_FontSelect
 610              	.LVL65:
 611              	.L32:
 249:frucd_display.c ****     }
 250:frucd_display.c ****     
 251:frucd_display.c ****     // choose color
 252:frucd_display.c ****     UG_COLOR color;
 253:frucd_display.c ****     if (data < 45) {
 612              		.loc 1 253 0
 613 004c 029B     		ldr	r3, [sp, #8]
 614 004e 2C2B     		cmp	r3, #44
 615 0050 21D9     		bls	.L35
 254:frucd_display.c ****         color = C_GREEN;
 255:frucd_display.c ****     } else if (data < 50) {
 616              		.loc 1 255 0
 617 0052 312B     		cmp	r3, #49
 618 0054 22D9     		bls	.L36
 256:frucd_display.c ****         color = C_YELLOW;
 257:frucd_display.c ****     } else if (data < 55) {
 619              		.loc 1 257 0
 620 0056 362B     		cmp	r3, #54
 621 0058 22D9     		bls	.L37
 622              	.LVL66:
 258:frucd_display.c ****         color = C_ORANGE;
 259:frucd_display.c ****     } else {
 260:frucd_display.c ****         color = C_RED; 
 261:frucd_display.c ****         
 262:frucd_display.c ****         UG_FillFrame(x1, y1, x2, y2, C_BLACK);
 623              		.loc 1 262 0
 624 005a 6B46     		mov	r3, sp
 625 005c 0C25     		movs	r5, #12
 626 005e 5D5F     		ldrsh	r5, [r3, r5]
 627 0060 6B46     		mov	r3, sp
 628 0062 1026     		movs	r6, #16
 629 0064 9E5F     		ldrsh	r6, [r3, r6]
 630 0066 6B46     		mov	r3, sp
 631 0068 1427     		movs	r7, #20
 632 006a DF5F     		ldrsh	r7, [r3, r7]
 633 006c 6B46     		mov	r3, sp
 263:frucd_display.c ****         UG_FillFrame(x1, y1, x2, y2, color);
 634              		.loc 1 263 0
 635 006e FF24     		movs	r4, #255
 262:frucd_display.c ****         UG_FillFrame(x1, y1, x2, y2, color);
 636              		.loc 1 262 0
 637 0070 1822     		movs	r2, #24
ARM GAS  C:\Users\leoja\AppData\Local\Temp\ccByxJuZ.s 			page 17


 638 0072 9B5E     		ldrsh	r3, [r3, r2]
 639 0074 0022     		movs	r2, #0
 640 0076 3100     		movs	r1, r6
 641 0078 0092     		str	r2, [sp]
 642 007a 2800     		movs	r0, r5
 643 007c 3A00     		movs	r2, r7
 644              		.loc 1 263 0
 645 007e 2404     		lsls	r4, r4, #16
 262:frucd_display.c ****         UG_FillFrame(x1, y1, x2, y2, color);
 646              		.loc 1 262 0
 647 0080 0793     		str	r3, [sp, #28]
 648 0082 FFF7FEFF 		bl	UG_FillFrame
 649              	.LVL67:
 650              		.loc 1 263 0
 651 0086 0094     		str	r4, [sp]
 652 0088 079B     		ldr	r3, [sp, #28]
 653 008a 3A00     		movs	r2, r7
 654 008c 3100     		movs	r1, r6
 655 008e 2800     		movs	r0, r5
 656 0090 FFF7FEFF 		bl	UG_FillFrame
 657              	.LVL68:
 658 0094 05E0     		b	.L33
 659              	.LVL69:
 660              	.L35:
 254:frucd_display.c ****     } else if (data < 50) {
 661              		.loc 1 254 0
 662 0096 FF24     		movs	r4, #255
 663 0098 2402     		lsls	r4, r4, #8
 664 009a 02E0     		b	.L33
 665              	.L36:
 256:frucd_display.c ****     } else if (data < 55) {
 666              		.loc 1 256 0
 667 009c 164C     		ldr	r4, .L38+4
 668 009e 00E0     		b	.L33
 669              	.L37:
 258:frucd_display.c ****     } else {
 670              		.loc 1 258 0
 671 00a0 164C     		ldr	r4, .L38+8
 672              	.L33:
 673              	.LVL70:
 264:frucd_display.c ****     
 265:frucd_display.c ****     }
 266:frucd_display.c **** 
 267:frucd_display.c ****    
 268:frucd_display.c ****     
 269:frucd_display.c ****    
 270:frucd_display.c ****     if (color != last_max_pack_temp_color) {
 674              		.loc 1 270 0
 675 00a2 174D     		ldr	r5, .L38+12
 676 00a4 2B68     		ldr	r3, [r5]
 677 00a6 9C42     		cmp	r4, r3
 678 00a8 0FD0     		beq	.L34
 271:frucd_display.c ****         UG_FillFrame(x1, y1, x2, y2, color);
 679              		.loc 1 271 0
 680 00aa 6B46     		mov	r3, sp
 681 00ac 1822     		movs	r2, #24
 682 00ae 9B5E     		ldrsh	r3, [r3, r2]
ARM GAS  C:\Users\leoja\AppData\Local\Temp\ccByxJuZ.s 			page 18


 683 00b0 6A46     		mov	r2, sp
 684 00b2 1421     		movs	r1, #20
 685 00b4 525E     		ldrsh	r2, [r2, r1]
 686 00b6 6946     		mov	r1, sp
 687 00b8 1020     		movs	r0, #16
 688 00ba 095E     		ldrsh	r1, [r1, r0]
 689 00bc 6846     		mov	r0, sp
 690 00be 0C26     		movs	r6, #12
 691 00c0 805F     		ldrsh	r0, [r0, r6]
 692 00c2 0094     		str	r4, [sp]
 693 00c4 FFF7FEFF 		bl	UG_FillFrame
 694              	.LVL71:
 272:frucd_display.c ****         last_max_pack_temp_color = color;
 695              		.loc 1 272 0
 696 00c8 2C60     		str	r4, [r5]
 697              	.L34:
 273:frucd_display.c ****     }
 274:frucd_display.c **** 
 275:frucd_display.c ****     char data_s[4];
 276:frucd_display.c ****     sprintf(data_s, "%d C", data);
 698              		.loc 1 276 0
 699 00ca 029A     		ldr	r2, [sp, #8]
 700 00cc 0D49     		ldr	r1, .L38+16
 701 00ce 0BA8     		add	r0, sp, #44
 702 00d0 FFF7FEFF 		bl	sprintf
 703              	.LVL72:
 277:frucd_display.c ****    // data_s[2] = 'C';
 278:frucd_display.c ****     //data_s[3] = '\0';
 279:frucd_display.c ****     UG_PutColorString(xFont, yFont, data_s, C_BLACK, color);
 704              		.loc 1 279 0
 705 00d4 6B46     		mov	r3, sp
 706 00d6 2421     		movs	r1, #36
 707 00d8 595E     		ldrsh	r1, [r3, r1]
 708 00da 6B46     		mov	r3, sp
 709 00dc 0BAA     		add	r2, sp, #44
 710 00de 2020     		movs	r0, #32
 711 00e0 185E     		ldrsh	r0, [r3, r0]
 712 00e2 0023     		movs	r3, #0
 713 00e4 0094     		str	r4, [sp]
 714 00e6 FFF7FEFF 		bl	UG_PutColorString
 715              	.LVL73:
 280:frucd_display.c ****     UG_FontSelect(&FONT_12X16);
 716              		.loc 1 280 0
 717 00ea 0748     		ldr	r0, .L38+20
 718 00ec FFF7FEFF 		bl	UG_FontSelect
 719              	.LVL74:
 281:frucd_display.c **** }
 720              		.loc 1 281 0
 721 00f0 0DB0     		add	sp, sp, #52
 722              		@ sp needed
 723              	.LVL75:
 724 00f2 F0BD     		pop	{r4, r5, r6, r7, pc}
 725              	.L39:
 726              		.align	2
 727              	.L38:
 728 00f4 00000000 		.word	FONT_32X53
 729 00f8 00FFFF00 		.word	16776960
ARM GAS  C:\Users\leoja\AppData\Local\Temp\ccByxJuZ.s 			page 19


 730 00fc 00A5FF00 		.word	16753920
 731 0100 00000000 		.word	last_max_pack_temp_color
 732 0104 60000000 		.word	.LC31
 733 0108 00000000 		.word	FONT_12X16
 734              		.cfi_endproc
 735              	.LFE39:
 736              		.size	disp_max_pack_temp, .-disp_max_pack_temp
 737              		.section	.text.disp_state,"ax",%progbits
 738              		.align	1
 739              		.global	disp_state
 740              		.code	16
 741              		.thumb_func
 742              		.type	disp_state, %function
 743              	disp_state:
 744              	.LFB40:
 282:frucd_display.c **** 
 283:frucd_display.c **** 
 284:frucd_display.c **** /*
 285:frucd_display.c **** 
 286:frucd_display.c **** void disp_state(uint8_t state) { // TODO
 287:frucd_display.c ****     UG_COLOR color;
 288:frucd_display.c ****     // check fault bit
 289:frucd_display.c ****     if (state & 0x80) {
 290:frucd_display.c ****         // *************** FAULTS ***************
 291:frucd_display.c ****         uint8 fault = state & 0x7f; // mask off fault bit
 292:frucd_display.c ****         switch(fault) {
 293:frucd_display.c ****             case NONE: // STARTUP (effectively)
 294:frucd_display.c ****                 // not obtainable via CAN
 295:frucd_display.c ****                 // would only show when hardcoded on startup
 296:frucd_display.c ****                 color = C_YELLOW;
 297:frucd_display.c ****                 if (color != last_state_color) {
 298:frucd_display.c ****                     // only draw rectangle if color changed
 299:frucd_display.c ****                     UG_FillFrame(95, 185, 240, 215, color);
 300:frucd_display.c ****                     last_state_color = color;
 301:frucd_display.c ****                 }
 302:frucd_display.c ****                 UG_PutColorString(100, 195, " STARTUP  ", C_BLACK, color);
 303:frucd_display.c ****                 break;
 304:frucd_display.c ****             case DRIVE_REQUEST_FROM_LV:
 305:frucd_display.c ****                 color = C_RED;
 306:frucd_display.c ****                 if (color != last_state_color) {
 307:frucd_display.c ****                     // only draw rectangle if color changed
 308:frucd_display.c ****                     UG_FillFrame(95, 185, 240, 215, color);
 309:frucd_display.c ****                     last_state_color = color;
 310:frucd_display.c ****                 }
 311:frucd_display.c ****                 UG_PutColorString(100, 195, "DRV FRM LV", C_BLACK, color);
 312:frucd_display.c ****                 break;
 313:frucd_display.c ****             case CONSERVATIVE_TIMER_MAXED:
 314:frucd_display.c ****                 color = C_RED;
 315:frucd_display.c ****                 if (color != last_state_color) {
 316:frucd_display.c ****                     // only draw rectangle if color changed
 317:frucd_display.c ****                     UG_FillFrame(95, 185, 240, 215, color);
 318:frucd_display.c ****                     last_state_color = color;
 319:frucd_display.c ****                 }
 320:frucd_display.c ****                 UG_PutColorString(100, 195, "PRE TM OUT", C_BLACK, color);
 321:frucd_display.c ****                 break;
 322:frucd_display.c ****             case BRAKE_NOT_PRESSED:
 323:frucd_display.c ****                 color = C_RED;
ARM GAS  C:\Users\leoja\AppData\Local\Temp\ccByxJuZ.s 			page 20


 324:frucd_display.c ****                 if (color != last_state_color) {
 325:frucd_display.c ****                     // only draw rectangle if color changed
 326:frucd_display.c ****                     UG_FillFrame(95, 185, 240, 215, color);
 327:frucd_display.c ****                     last_state_color = color;
 328:frucd_display.c ****                 }
 329:frucd_display.c ****                 UG_PutColorString(100, 195, "BR NOT PRS", C_BLACK, color);
 330:frucd_display.c ****                 break;
 331:frucd_display.c ****             case HV_DISABLED_WHILE_DRIVING:
 332:frucd_display.c ****                 color = C_RED;
 333:frucd_display.c ****                 if (color != last_state_color) {
 334:frucd_display.c ****                     // only draw rectangle if color changed
 335:frucd_display.c ****                     UG_FillFrame(95, 185, 240, 215, color);
 336:frucd_display.c ****                     last_state_color = color;
 337:frucd_display.c ****                 }
 338:frucd_display.c ****                 UG_PutColorString(100, 195, "HV OFF DRV", C_BLACK, color);
 339:frucd_display.c ****                 break;
 340:frucd_display.c ****             case SENSOR_DISCREPANCY:
 341:frucd_display.c ****                 color = C_RED;
 342:frucd_display.c ****                 if (color != last_state_color) {
 343:frucd_display.c ****                     // only draw rectangle if color changed
 344:frucd_display.c ****                     UG_FillFrame(95, 185, 240, 215, color);
 345:frucd_display.c ****                     last_state_color = color;
 346:frucd_display.c ****                 }
 347:frucd_display.c ****                 UG_PutColorString(100, 195, "SNSR DSCRP", C_BLACK, color);
 348:frucd_display.c ****                 break;
 349:frucd_display.c ****             case BRAKE_IMPLAUSIBLE:
 350:frucd_display.c ****                 color = C_YELLOW;
 351:frucd_display.c ****                 if (color != last_state_color) {
 352:frucd_display.c ****                     // only draw rectangle if color changed
 353:frucd_display.c ****                     UG_FillFrame(95, 185, 240, 215, color);
 354:frucd_display.c ****                     last_state_color = color;
 355:frucd_display.c ****                 }
 356:frucd_display.c ****                 UG_PutColorString(100, 195, "BSPD TRIPD", C_BLACK, color); //whitespace to clear
 357:frucd_display.c ****                 break;
 358:frucd_display.c ****             case ESTOP:
 359:frucd_display.c ****                 color = C_RED;
 360:frucd_display.c ****                 if (color != last_state_color) {
 361:frucd_display.c ****                     // only draw rectangle if color changed
 362:frucd_display.c ****                     UG_FillFrame(95, 185, 240, 215, color);
 363:frucd_display.c ****                     last_state_color = color;
 364:frucd_display.c ****                 }
 365:frucd_display.c ****                 UG_PutColorString(100, 195, "SHTDWN OPN", C_BLACK, color); //whitespace to clear
 366:frucd_display.c ****                 break;
 367:frucd_display.c ****         }
 368:frucd_display.c ****         
 369:frucd_display.c ****     } else {
 370:frucd_display.c ****         // *************** NO FAULTS ***************
 371:frucd_display.c ****         color = C_GREEN;
 372:frucd_display.c ****         if (color != last_state_color) {
 373:frucd_display.c ****             // only draw rectangle if color changed
 374:frucd_display.c ****             UG_FillFrame(95, 185, 240, 215, color);
 375:frucd_display.c ****             last_state_color = color;
 376:frucd_display.c ****         }
 377:frucd_display.c ****         switch(state) {
 378:frucd_display.c ****             case LV:
 379:frucd_display.c ****                 UG_PutColorString(100, 195, "    LV    ", C_BLACK, color);
 380:frucd_display.c ****                 break;
ARM GAS  C:\Users\leoja\AppData\Local\Temp\ccByxJuZ.s 			page 21


 381:frucd_display.c ****             case PRECHARGING:
 382:frucd_display.c ****                 UG_PutColorString(100, 195, "PRECHARGE ", C_BLACK, color);
 383:frucd_display.c ****                 break;
 384:frucd_display.c ****             case HV_ENABLED:
 385:frucd_display.c ****                 UG_PutColorString(100, 195, "HV ENABLED", C_BLACK, color);
 386:frucd_display.c ****                 break;
 387:frucd_display.c ****             case DRIVE:
 388:frucd_display.c ****                 UG_PutColorString(100, 195, "  DRIVE   ", C_BLACK, color);
 389:frucd_display.c ****                 break;
 390:frucd_display.c ****         }
 391:frucd_display.c ****     }
 392:frucd_display.c **** }
 393:frucd_display.c **** 
 394:frucd_display.c **** 
 395:frucd_display.c **** */
 396:frucd_display.c **** 
 397:frucd_display.c **** 
 398:frucd_display.c **** void disp_state(uint8_t state, uint16_t x1, uint16_t y1, uint16_t x2, uint16_t y2, uint8_t size) { 
 745              		.loc 1 398 0
 746              		.cfi_startproc
 747              		@ args = 8, pretend = 0, frame = 24
 748              		@ frame_needed = 0, uses_anonymous_args = 0
 749              	.LVL76:
 750 0000 F0B5     		push	{r4, r5, r6, r7, lr}
 751              		.cfi_def_cfa_offset 20
 752              		.cfi_offset 4, -20
 753              		.cfi_offset 5, -16
 754              		.cfi_offset 6, -12
 755              		.cfi_offset 7, -8
 756              		.cfi_offset 14, -4
 757 0002 89B0     		sub	sp, sp, #36
 758              		.cfi_def_cfa_offset 56
 759              		.loc 1 398 0
 760 0004 0593     		str	r3, [sp, #20]
 761 0006 0EAB     		add	r3, sp, #56
 762              	.LVL77:
 763 0008 1C88     		ldrh	r4, [r3]
 764 000a 0FAB     		add	r3, sp, #60
 765              	.LVL78:
 766 000c 0492     		str	r2, [sp, #16]
 767 000e 1A78     		ldrb	r2, [r3]
 768              	.LVL79:
 399:frucd_display.c ****     int xFont, yFont;
 400:frucd_display.c ****     int horizFontSize = 12 + 20*size;
 401:frucd_display.c ****     int stringSize;
 402:frucd_display.c ****     stringSize = 10;
 403:frucd_display.c ****     xFont = (x1 + x2)/2 - ((horizFontSize*stringSize)/2);
 769              		.loc 1 403 0
 770 0010 1423     		movs	r3, #20
 771              	.LVL80:
 398:frucd_display.c ****     int xFont, yFont;
 772              		.loc 1 398 0
 773 0012 0391     		str	r1, [sp, #12]
 774              		.loc 1 403 0
 775 0014 0A21     		movs	r1, #10
 776              	.LVL81:
 404:frucd_display.c ****     yFont = (y1 + y2)/2 - 5 - (size*17);    
ARM GAS  C:\Users\leoja\AppData\Local\Temp\ccByxJuZ.s 			page 22


 777              		.loc 1 404 0
 778 0016 1127     		movs	r7, #17
 403:frucd_display.c ****     yFont = (y1 + y2)/2 - 5 - (size*17);    
 779              		.loc 1 403 0
 780 0018 5343     		muls	r3, r2
 781 001a 0C33     		adds	r3, r3, #12
 782              	.LVL82:
 783 001c 4B43     		muls	r3, r1
 784              	.LVL83:
 398:frucd_display.c ****     int xFont, yFont;
 785              		.loc 1 398 0
 786 001e 0600     		movs	r6, r0
 403:frucd_display.c ****     yFont = (y1 + y2)/2 - 5 - (size*17);    
 787              		.loc 1 403 0
 788 0020 0399     		ldr	r1, [sp, #12]
 789 0022 0598     		ldr	r0, [sp, #20]
 790              	.LVL84:
 791 0024 5B10     		asrs	r3, r3, #1
 792 0026 0918     		adds	r1, r1, r0
 793 0028 4910     		asrs	r1, r1, #1
 794 002a CB1A     		subs	r3, r1, r3
 795 002c 0693     		str	r3, [sp, #24]
 796              	.LVL85:
 797              		.loc 1 404 0
 798 002e 7F42     		rsbs	r7, r7, #0
 799 0030 049B     		ldr	r3, [sp, #16]
 800              	.LVL86:
 801 0032 5743     		muls	r7, r2
 802 0034 1B19     		adds	r3, r3, r4
 803 0036 5B10     		asrs	r3, r3, #1
 804 0038 053B     		subs	r3, r3, #5
 805 003a DB19     		adds	r3, r3, r7
 806 003c 0793     		str	r3, [sp, #28]
 807              	.LVL87:
 405:frucd_display.c ****     if(size == 1){
 808              		.loc 1 405 0
 809 003e 012A     		cmp	r2, #1
 810 0040 02D1     		bne	.L41
 406:frucd_display.c ****         UG_FontSelect(&FONT_32X53);
 811              		.loc 1 406 0
 812 0042 8D48     		ldr	r0, .L69
 813 0044 FFF7FEFF 		bl	UG_FontSelect
 814              	.LVL88:
 815              	.L41:
 407:frucd_display.c ****         
 408:frucd_display.c ****     }
 409:frucd_display.c ****     UG_COLOR color;
 410:frucd_display.c ****     // check fault bit
 411:frucd_display.c ****     if (state & 0x80) {
 816              		.loc 1 411 0
 817 0048 73B2     		sxtb	r3, r6
 818 004a 002B     		cmp	r3, #0
 819 004c 00DB     		blt	.LCB726
 820 004e DEE0     		b	.L42	@long jump
 821              	.LCB726:
 822              	.LVL89:
 823              	.LBB3:
ARM GAS  C:\Users\leoja\AppData\Local\Temp\ccByxJuZ.s 			page 23


 412:frucd_display.c ****         // *************** FAULTS ***************
 413:frucd_display.c ****         uint8 fault = state & 0x7f; // mask off fault bit
 414:frucd_display.c ****         switch(fault) {
 824              		.loc 1 414 0
 825 0050 7F20     		movs	r0, #127
 826 0052 3040     		ands	r0, r6
 827 0054 0728     		cmp	r0, #7
 828 0056 00D9     		bls	.LCB733
 829 0058 08E1     		b	.L43	@long jump
 830              	.LCB733:
 831 005a 6B46     		mov	r3, sp
 832 005c 1C27     		movs	r7, #28
 833 005e DF5F     		ldrsh	r7, [r3, r7]
 834 0060 6B46     		mov	r3, sp
 835 0062 864D     		ldr	r5, .L69+4
 836 0064 1826     		movs	r6, #24
 837 0066 9E5F     		ldrsh	r6, [r3, r6]
 838              	.LVL90:
 415:frucd_display.c ****             case NONE: // STARTUP (effectively)
 416:frucd_display.c ****                 // not obtainable via CAN
 417:frucd_display.c ****                 // would only show when hardcoded on startup
 418:frucd_display.c ****                 color = C_YELLOW;
 419:frucd_display.c ****                 if (color != last_state_color) {
 420:frucd_display.c ****                     // only draw rectangle if color changed
 421:frucd_display.c ****                     UG_FillFrame(x1, y1, x2, y2, color);
 422:frucd_display.c ****                     last_state_color = color;
 423:frucd_display.c ****                 }
 424:frucd_display.c ****                 UG_PutColorString(xFont, yFont, " STARTUP  ", C_BLACK, color);
 425:frucd_display.c ****                 break;
 426:frucd_display.c ****             case DRIVE_REQUEST_FROM_LV:
 427:frucd_display.c ****                 color = C_RED;
 428:frucd_display.c ****                 if (color != last_state_color) {
 429:frucd_display.c ****                     // only draw rectangle if color changed
 430:frucd_display.c ****                     UG_FillFrame(x1, y1, x2, y2, color);
 431:frucd_display.c ****                     last_state_color = color;
 432:frucd_display.c ****                 }
 433:frucd_display.c ****                 UG_PutColorString(xFont, yFont, "DRV FRM LV", C_BLACK, color);
 434:frucd_display.c ****                 break;
 435:frucd_display.c ****             case CONSERVATIVE_TIMER_MAXED:
 436:frucd_display.c ****                 color = C_RED;
 437:frucd_display.c ****                 if (color != last_state_color) {
 438:frucd_display.c ****                     // only draw rectangle if color changed
 439:frucd_display.c ****                     UG_FillFrame(x1, y1, x2, y2, color);
 440:frucd_display.c ****                     last_state_color = color;
 441:frucd_display.c ****                 }
 442:frucd_display.c ****                 UG_PutColorString(xFont, yFont, "PRE TM OUT", C_BLACK, color);
 443:frucd_display.c ****                 break;
 444:frucd_display.c ****             case BRAKE_NOT_PRESSED:
 445:frucd_display.c ****                 color = C_RED;
 446:frucd_display.c ****                 if (color != last_state_color) {
 447:frucd_display.c ****                     // only draw rectangle if color changed
 448:frucd_display.c ****                     UG_FillFrame(x1, y1, x2, y2, color);
 449:frucd_display.c ****                     last_state_color = color;
 450:frucd_display.c ****                 }
 451:frucd_display.c ****                 UG_PutColorString(xFont, yFont, "BR NOT PRS", C_BLACK, color);
 452:frucd_display.c ****                 break;
 453:frucd_display.c ****             case HV_DISABLED_WHILE_DRIVING:
ARM GAS  C:\Users\leoja\AppData\Local\Temp\ccByxJuZ.s 			page 24


 454:frucd_display.c ****                 color = C_RED;
 455:frucd_display.c ****                 if (color != last_state_color) {
 456:frucd_display.c ****                     // only draw rectangle if color changed
 457:frucd_display.c ****                     UG_FillFrame(x1, y1, x2, y2, color);
 458:frucd_display.c ****                     last_state_color = color;
 459:frucd_display.c ****                 }
 460:frucd_display.c ****                 UG_PutColorString(xFont, yFont, "HV OFF DRV", C_BLACK, color);
 461:frucd_display.c ****                 break;
 462:frucd_display.c ****             case SENSOR_DISCREPANCY:
 463:frucd_display.c ****                 color = C_RED;
 464:frucd_display.c ****                 if (color != last_state_color) {
 465:frucd_display.c ****                     // only draw rectangle if color changed
 466:frucd_display.c ****                     UG_FillFrame(x1, y1, x2, y2, color);
 467:frucd_display.c ****                     last_state_color = color;
 468:frucd_display.c ****                 }
 469:frucd_display.c ****                 UG_PutColorString(xFont, yFont, "SNSR DSCRP", C_BLACK, color);
 470:frucd_display.c ****                 break;
 471:frucd_display.c ****             case BRAKE_IMPLAUSIBLE:
 472:frucd_display.c ****                 color = C_YELLOW;
 473:frucd_display.c ****                 if (color != last_state_color) {
 474:frucd_display.c ****                     // only draw rectangle if color changed
 475:frucd_display.c ****                     UG_FillFrame(x1, y1, x2, y2, color);
 476:frucd_display.c ****                     last_state_color = color;
 477:frucd_display.c ****                 }
 478:frucd_display.c ****                 UG_PutColorString(xFont, yFont, "BSPD TRIPD", C_BLACK, color); //whitespace to clea
 479:frucd_display.c ****                 break;
 480:frucd_display.c ****             case ESTOP:
 481:frucd_display.c ****                 color = C_RED;
 482:frucd_display.c ****                 if (color != last_state_color) {
 839              		.loc 1 482 0
 840 0068 2B68     		ldr	r3, [r5]
 841 006a 1A00     		movs	r2, r3
 414:frucd_display.c ****             case NONE: // STARTUP (effectively)
 842              		.loc 1 414 0
 843 006c FFF7FEFF 		bl	__gnu_thumb1_case_uqi
 844              	.L45:
 845 0070 04       		.byte	(.L44-.L45)/2
 846 0071 1B       		.byte	(.L46-.L45)/2
 847 0072 35       		.byte	(.L47-.L45)/2
 848 0073 4F       		.byte	(.L48-.L45)/2
 849 0074 69       		.byte	(.L49-.L45)/2
 850 0075 83       		.byte	(.L50-.L45)/2
 851 0076 9D       		.byte	(.L51-.L45)/2
 852 0077 B4       		.byte	(.L52-.L45)/2
 853              		.p2align 1
 854              	.L44:
 855              	.LVL91:
 419:frucd_display.c ****                     // only draw rectangle if color changed
 856              		.loc 1 419 0
 857 0078 814B     		ldr	r3, .L69+8
 858 007a 9A42     		cmp	r2, r3
 859 007c 0ED0     		beq	.L53
 421:frucd_display.c ****                     last_state_color = color;
 860              		.loc 1 421 0
 861 007e 6A46     		mov	r2, sp
 862 0080 1421     		movs	r1, #20
 863 0082 525E     		ldrsh	r2, [r2, r1]
ARM GAS  C:\Users\leoja\AppData\Local\Temp\ccByxJuZ.s 			page 25


 864 0084 6946     		mov	r1, sp
 865 0086 1020     		movs	r0, #16
 866 0088 095E     		ldrsh	r1, [r1, r0]
 867 008a 6846     		mov	r0, sp
 868 008c 23B2     		sxth	r3, r4
 869 008e 0C24     		movs	r4, #12
 870 0090 005F     		ldrsh	r0, [r0, r4]
 871 0092 7B4C     		ldr	r4, .L69+8
 872 0094 0094     		str	r4, [sp]
 873 0096 FFF7FEFF 		bl	UG_FillFrame
 874              	.LVL92:
 422:frucd_display.c ****                 }
 875              		.loc 1 422 0
 876 009a 2C60     		str	r4, [r5]
 877              	.L53:
 424:frucd_display.c ****                 break;
 878              		.loc 1 424 0
 879 009c 784B     		ldr	r3, .L69+8
 880 009e 794A     		ldr	r2, .L69+12
 881 00a0 0093     		str	r3, [sp]
 882 00a2 0023     		movs	r3, #0
 883 00a4 B1E0     		b	.L68
 884              	.LVL93:
 885              	.L46:
 428:frucd_display.c ****                     // only draw rectangle if color changed
 886              		.loc 1 428 0
 887 00a6 FF23     		movs	r3, #255
 888 00a8 1B04     		lsls	r3, r3, #16
 889 00aa 9A42     		cmp	r2, r3
 890 00ac 0FD0     		beq	.L54
 430:frucd_display.c ****                     last_state_color = color;
 891              		.loc 1 430 0
 892 00ae 6A46     		mov	r2, sp
 893 00b0 1421     		movs	r1, #20
 894 00b2 525E     		ldrsh	r2, [r2, r1]
 895 00b4 6946     		mov	r1, sp
 896 00b6 1020     		movs	r0, #16
 897 00b8 095E     		ldrsh	r1, [r1, r0]
 898 00ba 6846     		mov	r0, sp
 899 00bc 23B2     		sxth	r3, r4
 900 00be 0C24     		movs	r4, #12
 901 00c0 005F     		ldrsh	r0, [r0, r4]
 902 00c2 FF24     		movs	r4, #255
 903 00c4 2404     		lsls	r4, r4, #16
 904 00c6 0094     		str	r4, [sp]
 905 00c8 FFF7FEFF 		bl	UG_FillFrame
 906              	.LVL94:
 431:frucd_display.c ****                 }
 907              		.loc 1 431 0
 908 00cc 2C60     		str	r4, [r5]
 909              	.L54:
 433:frucd_display.c ****                 break;
 910              		.loc 1 433 0
 911 00ce FF23     		movs	r3, #255
 912 00d0 1B04     		lsls	r3, r3, #16
 913 00d2 0093     		str	r3, [sp]
 914 00d4 6C4A     		ldr	r2, .L69+16
ARM GAS  C:\Users\leoja\AppData\Local\Temp\ccByxJuZ.s 			page 26


 915 00d6 0023     		movs	r3, #0
 916 00d8 97E0     		b	.L68
 917              	.LVL95:
 918              	.L47:
 437:frucd_display.c ****                     // only draw rectangle if color changed
 919              		.loc 1 437 0
 920 00da FF23     		movs	r3, #255
 921 00dc 1B04     		lsls	r3, r3, #16
 922 00de 9A42     		cmp	r2, r3
 923 00e0 0FD0     		beq	.L55
 439:frucd_display.c ****                     last_state_color = color;
 924              		.loc 1 439 0
 925 00e2 6A46     		mov	r2, sp
 926 00e4 1421     		movs	r1, #20
 927 00e6 525E     		ldrsh	r2, [r2, r1]
 928 00e8 6946     		mov	r1, sp
 929 00ea 1020     		movs	r0, #16
 930 00ec 095E     		ldrsh	r1, [r1, r0]
 931 00ee 6846     		mov	r0, sp
 932 00f0 23B2     		sxth	r3, r4
 933 00f2 0C24     		movs	r4, #12
 934 00f4 005F     		ldrsh	r0, [r0, r4]
 935 00f6 FF24     		movs	r4, #255
 936 00f8 2404     		lsls	r4, r4, #16
 937 00fa 0094     		str	r4, [sp]
 938 00fc FFF7FEFF 		bl	UG_FillFrame
 939              	.LVL96:
 440:frucd_display.c ****                 }
 940              		.loc 1 440 0
 941 0100 2C60     		str	r4, [r5]
 942              	.L55:
 442:frucd_display.c ****                 break;
 943              		.loc 1 442 0
 944 0102 FF23     		movs	r3, #255
 945 0104 1B04     		lsls	r3, r3, #16
 946 0106 0093     		str	r3, [sp]
 947 0108 604A     		ldr	r2, .L69+20
 948 010a 0023     		movs	r3, #0
 949 010c 7DE0     		b	.L68
 950              	.LVL97:
 951              	.L48:
 446:frucd_display.c ****                     // only draw rectangle if color changed
 952              		.loc 1 446 0
 953 010e FF23     		movs	r3, #255
 954 0110 1B04     		lsls	r3, r3, #16
 955 0112 9A42     		cmp	r2, r3
 956 0114 0FD0     		beq	.L56
 448:frucd_display.c ****                     last_state_color = color;
 957              		.loc 1 448 0
 958 0116 6A46     		mov	r2, sp
 959 0118 1421     		movs	r1, #20
 960 011a 525E     		ldrsh	r2, [r2, r1]
 961 011c 6946     		mov	r1, sp
 962 011e 1020     		movs	r0, #16
 963 0120 095E     		ldrsh	r1, [r1, r0]
 964 0122 6846     		mov	r0, sp
 965 0124 23B2     		sxth	r3, r4
ARM GAS  C:\Users\leoja\AppData\Local\Temp\ccByxJuZ.s 			page 27


 966 0126 0C24     		movs	r4, #12
 967 0128 005F     		ldrsh	r0, [r0, r4]
 968 012a FF24     		movs	r4, #255
 969 012c 2404     		lsls	r4, r4, #16
 970 012e 0094     		str	r4, [sp]
 971 0130 FFF7FEFF 		bl	UG_FillFrame
 972              	.LVL98:
 449:frucd_display.c ****                 }
 973              		.loc 1 449 0
 974 0134 2C60     		str	r4, [r5]
 975              	.L56:
 451:frucd_display.c ****                 break;
 976              		.loc 1 451 0
 977 0136 FF23     		movs	r3, #255
 978 0138 1B04     		lsls	r3, r3, #16
 979 013a 0093     		str	r3, [sp]
 980 013c 544A     		ldr	r2, .L69+24
 981 013e 0023     		movs	r3, #0
 982 0140 63E0     		b	.L68
 983              	.LVL99:
 984              	.L49:
 455:frucd_display.c ****                     // only draw rectangle if color changed
 985              		.loc 1 455 0
 986 0142 FF23     		movs	r3, #255
 987 0144 1B04     		lsls	r3, r3, #16
 988 0146 9A42     		cmp	r2, r3
 989 0148 0FD0     		beq	.L57
 457:frucd_display.c ****                     last_state_color = color;
 990              		.loc 1 457 0
 991 014a 6A46     		mov	r2, sp
 992 014c 1421     		movs	r1, #20
 993 014e 525E     		ldrsh	r2, [r2, r1]
 994 0150 6946     		mov	r1, sp
 995 0152 1020     		movs	r0, #16
 996 0154 095E     		ldrsh	r1, [r1, r0]
 997 0156 6846     		mov	r0, sp
 998 0158 23B2     		sxth	r3, r4
 999 015a 0C24     		movs	r4, #12
 1000 015c 005F     		ldrsh	r0, [r0, r4]
 1001 015e FF24     		movs	r4, #255
 1002 0160 2404     		lsls	r4, r4, #16
 1003 0162 0094     		str	r4, [sp]
 1004 0164 FFF7FEFF 		bl	UG_FillFrame
 1005              	.LVL100:
 458:frucd_display.c ****                 }
 1006              		.loc 1 458 0
 1007 0168 2C60     		str	r4, [r5]
 1008              	.L57:
 460:frucd_display.c ****                 break;
 1009              		.loc 1 460 0
 1010 016a FF23     		movs	r3, #255
 1011 016c 1B04     		lsls	r3, r3, #16
 1012 016e 0093     		str	r3, [sp]
 1013 0170 484A     		ldr	r2, .L69+28
 1014 0172 0023     		movs	r3, #0
 1015 0174 49E0     		b	.L68
 1016              	.LVL101:
ARM GAS  C:\Users\leoja\AppData\Local\Temp\ccByxJuZ.s 			page 28


 1017              	.L50:
 464:frucd_display.c ****                     // only draw rectangle if color changed
 1018              		.loc 1 464 0
 1019 0176 FF23     		movs	r3, #255
 1020 0178 1B04     		lsls	r3, r3, #16
 1021 017a 9A42     		cmp	r2, r3
 1022 017c 0FD0     		beq	.L58
 466:frucd_display.c ****                     last_state_color = color;
 1023              		.loc 1 466 0
 1024 017e 6A46     		mov	r2, sp
 1025 0180 1421     		movs	r1, #20
 1026 0182 525E     		ldrsh	r2, [r2, r1]
 1027 0184 6946     		mov	r1, sp
 1028 0186 1020     		movs	r0, #16
 1029 0188 095E     		ldrsh	r1, [r1, r0]
 1030 018a 6846     		mov	r0, sp
 1031 018c 23B2     		sxth	r3, r4
 1032 018e 0C24     		movs	r4, #12
 1033 0190 005F     		ldrsh	r0, [r0, r4]
 1034 0192 FF24     		movs	r4, #255
 1035 0194 2404     		lsls	r4, r4, #16
 1036 0196 0094     		str	r4, [sp]
 1037 0198 FFF7FEFF 		bl	UG_FillFrame
 1038              	.LVL102:
 467:frucd_display.c ****                 }
 1039              		.loc 1 467 0
 1040 019c 2C60     		str	r4, [r5]
 1041              	.L58:
 469:frucd_display.c ****                 break;
 1042              		.loc 1 469 0
 1043 019e FF23     		movs	r3, #255
 1044 01a0 1B04     		lsls	r3, r3, #16
 1045 01a2 0093     		str	r3, [sp]
 1046 01a4 3C4A     		ldr	r2, .L69+32
 1047 01a6 0023     		movs	r3, #0
 1048 01a8 2FE0     		b	.L68
 1049              	.LVL103:
 1050              	.L51:
 473:frucd_display.c ****                     // only draw rectangle if color changed
 1051              		.loc 1 473 0
 1052 01aa 354B     		ldr	r3, .L69+8
 1053 01ac 9A42     		cmp	r2, r3
 1054 01ae 0ED0     		beq	.L59
 475:frucd_display.c ****                     last_state_color = color;
 1055              		.loc 1 475 0
 1056 01b0 6A46     		mov	r2, sp
 1057 01b2 1421     		movs	r1, #20
 1058 01b4 525E     		ldrsh	r2, [r2, r1]
 1059 01b6 6946     		mov	r1, sp
 1060 01b8 1020     		movs	r0, #16
 1061 01ba 095E     		ldrsh	r1, [r1, r0]
 1062 01bc 6846     		mov	r0, sp
 1063 01be 23B2     		sxth	r3, r4
 1064 01c0 0C24     		movs	r4, #12
 1065 01c2 005F     		ldrsh	r0, [r0, r4]
 1066 01c4 2E4C     		ldr	r4, .L69+8
 1067 01c6 0094     		str	r4, [sp]
ARM GAS  C:\Users\leoja\AppData\Local\Temp\ccByxJuZ.s 			page 29


 1068 01c8 FFF7FEFF 		bl	UG_FillFrame
 1069              	.LVL104:
 476:frucd_display.c ****                 }
 1070              		.loc 1 476 0
 1071 01cc 2C60     		str	r4, [r5]
 1072              	.L59:
 478:frucd_display.c ****                 break;
 1073              		.loc 1 478 0
 1074 01ce 2C4B     		ldr	r3, .L69+8
 1075 01d0 324A     		ldr	r2, .L69+36
 1076 01d2 0093     		str	r3, [sp]
 1077 01d4 0023     		movs	r3, #0
 1078 01d6 18E0     		b	.L68
 1079              	.LVL105:
 1080              	.L52:
 1081              		.loc 1 482 0
 1082 01d8 FF23     		movs	r3, #255
 1083 01da 1B04     		lsls	r3, r3, #16
 1084 01dc 9A42     		cmp	r2, r3
 1085 01de 0FD0     		beq	.L60
 483:frucd_display.c ****                     // only draw rectangle if color changed
 484:frucd_display.c ****                     UG_FillFrame(x1, y1, x2, y2, color);
 1086              		.loc 1 484 0
 1087 01e0 6A46     		mov	r2, sp
 1088 01e2 1421     		movs	r1, #20
 1089 01e4 525E     		ldrsh	r2, [r2, r1]
 1090 01e6 6946     		mov	r1, sp
 1091 01e8 1020     		movs	r0, #16
 1092 01ea 095E     		ldrsh	r1, [r1, r0]
 1093 01ec 6846     		mov	r0, sp
 1094 01ee 23B2     		sxth	r3, r4
 1095 01f0 0C24     		movs	r4, #12
 1096 01f2 005F     		ldrsh	r0, [r0, r4]
 1097 01f4 FF24     		movs	r4, #255
 1098 01f6 2404     		lsls	r4, r4, #16
 1099 01f8 0094     		str	r4, [sp]
 1100 01fa FFF7FEFF 		bl	UG_FillFrame
 1101              	.LVL106:
 485:frucd_display.c ****                     last_state_color = color;
 1102              		.loc 1 485 0
 1103 01fe 2C60     		str	r4, [r5]
 1104              	.L60:
 486:frucd_display.c ****                 }
 487:frucd_display.c ****                 UG_PutColorString(xFont, yFont, "SHTDWN OPN", C_BLACK, color); //whitespace to clea
 1105              		.loc 1 487 0
 1106 0200 FF23     		movs	r3, #255
 1107 0202 1B04     		lsls	r3, r3, #16
 1108 0204 0093     		str	r3, [sp]
 1109 0206 0023     		movs	r3, #0
 1110 0208 254A     		ldr	r2, .L69+40
 1111              	.LVL107:
 1112              	.L68:
 1113 020a 3900     		movs	r1, r7
 1114 020c 2BE0     		b	.L67
 1115              	.L42:
 1116              	.LVL108:
 1117              	.LBE3:
ARM GAS  C:\Users\leoja\AppData\Local\Temp\ccByxJuZ.s 			page 30


 488:frucd_display.c ****                 break;
 489:frucd_display.c ****         }
 490:frucd_display.c ****         
 491:frucd_display.c ****     } else {
 492:frucd_display.c ****         // *************** NO FAULTS ***************
 493:frucd_display.c ****         color = C_GREEN;
 494:frucd_display.c ****         if (color != last_state_color) {
 1118              		.loc 1 494 0
 1119 020e FF27     		movs	r7, #255
 1120 0210 1A4D     		ldr	r5, .L69+4
 1121 0212 3F02     		lsls	r7, r7, #8
 1122 0214 2B68     		ldr	r3, [r5]
 1123 0216 BB42     		cmp	r3, r7
 1124 0218 0DD0     		beq	.L61
 495:frucd_display.c ****             // only draw rectangle if color changed
 496:frucd_display.c ****             UG_FillFrame(x1, y1, x2, y2, color);
 1125              		.loc 1 496 0
 1126 021a 6A46     		mov	r2, sp
 1127 021c 1421     		movs	r1, #20
 1128 021e 525E     		ldrsh	r2, [r2, r1]
 1129 0220 6946     		mov	r1, sp
 1130 0222 1020     		movs	r0, #16
 1131 0224 095E     		ldrsh	r1, [r1, r0]
 1132 0226 6846     		mov	r0, sp
 1133 0228 23B2     		sxth	r3, r4
 1134 022a 0C24     		movs	r4, #12
 1135 022c 005F     		ldrsh	r0, [r0, r4]
 1136 022e 0097     		str	r7, [sp]
 1137 0230 FFF7FEFF 		bl	UG_FillFrame
 1138              	.LVL109:
 497:frucd_display.c ****             last_state_color = color;
 1139              		.loc 1 497 0
 1140 0234 2F60     		str	r7, [r5]
 1141              	.L61:
 498:frucd_display.c ****         }
 499:frucd_display.c ****         switch(state) {
 1142              		.loc 1 499 0
 1143 0236 032E     		cmp	r6, #3
 1144 0238 18D8     		bhi	.L43
 1145 023a 6B46     		mov	r3, sp
 1146 023c 1C21     		movs	r1, #28
 1147 023e 595E     		ldrsh	r1, [r3, r1]
 1148 0240 6B46     		mov	r3, sp
 1149 0242 3000     		movs	r0, r6
 1150 0244 1826     		movs	r6, #24
 1151 0246 9E5F     		ldrsh	r6, [r3, r6]
 1152 0248 FF23     		movs	r3, #255
 1153 024a 1B02     		lsls	r3, r3, #8
 500:frucd_display.c ****             case LV:
 501:frucd_display.c ****                 UG_PutColorString(xFont, yFont, "    LV    ", C_BLACK, color);
 502:frucd_display.c ****                 break;
 503:frucd_display.c ****             case PRECHARGING:
 504:frucd_display.c ****                 UG_PutColorString(xFont, yFont, "PRECHARGE ", C_BLACK, color);
 505:frucd_display.c ****                 break;
 506:frucd_display.c ****             case HV_ENABLED:
 507:frucd_display.c ****                 UG_PutColorString(xFont, yFont, "HV ENABLED", C_BLACK, color);
 508:frucd_display.c ****                 break;
ARM GAS  C:\Users\leoja\AppData\Local\Temp\ccByxJuZ.s 			page 31


 509:frucd_display.c ****             case DRIVE:
 510:frucd_display.c ****                 UG_PutColorString(xFont, yFont, "  DRIVE   ", C_BLACK, color);
 1154              		.loc 1 510 0
 1155 024c 0093     		str	r3, [sp]
 1156 024e 0023     		movs	r3, #0
 499:frucd_display.c ****             case LV:
 1157              		.loc 1 499 0
 1158 0250 FFF7FEFF 		bl	__gnu_thumb1_case_uqi
 1159              	.L63:
 1160 0254 02       		.byte	(.L62-.L63)/2
 1161 0255 04       		.byte	(.L64-.L63)/2
 1162 0256 06       		.byte	(.L65-.L63)/2
 1163 0257 08       		.byte	(.L66-.L63)/2
 1164              		.p2align 1
 1165              	.L62:
 501:frucd_display.c ****                 break;
 1166              		.loc 1 501 0
 1167 0258 124A     		ldr	r2, .L69+44
 1168 025a 04E0     		b	.L67
 1169              	.L64:
 504:frucd_display.c ****                 break;
 1170              		.loc 1 504 0
 1171 025c 124A     		ldr	r2, .L69+48
 1172 025e 02E0     		b	.L67
 1173              	.L65:
 507:frucd_display.c ****                 break;
 1174              		.loc 1 507 0
 1175 0260 124A     		ldr	r2, .L69+52
 1176 0262 00E0     		b	.L67
 1177              	.L66:
 1178              		.loc 1 510 0
 1179 0264 124A     		ldr	r2, .L69+56
 1180              	.LVL110:
 1181              	.L67:
 1182 0266 3000     		movs	r0, r6
 1183 0268 FFF7FEFF 		bl	UG_PutColorString
 1184              	.LVL111:
 1185              	.L43:
 511:frucd_display.c ****                 break;
 512:frucd_display.c ****         }
 513:frucd_display.c ****     }
 514:frucd_display.c ****      UG_FontSelect(&FONT_12X16);
 1186              		.loc 1 514 0
 1187 026c 1148     		ldr	r0, .L69+60
 1188 026e FFF7FEFF 		bl	UG_FontSelect
 1189              	.LVL112:
 515:frucd_display.c **** }
 1190              		.loc 1 515 0
 1191 0272 09B0     		add	sp, sp, #36
 1192              		@ sp needed
 1193 0274 F0BD     		pop	{r4, r5, r6, r7, pc}
 1194              	.L70:
 1195 0276 C046     		.align	2
 1196              	.L69:
 1197 0278 00000000 		.word	FONT_32X53
 1198 027c 00000000 		.word	last_state_color
 1199 0280 00FFFF00 		.word	16776960
ARM GAS  C:\Users\leoja\AppData\Local\Temp\ccByxJuZ.s 			page 32


 1200 0284 65000000 		.word	.LC36
 1201 0288 70000000 		.word	.LC38
 1202 028c 7B000000 		.word	.LC40
 1203 0290 86000000 		.word	.LC42
 1204 0294 91000000 		.word	.LC44
 1205 0298 9C000000 		.word	.LC46
 1206 029c A7000000 		.word	.LC48
 1207 02a0 B2000000 		.word	.LC50
 1208 02a4 BD000000 		.word	.LC52
 1209 02a8 C8000000 		.word	.LC54
 1210 02ac D3000000 		.word	.LC56
 1211 02b0 DE000000 		.word	.LC58
 1212 02b4 00000000 		.word	FONT_12X16
 1213              		.cfi_endproc
 1214              	.LFE40:
 1215              		.size	disp_state, .-disp_state
 1216              		.global	__aeabi_uidiv
 1217              		.section	.text.disp_glv_v,"ax",%progbits
 1218              		.align	1
 1219              		.global	disp_glv_v
 1220              		.code	16
 1221              		.thumb_func
 1222              		.type	disp_glv_v, %function
 1223              	disp_glv_v:
 1224              	.LFB41:
 516:frucd_display.c **** 
 517:frucd_display.c **** /*
 518:frucd_display.c **** 
 519:frucd_display.c **** void disp_glv_v(uint32_t data) {
 520:frucd_display.c ****     // translate from voltage divider measurement to true voltage
 521:frucd_display.c ****     // y = 0.4295x + 18.254
 522:frucd_display.c ****     data *= 859;
 523:frucd_display.c ****     data /= 2000; // 0.4295
 524:frucd_display.c ****     data += 18;
 525:frucd_display.c ****     UG_COLOR color;
 526:frucd_display.c ****     if (data > 1150) {
 527:frucd_display.c ****         color = C_GREEN;
 528:frucd_display.c ****     } else if (data > 1100) {
 529:frucd_display.c ****         color = C_YELLOW;
 530:frucd_display.c ****     } else if (data > 1050) {
 531:frucd_display.c ****         color = C_ORANGE;
 532:frucd_display.c ****     } else {
 533:frucd_display.c ****         color = C_RED;
 534:frucd_display.c ****     }
 535:frucd_display.c ****     if (color != last_glv_v_color) {
 536:frucd_display.c ****         // only draw rectangle if color changed
 537:frucd_display.c ****         UG_FillFrame(95, 230, 182, 260, color);
 538:frucd_display.c ****         last_glv_v_color = color;
 539:frucd_display.c ****     }
 540:frucd_display.c ****     char data_s[7];
 541:frucd_display.c ****     sprintf(data_s, "%d", data);
 542:frucd_display.c ****     // handle 3 digit cases; 2 and 1 are practically impossible
 543:frucd_display.c ****     if (data < 1000) {
 544:frucd_display.c ****         data_s[3] = data_s[2];
 545:frucd_display.c ****         data_s[2] = data_s[1];
 546:frucd_display.c ****         data_s[1] = data_s[0];  
 547:frucd_display.c ****         data_s[0] = ' ';
ARM GAS  C:\Users\leoja\AppData\Local\Temp\ccByxJuZ.s 			page 33


 548:frucd_display.c ****     }
 549:frucd_display.c ****     // shift over fractional part
 550:frucd_display.c ****     data_s[4] = data_s[3];
 551:frucd_display.c ****     data_s[3] = data_s[2];
 552:frucd_display.c ****     // add syntax
 553:frucd_display.c ****     data_s[2] = '.';
 554:frucd_display.c ****     data_s[5] = 'V';
 555:frucd_display.c ****     data_s[6] = '\0';
 556:frucd_display.c ****     UG_PutColorString(100, 240, data_s, C_BLACK, color);
 557:frucd_display.c **** }
 558:frucd_display.c **** 
 559:frucd_display.c **** */
 560:frucd_display.c **** 
 561:frucd_display.c **** 
 562:frucd_display.c **** void disp_glv_v(uint32_t data, uint16_t x1, uint16_t y1, uint16_t x2, uint16_t y2, uint8_t size) { 
 1225              		.loc 1 562 0
 1226              		.cfi_startproc
 1227              		@ args = 8, pretend = 0, frame = 32
 1228              		@ frame_needed = 0, uses_anonymous_args = 0
 1229              	.LVL113:
 1230 0000 F0B5     		push	{r4, r5, r6, r7, lr}
 1231              		.cfi_def_cfa_offset 20
 1232              		.cfi_offset 4, -20
 1233              		.cfi_offset 5, -16
 1234              		.cfi_offset 6, -12
 1235              		.cfi_offset 7, -8
 1236              		.cfi_offset 14, -4
 1237 0002 8BB0     		sub	sp, sp, #44
 1238              		.cfi_def_cfa_offset 64
 1239              		.loc 1 562 0
 1240 0004 0493     		str	r3, [sp, #16]
 1241 0006 10AB     		add	r3, sp, #64
 1242              	.LVL114:
 1243 0008 1B88     		ldrh	r3, [r3]
 1244              	.LVL115:
 1245 000a 0392     		str	r2, [sp, #12]
 1246 000c 0593     		str	r3, [sp, #20]
 1247 000e 11AB     		add	r3, sp, #68
 1248              	.LVL116:
 1249 0010 1A78     		ldrb	r2, [r3]
 1250              	.LVL117:
 563:frucd_display.c ****     int xFont, yFont;
 564:frucd_display.c ****     int horizFontSize = 12 + 20*size;
 565:frucd_display.c ****     int stringSize;
 566:frucd_display.c ****     stringSize = 6;
 567:frucd_display.c ****     xFont = (x1 + x2)/2 - ((horizFontSize*stringSize)/2);
 1251              		.loc 1 567 0
 1252 0012 1423     		movs	r3, #20
 1253              	.LVL118:
 562:frucd_display.c ****     int xFont, yFont;
 1254              		.loc 1 562 0
 1255 0014 0E00     		movs	r6, r1
 1256              		.loc 1 567 0
 1257 0016 0621     		movs	r1, #6
 1258              	.LVL119:
 1259 0018 5343     		muls	r3, r2
 1260 001a 0C33     		adds	r3, r3, #12
ARM GAS  C:\Users\leoja\AppData\Local\Temp\ccByxJuZ.s 			page 34


 1261              	.LVL120:
 1262 001c 4B43     		muls	r3, r1
 1263              	.LVL121:
 1264 001e 0499     		ldr	r1, [sp, #16]
 562:frucd_display.c ****     int xFont, yFont;
 1265              		.loc 1 562 0
 1266 0020 0400     		movs	r4, r0
 1267              		.loc 1 567 0
 1268 0022 7018     		adds	r0, r6, r1
 1269              	.LVL122:
 1270 0024 5B10     		asrs	r3, r3, #1
 1271 0026 4010     		asrs	r0, r0, #1
 1272 0028 C31A     		subs	r3, r0, r3
 568:frucd_display.c ****     yFont = (y1 + y2)/2 - 5 - (size*17);    
 1273              		.loc 1 568 0
 1274 002a 0599     		ldr	r1, [sp, #20]
 567:frucd_display.c ****     yFont = (y1 + y2)/2 - 5 - (size*17);    
 1275              		.loc 1 567 0
 1276 002c 0693     		str	r3, [sp, #24]
 1277              	.LVL123:
 1278              		.loc 1 568 0
 1279 002e 039B     		ldr	r3, [sp, #12]
 1280              	.LVL124:
 1281 0030 5B18     		adds	r3, r3, r1
 1282 0032 1121     		movs	r1, #17
 1283 0034 4942     		rsbs	r1, r1, #0
 1284 0036 5143     		muls	r1, r2
 1285 0038 5B10     		asrs	r3, r3, #1
 1286 003a 053B     		subs	r3, r3, #5
 1287 003c 5B18     		adds	r3, r3, r1
 1288 003e 0793     		str	r3, [sp, #28]
 1289              	.LVL125:
 569:frucd_display.c ****     
 570:frucd_display.c ****     
 571:frucd_display.c ****     if(size == 1){
 1290              		.loc 1 571 0
 1291 0040 012A     		cmp	r2, #1
 1292 0042 02D1     		bne	.L72
 572:frucd_display.c ****         UG_FontSelect(&FONT_32X53);  
 1293              		.loc 1 572 0
 1294 0044 2C48     		ldr	r0, .L79
 1295 0046 FFF7FEFF 		bl	UG_FontSelect
 1296              	.LVL126:
 1297              	.L72:
 573:frucd_display.c ****     }
 574:frucd_display.c ****     // translate from voltage divider measurement to true voltage
 575:frucd_display.c ****     // y = 0.4295x + 18.254
 576:frucd_display.c ****     data *= 859;
 577:frucd_display.c ****     data /= 2000; // 0.4295
 1298              		.loc 1 577 0
 1299 004a FA21     		movs	r1, #250
 576:frucd_display.c ****     data /= 2000; // 0.4295
 1300              		.loc 1 576 0
 1301 004c 2B48     		ldr	r0, .L79+4
 1302              		.loc 1 577 0
 1303 004e C900     		lsls	r1, r1, #3
 576:frucd_display.c ****     data /= 2000; // 0.4295
ARM GAS  C:\Users\leoja\AppData\Local\Temp\ccByxJuZ.s 			page 35


 1304              		.loc 1 576 0
 1305 0050 6043     		muls	r0, r4
 1306              	.LVL127:
 1307              		.loc 1 577 0
 1308 0052 FFF7FEFF 		bl	__aeabi_uidiv
 1309              	.LVL128:
 578:frucd_display.c ****     data += 18;
 579:frucd_display.c ****     UG_COLOR color;
 580:frucd_display.c ****     if (data > 1150) {
 1310              		.loc 1 580 0
 1311 0056 2A4B     		ldr	r3, .L79+8
 578:frucd_display.c ****     data += 18;
 1312              		.loc 1 578 0
 1313 0058 1230     		adds	r0, r0, #18
 1314              	.LVL129:
 1315 005a 0500     		movs	r5, r0
 1316              	.LVL130:
 1317              		.loc 1 580 0
 1318 005c 9842     		cmp	r0, r3
 1319 005e 08D8     		bhi	.L76
 581:frucd_display.c ****         color = C_GREEN;
 582:frucd_display.c ****     } else if (data > 1100) {
 1320              		.loc 1 582 0
 1321 0060 284B     		ldr	r3, .L79+12
 1322 0062 9842     		cmp	r0, r3
 1323 0064 08D8     		bhi	.L77
 583:frucd_display.c ****         color = C_YELLOW;
 584:frucd_display.c ****     } else if (data > 1050) {
 1324              		.loc 1 584 0
 1325 0066 284B     		ldr	r3, .L79+16
 1326 0068 9842     		cmp	r0, r3
 1327 006a 07D8     		bhi	.L78
 585:frucd_display.c ****         color = C_ORANGE;
 586:frucd_display.c ****     } else {
 587:frucd_display.c ****         color = C_RED;
 1328              		.loc 1 587 0
 1329 006c FF24     		movs	r4, #255
 1330 006e 2404     		lsls	r4, r4, #16
 1331 0070 05E0     		b	.L73
 1332              	.L76:
 581:frucd_display.c ****     } else if (data > 1100) {
 1333              		.loc 1 581 0
 1334 0072 FF24     		movs	r4, #255
 1335 0074 2402     		lsls	r4, r4, #8
 1336 0076 02E0     		b	.L73
 1337              	.L77:
 583:frucd_display.c ****         color = C_YELLOW;
 1338              		.loc 1 583 0
 1339 0078 244C     		ldr	r4, .L79+20
 1340 007a 00E0     		b	.L73
 1341              	.L78:
 585:frucd_display.c ****         color = C_ORANGE;
 1342              		.loc 1 585 0
 1343 007c 244C     		ldr	r4, .L79+24
 1344              	.L73:
 1345              	.LVL131:
 588:frucd_display.c ****     }
ARM GAS  C:\Users\leoja\AppData\Local\Temp\ccByxJuZ.s 			page 36


 589:frucd_display.c ****     if (color != last_glv_v_color) {
 1346              		.loc 1 589 0
 1347 007e 254F     		ldr	r7, .L79+28
 1348 0080 3B68     		ldr	r3, [r7]
 1349 0082 9C42     		cmp	r4, r3
 1350 0084 0DD0     		beq	.L74
 590:frucd_display.c ****         // only draw rectangle if color changed
 591:frucd_display.c ****         UG_FillFrame(x1, y1, x2, y2, color);
 1351              		.loc 1 591 0
 1352 0086 6B46     		mov	r3, sp
 1353 0088 1422     		movs	r2, #20
 1354 008a 9B5E     		ldrsh	r3, [r3, r2]
 1355 008c 6A46     		mov	r2, sp
 1356 008e 1021     		movs	r1, #16
 1357 0090 525E     		ldrsh	r2, [r2, r1]
 1358 0092 6946     		mov	r1, sp
 1359 0094 0C20     		movs	r0, #12
 1360 0096 095E     		ldrsh	r1, [r1, r0]
 1361              	.LVL132:
 1362 0098 30B2     		sxth	r0, r6
 1363 009a 0094     		str	r4, [sp]
 1364 009c FFF7FEFF 		bl	UG_FillFrame
 1365              	.LVL133:
 592:frucd_display.c ****         last_glv_v_color = color;
 1366              		.loc 1 592 0
 1367 00a0 3C60     		str	r4, [r7]
 1368              	.L74:
 593:frucd_display.c ****     }
 594:frucd_display.c ****     char data_s[7];
 595:frucd_display.c ****     sprintf(data_s, "%lu", data);
 1369              		.loc 1 595 0
 1370 00a2 08AE     		add	r6, sp, #32
 1371 00a4 2A00     		movs	r2, r5
 1372 00a6 1C49     		ldr	r1, .L79+32
 1373 00a8 3000     		movs	r0, r6
 1374 00aa FFF7FEFF 		bl	sprintf
 1375              	.LVL134:
 596:frucd_display.c ****     // handle 3 digit cases; 2 and 1 are practically impossible
 597:frucd_display.c ****     if (data < 1000) {
 1376              		.loc 1 597 0
 1377 00ae 1B4B     		ldr	r3, .L79+36
 1378 00b0 9D42     		cmp	r5, r3
 1379 00b2 07D8     		bhi	.L75
 598:frucd_display.c ****         data_s[3] = data_s[2];
 1380              		.loc 1 598 0
 1381 00b4 B378     		ldrb	r3, [r6, #2]
 1382 00b6 F370     		strb	r3, [r6, #3]
 599:frucd_display.c ****         data_s[2] = data_s[1];
 1383              		.loc 1 599 0
 1384 00b8 7378     		ldrb	r3, [r6, #1]
 1385 00ba B370     		strb	r3, [r6, #2]
 600:frucd_display.c ****         data_s[1] = data_s[0];  
 1386              		.loc 1 600 0
 1387 00bc 3378     		ldrb	r3, [r6]
 1388 00be 7370     		strb	r3, [r6, #1]
 601:frucd_display.c ****         data_s[0] = ' ';
 1389              		.loc 1 601 0
ARM GAS  C:\Users\leoja\AppData\Local\Temp\ccByxJuZ.s 			page 37


 1390 00c0 2023     		movs	r3, #32
 1391 00c2 3370     		strb	r3, [r6]
 1392              	.L75:
 602:frucd_display.c ****     }
 603:frucd_display.c ****     // shift over fractional part
 604:frucd_display.c ****     data_s[4] = data_s[3];
 1393              		.loc 1 604 0
 1394 00c4 F378     		ldrb	r3, [r6, #3]
 605:frucd_display.c ****     data_s[3] = data_s[2];
 606:frucd_display.c ****     // add syntax
 607:frucd_display.c ****     data_s[2] = '.';
 608:frucd_display.c ****     data_s[5] = 'V';
 609:frucd_display.c ****     data_s[6] = '\0';
 610:frucd_display.c ****     UG_PutColorString(xFont, yFont, data_s, C_BLACK, color);
 1395              		.loc 1 610 0
 1396 00c6 6A46     		mov	r2, sp
 604:frucd_display.c ****     data_s[3] = data_s[2];
 1397              		.loc 1 604 0
 1398 00c8 3371     		strb	r3, [r6, #4]
 605:frucd_display.c ****     data_s[3] = data_s[2];
 1399              		.loc 1 605 0
 1400 00ca B378     		ldrb	r3, [r6, #2]
 1401              		.loc 1 610 0
 1402 00cc 1C21     		movs	r1, #28
 1403 00ce 515E     		ldrsh	r1, [r2, r1]
 605:frucd_display.c ****     data_s[3] = data_s[2];
 1404              		.loc 1 605 0
 1405 00d0 F370     		strb	r3, [r6, #3]
 607:frucd_display.c ****     data_s[5] = 'V';
 1406              		.loc 1 607 0
 1407 00d2 2E23     		movs	r3, #46
 1408 00d4 B370     		strb	r3, [r6, #2]
 608:frucd_display.c ****     data_s[6] = '\0';
 1409              		.loc 1 608 0
 1410 00d6 2833     		adds	r3, r3, #40
 1411 00d8 7371     		strb	r3, [r6, #5]
 1412              		.loc 1 610 0
 1413 00da 6A46     		mov	r2, sp
 609:frucd_display.c ****     UG_PutColorString(xFont, yFont, data_s, C_BLACK, color);
 1414              		.loc 1 609 0
 1415 00dc 0023     		movs	r3, #0
 1416              		.loc 1 610 0
 1417 00de 1820     		movs	r0, #24
 1418 00e0 105E     		ldrsh	r0, [r2, r0]
 609:frucd_display.c ****     UG_PutColorString(xFont, yFont, data_s, C_BLACK, color);
 1419              		.loc 1 609 0
 1420 00e2 B371     		strb	r3, [r6, #6]
 1421              		.loc 1 610 0
 1422 00e4 3200     		movs	r2, r6
 1423 00e6 0094     		str	r4, [sp]
 1424 00e8 FFF7FEFF 		bl	UG_PutColorString
 1425              	.LVL135:
 611:frucd_display.c ****     UG_FontSelect(&FONT_12X16);
 1426              		.loc 1 611 0
 1427 00ec 0C48     		ldr	r0, .L79+40
 1428 00ee FFF7FEFF 		bl	UG_FontSelect
 1429              	.LVL136:
ARM GAS  C:\Users\leoja\AppData\Local\Temp\ccByxJuZ.s 			page 38


 612:frucd_display.c **** }
 1430              		.loc 1 612 0
 1431 00f2 0BB0     		add	sp, sp, #44
 1432              		@ sp needed
 1433              	.LVL137:
 1434              	.LVL138:
 1435 00f4 F0BD     		pop	{r4, r5, r6, r7, pc}
 1436              	.L80:
 1437 00f6 C046     		.align	2
 1438              	.L79:
 1439 00f8 00000000 		.word	FONT_32X53
 1440 00fc 5B030000 		.word	859
 1441 0100 7E040000 		.word	1150
 1442 0104 4C040000 		.word	1100
 1443 0108 1A040000 		.word	1050
 1444 010c 00FFFF00 		.word	16776960
 1445 0110 00A5FF00 		.word	16753920
 1446 0114 00000000 		.word	last_glv_v_color
 1447 0118 E9000000 		.word	.LC63
 1448 011c E7030000 		.word	999
 1449 0120 00000000 		.word	FONT_12X16
 1450              		.cfi_endproc
 1451              	.LFE41:
 1452              		.size	disp_glv_v, .-disp_glv_v
 1453              		.section	.text.disp_gen_temp,"ax",%progbits
 1454              		.align	1
 1455              		.global	disp_gen_temp
 1456              		.code	16
 1457              		.thumb_func
 1458              		.type	disp_gen_temp, %function
 1459              	disp_gen_temp:
 1460              	.LFB44:
 613:frucd_display.c **** 
 614:frucd_display.c **** 
 615:frucd_display.c **** /*
 616:frucd_display.c **** void disp_mc_temp(uint16_t data) {
 617:frucd_display.c ****     if (data >= 100) {
 618:frucd_display.c ****         // handle 3 digit cases
 619:frucd_display.c ****         UG_FillFrame(410, 185, 470, 215, C_GREEN);
 620:frucd_display.c ****         char data_s[5];
 621:frucd_display.c ****         sprintf(data_s, "%d", data);
 622:frucd_display.c ****         data_s[3] = 'C';
 623:frucd_display.c ****         data_s[4] = '\0';
 624:frucd_display.c ****         UG_PutColorString(415, 195, data_s, C_BLACK, C_GREEN);
 625:frucd_display.c ****     } else {
 626:frucd_display.c ****         // handle 2 digit cases
 627:frucd_display.c ****         UG_FillFrame(410, 185, 470, 215, C_GREEN);
 628:frucd_display.c ****         char data_s[4];
 629:frucd_display.c ****         sprintf(data_s, "%d", data);
 630:frucd_display.c ****         data_s[2] = 'C';
 631:frucd_display.c ****         data_s[3] = '\0';
 632:frucd_display.c ****         UG_PutColorString(422, 195, data_s, C_BLACK, C_GREEN);
 633:frucd_display.c ****     }
 634:frucd_display.c **** }
 635:frucd_display.c **** */
 636:frucd_display.c **** 
 637:frucd_display.c **** void disp_mc_temp(uint16_t data, uint16_t x1, uint16_t y1, uint16_t x2, uint16_t y2, uint8_t size){
ARM GAS  C:\Users\leoja\AppData\Local\Temp\ccByxJuZ.s 			page 39


 638:frucd_display.c ****     disp_gen_temp(data, x1, y1, x2, y2, size);
 639:frucd_display.c **** }
 640:frucd_display.c **** /*
 641:frucd_display.c **** void disp_motor_temp(uint16_t data) {
 642:frucd_display.c ****     if (data >= 100) {
 643:frucd_display.c ****         // handle 3 digit cases
 644:frucd_display.c ****         UG_FillFrame(410, 230, 470, 260, C_GREEN);
 645:frucd_display.c ****         char data_s[5];
 646:frucd_display.c ****         sprintf(data_s, "%d", data);
 647:frucd_display.c ****         data_s[3] = 'C';
 648:frucd_display.c ****         data_s[4] = '\0';
 649:frucd_display.c ****         UG_PutColorString(415, 240, data_s, C_BLACK, C_GREEN);
 650:frucd_display.c ****     } else {
 651:frucd_display.c ****         // handle 2 digit cases
 652:frucd_display.c ****         UG_FillFrame(410, 230, 470, 260, C_GREEN);
 653:frucd_display.c ****         char data_s[4];
 654:frucd_display.c ****         sprintf(data_s, "%d", data);
 655:frucd_display.c ****         data_s[2] = 'C';
 656:frucd_display.c ****         data_s[3] = '\0';
 657:frucd_display.c ****         UG_PutColorString(422, 240, data_s, C_BLACK, C_GREEN);
 658:frucd_display.c ****     }
 659:frucd_display.c **** }
 660:frucd_display.c **** */
 661:frucd_display.c **** 
 662:frucd_display.c **** void disp_motor_temp(uint16_t data, uint16_t x1, uint16_t y1, uint16_t x2, uint16_t y2, uint8_t siz
 663:frucd_display.c ****     disp_gen_temp(data, x1, y1, x2, y2, size);
 664:frucd_display.c **** }
 665:frucd_display.c **** 
 666:frucd_display.c **** 
 667:frucd_display.c **** 
 668:frucd_display.c **** void disp_gen_temp(uint16_t data, uint16_t x1, uint16_t y1, uint16_t x2, uint16_t y2, uint8_t size)
 1461              		.loc 1 668 0
 1462              		.cfi_startproc
 1463              		@ args = 8, pretend = 0, frame = 24
 1464              		@ frame_needed = 0, uses_anonymous_args = 0
 1465              	.LVL139:
 1466 0000 F0B5     		push	{r4, r5, r6, r7, lr}
 1467              		.cfi_def_cfa_offset 20
 1468              		.cfi_offset 4, -20
 1469              		.cfi_offset 5, -16
 1470              		.cfi_offset 6, -12
 1471              		.cfi_offset 7, -8
 1472              		.cfi_offset 14, -4
 1473 0002 1500     		movs	r5, r2
 669:frucd_display.c ****     int xFont, yFont;
 670:frucd_display.c ****     int horizFontSize = 12 + 20*size;
 671:frucd_display.c ****     int stringSize;
 672:frucd_display.c ****     if (data >= 100) {
 673:frucd_display.c ****         stringSize = 4;
 674:frucd_display.c ****     }else{
 675:frucd_display.c ****         stringSize = 3;
 1474              		.loc 1 675 0
 1475 0004 6322     		movs	r2, #99
 1476              	.LVL140:
 668:frucd_display.c ****     int xFont, yFont;
 1477              		.loc 1 668 0
 1478 0006 89B0     		sub	sp, sp, #36
ARM GAS  C:\Users\leoja\AppData\Local\Temp\ccByxJuZ.s 			page 40


 1479              		.cfi_def_cfa_offset 56
 668:frucd_display.c ****     int xFont, yFont;
 1480              		.loc 1 668 0
 1481 0008 1E00     		movs	r6, r3
 1482 000a 0EAB     		add	r3, sp, #56
 1483              	.LVL141:
 1484 000c 1F88     		ldrh	r7, [r3]
 1485 000e 0FAB     		add	r3, sp, #60
 1486              	.LVL142:
 1487 0010 0C00     		movs	r4, r1
 1488 0012 1978     		ldrb	r1, [r3]
 1489              	.LVL143:
 670:frucd_display.c ****     int stringSize;
 1490              		.loc 1 670 0
 1491 0014 1423     		movs	r3, #20
 1492              	.LVL144:
 1493              		.loc 1 675 0
 1494 0016 8242     		cmp	r2, r0
 1495 0018 9241     		sbcs	r2, r2, r2
 670:frucd_display.c ****     int stringSize;
 1496              		.loc 1 670 0
 1497 001a 4B43     		muls	r3, r1
 1498              		.loc 1 675 0
 1499 001c 5242     		rsbs	r2, r2, #0
 1500 001e 0332     		adds	r2, r2, #3
 670:frucd_display.c ****     int stringSize;
 1501              		.loc 1 670 0
 1502 0020 0C33     		adds	r3, r3, #12
 1503              	.LVL145:
 676:frucd_display.c ****     }
 677:frucd_display.c ****     xFont = (x1 + x2)/2 - ((horizFontSize*stringSize)/2);
 1504              		.loc 1 677 0
 1505 0022 5343     		muls	r3, r2
 1506              	.LVL146:
 678:frucd_display.c ****     yFont = (y1 + y2)/2 - 5 - (size*17);    
 1507              		.loc 1 678 0
 1508 0024 1122     		movs	r2, #17
 1509              	.LVL147:
 668:frucd_display.c ****     int xFont, yFont;
 1510              		.loc 1 668 0
 1511 0026 0390     		str	r0, [sp, #12]
 677:frucd_display.c ****     yFont = (y1 + y2)/2 - 5 - (size*17);    
 1512              		.loc 1 677 0
 1513 0028 A019     		adds	r0, r4, r6
 1514              	.LVL148:
 1515 002a 4010     		asrs	r0, r0, #1
 1516 002c 5B10     		asrs	r3, r3, #1
 1517              		.loc 1 678 0
 1518 002e 5242     		rsbs	r2, r2, #0
 677:frucd_display.c ****     yFont = (y1 + y2)/2 - 5 - (size*17);    
 1519              		.loc 1 677 0
 1520 0030 C31A     		subs	r3, r0, r3
 1521              		.loc 1 678 0
 1522 0032 4A43     		muls	r2, r1
 677:frucd_display.c ****     yFont = (y1 + y2)/2 - 5 - (size*17);    
 1523              		.loc 1 677 0
 1524 0034 0493     		str	r3, [sp, #16]
ARM GAS  C:\Users\leoja\AppData\Local\Temp\ccByxJuZ.s 			page 41


 1525              	.LVL149:
 1526              		.loc 1 678 0
 1527 0036 EB19     		adds	r3, r5, r7
 1528              	.LVL150:
 1529 0038 5B10     		asrs	r3, r3, #1
 1530 003a 053B     		subs	r3, r3, #5
 1531 003c 9B18     		adds	r3, r3, r2
 1532 003e 0593     		str	r3, [sp, #20]
 1533              	.LVL151:
 679:frucd_display.c ****     if(size == 1){
 1534              		.loc 1 679 0
 1535 0040 0129     		cmp	r1, #1
 1536 0042 02D1     		bne	.L83
 680:frucd_display.c ****         UG_FontSelect(&FONT_32X53);
 1537              		.loc 1 680 0
 1538 0044 1B48     		ldr	r0, .L88
 1539 0046 FFF7FEFF 		bl	UG_FontSelect
 1540              	.LVL152:
 1541              	.L83:
 1542 004a 20B2     		sxth	r0, r4
 1543 004c 6C46     		mov	r4, sp
 1544 004e 29B2     		sxth	r1, r5
 1545 0050 FF25     		movs	r5, #255
 1546 0052 32B2     		sxth	r2, r6
 1547 0054 3BB2     		sxth	r3, r7
 1548 0056 1426     		movs	r6, #20
 1549 0058 A75F     		ldrsh	r7, [r4, r6]
 1550 005a 1026     		movs	r6, #16
 1551 005c A65F     		ldrsh	r6, [r4, r6]
 1552 005e 2D02     		lsls	r5, r5, #8
 1553 0060 3400     		movs	r4, r6
 681:frucd_display.c ****         
 682:frucd_display.c ****     }
 683:frucd_display.c ****     if (data >= 100) {
 1554              		.loc 1 683 0
 1555 0062 039E     		ldr	r6, [sp, #12]
 1556              	.LBB4:
 684:frucd_display.c ****         // handle 3 digit cases
 685:frucd_display.c ****         UG_FillFrame(x1, y1, x2, y2, C_GREEN);
 1557              		.loc 1 685 0
 1558 0064 0095     		str	r5, [sp]
 1559              	.LBE4:
 683:frucd_display.c ****         // handle 3 digit cases
 1560              		.loc 1 683 0
 1561 0066 632E     		cmp	r6, #99
 1562 0068 0CD9     		bls	.L84
 1563              	.LBB5:
 686:frucd_display.c ****         char data_s[5];
 687:frucd_display.c ****         sprintf(data_s, "%d", data);
 1564              		.loc 1 687 0
 1565 006a 06AE     		add	r6, sp, #24
 685:frucd_display.c ****         char data_s[5];
 1566              		.loc 1 685 0
 1567 006c FFF7FEFF 		bl	UG_FillFrame
 1568              	.LVL153:
 1569              		.loc 1 687 0
 1570 0070 039A     		ldr	r2, [sp, #12]
ARM GAS  C:\Users\leoja\AppData\Local\Temp\ccByxJuZ.s 			page 42


 1571 0072 1149     		ldr	r1, .L88+4
 1572 0074 3000     		movs	r0, r6
 1573 0076 FFF7FEFF 		bl	sprintf
 1574              	.LVL154:
 688:frucd_display.c ****         data_s[3] = 'C';
 1575              		.loc 1 688 0
 1576 007a 4323     		movs	r3, #67
 1577 007c F370     		strb	r3, [r6, #3]
 689:frucd_display.c ****         data_s[4] = '\0';
 1578              		.loc 1 689 0
 1579 007e 0023     		movs	r3, #0
 1580 0080 3371     		strb	r3, [r6, #4]
 1581 0082 0BE0     		b	.L87
 1582              	.L84:
 1583              	.LBE5:
 1584              	.LBB6:
 690:frucd_display.c ****         UG_PutColorString(xFont, yFont, data_s, C_BLACK, C_GREEN);
 691:frucd_display.c ****     } else {
 692:frucd_display.c ****         // handle 2 digit cases
 693:frucd_display.c ****         UG_FillFrame(x1, y1, x2, y2, C_GREEN);
 694:frucd_display.c ****         char data_s[4];
 695:frucd_display.c ****         sprintf(data_s, "%d", data);
 1585              		.loc 1 695 0
 1586 0084 06AE     		add	r6, sp, #24
 693:frucd_display.c ****         char data_s[4];
 1587              		.loc 1 693 0
 1588 0086 FFF7FEFF 		bl	UG_FillFrame
 1589              	.LVL155:
 1590              		.loc 1 695 0
 1591 008a 039A     		ldr	r2, [sp, #12]
 1592 008c 0A49     		ldr	r1, .L88+4
 1593 008e 3000     		movs	r0, r6
 1594 0090 FFF7FEFF 		bl	sprintf
 1595              	.LVL156:
 696:frucd_display.c ****         data_s[2] = 'C';
 1596              		.loc 1 696 0
 1597 0094 4323     		movs	r3, #67
 1598 0096 B370     		strb	r3, [r6, #2]
 697:frucd_display.c ****         data_s[3] = '\0';
 1599              		.loc 1 697 0
 1600 0098 0023     		movs	r3, #0
 1601 009a F370     		strb	r3, [r6, #3]
 1602              	.L87:
 698:frucd_display.c ****         UG_PutColorString(xFont, yFont, data_s, C_BLACK, C_GREEN);
 1603              		.loc 1 698 0
 1604 009c 3200     		movs	r2, r6
 1605 009e 3900     		movs	r1, r7
 1606 00a0 2000     		movs	r0, r4
 1607 00a2 0095     		str	r5, [sp]
 1608 00a4 FFF7FEFF 		bl	UG_PutColorString
 1609              	.LVL157:
 1610              	.LBE6:
 699:frucd_display.c ****     }
 700:frucd_display.c ****      UG_FontSelect(&FONT_12X16);
 1611              		.loc 1 700 0
 1612 00a8 0448     		ldr	r0, .L88+8
 1613 00aa FFF7FEFF 		bl	UG_FontSelect
ARM GAS  C:\Users\leoja\AppData\Local\Temp\ccByxJuZ.s 			page 43


 1614              	.LVL158:
 701:frucd_display.c **** }
 1615              		.loc 1 701 0
 1616 00ae 09B0     		add	sp, sp, #36
 1617              		@ sp needed
 1618 00b0 F0BD     		pop	{r4, r5, r6, r7, pc}
 1619              	.L89:
 1620 00b2 C046     		.align	2
 1621              	.L88:
 1622 00b4 00000000 		.word	FONT_32X53
 1623 00b8 5D000000 		.word	.LC26
 1624 00bc 00000000 		.word	FONT_12X16
 1625              		.cfi_endproc
 1626              	.LFE44:
 1627              		.size	disp_gen_temp, .-disp_gen_temp
 1628              		.section	.text.disp_motor_temp,"ax",%progbits
 1629              		.align	1
 1630              		.global	disp_motor_temp
 1631              		.code	16
 1632              		.thumb_func
 1633              		.type	disp_motor_temp, %function
 1634              	disp_motor_temp:
 1635              	.LFB43:
 662:frucd_display.c ****     disp_gen_temp(data, x1, y1, x2, y2, size);
 1636              		.loc 1 662 0
 1637              		.cfi_startproc
 1638              		@ args = 8, pretend = 0, frame = 0
 1639              		@ frame_needed = 0, uses_anonymous_args = 0
 1640              	.LVL159:
 1641 0000 37B5     		push	{r0, r1, r2, r4, r5, lr}
 1642              		.cfi_def_cfa_offset 24
 1643              		.cfi_offset 0, -24
 1644              		.cfi_offset 1, -20
 1645              		.cfi_offset 2, -16
 1646              		.cfi_offset 4, -12
 1647              		.cfi_offset 5, -8
 1648              		.cfi_offset 14, -4
 662:frucd_display.c ****     disp_gen_temp(data, x1, y1, x2, y2, size);
 1649              		.loc 1 662 0
 1650 0002 06AC     		add	r4, sp, #24
 1651              	.LVL160:
 1652 0004 07AD     		add	r5, sp, #28
 1653              	.LVL161:
 1654 0006 2D78     		ldrb	r5, [r5]
 1655              	.LVL162:
 1656 0008 2488     		ldrh	r4, [r4]
 1657              	.LVL163:
 663:frucd_display.c **** }
 1658              		.loc 1 663 0
 1659 000a 0195     		str	r5, [sp, #4]
 1660 000c 0094     		str	r4, [sp]
 1661 000e FFF7FEFF 		bl	disp_gen_temp
 1662              	.LVL164:
 664:frucd_display.c **** 
 1663              		.loc 1 664 0
 1664              		@ sp needed
 1665 0012 37BD     		pop	{r0, r1, r2, r4, r5, pc}
ARM GAS  C:\Users\leoja\AppData\Local\Temp\ccByxJuZ.s 			page 44


 1666              		.cfi_endproc
 1667              	.LFE43:
 1668              		.size	disp_motor_temp, .-disp_motor_temp
 1669              		.section	.text.disp_mc_temp,"ax",%progbits
 1670              		.align	1
 1671              		.global	disp_mc_temp
 1672              		.code	16
 1673              		.thumb_func
 1674              		.type	disp_mc_temp, %function
 1675              	disp_mc_temp:
 1676              	.LFB49:
 1677              		.cfi_startproc
 1678              		@ args = 8, pretend = 0, frame = 0
 1679              		@ frame_needed = 0, uses_anonymous_args = 0
 1680 0000 37B5     		push	{r0, r1, r2, r4, r5, lr}
 1681              		.cfi_def_cfa_offset 24
 1682              		.cfi_offset 0, -24
 1683              		.cfi_offset 1, -20
 1684              		.cfi_offset 2, -16
 1685              		.cfi_offset 4, -12
 1686              		.cfi_offset 5, -8
 1687              		.cfi_offset 14, -4
 1688 0002 06AC     		add	r4, sp, #24
 1689 0004 07AD     		add	r5, sp, #28
 1690 0006 2D78     		ldrb	r5, [r5]
 1691 0008 2488     		ldrh	r4, [r4]
 1692 000a 0195     		str	r5, [sp, #4]
 1693 000c 0094     		str	r4, [sp]
 1694 000e FFF7FEFF 		bl	disp_gen_temp
 1695              		@ sp needed
 1696 0012 37BD     		pop	{r0, r1, r2, r4, r5, pc}
 1697              		.cfi_endproc
 1698              	.LFE49:
 1699              		.size	disp_mc_temp, .-disp_mc_temp
 1700              		.section	.text.disp_gen_voltage,"ax",%progbits
 1701              		.align	1
 1702              		.global	disp_gen_voltage
 1703              		.code	16
 1704              		.thumb_func
 1705              		.type	disp_gen_voltage, %function
 1706              	disp_gen_voltage:
 1707              	.LFB45:
 702:frucd_display.c **** 
 703:frucd_display.c **** void disp_gen_voltage(uint16_t data, uint16_t x1, uint16_t y1, uint16_t x2, uint16_t y2, uint8_t si
 1708              		.loc 1 703 0
 1709              		.cfi_startproc
 1710              		@ args = 8, pretend = 0, frame = 24
 1711              		@ frame_needed = 0, uses_anonymous_args = 0
 1712              	.LVL165:
 1713              		.loc 1 703 0
 1714 0000 F0B5     		push	{r4, r5, r6, r7, lr}
 1715              		.cfi_def_cfa_offset 20
 1716              		.cfi_offset 4, -20
 1717              		.cfi_offset 5, -16
 1718              		.cfi_offset 6, -12
 1719              		.cfi_offset 7, -8
 1720              		.cfi_offset 14, -4
ARM GAS  C:\Users\leoja\AppData\Local\Temp\ccByxJuZ.s 			page 45


 1721 0002 89B0     		sub	sp, sp, #36
 1722              		.cfi_def_cfa_offset 56
 1723              		.loc 1 703 0
 1724 0004 1D00     		movs	r5, r3
 1725 0006 0EAB     		add	r3, sp, #56
 1726              	.LVL166:
 1727 0008 1E88     		ldrh	r6, [r3]
 1728 000a 0FAB     		add	r3, sp, #60
 1729              	.LVL167:
 1730 000c 1400     		movs	r4, r2
 1731 000e 1A78     		ldrb	r2, [r3]
 1732              	.LVL168:
 704:frucd_display.c ****     int xFont, yFont;
 705:frucd_display.c ****     int horizFontSize = 12 + 20*size;
 706:frucd_display.c ****     int stringSize;
 707:frucd_display.c ****     stringSize = 6;
 708:frucd_display.c ****    
 709:frucd_display.c ****     xFont = (x1 + x2)/2 - ((horizFontSize*stringSize)/2);
 1733              		.loc 1 709 0
 1734 0010 1423     		movs	r3, #20
 1735              	.LVL169:
 703:frucd_display.c ****     int xFont, yFont;
 1736              		.loc 1 703 0
 1737 0012 0391     		str	r1, [sp, #12]
 1738              		.loc 1 709 0
 1739 0014 0621     		movs	r1, #6
 1740              	.LVL170:
 1741 0016 5343     		muls	r3, r2
 1742 0018 0C33     		adds	r3, r3, #12
 1743              	.LVL171:
 1744 001a 4B43     		muls	r3, r1
 1745              	.LVL172:
 1746 001c 0399     		ldr	r1, [sp, #12]
 703:frucd_display.c ****     int xFont, yFont;
 1747              		.loc 1 703 0
 1748 001e 0700     		movs	r7, r0
 1749              		.loc 1 709 0
 1750 0020 4819     		adds	r0, r1, r5
 1751              	.LVL173:
 710:frucd_display.c ****     yFont = (y1 + y2)/2 - 5 - (size*17);    
 1752              		.loc 1 710 0
 1753 0022 1121     		movs	r1, #17
 709:frucd_display.c ****     yFont = (y1 + y2)/2 - 5 - (size*17);    
 1754              		.loc 1 709 0
 1755 0024 5B10     		asrs	r3, r3, #1
 1756 0026 4010     		asrs	r0, r0, #1
 1757              		.loc 1 710 0
 1758 0028 4942     		rsbs	r1, r1, #0
 709:frucd_display.c ****     yFont = (y1 + y2)/2 - 5 - (size*17);    
 1759              		.loc 1 709 0
 1760 002a C31A     		subs	r3, r0, r3
 1761              		.loc 1 710 0
 1762 002c 5143     		muls	r1, r2
 709:frucd_display.c ****     yFont = (y1 + y2)/2 - 5 - (size*17);    
 1763              		.loc 1 709 0
 1764 002e 0493     		str	r3, [sp, #16]
 1765              	.LVL174:
ARM GAS  C:\Users\leoja\AppData\Local\Temp\ccByxJuZ.s 			page 46


 1766              		.loc 1 710 0
 1767 0030 A319     		adds	r3, r4, r6
 1768              	.LVL175:
 1769 0032 5B10     		asrs	r3, r3, #1
 1770 0034 053B     		subs	r3, r3, #5
 1771 0036 5B18     		adds	r3, r3, r1
 1772 0038 0593     		str	r3, [sp, #20]
 1773              	.LVL176:
 711:frucd_display.c ****     if(size == 1){
 1774              		.loc 1 711 0
 1775 003a 012A     		cmp	r2, #1
 1776 003c 02D1     		bne	.L93
 712:frucd_display.c ****         UG_FontSelect(&FONT_32X53);
 1777              		.loc 1 712 0
 1778 003e 1D48     		ldr	r0, .L95
 1779 0040 FFF7FEFF 		bl	UG_FontSelect
 1780              	.LVL177:
 1781              	.L93:
 713:frucd_display.c ****         
 714:frucd_display.c ****     }
 715:frucd_display.c ****     UG_FillFrame(x1, y1, x2, y2, C_GREEN);
 1782              		.loc 1 715 0
 1783 0044 6846     		mov	r0, sp
 1784 0046 21B2     		sxth	r1, r4
 1785 0048 0C24     		movs	r4, #12
 1786 004a 005F     		ldrsh	r0, [r0, r4]
 1787 004c FF24     		movs	r4, #255
 1788 004e 2402     		lsls	r4, r4, #8
 1789 0050 33B2     		sxth	r3, r6
 1790 0052 2AB2     		sxth	r2, r5
 1791 0054 0094     		str	r4, [sp]
 716:frucd_display.c ****     char data_s[7];
 717:frucd_display.c ****     sprintf(data_s, "%d", data);
 1792              		.loc 1 717 0
 1793 0056 06AC     		add	r4, sp, #24
 715:frucd_display.c ****     char data_s[7];
 1794              		.loc 1 715 0
 1795 0058 FFF7FEFF 		bl	UG_FillFrame
 1796              	.LVL178:
 1797              		.loc 1 717 0
 1798 005c 3A00     		movs	r2, r7
 1799 005e 1649     		ldr	r1, .L95+4
 1800 0060 2000     		movs	r0, r4
 1801 0062 FFF7FEFF 		bl	sprintf
 1802              	.LVL179:
 718:frucd_display.c ****     // handle 3 digit cases; 2 and 1 are practically impossible
 719:frucd_display.c ****     if (data < 1000) {
 1803              		.loc 1 719 0
 1804 0066 154B     		ldr	r3, .L95+8
 1805 0068 9F42     		cmp	r7, r3
 1806 006a 07D8     		bhi	.L94
 720:frucd_display.c ****         data_s[3] = data_s[2];
 1807              		.loc 1 720 0
 1808 006c A378     		ldrb	r3, [r4, #2]
 1809 006e E370     		strb	r3, [r4, #3]
 721:frucd_display.c ****         data_s[2] = data_s[1];
 1810              		.loc 1 721 0
ARM GAS  C:\Users\leoja\AppData\Local\Temp\ccByxJuZ.s 			page 47


 1811 0070 6378     		ldrb	r3, [r4, #1]
 1812 0072 A370     		strb	r3, [r4, #2]
 722:frucd_display.c ****         data_s[1] = data_s[0];  
 1813              		.loc 1 722 0
 1814 0074 2378     		ldrb	r3, [r4]
 1815 0076 6370     		strb	r3, [r4, #1]
 723:frucd_display.c ****         data_s[0] = ' ';
 1816              		.loc 1 723 0
 1817 0078 2023     		movs	r3, #32
 1818 007a 2370     		strb	r3, [r4]
 1819              	.L94:
 724:frucd_display.c ****     }
 725:frucd_display.c ****     // shift over fractional part
 726:frucd_display.c ****     data_s[4] = data_s[3];
 727:frucd_display.c ****     data_s[3] = data_s[2];
 728:frucd_display.c ****     // add syntax
 729:frucd_display.c ****     data_s[2] = '.';
 730:frucd_display.c ****     data_s[5] = 'V';
 731:frucd_display.c ****     data_s[6] = '\0';
 732:frucd_display.c ****     UG_PutColorString(xFont, yFont, data_s, C_BLACK, C_GREEN);
 1820              		.loc 1 732 0
 1821 007c 6A46     		mov	r2, sp
 726:frucd_display.c ****     data_s[3] = data_s[2];
 1822              		.loc 1 726 0
 1823 007e E378     		ldrb	r3, [r4, #3]
 1824              		.loc 1 732 0
 1825 0080 1421     		movs	r1, #20
 1826 0082 515E     		ldrsh	r1, [r2, r1]
 726:frucd_display.c ****     data_s[3] = data_s[2];
 1827              		.loc 1 726 0
 1828 0084 2371     		strb	r3, [r4, #4]
 727:frucd_display.c ****     // add syntax
 1829              		.loc 1 727 0
 1830 0086 A378     		ldrb	r3, [r4, #2]
 1831              		.loc 1 732 0
 1832 0088 6A46     		mov	r2, sp
 727:frucd_display.c ****     // add syntax
 1833              		.loc 1 727 0
 1834 008a E370     		strb	r3, [r4, #3]
 729:frucd_display.c ****     data_s[5] = 'V';
 1835              		.loc 1 729 0
 1836 008c 2E23     		movs	r3, #46
 1837              		.loc 1 732 0
 1838 008e 1020     		movs	r0, #16
 1839 0090 105E     		ldrsh	r0, [r2, r0]
 729:frucd_display.c ****     data_s[5] = 'V';
 1840              		.loc 1 729 0
 1841 0092 A370     		strb	r3, [r4, #2]
 1842              		.loc 1 732 0
 1843 0094 FF22     		movs	r2, #255
 730:frucd_display.c ****     data_s[6] = '\0';
 1844              		.loc 1 730 0
 1845 0096 2833     		adds	r3, r3, #40
 1846 0098 6371     		strb	r3, [r4, #5]
 731:frucd_display.c ****     UG_PutColorString(xFont, yFont, data_s, C_BLACK, C_GREEN);
 1847              		.loc 1 731 0
 1848 009a 0023     		movs	r3, #0
ARM GAS  C:\Users\leoja\AppData\Local\Temp\ccByxJuZ.s 			page 48


 1849              		.loc 1 732 0
 1850 009c 1202     		lsls	r2, r2, #8
 731:frucd_display.c ****     UG_PutColorString(xFont, yFont, data_s, C_BLACK, C_GREEN);
 1851              		.loc 1 731 0
 1852 009e A371     		strb	r3, [r4, #6]
 1853              		.loc 1 732 0
 1854 00a0 0092     		str	r2, [sp]
 1855 00a2 2200     		movs	r2, r4
 1856 00a4 FFF7FEFF 		bl	UG_PutColorString
 1857              	.LVL180:
 733:frucd_display.c ****     
 734:frucd_display.c ****     UG_FontSelect(&FONT_12X16);
 1858              		.loc 1 734 0
 1859 00a8 0548     		ldr	r0, .L95+12
 1860 00aa FFF7FEFF 		bl	UG_FontSelect
 1861              	.LVL181:
 735:frucd_display.c **** }
 1862              		.loc 1 735 0
 1863 00ae 09B0     		add	sp, sp, #36
 1864              		@ sp needed
 1865 00b0 F0BD     		pop	{r4, r5, r6, r7, pc}
 1866              	.L96:
 1867 00b2 C046     		.align	2
 1868              	.L95:
 1869 00b4 00000000 		.word	FONT_32X53
 1870 00b8 5D000000 		.word	.LC26
 1871 00bc E7030000 		.word	999
 1872 00c0 00000000 		.word	FONT_12X16
 1873              		.cfi_endproc
 1874              	.LFE45:
 1875              		.size	disp_gen_voltage, .-disp_gen_voltage
 1876              		.section	.text.disp_shutdown_circuit,"ax",%progbits
 1877              		.align	1
 1878              		.global	disp_shutdown_circuit
 1879              		.code	16
 1880              		.thumb_func
 1881              		.type	disp_shutdown_circuit, %function
 1882              	disp_shutdown_circuit:
 1883              	.LFB46:
 736:frucd_display.c **** 
 737:frucd_display.c **** void disp_shutdown_circuit(uint8_t shutdown_flags, uint16_t x1, uint16_t y1, uint16_t x2, uint16_t 
 1884              		.loc 1 737 0
 1885              		.cfi_startproc
 1886              		@ args = 8, pretend = 0, frame = 16
 1887              		@ frame_needed = 0, uses_anonymous_args = 0
 1888              	.LVL182:
 1889 0000 F0B5     		push	{r4, r5, r6, r7, lr}
 1890              		.cfi_def_cfa_offset 20
 1891              		.cfi_offset 4, -20
 1892              		.cfi_offset 5, -16
 1893              		.cfi_offset 6, -12
 1894              		.cfi_offset 7, -8
 1895              		.cfi_offset 14, -4
 738:frucd_display.c ****     int xFont, yFont;
 739:frucd_display.c ****     int horizFontSize = 12 + 20*size;
 740:frucd_display.c ****     int stringSize;
 741:frucd_display.c ****     stringSize = 10;
ARM GAS  C:\Users\leoja\AppData\Local\Temp\ccByxJuZ.s 			page 49


 742:frucd_display.c ****     xFont = (x1 + x2)/2 - ((horizFontSize*stringSize)/2);
 1896              		.loc 1 742 0
 1897 0002 1425     		movs	r5, #20
 737:frucd_display.c ****     int xFont, yFont;
 1898              		.loc 1 737 0
 1899 0004 87B0     		sub	sp, sp, #28
 1900              		.cfi_def_cfa_offset 48
 737:frucd_display.c ****     int xFont, yFont;
 1901              		.loc 1 737 0
 1902 0006 0291     		str	r1, [sp, #8]
 1903              		.loc 1 742 0
 1904 0008 0A21     		movs	r1, #10
 1905              	.LVL183:
 737:frucd_display.c ****     int xFont, yFont;
 1906              		.loc 1 737 0
 1907 000a 0493     		str	r3, [sp, #16]
 1908 000c 0CAB     		add	r3, sp, #48
 1909              	.LVL184:
 1910 000e 1B88     		ldrh	r3, [r3]
 1911              	.LVL185:
 1912 0010 0392     		str	r2, [sp, #12]
 1913 0012 0593     		str	r3, [sp, #20]
 1914 0014 0DAB     		add	r3, sp, #52
 1915              	.LVL186:
 1916 0016 1A78     		ldrb	r2, [r3]
 1917              	.LVL187:
 1918 0018 0700     		movs	r7, r0
 1919              		.loc 1 742 0
 1920 001a 5543     		muls	r5, r2
 1921 001c 0C35     		adds	r5, r5, #12
 1922              	.LVL188:
 1923 001e 4D43     		muls	r5, r1
 1924              	.LVL189:
 1925 0020 0498     		ldr	r0, [sp, #16]
 1926              	.LVL190:
 1927 0022 0299     		ldr	r1, [sp, #8]
 1928 0024 6B10     		asrs	r3, r5, #1
 1929              	.LVL191:
 1930 0026 0D18     		adds	r5, r1, r0
 1931 0028 6D10     		asrs	r5, r5, #1
 1932 002a ED1A     		subs	r5, r5, r3
 1933              	.LVL192:
 743:frucd_display.c ****     yFont = (y1 + y2)/2 - 5 - (size*17);    
 1934              		.loc 1 743 0
 1935 002c 0599     		ldr	r1, [sp, #20]
 1936 002e 039B     		ldr	r3, [sp, #12]
 1937 0030 5E18     		adds	r6, r3, r1
 1938 0032 7610     		asrs	r6, r6, #1
 1939 0034 731F     		subs	r3, r6, #5
 1940 0036 1126     		movs	r6, #17
 1941 0038 7642     		rsbs	r6, r6, #0
 1942 003a 5643     		muls	r6, r2
 1943 003c 9E19     		adds	r6, r3, r6
 1944              	.LVL193:
 744:frucd_display.c ****     if(size == 1){
 1945              		.loc 1 744 0
 1946 003e 012A     		cmp	r2, #1
ARM GAS  C:\Users\leoja\AppData\Local\Temp\ccByxJuZ.s 			page 50


 1947 0040 02D1     		bne	.L98
 745:frucd_display.c ****         UG_FontSelect(&FONT_32X53);
 1948              		.loc 1 745 0
 1949 0042 6E48     		ldr	r0, .L117
 1950 0044 FFF7FEFF 		bl	UG_FontSelect
 1951              	.LVL194:
 1952              	.L98:
 1953 0048 6D4C     		ldr	r4, .L117+4
 1954 004a 36B2     		sxth	r6, r6
 1955              	.LVL195:
 1956 004c 2DB2     		sxth	r5, r5
 1957              	.LVL196:
 746:frucd_display.c ****         
 747:frucd_display.c ****     }
 748:frucd_display.c ****     UG_COLOR color;
 749:frucd_display.c **** 
 750:frucd_display.c ****     switch(shutdown_flags) {
 1958              		.loc 1 750 0
 1959 004e 042F     		cmp	r7, #4
 1960 0050 5FD0     		beq	.L100
 1961 0052 05D8     		bhi	.L101
 1962 0054 012F     		cmp	r7, #1
 1963 0056 00D1     		bne	.LCB1801
 1964 0058 91E0     		b	.L102	@long jump
 1965              	.LCB1801:
 1966 005a 022F     		cmp	r7, #2
 1967 005c 74D0     		beq	.L103
 1968 005e A9E0     		b	.L99
 1969              	.L101:
 1970 0060 102F     		cmp	r7, #16
 1971 0062 20D0     		beq	.L104
 1972 0064 202F     		cmp	r7, #32
 1973 0066 03D0     		beq	.L105
 1974 0068 082F     		cmp	r7, #8
 1975 006a 00D0     		beq	.LCB1813
 1976 006c A2E0     		b	.L99	@long jump
 1977              	.LCB1813:
 1978 006e 35E0     		b	.L116
 1979              	.L105:
 1980              	.LVL197:
 751:frucd_display.c ****         case IMD_OK:
 752:frucd_display.c ****             color = C_RED;
 753:frucd_display.c ****             if (color != last_shutdown_color) {
 1981              		.loc 1 753 0
 1982 0070 FF27     		movs	r7, #255
 1983 0072 2368     		ldr	r3, [r4]
 1984 0074 3F04     		lsls	r7, r7, #16
 1985 0076 BB42     		cmp	r3, r7
 1986 0078 0FD0     		beq	.L107
 754:frucd_display.c ****                 // only draw rectangle if color changed
 755:frucd_display.c ****                 UG_FillFrame(x1, y1, x2, y2, color);
 1987              		.loc 1 755 0
 1988 007a 6B46     		mov	r3, sp
 1989 007c 1422     		movs	r2, #20
 1990 007e 9B5E     		ldrsh	r3, [r3, r2]
 1991 0080 9C46     		mov	ip, r3
 1992 0082 6B46     		mov	r3, sp
ARM GAS  C:\Users\leoja\AppData\Local\Temp\ccByxJuZ.s 			page 51


 1993 0084 1021     		movs	r1, #16
 1994 0086 5A5E     		ldrsh	r2, [r3, r1]
 1995 0088 0C20     		movs	r0, #12
 1996 008a 195E     		ldrsh	r1, [r3, r0]
 1997 008c 0820     		movs	r0, #8
 1998 008e 185E     		ldrsh	r0, [r3, r0]
 1999 0090 0097     		str	r7, [sp]
 2000 0092 6346     		mov	r3, ip
 2001 0094 FFF7FEFF 		bl	UG_FillFrame
 2002              	.LVL198:
 756:frucd_display.c ****                 last_shutdown_color = color;
 2003              		.loc 1 756 0
 2004 0098 2760     		str	r7, [r4]
 2005              	.L107:
 757:frucd_display.c ****             }
 758:frucd_display.c ****             UG_PutColorString(xFont, yFont, "IMD_OK", C_BLACK, color);
 2006              		.loc 1 758 0
 2007 009a FF23     		movs	r3, #255
 2008 009c 1B04     		lsls	r3, r3, #16
 2009 009e 0093     		str	r3, [sp]
 2010 00a0 584A     		ldr	r2, .L117+8
 2011 00a2 0023     		movs	r3, #0
 2012 00a4 A0E0     		b	.L115
 2013              	.LVL199:
 2014              	.L104:
 759:frucd_display.c ****             break;
 760:frucd_display.c ****         case BMS_OK:
 761:frucd_display.c ****             color = C_RED;
 762:frucd_display.c ****             if (color != last_shutdown_color) {
 2015              		.loc 1 762 0
 2016 00a6 FF27     		movs	r7, #255
 2017 00a8 2368     		ldr	r3, [r4]
 2018 00aa 3F04     		lsls	r7, r7, #16
 2019 00ac BB42     		cmp	r3, r7
 2020 00ae 0FD0     		beq	.L109
 763:frucd_display.c ****                 // only draw rectangle if color changed
 764:frucd_display.c ****                 UG_FillFrame(x1, y1, x2, y2, color);
 2021              		.loc 1 764 0
 2022 00b0 6B46     		mov	r3, sp
 2023 00b2 1422     		movs	r2, #20
 2024 00b4 9B5E     		ldrsh	r3, [r3, r2]
 2025 00b6 9C46     		mov	ip, r3
 2026 00b8 6B46     		mov	r3, sp
 2027 00ba 1021     		movs	r1, #16
 2028 00bc 5A5E     		ldrsh	r2, [r3, r1]
 2029 00be 0C20     		movs	r0, #12
 2030 00c0 195E     		ldrsh	r1, [r3, r0]
 2031 00c2 0820     		movs	r0, #8
 2032 00c4 185E     		ldrsh	r0, [r3, r0]
 2033 00c6 0097     		str	r7, [sp]
 2034 00c8 6346     		mov	r3, ip
 2035 00ca FFF7FEFF 		bl	UG_FillFrame
 2036              	.LVL200:
 765:frucd_display.c ****                 last_shutdown_color = color;
 2037              		.loc 1 765 0
 2038 00ce 2760     		str	r7, [r4]
 2039              	.L109:
ARM GAS  C:\Users\leoja\AppData\Local\Temp\ccByxJuZ.s 			page 52


 766:frucd_display.c ****             }
 767:frucd_display.c ****             UG_PutColorString(xFont, yFont, "BMS_OK", C_BLACK, color);
 2040              		.loc 1 767 0
 2041 00d0 FF23     		movs	r3, #255
 2042 00d2 1B04     		lsls	r3, r3, #16
 2043 00d4 0093     		str	r3, [sp]
 2044 00d6 4C4A     		ldr	r2, .L117+12
 2045 00d8 0023     		movs	r3, #0
 2046 00da 85E0     		b	.L115
 2047              	.LVL201:
 2048              	.L116:
 768:frucd_display.c ****             break;
 769:frucd_display.c ****         case Shutdown_Final:
 770:frucd_display.c ****             color = C_RED;
 771:frucd_display.c ****             if (color != last_shutdown_color) {
 2049              		.loc 1 771 0
 2050 00dc FF27     		movs	r7, #255
 2051 00de 2368     		ldr	r3, [r4]
 2052 00e0 3F04     		lsls	r7, r7, #16
 2053 00e2 BB42     		cmp	r3, r7
 2054 00e4 0FD0     		beq	.L110
 772:frucd_display.c ****                 // only draw rectangle if color changed
 773:frucd_display.c ****                 UG_FillFrame(x1, y1, x2, y2, color);
 2055              		.loc 1 773 0
 2056 00e6 6B46     		mov	r3, sp
 2057 00e8 1422     		movs	r2, #20
 2058 00ea 9B5E     		ldrsh	r3, [r3, r2]
 2059 00ec 9C46     		mov	ip, r3
 2060 00ee 6B46     		mov	r3, sp
 2061 00f0 1021     		movs	r1, #16
 2062 00f2 5A5E     		ldrsh	r2, [r3, r1]
 2063 00f4 0C20     		movs	r0, #12
 2064 00f6 195E     		ldrsh	r1, [r3, r0]
 2065 00f8 0820     		movs	r0, #8
 2066 00fa 185E     		ldrsh	r0, [r3, r0]
 2067 00fc 0097     		str	r7, [sp]
 2068 00fe 6346     		mov	r3, ip
 2069 0100 FFF7FEFF 		bl	UG_FillFrame
 2070              	.LVL202:
 774:frucd_display.c ****                 last_shutdown_color = color;
 2071              		.loc 1 774 0
 2072 0104 2760     		str	r7, [r4]
 2073              	.L110:
 775:frucd_display.c ****             }
 776:frucd_display.c ****             UG_PutColorString(xFont, yFont, "Shutdown_Final", C_BLACK, color);
 2074              		.loc 1 776 0
 2075 0106 FF23     		movs	r3, #255
 2076 0108 1B04     		lsls	r3, r3, #16
 2077 010a 0093     		str	r3, [sp]
 2078 010c 3F4A     		ldr	r2, .L117+16
 2079 010e 0023     		movs	r3, #0
 2080 0110 6AE0     		b	.L115
 2081              	.LVL203:
 2082              	.L100:
 777:frucd_display.c ****             break;
 778:frucd_display.c ****         case AIR1:
 779:frucd_display.c ****             color = C_RED;
ARM GAS  C:\Users\leoja\AppData\Local\Temp\ccByxJuZ.s 			page 53


 780:frucd_display.c ****             if (color != last_shutdown_color) {
 2083              		.loc 1 780 0
 2084 0112 FF27     		movs	r7, #255
 2085 0114 2368     		ldr	r3, [r4]
 2086 0116 3F04     		lsls	r7, r7, #16
 2087 0118 BB42     		cmp	r3, r7
 2088 011a 0FD0     		beq	.L111
 781:frucd_display.c ****                 // only draw rectangle if color changed
 782:frucd_display.c ****                 UG_FillFrame(x1, y1, x2, y2, color);
 2089              		.loc 1 782 0
 2090 011c 6B46     		mov	r3, sp
 2091 011e 1422     		movs	r2, #20
 2092 0120 9B5E     		ldrsh	r3, [r3, r2]
 2093 0122 9C46     		mov	ip, r3
 2094 0124 6B46     		mov	r3, sp
 2095 0126 1021     		movs	r1, #16
 2096 0128 5A5E     		ldrsh	r2, [r3, r1]
 2097 012a 0C20     		movs	r0, #12
 2098 012c 195E     		ldrsh	r1, [r3, r0]
 2099 012e 0820     		movs	r0, #8
 2100 0130 185E     		ldrsh	r0, [r3, r0]
 2101 0132 0097     		str	r7, [sp]
 2102 0134 6346     		mov	r3, ip
 2103 0136 FFF7FEFF 		bl	UG_FillFrame
 2104              	.LVL204:
 783:frucd_display.c ****                 last_shutdown_color = color;
 2105              		.loc 1 783 0
 2106 013a 2760     		str	r7, [r4]
 2107              	.L111:
 784:frucd_display.c ****             }
 785:frucd_display.c ****             UG_PutColorString(xFont, yFont, "AIR_1", C_BLACK, color);
 2108              		.loc 1 785 0
 2109 013c FF23     		movs	r3, #255
 2110 013e 1B04     		lsls	r3, r3, #16
 2111 0140 0093     		str	r3, [sp]
 2112 0142 334A     		ldr	r2, .L117+20
 2113 0144 0023     		movs	r3, #0
 2114 0146 4FE0     		b	.L115
 2115              	.LVL205:
 2116              	.L103:
 786:frucd_display.c ****             break;
 787:frucd_display.c ****         case AIR2:
 788:frucd_display.c ****             color = C_RED;
 789:frucd_display.c ****             if (color != last_shutdown_color) {
 2117              		.loc 1 789 0
 2118 0148 FF27     		movs	r7, #255
 2119 014a 2368     		ldr	r3, [r4]
 2120 014c 3F04     		lsls	r7, r7, #16
 2121 014e BB42     		cmp	r3, r7
 2122 0150 0FD0     		beq	.L112
 790:frucd_display.c ****                 // only draw rectangle if color changed
 791:frucd_display.c ****                 UG_FillFrame(x1, y1, x2, y2, color);
 2123              		.loc 1 791 0
 2124 0152 6B46     		mov	r3, sp
 2125 0154 1422     		movs	r2, #20
 2126 0156 9B5E     		ldrsh	r3, [r3, r2]
 2127 0158 9C46     		mov	ip, r3
ARM GAS  C:\Users\leoja\AppData\Local\Temp\ccByxJuZ.s 			page 54


 2128 015a 6B46     		mov	r3, sp
 2129 015c 1021     		movs	r1, #16
 2130 015e 5A5E     		ldrsh	r2, [r3, r1]
 2131 0160 0C20     		movs	r0, #12
 2132 0162 195E     		ldrsh	r1, [r3, r0]
 2133 0164 0820     		movs	r0, #8
 2134 0166 185E     		ldrsh	r0, [r3, r0]
 2135 0168 0097     		str	r7, [sp]
 2136 016a 6346     		mov	r3, ip
 2137 016c FFF7FEFF 		bl	UG_FillFrame
 2138              	.LVL206:
 792:frucd_display.c ****                 last_shutdown_color = color;
 2139              		.loc 1 792 0
 2140 0170 2760     		str	r7, [r4]
 2141              	.L112:
 793:frucd_display.c ****             }
 794:frucd_display.c ****             UG_PutColorString(xFont, yFont, "AIR_2", C_BLACK, color);
 2142              		.loc 1 794 0
 2143 0172 FF23     		movs	r3, #255
 2144 0174 1B04     		lsls	r3, r3, #16
 2145 0176 0093     		str	r3, [sp]
 2146 0178 264A     		ldr	r2, .L117+24
 2147 017a 0023     		movs	r3, #0
 2148 017c 34E0     		b	.L115
 2149              	.LVL207:
 2150              	.L102:
 795:frucd_display.c ****             break;
 796:frucd_display.c ****         case Precharge:
 797:frucd_display.c ****             color = C_RED;
 798:frucd_display.c ****             if (color != last_shutdown_color) {
 2151              		.loc 1 798 0
 2152 017e FF27     		movs	r7, #255
 2153 0180 2368     		ldr	r3, [r4]
 2154 0182 3F04     		lsls	r7, r7, #16
 2155 0184 BB42     		cmp	r3, r7
 2156 0186 0FD0     		beq	.L113
 799:frucd_display.c ****                 // only draw rectangle if color changed
 800:frucd_display.c ****                 UG_FillFrame(x1, y1, x2, y2, color);
 2157              		.loc 1 800 0
 2158 0188 6B46     		mov	r3, sp
 2159 018a 1422     		movs	r2, #20
 2160 018c 9B5E     		ldrsh	r3, [r3, r2]
 2161 018e 9C46     		mov	ip, r3
 2162 0190 6B46     		mov	r3, sp
 2163 0192 1021     		movs	r1, #16
 2164 0194 5A5E     		ldrsh	r2, [r3, r1]
 2165 0196 0C20     		movs	r0, #12
 2166 0198 195E     		ldrsh	r1, [r3, r0]
 2167 019a 0820     		movs	r0, #8
 2168 019c 185E     		ldrsh	r0, [r3, r0]
 2169 019e 0097     		str	r7, [sp]
 2170 01a0 6346     		mov	r3, ip
 2171 01a2 FFF7FEFF 		bl	UG_FillFrame
 2172              	.LVL208:
 801:frucd_display.c ****                 last_shutdown_color = color;
 2173              		.loc 1 801 0
 2174 01a6 2760     		str	r7, [r4]
ARM GAS  C:\Users\leoja\AppData\Local\Temp\ccByxJuZ.s 			page 55


 2175              	.L113:
 802:frucd_display.c ****             }
 803:frucd_display.c ****             UG_PutColorString(xFont, yFont, "Precharge", C_BLACK, color);
 2176              		.loc 1 803 0
 2177 01a8 FF23     		movs	r3, #255
 2178 01aa 1B04     		lsls	r3, r3, #16
 2179 01ac 0093     		str	r3, [sp]
 2180 01ae 1A4A     		ldr	r2, .L117+28
 2181 01b0 0023     		movs	r3, #0
 2182 01b2 19E0     		b	.L115
 2183              	.LVL209:
 2184              	.L99:
 804:frucd_display.c ****             break;
 805:frucd_display.c ****         default:
 806:frucd_display.c ****             color = C_GREEN;
 807:frucd_display.c ****             if (color != last_shutdown_color) {
 2185              		.loc 1 807 0
 2186 01b4 FF27     		movs	r7, #255
 2187 01b6 2368     		ldr	r3, [r4]
 2188 01b8 3F02     		lsls	r7, r7, #8
 2189 01ba BB42     		cmp	r3, r7
 2190 01bc 0FD0     		beq	.L114
 808:frucd_display.c ****                 // only draw rectangle if color changed
 809:frucd_display.c ****                 UG_FillFrame(x1, y1, x2, y2, color);
 2191              		.loc 1 809 0
 2192 01be 6B46     		mov	r3, sp
 2193 01c0 1422     		movs	r2, #20
 2194 01c2 9B5E     		ldrsh	r3, [r3, r2]
 2195 01c4 9C46     		mov	ip, r3
 2196 01c6 6B46     		mov	r3, sp
 2197 01c8 1021     		movs	r1, #16
 2198 01ca 5A5E     		ldrsh	r2, [r3, r1]
 2199 01cc 0C20     		movs	r0, #12
 2200 01ce 195E     		ldrsh	r1, [r3, r0]
 2201 01d0 0820     		movs	r0, #8
 2202 01d2 185E     		ldrsh	r0, [r3, r0]
 2203 01d4 0097     		str	r7, [sp]
 2204 01d6 6346     		mov	r3, ip
 2205 01d8 FFF7FEFF 		bl	UG_FillFrame
 2206              	.LVL210:
 810:frucd_display.c ****                 last_shutdown_color = color;
 2207              		.loc 1 810 0
 2208 01dc 2760     		str	r7, [r4]
 2209              	.L114:
 811:frucd_display.c ****             }
 812:frucd_display.c ****             UG_PutColorString(xFont, yFont, "None", C_BLACK, color);
 2210              		.loc 1 812 0
 2211 01de FF23     		movs	r3, #255
 2212 01e0 1B02     		lsls	r3, r3, #8
 2213 01e2 0093     		str	r3, [sp]
 2214 01e4 0023     		movs	r3, #0
 2215 01e6 0D4A     		ldr	r2, .L117+32
 2216              	.LVL211:
 2217              	.L115:
 2218 01e8 3100     		movs	r1, r6
 2219 01ea 2800     		movs	r0, r5
 2220 01ec FFF7FEFF 		bl	UG_PutColorString
ARM GAS  C:\Users\leoja\AppData\Local\Temp\ccByxJuZ.s 			page 56


 2221              	.LVL212:
 813:frucd_display.c ****             break;
 814:frucd_display.c ****     }
 815:frucd_display.c ****     
 816:frucd_display.c ****     UG_FontSelect(&FONT_12X16);
 2222              		.loc 1 816 0
 2223 01f0 0B48     		ldr	r0, .L117+36
 2224 01f2 FFF7FEFF 		bl	UG_FontSelect
 2225              	.LVL213:
 817:frucd_display.c **** }
 2226              		.loc 1 817 0
 2227 01f6 07B0     		add	sp, sp, #28
 2228              		@ sp needed
 2229 01f8 F0BD     		pop	{r4, r5, r6, r7, pc}
 2230              	.L118:
 2231 01fa C046     		.align	2
 2232              	.L117:
 2233 01fc 00000000 		.word	FONT_32X53
 2234 0200 00000000 		.word	last_shutdown_color
 2235 0204 ED000000 		.word	.LC74
 2236 0208 F4000000 		.word	.LC76
 2237 020c FB000000 		.word	.LC78
 2238 0210 0A010000 		.word	.LC80
 2239 0214 10010000 		.word	.LC82
 2240 0218 16010000 		.word	.LC84
 2241 021c 20010000 		.word	.LC86
 2242 0220 00000000 		.word	FONT_12X16
 2243              		.cfi_endproc
 2244              	.LFE46:
 2245              		.size	disp_shutdown_circuit, .-disp_shutdown_circuit
 2246              		.section	.text.disp_debug,"ax",%progbits
 2247              		.align	1
 2248              		.global	disp_debug
 2249              		.code	16
 2250              		.thumb_func
 2251              		.type	disp_debug, %function
 2252              	disp_debug:
 2253              	.LFB47:
 818:frucd_display.c **** 
 819:frucd_display.c **** void disp_debug(uint16_t data, uint16_t x1, uint16_t y1, uint16_t x2, uint16_t y2, uint8_t size) {
 2254              		.loc 1 819 0
 2255              		.cfi_startproc
 2256              		@ args = 8, pretend = 0, frame = 32
 2257              		@ frame_needed = 0, uses_anonymous_args = 0
 2258              	.LVL214:
 2259 0000 F0B5     		push	{r4, r5, r6, r7, lr}
 2260              		.cfi_def_cfa_offset 20
 2261              		.cfi_offset 4, -20
 2262              		.cfi_offset 5, -16
 2263              		.cfi_offset 6, -12
 2264              		.cfi_offset 7, -8
 2265              		.cfi_offset 14, -4
 2266 0002 8BB0     		sub	sp, sp, #44
 2267              		.cfi_def_cfa_offset 64
 2268              		.loc 1 819 0
 2269 0004 1F00     		movs	r7, r3
 2270 0006 10AB     		add	r3, sp, #64
ARM GAS  C:\Users\leoja\AppData\Local\Temp\ccByxJuZ.s 			page 57


 2271              	.LVL215:
 2272 0008 1E88     		ldrh	r6, [r3]
 2273 000a 11AB     		add	r3, sp, #68
 2274              	.LVL216:
 2275 000c 1500     		movs	r5, r2
 2276 000e 1A78     		ldrb	r2, [r3]
 2277              	.LVL217:
 820:frucd_display.c ****     int xFont, yFont;
 821:frucd_display.c ****     int horizFontSize = 12 + 20*size;
 822:frucd_display.c ****     int stringSize;
 823:frucd_display.c ****     stringSize = 10;
 824:frucd_display.c ****     xFont = (x1 + x2)/2 - ((horizFontSize*stringSize)/2);
 2278              		.loc 1 824 0
 2279 0010 1423     		movs	r3, #20
 2280              	.LVL218:
 819:frucd_display.c ****     int xFont, yFont;
 2281              		.loc 1 819 0
 2282 0012 0C00     		movs	r4, r1
 2283              		.loc 1 824 0
 2284 0014 0A21     		movs	r1, #10
 2285              	.LVL219:
 2286 0016 5343     		muls	r3, r2
 2287 0018 0C33     		adds	r3, r3, #12
 2288              	.LVL220:
 2289 001a 4B43     		muls	r3, r1
 2290              	.LVL221:
 819:frucd_display.c ****     int xFont, yFont;
 2291              		.loc 1 819 0
 2292 001c 0590     		str	r0, [sp, #20]
 2293              		.loc 1 824 0
 2294 001e E019     		adds	r0, r4, r7
 2295              	.LVL222:
 2296 0020 5B10     		asrs	r3, r3, #1
 2297 0022 4010     		asrs	r0, r0, #1
 825:frucd_display.c ****     yFont = (y1 + y2)/2 - 5 - (size*17);    
 2298              		.loc 1 825 0
 2299 0024 1B39     		subs	r1, r1, #27
 824:frucd_display.c ****     yFont = (y1 + y2)/2 - 5 - (size*17);    
 2300              		.loc 1 824 0
 2301 0026 C31A     		subs	r3, r0, r3
 2302              		.loc 1 825 0
 2303 0028 5143     		muls	r1, r2
 824:frucd_display.c ****     yFont = (y1 + y2)/2 - 5 - (size*17);    
 2304              		.loc 1 824 0
 2305 002a 0393     		str	r3, [sp, #12]
 2306              	.LVL223:
 2307              		.loc 1 825 0
 2308 002c AB19     		adds	r3, r5, r6
 2309              	.LVL224:
 2310 002e 5B10     		asrs	r3, r3, #1
 2311 0030 053B     		subs	r3, r3, #5
 2312 0032 5B18     		adds	r3, r3, r1
 2313 0034 0493     		str	r3, [sp, #16]
 2314              	.LVL225:
 826:frucd_display.c ****     if(size == 1){
 2315              		.loc 1 826 0
 2316 0036 012A     		cmp	r2, #1
ARM GAS  C:\Users\leoja\AppData\Local\Temp\ccByxJuZ.s 			page 58


 2317 0038 02D1     		bne	.L120
 827:frucd_display.c ****         UG_FontSelect(&FONT_32X53);
 2318              		.loc 1 827 0
 2319 003a 1048     		ldr	r0, .L121
 2320 003c FFF7FEFF 		bl	UG_FontSelect
 2321              	.LVL226:
 2322              	.L120:
 828:frucd_display.c ****     }
 829:frucd_display.c ****     
 830:frucd_display.c ****     // choose color
 831:frucd_display.c ****     UG_COLOR color = C_GREEN_YELLOW;
 832:frucd_display.c **** 
 833:frucd_display.c ****     char data_s[10];
 834:frucd_display.c ****     sprintf(data_s, "%d", data);
 2323              		.loc 1 834 0
 2324 0040 059A     		ldr	r2, [sp, #20]
 2325 0042 0F49     		ldr	r1, .L121+4
 2326 0044 07A8     		add	r0, sp, #28
 2327 0046 FFF7FEFF 		bl	sprintf
 2328              	.LVL227:
 835:frucd_display.c ****     UG_FillFrame(x1, y1, x2, y2, color);
 2329              		.loc 1 835 0
 2330 004a 3AB2     		sxth	r2, r7
 2331 004c 0D4F     		ldr	r7, .L121+8
 2332 004e 33B2     		sxth	r3, r6
 2333 0050 29B2     		sxth	r1, r5
 2334 0052 20B2     		sxth	r0, r4
 2335 0054 0097     		str	r7, [sp]
 2336 0056 FFF7FEFF 		bl	UG_FillFrame
 2337              	.LVL228:
 836:frucd_display.c ****     UG_PutColorString(xFont, yFont, data_s, C_BLACK, color);
 2338              		.loc 1 836 0
 2339 005a 6B46     		mov	r3, sp
 2340 005c 1021     		movs	r1, #16
 2341 005e 595E     		ldrsh	r1, [r3, r1]
 2342 0060 6B46     		mov	r3, sp
 2343 0062 07AA     		add	r2, sp, #28
 2344 0064 0C20     		movs	r0, #12
 2345 0066 185E     		ldrsh	r0, [r3, r0]
 2346 0068 0023     		movs	r3, #0
 2347 006a 0097     		str	r7, [sp]
 2348 006c FFF7FEFF 		bl	UG_PutColorString
 2349              	.LVL229:
 837:frucd_display.c ****     UG_FontSelect(&FONT_12X16);
 2350              		.loc 1 837 0
 2351 0070 0548     		ldr	r0, .L121+12
 2352 0072 FFF7FEFF 		bl	UG_FontSelect
 2353              	.LVL230:
 838:frucd_display.c **** }
 2354              		.loc 1 838 0
 2355 0076 0BB0     		add	sp, sp, #44
 2356              		@ sp needed
 2357 0078 F0BD     		pop	{r4, r5, r6, r7, pc}
 2358              	.L122:
 2359 007a C046     		.align	2
 2360              	.L121:
 2361 007c 00000000 		.word	FONT_32X53
ARM GAS  C:\Users\leoja\AppData\Local\Temp\ccByxJuZ.s 			page 59


 2362 0080 5D000000 		.word	.LC26
 2363 0084 2FFFAD00 		.word	11403055
 2364 0088 00000000 		.word	FONT_12X16
 2365              		.cfi_endproc
 2366              	.LFE47:
 2367              		.size	disp_debug, .-disp_debug
 2368              		.comm	last_shutdown_color,4,4
 2369              		.comm	last_motor_temp_color,4,4
 2370              		.comm	last_mc_temp_color,4,4
 2371              		.comm	last_glv_v_color,4,4
 2372              		.comm	last_state_color,4,4
 2373              		.comm	last_max_pack_temp_color,4,4
 2374              		.comm	last_SOC_color,4,4
 2375              		.comm	gui1963,120,4
 2376              		.section	.rodata.str1.1,"aMS",%progbits,1
 2377              	.LC0:
 2378 0000 5041434B 		.ascii	"PACK SOC:\000"
 2378      20534F43 
 2378      3A00
 2379              	.LC2:
 2380 000a 4D415820 		.ascii	"MAX PACK T:\000"
 2380      5041434B 
 2380      20543A00 
 2381              	.LC4:
 2382 0016 53544154 		.ascii	"STATE:\000"
 2382      453A00
 2383              	.LC6:
 2384 001d 4D432054 		.ascii	"MC T:\000"
 2384      3A00
 2385              	.LC8:
 2386 0023 474C5620 		.ascii	"GLV V:\000"
 2386      563A00
 2387              	.LC10:
 2388 002a 4D4F544F 		.ascii	"MOTOR T:\000"
 2388      5220543A 
 2388      00
 2389              	.LC12:
 2390 0033 53485554 		.ascii	"SHUTDOWN:\000"
 2390      444F574E 
 2390      3A00
 2391              	.LC14:
 2392 003d 44454255 		.ascii	"DEBUG:\000"
 2392      473A00
 2393              	.LC16:
 2394 0044 5041434B 		.ascii	"PACK SOC\000"
 2394      20534F43 
 2394      00
 2395              	.LC18:
 2396 004d 4D415820 		.ascii	"MAX PACK T\000"
 2396      5041434B 
 2396      205400
 2397              	.LC24:
 2398 0058 31303025 		.ascii	"100%\000"
 2398      00
 2399              	.LC26:
 2400 005d 256400   		.ascii	"%d\000"
 2401              	.LC31:
ARM GAS  C:\Users\leoja\AppData\Local\Temp\ccByxJuZ.s 			page 60


 2402 0060 25642043 		.ascii	"%d C\000"
 2402      00
 2403              	.LC36:
 2404 0065 20535441 		.ascii	" STARTUP  \000"
 2404      52545550 
 2404      202000
 2405              	.LC38:
 2406 0070 44525620 		.ascii	"DRV FRM LV\000"
 2406      46524D20 
 2406      4C5600
 2407              	.LC40:
 2408 007b 50524520 		.ascii	"PRE TM OUT\000"
 2408      544D204F 
 2408      555400
 2409              	.LC42:
 2410 0086 4252204E 		.ascii	"BR NOT PRS\000"
 2410      4F542050 
 2410      525300
 2411              	.LC44:
 2412 0091 4856204F 		.ascii	"HV OFF DRV\000"
 2412      46462044 
 2412      525600
 2413              	.LC46:
 2414 009c 534E5352 		.ascii	"SNSR DSCRP\000"
 2414      20445343 
 2414      525000
 2415              	.LC48:
 2416 00a7 42535044 		.ascii	"BSPD TRIPD\000"
 2416      20545249 
 2416      504400
 2417              	.LC50:
 2418 00b2 53485444 		.ascii	"SHTDWN OPN\000"
 2418      574E204F 
 2418      504E00
 2419              	.LC52:
 2420 00bd 20202020 		.ascii	"    LV    \000"
 2420      4C562020 
 2420      202000
 2421              	.LC54:
 2422 00c8 50524543 		.ascii	"PRECHARGE \000"
 2422      48415247 
 2422      452000
 2423              	.LC56:
 2424 00d3 48562045 		.ascii	"HV ENABLED\000"
 2424      4E41424C 
 2424      454400
 2425              	.LC58:
 2426 00de 20204452 		.ascii	"  DRIVE   \000"
 2426      49564520 
 2426      202000
 2427              	.LC63:
 2428 00e9 256C7500 		.ascii	"%lu\000"
 2429              	.LC74:
 2430 00ed 494D445F 		.ascii	"IMD_OK\000"
 2430      4F4B00
 2431              	.LC76:
 2432 00f4 424D535F 		.ascii	"BMS_OK\000"
ARM GAS  C:\Users\leoja\AppData\Local\Temp\ccByxJuZ.s 			page 61


 2432      4F4B00
 2433              	.LC78:
 2434 00fb 53687574 		.ascii	"Shutdown_Final\000"
 2434      646F776E 
 2434      5F46696E 
 2434      616C00
 2435              	.LC80:
 2436 010a 4149525F 		.ascii	"AIR_1\000"
 2436      3100
 2437              	.LC82:
 2438 0110 4149525F 		.ascii	"AIR_2\000"
 2438      3200
 2439              	.LC84:
 2440 0116 50726563 		.ascii	"Precharge\000"
 2440      68617267 
 2440      6500
 2441              	.LC86:
 2442 0120 4E6F6E65 		.ascii	"None\000"
 2442      00
 2443              		.text
 2444              	.Letext0:
 2445              		.file 2 "c:\\program files (x86)\\cypress\\psoc creator\\4.4\\psoc creator\\import\\gnu\\arm\\5.4.
 2446              		.file 3 "c:\\program files (x86)\\cypress\\psoc creator\\4.4\\psoc creator\\import\\gnu\\arm\\5.4.
 2447              		.file 4 "Generated_Source\\PSoC4/cytypes.h"
 2448              		.file 5 "data.h"
 2449              		.file 6 "ugui_config.h"
 2450              		.file 7 "ugui.h"
 2451              		.file 8 "ugui_SSD1963.h"
 2452              		.file 9 "frucd_display.h"
 2453              		.file 10 "Generated_Source\\PSoC4/CyLib.h"
 2454              		.file 11 "c:\\program files (x86)\\cypress\\psoc creator\\4.4\\psoc creator\\import\\gnu\\arm\\5.4
 2455              		.section	.debug_info,"",%progbits
 2456              	.Ldebug_info0:
 2457 0000 A7190000 		.4byte	0x19a7
 2458 0004 0400     		.2byte	0x4
 2459 0006 00000000 		.4byte	.Ldebug_abbrev0
 2460 000a 04       		.byte	0x4
 2461 000b 01       		.uleb128 0x1
 2462 000c 75050000 		.4byte	.LASF144
 2463 0010 0C       		.byte	0xc
 2464 0011 76060000 		.4byte	.LASF145
 2465 0015 D6030000 		.4byte	.LASF146
 2466 0019 18000000 		.4byte	.Ldebug_ranges0+0x18
 2467 001d 00000000 		.4byte	0
 2468 0021 00000000 		.4byte	.Ldebug_line0
 2469 0025 02       		.uleb128 0x2
 2470 0026 9C030000 		.4byte	.LASF0
 2471 002a 02       		.byte	0x2
 2472 002b 1B       		.byte	0x1b
 2473 002c 30000000 		.4byte	0x30
 2474 0030 03       		.uleb128 0x3
 2475 0031 01       		.byte	0x1
 2476 0032 06       		.byte	0x6
 2477 0033 57060000 		.4byte	.LASF2
 2478 0037 02       		.uleb128 0x2
 2479 0038 B1040000 		.4byte	.LASF1
 2480 003c 02       		.byte	0x2
ARM GAS  C:\Users\leoja\AppData\Local\Temp\ccByxJuZ.s 			page 62


 2481 003d 1D       		.byte	0x1d
 2482 003e 42000000 		.4byte	0x42
 2483 0042 03       		.uleb128 0x3
 2484 0043 01       		.byte	0x1
 2485 0044 08       		.byte	0x8
 2486 0045 38050000 		.4byte	.LASF3
 2487 0049 02       		.uleb128 0x2
 2488 004a 42030000 		.4byte	.LASF4
 2489 004e 02       		.byte	0x2
 2490 004f 29       		.byte	0x29
 2491 0050 54000000 		.4byte	0x54
 2492 0054 03       		.uleb128 0x3
 2493 0055 02       		.byte	0x2
 2494 0056 05       		.byte	0x5
 2495 0057 62040000 		.4byte	.LASF5
 2496 005b 02       		.uleb128 0x2
 2497 005c 76010000 		.4byte	.LASF6
 2498 0060 02       		.byte	0x2
 2499 0061 2B       		.byte	0x2b
 2500 0062 66000000 		.4byte	0x66
 2501 0066 03       		.uleb128 0x3
 2502 0067 02       		.byte	0x2
 2503 0068 07       		.byte	0x7
 2504 0069 63060000 		.4byte	.LASF7
 2505 006d 03       		.uleb128 0x3
 2506 006e 04       		.byte	0x4
 2507 006f 05       		.byte	0x5
 2508 0070 7D040000 		.4byte	.LASF8
 2509 0074 02       		.uleb128 0x2
 2510 0075 46050000 		.4byte	.LASF9
 2511 0079 02       		.byte	0x2
 2512 007a 41       		.byte	0x41
 2513 007b 7F000000 		.4byte	0x7f
 2514 007f 03       		.uleb128 0x3
 2515 0080 04       		.byte	0x4
 2516 0081 07       		.byte	0x7
 2517 0082 CF040000 		.4byte	.LASF10
 2518 0086 03       		.uleb128 0x3
 2519 0087 08       		.byte	0x8
 2520 0088 05       		.byte	0x5
 2521 0089 1B030000 		.4byte	.LASF11
 2522 008d 03       		.uleb128 0x3
 2523 008e 08       		.byte	0x8
 2524 008f 07       		.byte	0x7
 2525 0090 4F010000 		.4byte	.LASF12
 2526 0094 04       		.uleb128 0x4
 2527 0095 04       		.byte	0x4
 2528 0096 05       		.byte	0x5
 2529 0097 696E7400 		.ascii	"int\000"
 2530 009b 03       		.uleb128 0x3
 2531 009c 04       		.byte	0x4
 2532 009d 07       		.byte	0x7
 2533 009e 4F000000 		.4byte	.LASF13
 2534 00a2 02       		.uleb128 0x2
 2535 00a3 FF000000 		.4byte	.LASF14
 2536 00a7 03       		.byte	0x3
 2537 00a8 14       		.byte	0x14
ARM GAS  C:\Users\leoja\AppData\Local\Temp\ccByxJuZ.s 			page 63


 2538 00a9 25000000 		.4byte	0x25
 2539 00ad 02       		.uleb128 0x2
 2540 00ae F0020000 		.4byte	.LASF15
 2541 00b2 03       		.byte	0x3
 2542 00b3 18       		.byte	0x18
 2543 00b4 37000000 		.4byte	0x37
 2544 00b8 02       		.uleb128 0x2
 2545 00b9 3C010000 		.4byte	.LASF16
 2546 00bd 03       		.byte	0x3
 2547 00be 20       		.byte	0x20
 2548 00bf 49000000 		.4byte	0x49
 2549 00c3 02       		.uleb128 0x2
 2550 00c4 CD030000 		.4byte	.LASF17
 2551 00c8 03       		.byte	0x3
 2552 00c9 24       		.byte	0x24
 2553 00ca 5B000000 		.4byte	0x5b
 2554 00ce 02       		.uleb128 0x2
 2555 00cf F6000000 		.4byte	.LASF18
 2556 00d3 03       		.byte	0x3
 2557 00d4 30       		.byte	0x30
 2558 00d5 74000000 		.4byte	0x74
 2559 00d9 05       		.uleb128 0x5
 2560 00da 86060000 		.4byte	.LASF19
 2561 00de 04       		.byte	0x4
 2562 00df FB01     		.2byte	0x1fb
 2563 00e1 42000000 		.4byte	0x42
 2564 00e5 03       		.uleb128 0x3
 2565 00e6 04       		.byte	0x4
 2566 00e7 04       		.byte	0x4
 2567 00e8 13010000 		.4byte	.LASF20
 2568 00ec 03       		.uleb128 0x3
 2569 00ed 08       		.byte	0x8
 2570 00ee 04       		.byte	0x4
 2571 00ef 8C060000 		.4byte	.LASF21
 2572 00f3 03       		.uleb128 0x3
 2573 00f4 01       		.byte	0x1
 2574 00f5 08       		.byte	0x8
 2575 00f6 A0020000 		.4byte	.LASF22
 2576 00fa 03       		.uleb128 0x3
 2577 00fb 08       		.byte	0x8
 2578 00fc 04       		.byte	0x4
 2579 00fd B9030000 		.4byte	.LASF23
 2580 0101 03       		.uleb128 0x3
 2581 0102 04       		.byte	0x4
 2582 0103 07       		.byte	0x7
 2583 0104 C6040000 		.4byte	.LASF24
 2584 0108 06       		.uleb128 0x6
 2585 0109 04       		.byte	0x4
 2586 010a 07       		.uleb128 0x7
 2587 010b 04       		.byte	0x4
 2588 010c F3000000 		.4byte	0xf3
 2589 0110 07       		.uleb128 0x7
 2590 0111 04       		.byte	0x4
 2591 0112 42000000 		.4byte	0x42
 2592 0116 08       		.uleb128 0x8
 2593 0117 01       		.byte	0x1
 2594 0118 42000000 		.4byte	0x42
ARM GAS  C:\Users\leoja\AppData\Local\Temp\ccByxJuZ.s 			page 64


 2595 011c 05       		.byte	0x5
 2596 011d 09       		.byte	0x9
 2597 011e 40010000 		.4byte	0x140
 2598 0122 09       		.uleb128 0x9
 2599 0123 4C5600   		.ascii	"LV\000"
 2600 0126 00       		.byte	0
 2601 0127 0A       		.uleb128 0xa
 2602 0128 8A030000 		.4byte	.LASF25
 2603 012c 01       		.byte	0x1
 2604 012d 0A       		.uleb128 0xa
 2605 012e 85020000 		.4byte	.LASF26
 2606 0132 02       		.byte	0x2
 2607 0133 0A       		.uleb128 0xa
 2608 0134 36010000 		.4byte	.LASF27
 2609 0138 03       		.byte	0x3
 2610 0139 0A       		.uleb128 0xa
 2611 013a 6F050000 		.4byte	.LASF28
 2612 013e 80       		.byte	0x80
 2613 013f 00       		.byte	0
 2614 0140 08       		.uleb128 0x8
 2615 0141 01       		.byte	0x1
 2616 0142 42000000 		.4byte	0x42
 2617 0146 05       		.byte	0x5
 2618 0147 11       		.byte	0x11
 2619 0148 7D010000 		.4byte	0x17d
 2620 014c 0A       		.uleb128 0xa
 2621 014d 69000000 		.4byte	.LASF29
 2622 0151 00       		.byte	0
 2623 0152 0A       		.uleb128 0xa
 2624 0153 A1060000 		.4byte	.LASF30
 2625 0157 01       		.byte	0x1
 2626 0158 0A       		.uleb128 0xa
 2627 0159 A5020000 		.4byte	.LASF31
 2628 015d 02       		.byte	0x2
 2629 015e 0A       		.uleb128 0xa
 2630 015f DA010000 		.4byte	.LASF32
 2631 0163 03       		.byte	0x3
 2632 0164 0A       		.uleb128 0xa
 2633 0165 2A020000 		.4byte	.LASF33
 2634 0169 04       		.byte	0x4
 2635 016a 0A       		.uleb128 0xa
 2636 016b 94000000 		.4byte	.LASF34
 2637 016f 05       		.byte	0x5
 2638 0170 0A       		.uleb128 0xa
 2639 0171 BE000000 		.4byte	.LASF35
 2640 0175 06       		.byte	0x6
 2641 0176 0A       		.uleb128 0xa
 2642 0177 44020000 		.4byte	.LASF36
 2643 017b 07       		.byte	0x7
 2644 017c 00       		.byte	0
 2645 017d 08       		.uleb128 0x8
 2646 017e 01       		.byte	0x1
 2647 017f 42000000 		.4byte	0x42
 2648 0183 05       		.byte	0x5
 2649 0184 1C       		.byte	0x1c
 2650 0185 AE010000 		.4byte	0x1ae
 2651 0189 0A       		.uleb128 0xa
ARM GAS  C:\Users\leoja\AppData\Local\Temp\ccByxJuZ.s 			page 65


 2652 018a 1E000000 		.4byte	.LASF37
 2653 018e 20       		.byte	0x20
 2654 018f 0A       		.uleb128 0xa
 2655 0190 FA040000 		.4byte	.LASF38
 2656 0194 10       		.byte	0x10
 2657 0195 0A       		.uleb128 0xa
 2658 0196 85000000 		.4byte	.LASF39
 2659 019a 08       		.byte	0x8
 2660 019b 0A       		.uleb128 0xa
 2661 019c E6020000 		.4byte	.LASF40
 2662 01a0 04       		.byte	0x4
 2663 01a1 0A       		.uleb128 0xa
 2664 01a2 EB020000 		.4byte	.LASF41
 2665 01a6 02       		.byte	0x2
 2666 01a7 0A       		.uleb128 0xa
 2667 01a8 05030000 		.4byte	.LASF42
 2668 01ac 01       		.byte	0x1
 2669 01ad 00       		.byte	0
 2670 01ae 02       		.uleb128 0x2
 2671 01af 96030000 		.4byte	.LASF43
 2672 01b3 06       		.byte	0x6
 2673 01b4 26       		.byte	0x26
 2674 01b5 AD000000 		.4byte	0xad
 2675 01b9 02       		.uleb128 0x2
 2676 01ba 0F030000 		.4byte	.LASF44
 2677 01be 06       		.byte	0x6
 2678 01bf 27       		.byte	0x27
 2679 01c0 A2000000 		.4byte	0xa2
 2680 01c4 02       		.uleb128 0x2
 2681 01c5 48000000 		.4byte	.LASF45
 2682 01c9 06       		.byte	0x6
 2683 01ca 28       		.byte	0x28
 2684 01cb C3000000 		.4byte	0xc3
 2685 01cf 02       		.uleb128 0x2
 2686 01d0 96010000 		.4byte	.LASF46
 2687 01d4 06       		.byte	0x6
 2688 01d5 29       		.byte	0x29
 2689 01d6 B8000000 		.4byte	0xb8
 2690 01da 02       		.uleb128 0x2
 2691 01db 06010000 		.4byte	.LASF47
 2692 01df 06       		.byte	0x6
 2693 01e0 2A       		.byte	0x2a
 2694 01e1 CE000000 		.4byte	0xce
 2695 01e5 08       		.uleb128 0x8
 2696 01e6 01       		.byte	0x1
 2697 01e7 42000000 		.4byte	0x42
 2698 01eb 07       		.byte	0x7
 2699 01ec 1F       		.byte	0x1f
 2700 01ed FE010000 		.4byte	0x1fe
 2701 01f1 0A       		.uleb128 0xa
 2702 01f2 D2060000 		.4byte	.LASF48
 2703 01f6 00       		.byte	0
 2704 01f7 0A       		.uleb128 0xa
 2705 01f8 0F000000 		.4byte	.LASF49
 2706 01fc 01       		.byte	0x1
 2707 01fd 00       		.byte	0
 2708 01fe 02       		.uleb128 0x2
ARM GAS  C:\Users\leoja\AppData\Local\Temp\ccByxJuZ.s 			page 66


 2709 01ff B4000000 		.4byte	.LASF50
 2710 0203 07       		.byte	0x7
 2711 0204 22       		.byte	0x22
 2712 0205 E5010000 		.4byte	0x1e5
 2713 0209 0B       		.uleb128 0xb
 2714 020a 14       		.byte	0x14
 2715 020b 07       		.byte	0x7
 2716 020c 24       		.byte	0x24
 2717 020d 64020000 		.4byte	0x264
 2718 0211 0C       		.uleb128 0xc
 2719 0212 7000     		.ascii	"p\000"
 2720 0214 07       		.byte	0x7
 2721 0215 26       		.byte	0x26
 2722 0216 10010000 		.4byte	0x110
 2723 021a 00       		.byte	0
 2724 021b 0D       		.uleb128 0xd
 2725 021c C4020000 		.4byte	.LASF51
 2726 0220 07       		.byte	0x7
 2727 0221 27       		.byte	0x27
 2728 0222 FE010000 		.4byte	0x1fe
 2729 0226 04       		.byte	0x4
 2730 0227 0D       		.uleb128 0xd
 2731 0228 1F020000 		.4byte	.LASF52
 2732 022c 07       		.byte	0x7
 2733 022d 28       		.byte	0x28
 2734 022e CF010000 		.4byte	0x1cf
 2735 0232 06       		.byte	0x6
 2736 0233 0D       		.uleb128 0xd
 2737 0234 56040000 		.4byte	.LASF53
 2738 0238 07       		.byte	0x7
 2739 0239 29       		.byte	0x29
 2740 023a CF010000 		.4byte	0x1cf
 2741 023e 08       		.byte	0x8
 2742 023f 0D       		.uleb128 0xd
 2743 0240 7F030000 		.4byte	.LASF54
 2744 0244 07       		.byte	0x7
 2745 0245 2A       		.byte	0x2a
 2746 0246 C4010000 		.4byte	0x1c4
 2747 024a 0A       		.byte	0xa
 2748 024b 0D       		.uleb128 0xd
 2749 024c A0040000 		.4byte	.LASF55
 2750 0250 07       		.byte	0x7
 2751 0251 2B       		.byte	0x2b
 2752 0252 C4010000 		.4byte	0x1c4
 2753 0256 0C       		.byte	0xc
 2754 0257 0D       		.uleb128 0xd
 2755 0258 A5030000 		.4byte	.LASF56
 2756 025c 07       		.byte	0x7
 2757 025d 2C       		.byte	0x2c
 2758 025e 64020000 		.4byte	0x264
 2759 0262 10       		.byte	0x10
 2760 0263 00       		.byte	0
 2761 0264 07       		.uleb128 0x7
 2762 0265 04       		.byte	0x4
 2763 0266 AE010000 		.4byte	0x1ae
 2764 026a 02       		.uleb128 0x2
 2765 026b A9040000 		.4byte	.LASF57
ARM GAS  C:\Users\leoja\AppData\Local\Temp\ccByxJuZ.s 			page 67


 2766 026f 07       		.byte	0x7
 2767 0270 2D       		.byte	0x2d
 2768 0271 09020000 		.4byte	0x209
 2769 0275 02       		.uleb128 0x2
 2770 0276 4C030000 		.4byte	.LASF58
 2771 027a 07       		.byte	0x7
 2772 027b 66       		.byte	0x66
 2773 027c 80020000 		.4byte	0x280
 2774 0280 0E       		.uleb128 0xe
 2775 0281 B7060000 		.4byte	.LASF68
 2776 0285 20       		.byte	0x20
 2777 0286 07       		.byte	0x7
 2778 0287 F7       		.byte	0xf7
 2779 0288 FA020000 		.4byte	0x2fa
 2780 028c 0D       		.uleb128 0xd
 2781 028d 1C060000 		.4byte	.LASF59
 2782 0291 07       		.byte	0x7
 2783 0292 F9       		.byte	0xf9
 2784 0293 AE010000 		.4byte	0x1ae
 2785 0297 00       		.byte	0
 2786 0298 0D       		.uleb128 0xd
 2787 0299 33000000 		.4byte	.LASF60
 2788 029d 07       		.byte	0x7
 2789 029e FA       		.byte	0xfa
 2790 029f AE010000 		.4byte	0x1ae
 2791 02a3 01       		.byte	0x1
 2792 02a4 0D       		.uleb128 0xd
 2793 02a5 A7000000 		.4byte	.LASF61
 2794 02a9 07       		.byte	0x7
 2795 02aa FB       		.byte	0xfb
 2796 02ab 9F040000 		.4byte	0x49f
 2797 02af 04       		.byte	0x4
 2798 02b0 0D       		.uleb128 0xd
 2799 02b1 C6060000 		.4byte	.LASF62
 2800 02b5 07       		.byte	0x7
 2801 02b6 FC       		.byte	0xfc
 2802 02b7 E8030000 		.4byte	0x3e8
 2803 02bb 08       		.byte	0x8
 2804 02bc 0D       		.uleb128 0xd
 2805 02bd 48060000 		.4byte	.LASF63
 2806 02c1 07       		.byte	0x7
 2807 02c2 FD       		.byte	0xfd
 2808 02c3 E8030000 		.4byte	0x3e8
 2809 02c7 10       		.byte	0x10
 2810 02c8 0D       		.uleb128 0xd
 2811 02c9 33050000 		.4byte	.LASF64
 2812 02cd 07       		.byte	0x7
 2813 02ce FE       		.byte	0xfe
 2814 02cf AE010000 		.4byte	0x1ae
 2815 02d3 18       		.byte	0x18
 2816 02d4 0C       		.uleb128 0xc
 2817 02d5 696400   		.ascii	"id\000"
 2818 02d8 07       		.byte	0x7
 2819 02d9 FF       		.byte	0xff
 2820 02da AE010000 		.4byte	0x1ae
 2821 02de 19       		.byte	0x19
 2822 02df 0F       		.uleb128 0xf
ARM GAS  C:\Users\leoja\AppData\Local\Temp\ccByxJuZ.s 			page 68


 2823 02e0 19010000 		.4byte	.LASF65
 2824 02e4 07       		.byte	0x7
 2825 02e5 0001     		.2byte	0x100
 2826 02e7 AE010000 		.4byte	0x1ae
 2827 02eb 1A       		.byte	0x1a
 2828 02ec 0F       		.uleb128 0xf
 2829 02ed E1020000 		.4byte	.LASF66
 2830 02f1 07       		.byte	0x7
 2831 02f2 0101     		.2byte	0x101
 2832 02f4 08010000 		.4byte	0x108
 2833 02f8 1C       		.byte	0x1c
 2834 02f9 00       		.byte	0
 2835 02fa 02       		.uleb128 0x2
 2836 02fb 86040000 		.4byte	.LASF67
 2837 02ff 07       		.byte	0x7
 2838 0300 67       		.byte	0x67
 2839 0301 05030000 		.4byte	0x305
 2840 0305 10       		.uleb128 0x10
 2841 0306 7C000000 		.4byte	.LASF69
 2842 030a 44       		.byte	0x44
 2843 030b 07       		.byte	0x7
 2844 030c 4101     		.2byte	0x141
 2845 030e A8030000 		.4byte	0x3a8
 2846 0312 0F       		.uleb128 0xf
 2847 0313 8F010000 		.4byte	.LASF70
 2848 0317 07       		.byte	0x7
 2849 0318 4301     		.2byte	0x143
 2850 031a AE010000 		.4byte	0x1ae
 2851 031e 00       		.byte	0
 2852 031f 0F       		.uleb128 0xf
 2853 0320 DD000000 		.4byte	.LASF71
 2854 0324 07       		.byte	0x7
 2855 0325 4401     		.2byte	0x144
 2856 0327 99040000 		.4byte	0x499
 2857 032b 04       		.byte	0x4
 2858 032c 0F       		.uleb128 0xf
 2859 032d 1C060000 		.4byte	.LASF59
 2860 0331 07       		.byte	0x7
 2861 0332 4501     		.2byte	0x145
 2862 0334 AE010000 		.4byte	0x1ae
 2863 0338 08       		.byte	0x8
 2864 0339 11       		.uleb128 0x11
 2865 033a 666300   		.ascii	"fc\000"
 2866 033d 07       		.byte	0x7
 2867 033e 4601     		.2byte	0x146
 2868 0340 A8030000 		.4byte	0x3a8
 2869 0344 0C       		.byte	0xc
 2870 0345 11       		.uleb128 0x11
 2871 0346 626300   		.ascii	"bc\000"
 2872 0349 07       		.byte	0x7
 2873 034a 4701     		.2byte	0x147
 2874 034c A8030000 		.4byte	0x3a8
 2875 0350 10       		.byte	0x10
 2876 0351 11       		.uleb128 0x11
 2877 0352 787300   		.ascii	"xs\000"
 2878 0355 07       		.byte	0x7
 2879 0356 4801     		.2byte	0x148
ARM GAS  C:\Users\leoja\AppData\Local\Temp\ccByxJuZ.s 			page 69


 2880 0358 CF010000 		.4byte	0x1cf
 2881 035c 14       		.byte	0x14
 2882 035d 11       		.uleb128 0x11
 2883 035e 797300   		.ascii	"ys\000"
 2884 0361 07       		.byte	0x7
 2885 0362 4901     		.2byte	0x149
 2886 0364 CF010000 		.4byte	0x1cf
 2887 0368 16       		.byte	0x16
 2888 0369 11       		.uleb128 0x11
 2889 036a 786500   		.ascii	"xe\000"
 2890 036d 07       		.byte	0x7
 2891 036e 4A01     		.2byte	0x14a
 2892 0370 CF010000 		.4byte	0x1cf
 2893 0374 18       		.byte	0x18
 2894 0375 11       		.uleb128 0x11
 2895 0376 796500   		.ascii	"ye\000"
 2896 0379 07       		.byte	0x7
 2897 037a 4B01     		.2byte	0x14b
 2898 037c CF010000 		.4byte	0x1cf
 2899 0380 1A       		.byte	0x1a
 2900 0381 0F       		.uleb128 0xf
 2901 0382 16060000 		.4byte	.LASF72
 2902 0386 07       		.byte	0x7
 2903 0387 4C01     		.2byte	0x14c
 2904 0389 AE010000 		.4byte	0x1ae
 2905 038d 1C       		.byte	0x1c
 2906 038e 0F       		.uleb128 0xf
 2907 038f F0000000 		.4byte	.LASF73
 2908 0393 07       		.byte	0x7
 2909 0394 4D01     		.2byte	0x14d
 2910 0396 2F050000 		.4byte	0x52f
 2911 039a 20       		.byte	0x20
 2912 039b 11       		.uleb128 0x11
 2913 039c 636200   		.ascii	"cb\000"
 2914 039f 07       		.byte	0x7
 2915 03a0 4E01     		.2byte	0x14e
 2916 03a2 4C050000 		.4byte	0x54c
 2917 03a6 40       		.byte	0x40
 2918 03a7 00       		.byte	0
 2919 03a8 02       		.uleb128 0x2
 2920 03a9 3F000000 		.4byte	.LASF74
 2921 03ad 07       		.byte	0x7
 2922 03ae 6A       		.byte	0x6a
 2923 03af DA010000 		.4byte	0x1da
 2924 03b3 0B       		.uleb128 0xb
 2925 03b4 08       		.byte	0x8
 2926 03b5 07       		.byte	0x7
 2927 03b6 A7       		.byte	0xa7
 2928 03b7 E8030000 		.4byte	0x3e8
 2929 03bb 0C       		.uleb128 0xc
 2930 03bc 787300   		.ascii	"xs\000"
 2931 03bf 07       		.byte	0x7
 2932 03c0 A9       		.byte	0xa9
 2933 03c1 CF010000 		.4byte	0x1cf
 2934 03c5 00       		.byte	0
 2935 03c6 0C       		.uleb128 0xc
 2936 03c7 797300   		.ascii	"ys\000"
ARM GAS  C:\Users\leoja\AppData\Local\Temp\ccByxJuZ.s 			page 70


 2937 03ca 07       		.byte	0x7
 2938 03cb AA       		.byte	0xaa
 2939 03cc CF010000 		.4byte	0x1cf
 2940 03d0 02       		.byte	0x2
 2941 03d1 0C       		.uleb128 0xc
 2942 03d2 786500   		.ascii	"xe\000"
 2943 03d5 07       		.byte	0x7
 2944 03d6 AB       		.byte	0xab
 2945 03d7 CF010000 		.4byte	0x1cf
 2946 03db 04       		.byte	0x4
 2947 03dc 0C       		.uleb128 0xc
 2948 03dd 796500   		.ascii	"ye\000"
 2949 03e0 07       		.byte	0x7
 2950 03e1 AC       		.byte	0xac
 2951 03e2 CF010000 		.4byte	0x1cf
 2952 03e6 06       		.byte	0x6
 2953 03e7 00       		.byte	0
 2954 03e8 02       		.uleb128 0x2
 2955 03e9 CE020000 		.4byte	.LASF75
 2956 03ed 07       		.byte	0x7
 2957 03ee AD       		.byte	0xad
 2958 03ef B3030000 		.4byte	0x3b3
 2959 03f3 07       		.uleb128 0x7
 2960 03f4 04       		.byte	0x4
 2961 03f5 F9030000 		.4byte	0x3f9
 2962 03f9 12       		.uleb128 0x12
 2963 03fa 6A020000 		.4byte	0x26a
 2964 03fe 0B       		.uleb128 0xb
 2965 03ff 08       		.byte	0x8
 2966 0400 07       		.byte	0x7
 2967 0401 D6       		.byte	0xd6
 2968 0402 42040000 		.4byte	0x442
 2969 0406 0D       		.uleb128 0xd
 2970 0407 33050000 		.4byte	.LASF64
 2971 040b 07       		.byte	0x7
 2972 040c D8       		.byte	0xd8
 2973 040d AE010000 		.4byte	0x1ae
 2974 0411 00       		.byte	0
 2975 0412 0C       		.uleb128 0xc
 2976 0413 696400   		.ascii	"id\000"
 2977 0416 07       		.byte	0x7
 2978 0417 D9       		.byte	0xd9
 2979 0418 AE010000 		.4byte	0x1ae
 2980 041c 01       		.byte	0x1
 2981 041d 0D       		.uleb128 0xd
 2982 041e 5B030000 		.4byte	.LASF76
 2983 0422 07       		.byte	0x7
 2984 0423 DA       		.byte	0xda
 2985 0424 AE010000 		.4byte	0x1ae
 2986 0428 02       		.byte	0x2
 2987 0429 0D       		.uleb128 0xd
 2988 042a 19010000 		.4byte	.LASF65
 2989 042e 07       		.byte	0x7
 2990 042f DB       		.byte	0xdb
 2991 0430 AE010000 		.4byte	0x1ae
 2992 0434 03       		.byte	0x3
 2993 0435 0C       		.uleb128 0xc
ARM GAS  C:\Users\leoja\AppData\Local\Temp\ccByxJuZ.s 			page 71


 2994 0436 73726300 		.ascii	"src\000"
 2995 043a 07       		.byte	0x7
 2996 043b DC       		.byte	0xdc
 2997 043c 08010000 		.4byte	0x108
 2998 0440 04       		.byte	0x4
 2999 0441 00       		.byte	0
 3000 0442 02       		.uleb128 0x2
 3001 0443 D6020000 		.4byte	.LASF77
 3002 0447 07       		.byte	0x7
 3003 0448 DD       		.byte	0xdd
 3004 0449 FE030000 		.4byte	0x3fe
 3005 044d 0B       		.uleb128 0xb
 3006 044e 06       		.byte	0x6
 3007 044f 07       		.byte	0x7
 3008 0450 E8       		.byte	0xe8
 3009 0451 78040000 		.4byte	0x478
 3010 0455 0D       		.uleb128 0xd
 3011 0456 1C060000 		.4byte	.LASF59
 3012 045a 07       		.byte	0x7
 3013 045b EA       		.byte	0xea
 3014 045c AE010000 		.4byte	0x1ae
 3015 0460 00       		.byte	0
 3016 0461 0C       		.uleb128 0xc
 3017 0462 787000   		.ascii	"xp\000"
 3018 0465 07       		.byte	0x7
 3019 0466 EB       		.byte	0xeb
 3020 0467 CF010000 		.4byte	0x1cf
 3021 046b 02       		.byte	0x2
 3022 046c 0C       		.uleb128 0xc
 3023 046d 797000   		.ascii	"yp\000"
 3024 0470 07       		.byte	0x7
 3025 0471 EC       		.byte	0xec
 3026 0472 CF010000 		.4byte	0x1cf
 3027 0476 04       		.byte	0x4
 3028 0477 00       		.byte	0
 3029 0478 02       		.uleb128 0x2
 3030 0479 4E060000 		.4byte	.LASF78
 3031 047d 07       		.byte	0x7
 3032 047e ED       		.byte	0xed
 3033 047f 4D040000 		.4byte	0x44d
 3034 0483 13       		.uleb128 0x13
 3035 0484 93040000 		.4byte	0x493
 3036 0488 14       		.uleb128 0x14
 3037 0489 93040000 		.4byte	0x493
 3038 048d 14       		.uleb128 0x14
 3039 048e 99040000 		.4byte	0x499
 3040 0492 00       		.byte	0
 3041 0493 07       		.uleb128 0x7
 3042 0494 04       		.byte	0x4
 3043 0495 FA020000 		.4byte	0x2fa
 3044 0499 07       		.uleb128 0x7
 3045 049a 04       		.byte	0x4
 3046 049b 75020000 		.4byte	0x275
 3047 049f 07       		.uleb128 0x7
 3048 04a0 04       		.byte	0x4
 3049 04a1 83040000 		.4byte	0x483
 3050 04a5 15       		.uleb128 0x15
ARM GAS  C:\Users\leoja\AppData\Local\Temp\ccByxJuZ.s 			page 72


 3051 04a6 20       		.byte	0x20
 3052 04a7 07       		.byte	0x7
 3053 04a8 3201     		.2byte	0x132
 3054 04aa 2F050000 		.4byte	0x52f
 3055 04ae 11       		.uleb128 0x11
 3056 04af 73747200 		.ascii	"str\000"
 3057 04b3 07       		.byte	0x7
 3058 04b4 3401     		.2byte	0x134
 3059 04b6 0A010000 		.4byte	0x10a
 3060 04ba 00       		.byte	0
 3061 04bb 0F       		.uleb128 0xf
 3062 04bc C1040000 		.4byte	.LASF79
 3063 04c0 07       		.byte	0x7
 3064 04c1 3501     		.2byte	0x135
 3065 04c3 F3030000 		.4byte	0x3f3
 3066 04c7 04       		.byte	0x4
 3067 04c8 0F       		.uleb128 0xf
 3068 04c9 51050000 		.4byte	.LASF80
 3069 04cd 07       		.byte	0x7
 3070 04ce 3601     		.2byte	0x136
 3071 04d0 B9010000 		.4byte	0x1b9
 3072 04d4 08       		.byte	0x8
 3073 04d5 0F       		.uleb128 0xf
 3074 04d6 98020000 		.4byte	.LASF81
 3075 04da 07       		.byte	0x7
 3076 04db 3701     		.2byte	0x137
 3077 04dd B9010000 		.4byte	0x1b9
 3078 04e1 09       		.byte	0x9
 3079 04e2 0F       		.uleb128 0xf
 3080 04e3 C0060000 		.4byte	.LASF82
 3081 04e7 07       		.byte	0x7
 3082 04e8 3801     		.2byte	0x138
 3083 04ea AE010000 		.4byte	0x1ae
 3084 04ee 0A       		.byte	0xa
 3085 04ef 11       		.uleb128 0x11
 3086 04f0 666300   		.ascii	"fc\000"
 3087 04f3 07       		.byte	0x7
 3088 04f4 3901     		.2byte	0x139
 3089 04f6 A8030000 		.4byte	0x3a8
 3090 04fa 0C       		.byte	0xc
 3091 04fb 11       		.uleb128 0x11
 3092 04fc 626300   		.ascii	"bc\000"
 3093 04ff 07       		.byte	0x7
 3094 0500 3A01     		.2byte	0x13a
 3095 0502 A8030000 		.4byte	0x3a8
 3096 0506 10       		.byte	0x10
 3097 0507 11       		.uleb128 0x11
 3098 0508 69666300 		.ascii	"ifc\000"
 3099 050c 07       		.byte	0x7
 3100 050d 3B01     		.2byte	0x13b
 3101 050f A8030000 		.4byte	0x3a8
 3102 0513 14       		.byte	0x14
 3103 0514 11       		.uleb128 0x11
 3104 0515 69626300 		.ascii	"ibc\000"
 3105 0519 07       		.byte	0x7
 3106 051a 3C01     		.2byte	0x13c
 3107 051c A8030000 		.4byte	0x3a8
ARM GAS  C:\Users\leoja\AppData\Local\Temp\ccByxJuZ.s 			page 73


 3108 0520 18       		.byte	0x18
 3109 0521 0F       		.uleb128 0xf
 3110 0522 78030000 		.4byte	.LASF83
 3111 0526 07       		.byte	0x7
 3112 0527 3D01     		.2byte	0x13d
 3113 0529 AE010000 		.4byte	0x1ae
 3114 052d 1C       		.byte	0x1c
 3115 052e 00       		.byte	0
 3116 052f 05       		.uleb128 0x5
 3117 0530 3D040000 		.4byte	.LASF84
 3118 0534 07       		.byte	0x7
 3119 0535 3E01     		.2byte	0x13e
 3120 0537 A5040000 		.4byte	0x4a5
 3121 053b 13       		.uleb128 0x13
 3122 053c 46050000 		.4byte	0x546
 3123 0540 14       		.uleb128 0x14
 3124 0541 46050000 		.4byte	0x546
 3125 0545 00       		.byte	0
 3126 0546 07       		.uleb128 0x7
 3127 0547 04       		.byte	0x4
 3128 0548 42040000 		.4byte	0x442
 3129 054c 07       		.uleb128 0x7
 3130 054d 04       		.byte	0x4
 3131 054e 3B050000 		.4byte	0x53b
 3132 0552 15       		.uleb128 0x15
 3133 0553 08       		.byte	0x8
 3134 0554 07       		.byte	0x7
 3135 0555 2002     		.2byte	0x220
 3136 0557 76050000 		.4byte	0x576
 3137 055b 0F       		.uleb128 0xf
 3138 055c FE020000 		.4byte	.LASF85
 3139 0560 07       		.byte	0x7
 3140 0561 2202     		.2byte	0x222
 3141 0563 08010000 		.4byte	0x108
 3142 0567 00       		.byte	0
 3143 0568 0F       		.uleb128 0xf
 3144 0569 1C060000 		.4byte	.LASF59
 3145 056d 07       		.byte	0x7
 3146 056e 2302     		.2byte	0x223
 3147 0570 AE010000 		.4byte	0x1ae
 3148 0574 04       		.byte	0x4
 3149 0575 00       		.byte	0
 3150 0576 05       		.uleb128 0x5
 3151 0577 46040000 		.4byte	.LASF86
 3152 057b 07       		.byte	0x7
 3153 057c 2402     		.2byte	0x224
 3154 057e 52050000 		.4byte	0x552
 3155 0582 15       		.uleb128 0x15
 3156 0583 14       		.byte	0x14
 3157 0584 07       		.byte	0x7
 3158 0585 3C02     		.2byte	0x23c
 3159 0587 F4050000 		.4byte	0x5f4
 3160 058b 0F       		.uleb128 0xf
 3161 058c 50040000 		.4byte	.LASF87
 3162 0590 07       		.byte	0x7
 3163 0591 3E02     		.2byte	0x23e
 3164 0593 CF010000 		.4byte	0x1cf
ARM GAS  C:\Users\leoja\AppData\Local\Temp\ccByxJuZ.s 			page 74


 3165 0597 00       		.byte	0
 3166 0598 0F       		.uleb128 0xf
 3167 0599 A8010000 		.4byte	.LASF88
 3168 059d 07       		.byte	0x7
 3169 059e 3F02     		.2byte	0x23f
 3170 05a0 CF010000 		.4byte	0x1cf
 3171 05a4 02       		.byte	0x2
 3172 05a5 0F       		.uleb128 0xf
 3173 05a6 67050000 		.4byte	.LASF89
 3174 05aa 07       		.byte	0x7
 3175 05ab 4002     		.2byte	0x240
 3176 05ad CF010000 		.4byte	0x1cf
 3177 05b1 04       		.byte	0x4
 3178 05b2 0F       		.uleb128 0xf
 3179 05b3 90020000 		.4byte	.LASF90
 3180 05b7 07       		.byte	0x7
 3181 05b8 4102     		.2byte	0x241
 3182 05ba CF010000 		.4byte	0x1cf
 3183 05be 06       		.byte	0x6
 3184 05bf 0F       		.uleb128 0xf
 3185 05c0 0D010000 		.4byte	.LASF91
 3186 05c4 07       		.byte	0x7
 3187 05c5 4202     		.2byte	0x242
 3188 05c7 CF010000 		.4byte	0x1cf
 3189 05cb 08       		.byte	0x8
 3190 05cc 0F       		.uleb128 0xf
 3191 05cd 6E000000 		.4byte	.LASF92
 3192 05d1 07       		.byte	0x7
 3193 05d2 4302     		.2byte	0x243
 3194 05d4 CF010000 		.4byte	0x1cf
 3195 05d8 0A       		.byte	0xa
 3196 05d9 0F       		.uleb128 0xf
 3197 05da 9D010000 		.4byte	.LASF93
 3198 05de 07       		.byte	0x7
 3199 05df 4402     		.2byte	0x244
 3200 05e1 A8030000 		.4byte	0x3a8
 3201 05e5 0C       		.byte	0xc
 3202 05e6 0F       		.uleb128 0xf
 3203 05e7 2B010000 		.4byte	.LASF94
 3204 05eb 07       		.byte	0x7
 3205 05ec 4502     		.2byte	0x245
 3206 05ee A8030000 		.4byte	0x3a8
 3207 05f2 10       		.byte	0x10
 3208 05f3 00       		.byte	0
 3209 05f4 15       		.uleb128 0x15
 3210 05f5 78       		.byte	0x78
 3211 05f6 07       		.byte	0x7
 3212 05f7 3302     		.2byte	0x233
 3213 05f9 CE060000 		.4byte	0x6ce
 3214 05fd 0F       		.uleb128 0xf
 3215 05fe 56030000 		.4byte	.LASF95
 3216 0602 07       		.byte	0x7
 3217 0603 3502     		.2byte	0x235
 3218 0605 E3060000 		.4byte	0x6e3
 3219 0609 00       		.byte	0
 3220 060a 0F       		.uleb128 0xf
 3221 060b 15030000 		.4byte	.LASF96
ARM GAS  C:\Users\leoja\AppData\Local\Temp\ccByxJuZ.s 			page 75


 3222 060f 07       		.byte	0x7
 3223 0610 3602     		.2byte	0x236
 3224 0612 CF010000 		.4byte	0x1cf
 3225 0616 04       		.byte	0x4
 3226 0617 0F       		.uleb128 0xf
 3227 0618 AE000000 		.4byte	.LASF97
 3228 061c 07       		.byte	0x7
 3229 061d 3702     		.2byte	0x237
 3230 061f CF010000 		.4byte	0x1cf
 3231 0623 06       		.byte	0x6
 3232 0624 0F       		.uleb128 0xf
 3233 0625 F8020000 		.4byte	.LASF98
 3234 0629 07       		.byte	0x7
 3235 062a 3802     		.2byte	0x238
 3236 062c 78040000 		.4byte	0x478
 3237 0630 08       		.byte	0x8
 3238 0631 0F       		.uleb128 0xf
 3239 0632 E4000000 		.4byte	.LASF99
 3240 0636 07       		.byte	0x7
 3241 0637 3902     		.2byte	0x239
 3242 0639 93040000 		.4byte	0x493
 3243 063d 10       		.byte	0x10
 3244 063e 0F       		.uleb128 0xf
 3245 063f 81010000 		.4byte	.LASF100
 3246 0643 07       		.byte	0x7
 3247 0644 3A02     		.2byte	0x23a
 3248 0646 93040000 		.4byte	0x493
 3249 064a 14       		.byte	0x14
 3250 064b 0F       		.uleb128 0xf
 3251 064c 1F010000 		.4byte	.LASF101
 3252 0650 07       		.byte	0x7
 3253 0651 3B02     		.2byte	0x23b
 3254 0653 93040000 		.4byte	0x493
 3255 0657 18       		.byte	0x18
 3256 0658 0F       		.uleb128 0xf
 3257 0659 74000000 		.4byte	.LASF102
 3258 065d 07       		.byte	0x7
 3259 065e 4602     		.2byte	0x246
 3260 0660 82050000 		.4byte	0x582
 3261 0664 1C       		.byte	0x1c
 3262 0665 0F       		.uleb128 0xf
 3263 0666 C1040000 		.4byte	.LASF79
 3264 066a 07       		.byte	0x7
 3265 066b 4702     		.2byte	0x247
 3266 066d 6A020000 		.4byte	0x26a
 3267 0671 30       		.byte	0x30
 3268 0672 0F       		.uleb128 0xf
 3269 0673 EF060000 		.4byte	.LASF103
 3270 0677 07       		.byte	0x7
 3271 0678 4802     		.2byte	0x248
 3272 067a B9010000 		.4byte	0x1b9
 3273 067e 44       		.byte	0x44
 3274 067f 0F       		.uleb128 0xf
 3275 0680 5C000000 		.4byte	.LASF104
 3276 0684 07       		.byte	0x7
 3277 0685 4902     		.2byte	0x249
 3278 0687 B9010000 		.4byte	0x1b9
ARM GAS  C:\Users\leoja\AppData\Local\Temp\ccByxJuZ.s 			page 76


 3279 068b 45       		.byte	0x45
 3280 068c 0F       		.uleb128 0xf
 3281 068d 9D010000 		.4byte	.LASF93
 3282 0691 07       		.byte	0x7
 3283 0692 4A02     		.2byte	0x24a
 3284 0694 A8030000 		.4byte	0x3a8
 3285 0698 48       		.byte	0x48
 3286 0699 0F       		.uleb128 0xf
 3287 069a 2B010000 		.4byte	.LASF94
 3288 069e 07       		.byte	0x7
 3289 069f 4B02     		.2byte	0x24b
 3290 06a1 A8030000 		.4byte	0x3a8
 3291 06a5 4C       		.byte	0x4c
 3292 06a6 0F       		.uleb128 0xf
 3293 06a7 25000000 		.4byte	.LASF105
 3294 06ab 07       		.byte	0x7
 3295 06ac 4C02     		.2byte	0x24c
 3296 06ae A8030000 		.4byte	0x3a8
 3297 06b2 50       		.byte	0x50
 3298 06b3 0F       		.uleb128 0xf
 3299 06b4 1C060000 		.4byte	.LASF59
 3300 06b8 07       		.byte	0x7
 3301 06b9 4D02     		.2byte	0x24d
 3302 06bb AE010000 		.4byte	0x1ae
 3303 06bf 54       		.byte	0x54
 3304 06c0 0F       		.uleb128 0xf
 3305 06c1 FE020000 		.4byte	.LASF85
 3306 06c5 07       		.byte	0x7
 3307 06c6 4E02     		.2byte	0x24e
 3308 06c8 E9060000 		.4byte	0x6e9
 3309 06cc 58       		.byte	0x58
 3310 06cd 00       		.byte	0
 3311 06ce 13       		.uleb128 0x13
 3312 06cf E3060000 		.4byte	0x6e3
 3313 06d3 14       		.uleb128 0x14
 3314 06d4 CF010000 		.4byte	0x1cf
 3315 06d8 14       		.uleb128 0x14
 3316 06d9 CF010000 		.4byte	0x1cf
 3317 06dd 14       		.uleb128 0x14
 3318 06de A8030000 		.4byte	0x3a8
 3319 06e2 00       		.byte	0
 3320 06e3 07       		.uleb128 0x7
 3321 06e4 04       		.byte	0x4
 3322 06e5 CE060000 		.4byte	0x6ce
 3323 06e9 16       		.uleb128 0x16
 3324 06ea 76050000 		.4byte	0x576
 3325 06ee F9060000 		.4byte	0x6f9
 3326 06f2 17       		.uleb128 0x17
 3327 06f3 01010000 		.4byte	0x101
 3328 06f7 03       		.byte	0x3
 3329 06f8 00       		.byte	0
 3330 06f9 05       		.uleb128 0x5
 3331 06fa 41060000 		.4byte	.LASF106
 3332 06fe 07       		.byte	0x7
 3333 06ff 4F02     		.2byte	0x24f
 3334 0701 F4050000 		.4byte	0x5f4
 3335 0705 18       		.uleb128 0x18
ARM GAS  C:\Users\leoja\AppData\Local\Temp\ccByxJuZ.s 			page 77


 3336 0706 66010000 		.4byte	.LASF107
 3337 070a 01       		.byte	0x1
 3338 070b 0A       		.byte	0xa
 3339 070c 00000000 		.4byte	.LFB35
 3340 0710 70000000 		.4byte	.LFE35-.LFB35
 3341 0714 01       		.uleb128 0x1
 3342 0715 9C       		.byte	0x9c
 3343 0716 F5070000 		.4byte	0x7f5
 3344 071a 19       		.uleb128 0x19
 3345 071b 08000000 		.4byte	.LVL0
 3346 071f 58190000 		.4byte	0x1958
 3347 0723 31070000 		.4byte	0x731
 3348 0727 1A       		.uleb128 0x1a
 3349 0728 01       		.uleb128 0x1
 3350 0729 50       		.byte	0x50
 3351 072a 05       		.uleb128 0x5
 3352 072b 0C       		.byte	0xc
 3353 072c FFFFFF00 		.4byte	0xffffff
 3354 0730 00       		.byte	0
 3355 0731 19       		.uleb128 0x19
 3356 0732 1E000000 		.4byte	.LVL1
 3357 0736 64190000 		.4byte	0x1964
 3358 073a 5C070000 		.4byte	0x75c
 3359 073e 1A       		.uleb128 0x1a
 3360 073f 01       		.uleb128 0x1
 3361 0740 50       		.byte	0x50
 3362 0741 01       		.uleb128 0x1
 3363 0742 30       		.byte	0x30
 3364 0743 1A       		.uleb128 0x1a
 3365 0744 01       		.uleb128 0x1
 3366 0745 51       		.byte	0x51
 3367 0746 01       		.uleb128 0x1
 3368 0747 30       		.byte	0x30
 3369 0748 1A       		.uleb128 0x1a
 3370 0749 01       		.uleb128 0x1
 3371 074a 52       		.byte	0x52
 3372 074b 01       		.uleb128 0x1
 3373 074c 3A       		.byte	0x3a
 3374 074d 1A       		.uleb128 0x1a
 3375 074e 01       		.uleb128 0x1
 3376 074f 53       		.byte	0x53
 3377 0750 01       		.uleb128 0x1
 3378 0751 3A       		.byte	0x3a
 3379 0752 1A       		.uleb128 0x1a
 3380 0753 02       		.uleb128 0x2
 3381 0754 7D       		.byte	0x7d
 3382 0755 00       		.sleb128 0
 3383 0756 04       		.uleb128 0x4
 3384 0757 08       		.byte	0x8
 3385 0758 FF       		.byte	0xff
 3386 0759 40       		.byte	0x40
 3387 075a 24       		.byte	0x24
 3388 075b 00       		.byte	0
 3389 075c 19       		.uleb128 0x19
 3390 075d 32000000 		.4byte	.LVL2
 3391 0761 64190000 		.4byte	0x1964
 3392 0765 87070000 		.4byte	0x787
ARM GAS  C:\Users\leoja\AppData\Local\Temp\ccByxJuZ.s 			page 78


 3393 0769 1A       		.uleb128 0x1a
 3394 076a 01       		.uleb128 0x1
 3395 076b 50       		.byte	0x50
 3396 076c 01       		.uleb128 0x1
 3397 076d 30       		.byte	0x30
 3398 076e 1A       		.uleb128 0x1a
 3399 076f 01       		.uleb128 0x1
 3400 0770 51       		.byte	0x51
 3401 0771 02       		.uleb128 0x2
 3402 0772 75       		.byte	0x75
 3403 0773 00       		.sleb128 0
 3404 0774 1A       		.uleb128 0x1a
 3405 0775 01       		.uleb128 0x1
 3406 0776 52       		.byte	0x52
 3407 0777 01       		.uleb128 0x1
 3408 0778 3A       		.byte	0x3a
 3409 0779 1A       		.uleb128 0x1a
 3410 077a 01       		.uleb128 0x1
 3411 077b 53       		.byte	0x53
 3412 077c 02       		.uleb128 0x2
 3413 077d 77       		.byte	0x77
 3414 077e 00       		.sleb128 0
 3415 077f 1A       		.uleb128 0x1a
 3416 0780 02       		.uleb128 0x2
 3417 0781 7D       		.byte	0x7d
 3418 0782 00       		.sleb128 0
 3419 0783 02       		.uleb128 0x2
 3420 0784 08       		.byte	0x8
 3421 0785 FF       		.byte	0xff
 3422 0786 00       		.byte	0
 3423 0787 19       		.uleb128 0x19
 3424 0788 4C000000 		.4byte	.LVL3
 3425 078c 64190000 		.4byte	0x1964
 3426 0790 B3070000 		.4byte	0x7b3
 3427 0794 1A       		.uleb128 0x1a
 3428 0795 01       		.uleb128 0x1
 3429 0796 50       		.byte	0x50
 3430 0797 02       		.uleb128 0x2
 3431 0798 74       		.byte	0x74
 3432 0799 00       		.sleb128 0
 3433 079a 1A       		.uleb128 0x1a
 3434 079b 01       		.uleb128 0x1
 3435 079c 51       		.byte	0x51
 3436 079d 01       		.uleb128 0x1
 3437 079e 30       		.byte	0x30
 3438 079f 1A       		.uleb128 0x1a
 3439 07a0 01       		.uleb128 0x1
 3440 07a1 52       		.byte	0x52
 3441 07a2 02       		.uleb128 0x2
 3442 07a3 76       		.byte	0x76
 3443 07a4 00       		.sleb128 0
 3444 07a5 1A       		.uleb128 0x1a
 3445 07a6 01       		.uleb128 0x1
 3446 07a7 53       		.byte	0x53
 3447 07a8 01       		.uleb128 0x1
 3448 07a9 3A       		.byte	0x3a
 3449 07aa 1A       		.uleb128 0x1a
ARM GAS  C:\Users\leoja\AppData\Local\Temp\ccByxJuZ.s 			page 79


 3450 07ab 02       		.uleb128 0x2
 3451 07ac 7D       		.byte	0x7d
 3452 07ad 00       		.sleb128 0
 3453 07ae 03       		.uleb128 0x3
 3454 07af 0A       		.byte	0xa
 3455 07b0 00FF     		.2byte	0xff00
 3456 07b2 00       		.byte	0
 3457 07b3 19       		.uleb128 0x19
 3458 07b4 5C000000 		.4byte	.LVL4
 3459 07b8 64190000 		.4byte	0x1964
 3460 07bc E3070000 		.4byte	0x7e3
 3461 07c0 1A       		.uleb128 0x1a
 3462 07c1 01       		.uleb128 0x1
 3463 07c2 50       		.byte	0x50
 3464 07c3 02       		.uleb128 0x2
 3465 07c4 74       		.byte	0x74
 3466 07c5 00       		.sleb128 0
 3467 07c6 1A       		.uleb128 0x1a
 3468 07c7 01       		.uleb128 0x1
 3469 07c8 51       		.byte	0x51
 3470 07c9 02       		.uleb128 0x2
 3471 07ca 75       		.byte	0x75
 3472 07cb 00       		.sleb128 0
 3473 07cc 1A       		.uleb128 0x1a
 3474 07cd 01       		.uleb128 0x1
 3475 07ce 52       		.byte	0x52
 3476 07cf 02       		.uleb128 0x2
 3477 07d0 76       		.byte	0x76
 3478 07d1 00       		.sleb128 0
 3479 07d2 1A       		.uleb128 0x1a
 3480 07d3 01       		.uleb128 0x1
 3481 07d4 53       		.byte	0x53
 3482 07d5 02       		.uleb128 0x2
 3483 07d6 77       		.byte	0x77
 3484 07d7 00       		.sleb128 0
 3485 07d8 1A       		.uleb128 0x1a
 3486 07d9 02       		.uleb128 0x2
 3487 07da 7D       		.byte	0x7d
 3488 07db 00       		.sleb128 0
 3489 07dc 05       		.uleb128 0x5
 3490 07dd 0C       		.byte	0xc
 3491 07de 00FFFF00 		.4byte	0xffff00
 3492 07e2 00       		.byte	0
 3493 07e3 1B       		.uleb128 0x1b
 3494 07e4 64000000 		.4byte	.LVL5
 3495 07e8 70190000 		.4byte	0x1970
 3496 07ec 1A       		.uleb128 0x1a
 3497 07ed 01       		.uleb128 0x1
 3498 07ee 50       		.byte	0x50
 3499 07ef 03       		.uleb128 0x3
 3500 07f0 0A       		.byte	0xa
 3501 07f1 2C01     		.2byte	0x12c
 3502 07f3 00       		.byte	0
 3503 07f4 00       		.byte	0
 3504 07f5 18       		.uleb128 0x18
 3505 07f6 E1040000 		.4byte	.LASF108
 3506 07fa 01       		.byte	0x1
ARM GAS  C:\Users\leoja\AppData\Local\Temp\ccByxJuZ.s 			page 80


 3507 07fb 24       		.byte	0x24
 3508 07fc 00000000 		.4byte	.LFB36
 3509 0800 7C000000 		.4byte	.LFE36-.LFB36
 3510 0804 01       		.uleb128 0x1
 3511 0805 9C       		.byte	0x9c
 3512 0806 2C090000 		.4byte	0x92c
 3513 080a 19       		.uleb128 0x19
 3514 080b 08000000 		.4byte	.LVL6
 3515 080f 58190000 		.4byte	0x1958
 3516 0813 1D080000 		.4byte	0x81d
 3517 0817 1A       		.uleb128 0x1a
 3518 0818 01       		.uleb128 0x1
 3519 0819 50       		.byte	0x50
 3520 081a 01       		.uleb128 0x1
 3521 081b 30       		.byte	0x30
 3522 081c 00       		.byte	0
 3523 081d 19       		.uleb128 0x19
 3524 081e 12000000 		.4byte	.LVL7
 3525 0822 7B190000 		.4byte	0x197b
 3526 0826 3E080000 		.4byte	0x83e
 3527 082a 1A       		.uleb128 0x1a
 3528 082b 01       		.uleb128 0x1
 3529 082c 50       		.byte	0x50
 3530 082d 01       		.uleb128 0x1
 3531 082e 3A       		.byte	0x3a
 3532 082f 1A       		.uleb128 0x1a
 3533 0830 01       		.uleb128 0x1
 3534 0831 51       		.byte	0x51
 3535 0832 01       		.uleb128 0x1
 3536 0833 3A       		.byte	0x3a
 3537 0834 1A       		.uleb128 0x1a
 3538 0835 01       		.uleb128 0x1
 3539 0836 52       		.byte	0x52
 3540 0837 05       		.uleb128 0x5
 3541 0838 03       		.byte	0x3
 3542 0839 00000000 		.4byte	.LC0
 3543 083d 00       		.byte	0
 3544 083e 19       		.uleb128 0x19
 3545 083f 1C000000 		.4byte	.LVL8
 3546 0843 7B190000 		.4byte	0x197b
 3547 0847 60080000 		.4byte	0x860
 3548 084b 1A       		.uleb128 0x1a
 3549 084c 01       		.uleb128 0x1
 3550 084d 50       		.byte	0x50
 3551 084e 02       		.uleb128 0x2
 3552 084f 08       		.byte	0x8
 3553 0850 FA       		.byte	0xfa
 3554 0851 1A       		.uleb128 0x1a
 3555 0852 01       		.uleb128 0x1
 3556 0853 51       		.byte	0x51
 3557 0854 01       		.uleb128 0x1
 3558 0855 3A       		.byte	0x3a
 3559 0856 1A       		.uleb128 0x1a
 3560 0857 01       		.uleb128 0x1
 3561 0858 52       		.byte	0x52
 3562 0859 05       		.uleb128 0x5
 3563 085a 03       		.byte	0x3
ARM GAS  C:\Users\leoja\AppData\Local\Temp\ccByxJuZ.s 			page 81


 3564 085b 0A000000 		.4byte	.LC2
 3565 085f 00       		.byte	0
 3566 0860 19       		.uleb128 0x19
 3567 0861 26000000 		.4byte	.LVL9
 3568 0865 7B190000 		.4byte	0x197b
 3569 0869 82080000 		.4byte	0x882
 3570 086d 1A       		.uleb128 0x1a
 3571 086e 01       		.uleb128 0x1
 3572 086f 50       		.byte	0x50
 3573 0870 01       		.uleb128 0x1
 3574 0871 3A       		.byte	0x3a
 3575 0872 1A       		.uleb128 0x1a
 3576 0873 01       		.uleb128 0x1
 3577 0874 51       		.byte	0x51
 3578 0875 02       		.uleb128 0x2
 3579 0876 08       		.byte	0x8
 3580 0877 4B       		.byte	0x4b
 3581 0878 1A       		.uleb128 0x1a
 3582 0879 01       		.uleb128 0x1
 3583 087a 52       		.byte	0x52
 3584 087b 05       		.uleb128 0x5
 3585 087c 03       		.byte	0x3
 3586 087d 16000000 		.4byte	.LC4
 3587 0881 00       		.byte	0
 3588 0882 19       		.uleb128 0x19
 3589 0883 30000000 		.4byte	.LVL10
 3590 0887 7B190000 		.4byte	0x197b
 3591 088b A5080000 		.4byte	0x8a5
 3592 088f 1A       		.uleb128 0x1a
 3593 0890 01       		.uleb128 0x1
 3594 0891 50       		.byte	0x50
 3595 0892 02       		.uleb128 0x2
 3596 0893 08       		.byte	0x8
 3597 0894 FA       		.byte	0xfa
 3598 0895 1A       		.uleb128 0x1a
 3599 0896 01       		.uleb128 0x1
 3600 0897 51       		.byte	0x51
 3601 0898 02       		.uleb128 0x2
 3602 0899 08       		.byte	0x8
 3603 089a 4B       		.byte	0x4b
 3604 089b 1A       		.uleb128 0x1a
 3605 089c 01       		.uleb128 0x1
 3606 089d 52       		.byte	0x52
 3607 089e 05       		.uleb128 0x5
 3608 089f 03       		.byte	0x3
 3609 08a0 1D000000 		.4byte	.LC6
 3610 08a4 00       		.byte	0
 3611 08a5 19       		.uleb128 0x19
 3612 08a6 3A000000 		.4byte	.LVL11
 3613 08aa 7B190000 		.4byte	0x197b
 3614 08ae C7080000 		.4byte	0x8c7
 3615 08b2 1A       		.uleb128 0x1a
 3616 08b3 01       		.uleb128 0x1
 3617 08b4 50       		.byte	0x50
 3618 08b5 01       		.uleb128 0x1
 3619 08b6 3A       		.byte	0x3a
 3620 08b7 1A       		.uleb128 0x1a
ARM GAS  C:\Users\leoja\AppData\Local\Temp\ccByxJuZ.s 			page 82


 3621 08b8 01       		.uleb128 0x1
 3622 08b9 51       		.byte	0x51
 3623 08ba 02       		.uleb128 0x2
 3624 08bb 08       		.byte	0x8
 3625 08bc 8C       		.byte	0x8c
 3626 08bd 1A       		.uleb128 0x1a
 3627 08be 01       		.uleb128 0x1
 3628 08bf 52       		.byte	0x52
 3629 08c0 05       		.uleb128 0x5
 3630 08c1 03       		.byte	0x3
 3631 08c2 23000000 		.4byte	.LC8
 3632 08c6 00       		.byte	0
 3633 08c7 19       		.uleb128 0x19
 3634 08c8 44000000 		.4byte	.LVL12
 3635 08cc 7B190000 		.4byte	0x197b
 3636 08d0 EA080000 		.4byte	0x8ea
 3637 08d4 1A       		.uleb128 0x1a
 3638 08d5 01       		.uleb128 0x1
 3639 08d6 50       		.byte	0x50
 3640 08d7 02       		.uleb128 0x2
 3641 08d8 08       		.byte	0x8
 3642 08d9 FA       		.byte	0xfa
 3643 08da 1A       		.uleb128 0x1a
 3644 08db 01       		.uleb128 0x1
 3645 08dc 51       		.byte	0x51
 3646 08dd 02       		.uleb128 0x2
 3647 08de 08       		.byte	0x8
 3648 08df 8C       		.byte	0x8c
 3649 08e0 1A       		.uleb128 0x1a
 3650 08e1 01       		.uleb128 0x1
 3651 08e2 52       		.byte	0x52
 3652 08e3 05       		.uleb128 0x5
 3653 08e4 03       		.byte	0x3
 3654 08e5 2A000000 		.4byte	.LC10
 3655 08e9 00       		.byte	0
 3656 08ea 19       		.uleb128 0x19
 3657 08eb 4E000000 		.4byte	.LVL13
 3658 08ef 7B190000 		.4byte	0x197b
 3659 08f3 0C090000 		.4byte	0x90c
 3660 08f7 1A       		.uleb128 0x1a
 3661 08f8 01       		.uleb128 0x1
 3662 08f9 50       		.byte	0x50
 3663 08fa 01       		.uleb128 0x1
 3664 08fb 3A       		.byte	0x3a
 3665 08fc 1A       		.uleb128 0x1a
 3666 08fd 01       		.uleb128 0x1
 3667 08fe 51       		.byte	0x51
 3668 08ff 02       		.uleb128 0x2
 3669 0900 08       		.byte	0x8
 3670 0901 CD       		.byte	0xcd
 3671 0902 1A       		.uleb128 0x1a
 3672 0903 01       		.uleb128 0x1
 3673 0904 52       		.byte	0x52
 3674 0905 05       		.uleb128 0x5
 3675 0906 03       		.byte	0x3
 3676 0907 33000000 		.4byte	.LC12
 3677 090b 00       		.byte	0
ARM GAS  C:\Users\leoja\AppData\Local\Temp\ccByxJuZ.s 			page 83


 3678 090c 1B       		.uleb128 0x1b
 3679 090d 58000000 		.4byte	.LVL14
 3680 0911 7B190000 		.4byte	0x197b
 3681 0915 1A       		.uleb128 0x1a
 3682 0916 01       		.uleb128 0x1
 3683 0917 50       		.byte	0x50
 3684 0918 02       		.uleb128 0x2
 3685 0919 08       		.byte	0x8
 3686 091a FA       		.byte	0xfa
 3687 091b 1A       		.uleb128 0x1a
 3688 091c 01       		.uleb128 0x1
 3689 091d 51       		.byte	0x51
 3690 091e 02       		.uleb128 0x2
 3691 091f 08       		.byte	0x8
 3692 0920 CD       		.byte	0xcd
 3693 0921 1A       		.uleb128 0x1a
 3694 0922 01       		.uleb128 0x1
 3695 0923 52       		.byte	0x52
 3696 0924 05       		.uleb128 0x5
 3697 0925 03       		.byte	0x3
 3698 0926 3D000000 		.4byte	.LC14
 3699 092a 00       		.byte	0
 3700 092b 00       		.byte	0
 3701 092c 18       		.uleb128 0x18
 3702 092d 59050000 		.4byte	.LASF109
 3703 0931 01       		.byte	0x1
 3704 0932 2F       		.byte	0x2f
 3705 0933 00000000 		.4byte	.LFB37
 3706 0937 48000000 		.4byte	.LFE37-.LFB37
 3707 093b 01       		.uleb128 0x1
 3708 093c 9C       		.byte	0x9c
 3709 093d DC090000 		.4byte	0x9dc
 3710 0941 19       		.uleb128 0x19
 3711 0942 08000000 		.4byte	.LVL15
 3712 0946 58190000 		.4byte	0x1958
 3713 094a 54090000 		.4byte	0x954
 3714 094e 1A       		.uleb128 0x1a
 3715 094f 01       		.uleb128 0x1
 3716 0950 50       		.byte	0x50
 3717 0951 01       		.uleb128 0x1
 3718 0952 30       		.byte	0x30
 3719 0953 00       		.byte	0
 3720 0954 19       		.uleb128 0x19
 3721 0955 12000000 		.4byte	.LVL16
 3722 0959 7B190000 		.4byte	0x197b
 3723 095d 76090000 		.4byte	0x976
 3724 0961 1A       		.uleb128 0x1a
 3725 0962 01       		.uleb128 0x1
 3726 0963 50       		.byte	0x50
 3727 0964 02       		.uleb128 0x2
 3728 0965 08       		.byte	0x8
 3729 0966 44       		.byte	0x44
 3730 0967 1A       		.uleb128 0x1a
 3731 0968 01       		.uleb128 0x1
 3732 0969 51       		.byte	0x51
 3733 096a 01       		.uleb128 0x1
 3734 096b 3A       		.byte	0x3a
ARM GAS  C:\Users\leoja\AppData\Local\Temp\ccByxJuZ.s 			page 84


 3735 096c 1A       		.uleb128 0x1a
 3736 096d 01       		.uleb128 0x1
 3737 096e 52       		.byte	0x52
 3738 096f 05       		.uleb128 0x5
 3739 0970 03       		.byte	0x3
 3740 0971 44000000 		.4byte	.LC16
 3741 0975 00       		.byte	0
 3742 0976 19       		.uleb128 0x19
 3743 0977 1E000000 		.4byte	.LVL17
 3744 097b 7B190000 		.4byte	0x197b
 3745 097f 99090000 		.4byte	0x999
 3746 0983 1A       		.uleb128 0x1a
 3747 0984 01       		.uleb128 0x1
 3748 0985 50       		.byte	0x50
 3749 0986 03       		.uleb128 0x3
 3750 0987 0A       		.byte	0xa
 3751 0988 2901     		.2byte	0x129
 3752 098a 1A       		.uleb128 0x1a
 3753 098b 01       		.uleb128 0x1
 3754 098c 51       		.byte	0x51
 3755 098d 01       		.uleb128 0x1
 3756 098e 3A       		.byte	0x3a
 3757 098f 1A       		.uleb128 0x1a
 3758 0990 01       		.uleb128 0x1
 3759 0991 52       		.byte	0x52
 3760 0992 05       		.uleb128 0x5
 3761 0993 03       		.byte	0x3
 3762 0994 4D000000 		.4byte	.LC18
 3763 0998 00       		.byte	0
 3764 0999 19       		.uleb128 0x19
 3765 099a 28000000 		.4byte	.LVL18
 3766 099e 7B190000 		.4byte	0x197b
 3767 09a2 BB090000 		.4byte	0x9bb
 3768 09a6 1A       		.uleb128 0x1a
 3769 09a7 01       		.uleb128 0x1
 3770 09a8 50       		.byte	0x50
 3771 09a9 01       		.uleb128 0x1
 3772 09aa 35       		.byte	0x35
 3773 09ab 1A       		.uleb128 0x1a
 3774 09ac 01       		.uleb128 0x1
 3775 09ad 51       		.byte	0x51
 3776 09ae 02       		.uleb128 0x2
 3777 09af 08       		.byte	0x8
 3778 09b0 B4       		.byte	0xb4
 3779 09b1 1A       		.uleb128 0x1a
 3780 09b2 01       		.uleb128 0x1
 3781 09b3 52       		.byte	0x52
 3782 09b4 05       		.uleb128 0x5
 3783 09b5 03       		.byte	0x3
 3784 09b6 16000000 		.4byte	.LC4
 3785 09ba 00       		.byte	0
 3786 09bb 1B       		.uleb128 0x1b
 3787 09bc 34000000 		.4byte	.LVL19
 3788 09c0 7B190000 		.4byte	0x197b
 3789 09c4 1A       		.uleb128 0x1a
 3790 09c5 01       		.uleb128 0x1
 3791 09c6 50       		.byte	0x50
ARM GAS  C:\Users\leoja\AppData\Local\Temp\ccByxJuZ.s 			page 85


 3792 09c7 03       		.uleb128 0x3
 3793 09c8 0A       		.byte	0xa
 3794 09c9 1301     		.2byte	0x113
 3795 09cb 1A       		.uleb128 0x1a
 3796 09cc 01       		.uleb128 0x1
 3797 09cd 51       		.byte	0x51
 3798 09ce 02       		.uleb128 0x2
 3799 09cf 08       		.byte	0x8
 3800 09d0 B4       		.byte	0xb4
 3801 09d1 1A       		.uleb128 0x1a
 3802 09d2 01       		.uleb128 0x1
 3803 09d3 52       		.byte	0x52
 3804 09d4 05       		.uleb128 0x5
 3805 09d5 03       		.byte	0x3
 3806 09d6 23000000 		.4byte	.LC8
 3807 09da 00       		.byte	0
 3808 09db 00       		.byte	0
 3809 09dc 1C       		.uleb128 0x1c
 3810 09dd 2D060000 		.4byte	.LASF117
 3811 09e1 01       		.byte	0x1
 3812 09e2 85       		.byte	0x85
 3813 09e3 00000000 		.4byte	.LFB38
 3814 09e7 5C010000 		.4byte	.LFE38-.LFB38
 3815 09eb 01       		.uleb128 0x1
 3816 09ec 9C       		.byte	0x9c
 3817 09ed 850B0000 		.4byte	0xb85
 3818 09f1 1D       		.uleb128 0x1d
 3819 09f2 E1020000 		.4byte	.LASF66
 3820 09f6 01       		.byte	0x1
 3821 09f7 85       		.byte	0x85
 3822 09f8 AD000000 		.4byte	0xad
 3823 09fc 00000000 		.4byte	.LLST0
 3824 0a00 1E       		.uleb128 0x1e
 3825 0a01 783100   		.ascii	"x1\000"
 3826 0a04 01       		.byte	0x1
 3827 0a05 85       		.byte	0x85
 3828 0a06 C3000000 		.4byte	0xc3
 3829 0a0a 21000000 		.4byte	.LLST1
 3830 0a0e 1E       		.uleb128 0x1e
 3831 0a0f 793100   		.ascii	"y1\000"
 3832 0a12 01       		.byte	0x1
 3833 0a13 85       		.byte	0x85
 3834 0a14 C3000000 		.4byte	0xc3
 3835 0a18 42000000 		.4byte	.LLST2
 3836 0a1c 1E       		.uleb128 0x1e
 3837 0a1d 783200   		.ascii	"x2\000"
 3838 0a20 01       		.byte	0x1
 3839 0a21 85       		.byte	0x85
 3840 0a22 C3000000 		.4byte	0xc3
 3841 0a26 63000000 		.4byte	.LLST3
 3842 0a2a 1E       		.uleb128 0x1e
 3843 0a2b 793200   		.ascii	"y2\000"
 3844 0a2e 01       		.byte	0x1
 3845 0a2f 85       		.byte	0x85
 3846 0a30 C3000000 		.4byte	0xc3
 3847 0a34 84000000 		.4byte	.LLST4
 3848 0a38 1D       		.uleb128 0x1d
ARM GAS  C:\Users\leoja\AppData\Local\Temp\ccByxJuZ.s 			page 86


 3849 0a39 62030000 		.4byte	.LASF110
 3850 0a3d 01       		.byte	0x1
 3851 0a3e 85       		.byte	0x85
 3852 0a3f AD000000 		.4byte	0xad
 3853 0a43 B0000000 		.4byte	.LLST5
 3854 0a47 1F       		.uleb128 0x1f
 3855 0a48 36060000 		.4byte	.LASF111
 3856 0a4c 01       		.byte	0x1
 3857 0a4d 86       		.byte	0x86
 3858 0a4e 94000000 		.4byte	0x94
 3859 0a52 F4000000 		.4byte	.LLST6
 3860 0a56 1F       		.uleb128 0x1f
 3861 0a57 BB040000 		.4byte	.LASF112
 3862 0a5b 01       		.byte	0x1
 3863 0a5c 87       		.byte	0x87
 3864 0a5d 94000000 		.4byte	0x94
 3865 0a61 07010000 		.4byte	.LLST7
 3866 0a65 1F       		.uleb128 0x1f
 3867 0a66 BE020000 		.4byte	.LASF113
 3868 0a6a 01       		.byte	0x1
 3869 0a6b 87       		.byte	0x87
 3870 0a6c 94000000 		.4byte	0x94
 3871 0a70 30010000 		.4byte	.LLST8
 3872 0a74 1F       		.uleb128 0x1f
 3873 0a75 14050000 		.4byte	.LASF114
 3874 0a79 01       		.byte	0x1
 3875 0a7a 88       		.byte	0x88
 3876 0a7b 94000000 		.4byte	0x94
 3877 0a7f 83010000 		.4byte	.LLST9
 3878 0a83 1F       		.uleb128 0x1f
 3879 0a84 AE010000 		.4byte	.LASF115
 3880 0a88 01       		.byte	0x1
 3881 0a89 98       		.byte	0x98
 3882 0a8a A8030000 		.4byte	0x3a8
 3883 0a8e BD010000 		.4byte	.LLST10
 3884 0a92 20       		.uleb128 0x20
 3885 0a93 94000000 		.4byte	.LBB2
 3886 0a97 A2000000 		.4byte	.LBE2-.LBB2
 3887 0a9b 450B0000 		.4byte	0xb45
 3888 0a9f 21       		.uleb128 0x21
 3889 0aa0 08000000 		.4byte	.LASF116
 3890 0aa4 01       		.byte	0x1
 3891 0aa5 A5       		.byte	0xa5
 3892 0aa6 850B0000 		.4byte	0xb85
 3893 0aaa 02       		.uleb128 0x2
 3894 0aab 91       		.byte	0x91
 3895 0aac 64       		.sleb128 -28
 3896 0aad 19       		.uleb128 0x19
 3897 0aae A0000000 		.4byte	.LVL39
 3898 0ab2 87190000 		.4byte	0x1987
 3899 0ab6 D00A0000 		.4byte	0xad0
 3900 0aba 1A       		.uleb128 0x1a
 3901 0abb 01       		.uleb128 0x1
 3902 0abc 50       		.byte	0x50
 3903 0abd 02       		.uleb128 0x2
 3904 0abe 77       		.byte	0x77
 3905 0abf 00       		.sleb128 0
ARM GAS  C:\Users\leoja\AppData\Local\Temp\ccByxJuZ.s 			page 87


 3906 0ac0 1A       		.uleb128 0x1a
 3907 0ac1 01       		.uleb128 0x1
 3908 0ac2 51       		.byte	0x51
 3909 0ac3 05       		.uleb128 0x5
 3910 0ac4 03       		.byte	0x3
 3911 0ac5 5D000000 		.4byte	.LC26
 3912 0ac9 1A       		.uleb128 0x1a
 3913 0aca 01       		.uleb128 0x1
 3914 0acb 52       		.byte	0x52
 3915 0acc 02       		.uleb128 0x2
 3916 0acd 75       		.byte	0x75
 3917 0ace 00       		.sleb128 0
 3918 0acf 00       		.byte	0
 3919 0ad0 19       		.uleb128 0x19
 3920 0ad1 EE000000 		.4byte	.LVL43
 3921 0ad5 64190000 		.4byte	0x1964
 3922 0ad9 FD0A0000 		.4byte	0xafd
 3923 0add 1A       		.uleb128 0x1a
 3924 0ade 01       		.uleb128 0x1
 3925 0adf 50       		.byte	0x50
 3926 0ae0 04       		.uleb128 0x4
 3927 0ae1 7D       		.byte	0x7d
 3928 0ae2 0C       		.sleb128 12
 3929 0ae3 94       		.byte	0x94
 3930 0ae4 02       		.byte	0x2
 3931 0ae5 1A       		.uleb128 0x1a
 3932 0ae6 01       		.uleb128 0x1
 3933 0ae7 52       		.byte	0x52
 3934 0ae8 04       		.uleb128 0x4
 3935 0ae9 7D       		.byte	0x7d
 3936 0aea 10       		.sleb128 16
 3937 0aeb 94       		.byte	0x94
 3938 0aec 02       		.byte	0x2
 3939 0aed 1A       		.uleb128 0x1a
 3940 0aee 01       		.uleb128 0x1
 3941 0aef 53       		.byte	0x53
 3942 0af0 04       		.uleb128 0x4
 3943 0af1 7D       		.byte	0x7d
 3944 0af2 14       		.sleb128 20
 3945 0af3 94       		.byte	0x94
 3946 0af4 02       		.byte	0x2
 3947 0af5 1A       		.uleb128 0x1a
 3948 0af6 02       		.uleb128 0x2
 3949 0af7 7D       		.byte	0x7d
 3950 0af8 00       		.sleb128 0
 3951 0af9 02       		.uleb128 0x2
 3952 0afa 75       		.byte	0x75
 3953 0afb 00       		.sleb128 0
 3954 0afc 00       		.byte	0
 3955 0afd 19       		.uleb128 0x19
 3956 0afe 22010000 		.4byte	.LVL48
 3957 0b02 64190000 		.4byte	0x1964
 3958 0b06 2A0B0000 		.4byte	0xb2a
 3959 0b0a 1A       		.uleb128 0x1a
 3960 0b0b 01       		.uleb128 0x1
 3961 0b0c 50       		.byte	0x50
 3962 0b0d 04       		.uleb128 0x4
ARM GAS  C:\Users\leoja\AppData\Local\Temp\ccByxJuZ.s 			page 88


 3963 0b0e 7D       		.byte	0x7d
 3964 0b0f 0C       		.sleb128 12
 3965 0b10 94       		.byte	0x94
 3966 0b11 02       		.byte	0x2
 3967 0b12 1A       		.uleb128 0x1a
 3968 0b13 01       		.uleb128 0x1
 3969 0b14 52       		.byte	0x52
 3970 0b15 04       		.uleb128 0x4
 3971 0b16 7D       		.byte	0x7d
 3972 0b17 10       		.sleb128 16
 3973 0b18 94       		.byte	0x94
 3974 0b19 02       		.byte	0x2
 3975 0b1a 1A       		.uleb128 0x1a
 3976 0b1b 01       		.uleb128 0x1
 3977 0b1c 53       		.byte	0x53
 3978 0b1d 04       		.uleb128 0x4
 3979 0b1e 7D       		.byte	0x7d
 3980 0b1f 14       		.sleb128 20
 3981 0b20 94       		.byte	0x94
 3982 0b21 02       		.byte	0x2
 3983 0b22 1A       		.uleb128 0x1a
 3984 0b23 02       		.uleb128 0x2
 3985 0b24 7D       		.byte	0x7d
 3986 0b25 00       		.sleb128 0
 3987 0b26 02       		.uleb128 0x2
 3988 0b27 75       		.byte	0x75
 3989 0b28 00       		.sleb128 0
 3990 0b29 00       		.byte	0
 3991 0b2a 1B       		.uleb128 0x1b
 3992 0b2b 36010000 		.4byte	.LVL50
 3993 0b2f 92190000 		.4byte	0x1992
 3994 0b33 1A       		.uleb128 0x1a
 3995 0b34 01       		.uleb128 0x1
 3996 0b35 50       		.byte	0x50
 3997 0b36 04       		.uleb128 0x4
 3998 0b37 91       		.byte	0x91
 3999 0b38 5C       		.sleb128 -36
 4000 0b39 94       		.byte	0x94
 4001 0b3a 02       		.byte	0x2
 4002 0b3b 1A       		.uleb128 0x1a
 4003 0b3c 01       		.uleb128 0x1
 4004 0b3d 51       		.byte	0x51
 4005 0b3e 04       		.uleb128 0x4
 4006 0b3f 91       		.byte	0x91
 4007 0b40 58       		.sleb128 -40
 4008 0b41 94       		.byte	0x94
 4009 0b42 02       		.byte	0x2
 4010 0b43 00       		.byte	0
 4011 0b44 00       		.byte	0
 4012 0b45 22       		.uleb128 0x22
 4013 0b46 54000000 		.4byte	.LVL33
 4014 0b4a 9E190000 		.4byte	0x199e
 4015 0b4e 19       		.uleb128 0x19
 4016 0b4f 86000000 		.4byte	.LVL36
 4017 0b53 64190000 		.4byte	0x1964
 4018 0b57 7B0B0000 		.4byte	0xb7b
 4019 0b5b 1A       		.uleb128 0x1a
ARM GAS  C:\Users\leoja\AppData\Local\Temp\ccByxJuZ.s 			page 89


 4020 0b5c 01       		.uleb128 0x1
 4021 0b5d 50       		.byte	0x50
 4022 0b5e 04       		.uleb128 0x4
 4023 0b5f 7D       		.byte	0x7d
 4024 0b60 0C       		.sleb128 12
 4025 0b61 94       		.byte	0x94
 4026 0b62 02       		.byte	0x2
 4027 0b63 1A       		.uleb128 0x1a
 4028 0b64 01       		.uleb128 0x1
 4029 0b65 52       		.byte	0x52
 4030 0b66 04       		.uleb128 0x4
 4031 0b67 7D       		.byte	0x7d
 4032 0b68 10       		.sleb128 16
 4033 0b69 94       		.byte	0x94
 4034 0b6a 02       		.byte	0x2
 4035 0b6b 1A       		.uleb128 0x1a
 4036 0b6c 01       		.uleb128 0x1
 4037 0b6d 53       		.byte	0x53
 4038 0b6e 04       		.uleb128 0x4
 4039 0b6f 7D       		.byte	0x7d
 4040 0b70 14       		.sleb128 20
 4041 0b71 94       		.byte	0x94
 4042 0b72 02       		.byte	0x2
 4043 0b73 1A       		.uleb128 0x1a
 4044 0b74 02       		.uleb128 0x2
 4045 0b75 7D       		.byte	0x7d
 4046 0b76 00       		.sleb128 0
 4047 0b77 02       		.uleb128 0x2
 4048 0b78 75       		.byte	0x75
 4049 0b79 00       		.sleb128 0
 4050 0b7a 00       		.byte	0
 4051 0b7b 22       		.uleb128 0x22
 4052 0b7c 3C010000 		.4byte	.LVL51
 4053 0b80 9E190000 		.4byte	0x199e
 4054 0b84 00       		.byte	0
 4055 0b85 16       		.uleb128 0x16
 4056 0b86 F3000000 		.4byte	0xf3
 4057 0b8a 950B0000 		.4byte	0xb95
 4058 0b8e 17       		.uleb128 0x17
 4059 0b8f 01010000 		.4byte	0x101
 4060 0b93 03       		.byte	0x3
 4061 0b94 00       		.byte	0
 4062 0b95 1C       		.uleb128 0x1c
 4063 0b96 01050000 		.4byte	.LASF118
 4064 0b9a 01       		.byte	0x1
 4065 0b9b F0       		.byte	0xf0
 4066 0b9c 00000000 		.4byte	.LFB39
 4067 0ba0 0C010000 		.4byte	.LFE39-.LFB39
 4068 0ba4 01       		.uleb128 0x1
 4069 0ba5 9C       		.byte	0x9c
 4070 0ba6 500D0000 		.4byte	0xd50
 4071 0baa 1D       		.uleb128 0x1d
 4072 0bab E1020000 		.4byte	.LASF66
 4073 0baf 01       		.byte	0x1
 4074 0bb0 F0       		.byte	0xf0
 4075 0bb1 AD000000 		.4byte	0xad
 4076 0bb5 ED010000 		.4byte	.LLST11
ARM GAS  C:\Users\leoja\AppData\Local\Temp\ccByxJuZ.s 			page 90


 4077 0bb9 1E       		.uleb128 0x1e
 4078 0bba 783100   		.ascii	"x1\000"
 4079 0bbd 01       		.byte	0x1
 4080 0bbe F0       		.byte	0xf0
 4081 0bbf C3000000 		.4byte	0xc3
 4082 0bc3 0E020000 		.4byte	.LLST12
 4083 0bc7 1E       		.uleb128 0x1e
 4084 0bc8 793100   		.ascii	"y1\000"
 4085 0bcb 01       		.byte	0x1
 4086 0bcc F0       		.byte	0xf0
 4087 0bcd C3000000 		.4byte	0xc3
 4088 0bd1 2F020000 		.4byte	.LLST13
 4089 0bd5 1E       		.uleb128 0x1e
 4090 0bd6 783200   		.ascii	"x2\000"
 4091 0bd9 01       		.byte	0x1
 4092 0bda F0       		.byte	0xf0
 4093 0bdb C3000000 		.4byte	0xc3
 4094 0bdf 50020000 		.4byte	.LLST14
 4095 0be3 1E       		.uleb128 0x1e
 4096 0be4 793200   		.ascii	"y2\000"
 4097 0be7 01       		.byte	0x1
 4098 0be8 F0       		.byte	0xf0
 4099 0be9 C3000000 		.4byte	0xc3
 4100 0bed 71020000 		.4byte	.LLST15
 4101 0bf1 1D       		.uleb128 0x1d
 4102 0bf2 62030000 		.4byte	.LASF110
 4103 0bf6 01       		.byte	0x1
 4104 0bf7 F0       		.byte	0xf0
 4105 0bf8 AD000000 		.4byte	0xad
 4106 0bfc 9D020000 		.4byte	.LLST16
 4107 0c00 1F       		.uleb128 0x1f
 4108 0c01 BB040000 		.4byte	.LASF112
 4109 0c05 01       		.byte	0x1
 4110 0c06 F1       		.byte	0xf1
 4111 0c07 94000000 		.4byte	0x94
 4112 0c0b E1020000 		.4byte	.LLST17
 4113 0c0f 1F       		.uleb128 0x1f
 4114 0c10 BE020000 		.4byte	.LASF113
 4115 0c14 01       		.byte	0x1
 4116 0c15 F1       		.byte	0xf1
 4117 0c16 94000000 		.4byte	0x94
 4118 0c1a 00030000 		.4byte	.LLST18
 4119 0c1e 1F       		.uleb128 0x1f
 4120 0c1f 14050000 		.4byte	.LASF114
 4121 0c23 01       		.byte	0x1
 4122 0c24 F2       		.byte	0xf2
 4123 0c25 94000000 		.4byte	0x94
 4124 0c29 1F030000 		.4byte	.LLST19
 4125 0c2d 23       		.uleb128 0x23
 4126 0c2e 36060000 		.4byte	.LASF111
 4127 0c32 01       		.byte	0x1
 4128 0c33 F3       		.byte	0xf3
 4129 0c34 94000000 		.4byte	0x94
 4130 0c38 03       		.byte	0x3
 4131 0c39 1F       		.uleb128 0x1f
 4132 0c3a AE010000 		.4byte	.LASF115
 4133 0c3e 01       		.byte	0x1
ARM GAS  C:\Users\leoja\AppData\Local\Temp\ccByxJuZ.s 			page 91


 4134 0c3f FC       		.byte	0xfc
 4135 0c40 A8030000 		.4byte	0x3a8
 4136 0c44 6A030000 		.4byte	.LLST20
 4137 0c48 24       		.uleb128 0x24
 4138 0c49 08000000 		.4byte	.LASF116
 4139 0c4d 01       		.byte	0x1
 4140 0c4e 1301     		.2byte	0x113
 4141 0c50 850B0000 		.4byte	0xb85
 4142 0c54 02       		.uleb128 0x2
 4143 0c55 91       		.byte	0x91
 4144 0c56 64       		.sleb128 -28
 4145 0c57 22       		.uleb128 0x22
 4146 0c58 4C000000 		.4byte	.LVL65
 4147 0c5c 9E190000 		.4byte	0x199e
 4148 0c60 19       		.uleb128 0x19
 4149 0c61 86000000 		.4byte	.LVL67
 4150 0c65 64190000 		.4byte	0x1964
 4151 0c69 8E0C0000 		.4byte	0xc8e
 4152 0c6d 1A       		.uleb128 0x1a
 4153 0c6e 01       		.uleb128 0x1
 4154 0c6f 50       		.byte	0x50
 4155 0c70 02       		.uleb128 0x2
 4156 0c71 75       		.byte	0x75
 4157 0c72 00       		.sleb128 0
 4158 0c73 1A       		.uleb128 0x1a
 4159 0c74 01       		.uleb128 0x1
 4160 0c75 51       		.byte	0x51
 4161 0c76 02       		.uleb128 0x2
 4162 0c77 76       		.byte	0x76
 4163 0c78 00       		.sleb128 0
 4164 0c79 1A       		.uleb128 0x1a
 4165 0c7a 01       		.uleb128 0x1
 4166 0c7b 52       		.byte	0x52
 4167 0c7c 02       		.uleb128 0x2
 4168 0c7d 77       		.byte	0x77
 4169 0c7e 00       		.sleb128 0
 4170 0c7f 1A       		.uleb128 0x1a
 4171 0c80 01       		.uleb128 0x1
 4172 0c81 53       		.byte	0x53
 4173 0c82 04       		.uleb128 0x4
 4174 0c83 91       		.byte	0x91
 4175 0c84 54       		.sleb128 -44
 4176 0c85 94       		.byte	0x94
 4177 0c86 02       		.byte	0x2
 4178 0c87 1A       		.uleb128 0x1a
 4179 0c88 02       		.uleb128 0x2
 4180 0c89 7D       		.byte	0x7d
 4181 0c8a 00       		.sleb128 0
 4182 0c8b 01       		.uleb128 0x1
 4183 0c8c 30       		.byte	0x30
 4184 0c8d 00       		.byte	0
 4185 0c8e 19       		.uleb128 0x19
 4186 0c8f 94000000 		.4byte	.LVL68
 4187 0c93 64190000 		.4byte	0x1964
 4188 0c97 BD0C0000 		.4byte	0xcbd
 4189 0c9b 1A       		.uleb128 0x1a
 4190 0c9c 01       		.uleb128 0x1
ARM GAS  C:\Users\leoja\AppData\Local\Temp\ccByxJuZ.s 			page 92


 4191 0c9d 50       		.byte	0x50
 4192 0c9e 02       		.uleb128 0x2
 4193 0c9f 75       		.byte	0x75
 4194 0ca0 00       		.sleb128 0
 4195 0ca1 1A       		.uleb128 0x1a
 4196 0ca2 01       		.uleb128 0x1
 4197 0ca3 51       		.byte	0x51
 4198 0ca4 02       		.uleb128 0x2
 4199 0ca5 76       		.byte	0x76
 4200 0ca6 00       		.sleb128 0
 4201 0ca7 1A       		.uleb128 0x1a
 4202 0ca8 01       		.uleb128 0x1
 4203 0ca9 52       		.byte	0x52
 4204 0caa 02       		.uleb128 0x2
 4205 0cab 77       		.byte	0x77
 4206 0cac 00       		.sleb128 0
 4207 0cad 1A       		.uleb128 0x1a
 4208 0cae 01       		.uleb128 0x1
 4209 0caf 53       		.byte	0x53
 4210 0cb0 04       		.uleb128 0x4
 4211 0cb1 91       		.byte	0x91
 4212 0cb2 54       		.sleb128 -44
 4213 0cb3 94       		.byte	0x94
 4214 0cb4 02       		.byte	0x2
 4215 0cb5 1A       		.uleb128 0x1a
 4216 0cb6 02       		.uleb128 0x2
 4217 0cb7 7D       		.byte	0x7d
 4218 0cb8 00       		.sleb128 0
 4219 0cb9 02       		.uleb128 0x2
 4220 0cba 74       		.byte	0x74
 4221 0cbb 00       		.sleb128 0
 4222 0cbc 00       		.byte	0
 4223 0cbd 19       		.uleb128 0x19
 4224 0cbe C8000000 		.4byte	.LVL71
 4225 0cc2 64190000 		.4byte	0x1964
 4226 0cc6 F20C0000 		.4byte	0xcf2
 4227 0cca 1A       		.uleb128 0x1a
 4228 0ccb 01       		.uleb128 0x1
 4229 0ccc 50       		.byte	0x50
 4230 0ccd 04       		.uleb128 0x4
 4231 0cce 7D       		.byte	0x7d
 4232 0ccf 0C       		.sleb128 12
 4233 0cd0 94       		.byte	0x94
 4234 0cd1 02       		.byte	0x2
 4235 0cd2 1A       		.uleb128 0x1a
 4236 0cd3 01       		.uleb128 0x1
 4237 0cd4 51       		.byte	0x51
 4238 0cd5 04       		.uleb128 0x4
 4239 0cd6 7D       		.byte	0x7d
 4240 0cd7 10       		.sleb128 16
 4241 0cd8 94       		.byte	0x94
 4242 0cd9 02       		.byte	0x2
 4243 0cda 1A       		.uleb128 0x1a
 4244 0cdb 01       		.uleb128 0x1
 4245 0cdc 52       		.byte	0x52
 4246 0cdd 04       		.uleb128 0x4
 4247 0cde 7D       		.byte	0x7d
ARM GAS  C:\Users\leoja\AppData\Local\Temp\ccByxJuZ.s 			page 93


 4248 0cdf 14       		.sleb128 20
 4249 0ce0 94       		.byte	0x94
 4250 0ce1 02       		.byte	0x2
 4251 0ce2 1A       		.uleb128 0x1a
 4252 0ce3 01       		.uleb128 0x1
 4253 0ce4 53       		.byte	0x53
 4254 0ce5 04       		.uleb128 0x4
 4255 0ce6 7D       		.byte	0x7d
 4256 0ce7 18       		.sleb128 24
 4257 0ce8 94       		.byte	0x94
 4258 0ce9 02       		.byte	0x2
 4259 0cea 1A       		.uleb128 0x1a
 4260 0ceb 02       		.uleb128 0x2
 4261 0cec 7D       		.byte	0x7d
 4262 0ced 00       		.sleb128 0
 4263 0cee 02       		.uleb128 0x2
 4264 0cef 74       		.byte	0x74
 4265 0cf0 00       		.sleb128 0
 4266 0cf1 00       		.byte	0
 4267 0cf2 19       		.uleb128 0x19
 4268 0cf3 D4000000 		.4byte	.LVL72
 4269 0cf7 87190000 		.4byte	0x1987
 4270 0cfb 160D0000 		.4byte	0xd16
 4271 0cff 1A       		.uleb128 0x1a
 4272 0d00 01       		.uleb128 0x1
 4273 0d01 50       		.byte	0x50
 4274 0d02 02       		.uleb128 0x2
 4275 0d03 91       		.byte	0x91
 4276 0d04 64       		.sleb128 -28
 4277 0d05 1A       		.uleb128 0x1a
 4278 0d06 01       		.uleb128 0x1
 4279 0d07 51       		.byte	0x51
 4280 0d08 05       		.uleb128 0x5
 4281 0d09 03       		.byte	0x3
 4282 0d0a 60000000 		.4byte	.LC31
 4283 0d0e 1A       		.uleb128 0x1a
 4284 0d0f 01       		.uleb128 0x1
 4285 0d10 52       		.byte	0x52
 4286 0d11 03       		.uleb128 0x3
 4287 0d12 91       		.byte	0x91
 4288 0d13 40       		.sleb128 -64
 4289 0d14 06       		.byte	0x6
 4290 0d15 00       		.byte	0
 4291 0d16 19       		.uleb128 0x19
 4292 0d17 EA000000 		.4byte	.LVL73
 4293 0d1b 92190000 		.4byte	0x1992
 4294 0d1f 460D0000 		.4byte	0xd46
 4295 0d23 1A       		.uleb128 0x1a
 4296 0d24 01       		.uleb128 0x1
 4297 0d25 50       		.byte	0x50
 4298 0d26 04       		.uleb128 0x4
 4299 0d27 7D       		.byte	0x7d
 4300 0d28 20       		.sleb128 32
 4301 0d29 94       		.byte	0x94
 4302 0d2a 02       		.byte	0x2
 4303 0d2b 1A       		.uleb128 0x1a
 4304 0d2c 01       		.uleb128 0x1
ARM GAS  C:\Users\leoja\AppData\Local\Temp\ccByxJuZ.s 			page 94


 4305 0d2d 51       		.byte	0x51
 4306 0d2e 04       		.uleb128 0x4
 4307 0d2f 7D       		.byte	0x7d
 4308 0d30 24       		.sleb128 36
 4309 0d31 94       		.byte	0x94
 4310 0d32 02       		.byte	0x2
 4311 0d33 1A       		.uleb128 0x1a
 4312 0d34 01       		.uleb128 0x1
 4313 0d35 52       		.byte	0x52
 4314 0d36 02       		.uleb128 0x2
 4315 0d37 91       		.byte	0x91
 4316 0d38 64       		.sleb128 -28
 4317 0d39 1A       		.uleb128 0x1a
 4318 0d3a 01       		.uleb128 0x1
 4319 0d3b 53       		.byte	0x53
 4320 0d3c 01       		.uleb128 0x1
 4321 0d3d 30       		.byte	0x30
 4322 0d3e 1A       		.uleb128 0x1a
 4323 0d3f 02       		.uleb128 0x2
 4324 0d40 7D       		.byte	0x7d
 4325 0d41 00       		.sleb128 0
 4326 0d42 02       		.uleb128 0x2
 4327 0d43 74       		.byte	0x74
 4328 0d44 00       		.sleb128 0
 4329 0d45 00       		.byte	0
 4330 0d46 22       		.uleb128 0x22
 4331 0d47 F0000000 		.4byte	.LVL74
 4332 0d4b 9E190000 		.4byte	0x199e
 4333 0d4f 00       		.byte	0
 4334 0d50 25       		.uleb128 0x25
 4335 0d51 64020000 		.4byte	.LASF119
 4336 0d55 01       		.byte	0x1
 4337 0d56 8E01     		.2byte	0x18e
 4338 0d58 00000000 		.4byte	.LFB40
 4339 0d5c B8020000 		.4byte	.LFE40-.LFB40
 4340 0d60 01       		.uleb128 0x1
 4341 0d61 9C       		.byte	0x9c
 4342 0d62 E50F0000 		.4byte	0xfe5
 4343 0d66 26       		.uleb128 0x26
 4344 0d67 1C060000 		.4byte	.LASF59
 4345 0d6b 01       		.byte	0x1
 4346 0d6c 8E01     		.2byte	0x18e
 4347 0d6e AD000000 		.4byte	0xad
 4348 0d72 8C030000 		.4byte	.LLST21
 4349 0d76 27       		.uleb128 0x27
 4350 0d77 783100   		.ascii	"x1\000"
 4351 0d7a 01       		.byte	0x1
 4352 0d7b 8E01     		.2byte	0x18e
 4353 0d7d C3000000 		.4byte	0xc3
 4354 0d81 AD030000 		.4byte	.LLST22
 4355 0d85 27       		.uleb128 0x27
 4356 0d86 793100   		.ascii	"y1\000"
 4357 0d89 01       		.byte	0x1
 4358 0d8a 8E01     		.2byte	0x18e
 4359 0d8c C3000000 		.4byte	0xc3
 4360 0d90 CE030000 		.4byte	.LLST23
 4361 0d94 27       		.uleb128 0x27
ARM GAS  C:\Users\leoja\AppData\Local\Temp\ccByxJuZ.s 			page 95


 4362 0d95 783200   		.ascii	"x2\000"
 4363 0d98 01       		.byte	0x1
 4364 0d99 8E01     		.2byte	0x18e
 4365 0d9b C3000000 		.4byte	0xc3
 4366 0d9f EF030000 		.4byte	.LLST24
 4367 0da3 27       		.uleb128 0x27
 4368 0da4 793200   		.ascii	"y2\000"
 4369 0da7 01       		.byte	0x1
 4370 0da8 8E01     		.2byte	0x18e
 4371 0daa C3000000 		.4byte	0xc3
 4372 0dae 10040000 		.4byte	.LLST25
 4373 0db2 26       		.uleb128 0x26
 4374 0db3 62030000 		.4byte	.LASF110
 4375 0db7 01       		.byte	0x1
 4376 0db8 8E01     		.2byte	0x18e
 4377 0dba AD000000 		.4byte	0xad
 4378 0dbe 3C040000 		.4byte	.LLST26
 4379 0dc2 28       		.uleb128 0x28
 4380 0dc3 BB040000 		.4byte	.LASF112
 4381 0dc7 01       		.byte	0x1
 4382 0dc8 8F01     		.2byte	0x18f
 4383 0dca 94000000 		.4byte	0x94
 4384 0dce 74040000 		.4byte	.LLST27
 4385 0dd2 28       		.uleb128 0x28
 4386 0dd3 BE020000 		.4byte	.LASF113
 4387 0dd7 01       		.byte	0x1
 4388 0dd8 8F01     		.2byte	0x18f
 4389 0dda 94000000 		.4byte	0x94
 4390 0dde 93040000 		.4byte	.LLST28
 4391 0de2 28       		.uleb128 0x28
 4392 0de3 14050000 		.4byte	.LASF114
 4393 0de7 01       		.byte	0x1
 4394 0de8 9001     		.2byte	0x190
 4395 0dea 94000000 		.4byte	0x94
 4396 0dee B2040000 		.4byte	.LLST29
 4397 0df2 29       		.uleb128 0x29
 4398 0df3 36060000 		.4byte	.LASF111
 4399 0df7 01       		.byte	0x1
 4400 0df8 9101     		.2byte	0x191
 4401 0dfa 94000000 		.4byte	0x94
 4402 0dfe 0A       		.byte	0xa
 4403 0dff 28       		.uleb128 0x28
 4404 0e00 AE010000 		.4byte	.LASF115
 4405 0e04 01       		.byte	0x1
 4406 0e05 9901     		.2byte	0x199
 4407 0e07 A8030000 		.4byte	0x3a8
 4408 0e0b FD040000 		.4byte	.LLST30
 4409 0e0f 20       		.uleb128 0x20
 4410 0e10 50000000 		.4byte	.LBB3
 4411 0e14 BE010000 		.4byte	.LBE3-.LBB3
 4412 0e18 910F0000 		.4byte	0xf91
 4413 0e1c 28       		.uleb128 0x28
 4414 0e1d CC060000 		.4byte	.LASF120
 4415 0e21 01       		.byte	0x1
 4416 0e22 9D01     		.2byte	0x19d
 4417 0e24 D9000000 		.4byte	0xd9
 4418 0e28 51050000 		.4byte	.LLST31
ARM GAS  C:\Users\leoja\AppData\Local\Temp\ccByxJuZ.s 			page 96


 4419 0e2c 19       		.uleb128 0x19
 4420 0e2d 9A000000 		.4byte	.LVL92
 4421 0e31 64190000 		.4byte	0x1964
 4422 0e35 590E0000 		.4byte	0xe59
 4423 0e39 1A       		.uleb128 0x1a
 4424 0e3a 01       		.uleb128 0x1
 4425 0e3b 50       		.byte	0x50
 4426 0e3c 04       		.uleb128 0x4
 4427 0e3d 7D       		.byte	0x7d
 4428 0e3e 0C       		.sleb128 12
 4429 0e3f 94       		.byte	0x94
 4430 0e40 02       		.byte	0x2
 4431 0e41 1A       		.uleb128 0x1a
 4432 0e42 01       		.uleb128 0x1
 4433 0e43 51       		.byte	0x51
 4434 0e44 04       		.uleb128 0x4
 4435 0e45 7D       		.byte	0x7d
 4436 0e46 10       		.sleb128 16
 4437 0e47 94       		.byte	0x94
 4438 0e48 02       		.byte	0x2
 4439 0e49 1A       		.uleb128 0x1a
 4440 0e4a 01       		.uleb128 0x1
 4441 0e4b 52       		.byte	0x52
 4442 0e4c 04       		.uleb128 0x4
 4443 0e4d 7D       		.byte	0x7d
 4444 0e4e 14       		.sleb128 20
 4445 0e4f 94       		.byte	0x94
 4446 0e50 02       		.byte	0x2
 4447 0e51 1A       		.uleb128 0x1a
 4448 0e52 02       		.uleb128 0x2
 4449 0e53 7D       		.byte	0x7d
 4450 0e54 00       		.sleb128 0
 4451 0e55 02       		.uleb128 0x2
 4452 0e56 74       		.byte	0x74
 4453 0e57 00       		.sleb128 0
 4454 0e58 00       		.byte	0
 4455 0e59 19       		.uleb128 0x19
 4456 0e5a CC000000 		.4byte	.LVL94
 4457 0e5e 64190000 		.4byte	0x1964
 4458 0e62 860E0000 		.4byte	0xe86
 4459 0e66 1A       		.uleb128 0x1a
 4460 0e67 01       		.uleb128 0x1
 4461 0e68 50       		.byte	0x50
 4462 0e69 04       		.uleb128 0x4
 4463 0e6a 7D       		.byte	0x7d
 4464 0e6b 0C       		.sleb128 12
 4465 0e6c 94       		.byte	0x94
 4466 0e6d 02       		.byte	0x2
 4467 0e6e 1A       		.uleb128 0x1a
 4468 0e6f 01       		.uleb128 0x1
 4469 0e70 51       		.byte	0x51
 4470 0e71 04       		.uleb128 0x4
 4471 0e72 7D       		.byte	0x7d
 4472 0e73 10       		.sleb128 16
 4473 0e74 94       		.byte	0x94
 4474 0e75 02       		.byte	0x2
 4475 0e76 1A       		.uleb128 0x1a
ARM GAS  C:\Users\leoja\AppData\Local\Temp\ccByxJuZ.s 			page 97


 4476 0e77 01       		.uleb128 0x1
 4477 0e78 52       		.byte	0x52
 4478 0e79 04       		.uleb128 0x4
 4479 0e7a 7D       		.byte	0x7d
 4480 0e7b 14       		.sleb128 20
 4481 0e7c 94       		.byte	0x94
 4482 0e7d 02       		.byte	0x2
 4483 0e7e 1A       		.uleb128 0x1a
 4484 0e7f 02       		.uleb128 0x2
 4485 0e80 7D       		.byte	0x7d
 4486 0e81 00       		.sleb128 0
 4487 0e82 02       		.uleb128 0x2
 4488 0e83 74       		.byte	0x74
 4489 0e84 00       		.sleb128 0
 4490 0e85 00       		.byte	0
 4491 0e86 19       		.uleb128 0x19
 4492 0e87 00010000 		.4byte	.LVL96
 4493 0e8b 64190000 		.4byte	0x1964
 4494 0e8f B30E0000 		.4byte	0xeb3
 4495 0e93 1A       		.uleb128 0x1a
 4496 0e94 01       		.uleb128 0x1
 4497 0e95 50       		.byte	0x50
 4498 0e96 04       		.uleb128 0x4
 4499 0e97 7D       		.byte	0x7d
 4500 0e98 0C       		.sleb128 12
 4501 0e99 94       		.byte	0x94
 4502 0e9a 02       		.byte	0x2
 4503 0e9b 1A       		.uleb128 0x1a
 4504 0e9c 01       		.uleb128 0x1
 4505 0e9d 51       		.byte	0x51
 4506 0e9e 04       		.uleb128 0x4
 4507 0e9f 7D       		.byte	0x7d
 4508 0ea0 10       		.sleb128 16
 4509 0ea1 94       		.byte	0x94
 4510 0ea2 02       		.byte	0x2
 4511 0ea3 1A       		.uleb128 0x1a
 4512 0ea4 01       		.uleb128 0x1
 4513 0ea5 52       		.byte	0x52
 4514 0ea6 04       		.uleb128 0x4
 4515 0ea7 7D       		.byte	0x7d
 4516 0ea8 14       		.sleb128 20
 4517 0ea9 94       		.byte	0x94
 4518 0eaa 02       		.byte	0x2
 4519 0eab 1A       		.uleb128 0x1a
 4520 0eac 02       		.uleb128 0x2
 4521 0ead 7D       		.byte	0x7d
 4522 0eae 00       		.sleb128 0
 4523 0eaf 02       		.uleb128 0x2
 4524 0eb0 74       		.byte	0x74
 4525 0eb1 00       		.sleb128 0
 4526 0eb2 00       		.byte	0
 4527 0eb3 19       		.uleb128 0x19
 4528 0eb4 34010000 		.4byte	.LVL98
 4529 0eb8 64190000 		.4byte	0x1964
 4530 0ebc E00E0000 		.4byte	0xee0
 4531 0ec0 1A       		.uleb128 0x1a
 4532 0ec1 01       		.uleb128 0x1
ARM GAS  C:\Users\leoja\AppData\Local\Temp\ccByxJuZ.s 			page 98


 4533 0ec2 50       		.byte	0x50
 4534 0ec3 04       		.uleb128 0x4
 4535 0ec4 7D       		.byte	0x7d
 4536 0ec5 0C       		.sleb128 12
 4537 0ec6 94       		.byte	0x94
 4538 0ec7 02       		.byte	0x2
 4539 0ec8 1A       		.uleb128 0x1a
 4540 0ec9 01       		.uleb128 0x1
 4541 0eca 51       		.byte	0x51
 4542 0ecb 04       		.uleb128 0x4
 4543 0ecc 7D       		.byte	0x7d
 4544 0ecd 10       		.sleb128 16
 4545 0ece 94       		.byte	0x94
 4546 0ecf 02       		.byte	0x2
 4547 0ed0 1A       		.uleb128 0x1a
 4548 0ed1 01       		.uleb128 0x1
 4549 0ed2 52       		.byte	0x52
 4550 0ed3 04       		.uleb128 0x4
 4551 0ed4 7D       		.byte	0x7d
 4552 0ed5 14       		.sleb128 20
 4553 0ed6 94       		.byte	0x94
 4554 0ed7 02       		.byte	0x2
 4555 0ed8 1A       		.uleb128 0x1a
 4556 0ed9 02       		.uleb128 0x2
 4557 0eda 7D       		.byte	0x7d
 4558 0edb 00       		.sleb128 0
 4559 0edc 02       		.uleb128 0x2
 4560 0edd 74       		.byte	0x74
 4561 0ede 00       		.sleb128 0
 4562 0edf 00       		.byte	0
 4563 0ee0 19       		.uleb128 0x19
 4564 0ee1 68010000 		.4byte	.LVL100
 4565 0ee5 64190000 		.4byte	0x1964
 4566 0ee9 0D0F0000 		.4byte	0xf0d
 4567 0eed 1A       		.uleb128 0x1a
 4568 0eee 01       		.uleb128 0x1
 4569 0eef 50       		.byte	0x50
 4570 0ef0 04       		.uleb128 0x4
 4571 0ef1 7D       		.byte	0x7d
 4572 0ef2 0C       		.sleb128 12
 4573 0ef3 94       		.byte	0x94
 4574 0ef4 02       		.byte	0x2
 4575 0ef5 1A       		.uleb128 0x1a
 4576 0ef6 01       		.uleb128 0x1
 4577 0ef7 51       		.byte	0x51
 4578 0ef8 04       		.uleb128 0x4
 4579 0ef9 7D       		.byte	0x7d
 4580 0efa 10       		.sleb128 16
 4581 0efb 94       		.byte	0x94
 4582 0efc 02       		.byte	0x2
 4583 0efd 1A       		.uleb128 0x1a
 4584 0efe 01       		.uleb128 0x1
 4585 0eff 52       		.byte	0x52
 4586 0f00 04       		.uleb128 0x4
 4587 0f01 7D       		.byte	0x7d
 4588 0f02 14       		.sleb128 20
 4589 0f03 94       		.byte	0x94
ARM GAS  C:\Users\leoja\AppData\Local\Temp\ccByxJuZ.s 			page 99


 4590 0f04 02       		.byte	0x2
 4591 0f05 1A       		.uleb128 0x1a
 4592 0f06 02       		.uleb128 0x2
 4593 0f07 7D       		.byte	0x7d
 4594 0f08 00       		.sleb128 0
 4595 0f09 02       		.uleb128 0x2
 4596 0f0a 74       		.byte	0x74
 4597 0f0b 00       		.sleb128 0
 4598 0f0c 00       		.byte	0
 4599 0f0d 19       		.uleb128 0x19
 4600 0f0e 9C010000 		.4byte	.LVL102
 4601 0f12 64190000 		.4byte	0x1964
 4602 0f16 3A0F0000 		.4byte	0xf3a
 4603 0f1a 1A       		.uleb128 0x1a
 4604 0f1b 01       		.uleb128 0x1
 4605 0f1c 50       		.byte	0x50
 4606 0f1d 04       		.uleb128 0x4
 4607 0f1e 7D       		.byte	0x7d
 4608 0f1f 0C       		.sleb128 12
 4609 0f20 94       		.byte	0x94
 4610 0f21 02       		.byte	0x2
 4611 0f22 1A       		.uleb128 0x1a
 4612 0f23 01       		.uleb128 0x1
 4613 0f24 51       		.byte	0x51
 4614 0f25 04       		.uleb128 0x4
 4615 0f26 7D       		.byte	0x7d
 4616 0f27 10       		.sleb128 16
 4617 0f28 94       		.byte	0x94
 4618 0f29 02       		.byte	0x2
 4619 0f2a 1A       		.uleb128 0x1a
 4620 0f2b 01       		.uleb128 0x1
 4621 0f2c 52       		.byte	0x52
 4622 0f2d 04       		.uleb128 0x4
 4623 0f2e 7D       		.byte	0x7d
 4624 0f2f 14       		.sleb128 20
 4625 0f30 94       		.byte	0x94
 4626 0f31 02       		.byte	0x2
 4627 0f32 1A       		.uleb128 0x1a
 4628 0f33 02       		.uleb128 0x2
 4629 0f34 7D       		.byte	0x7d
 4630 0f35 00       		.sleb128 0
 4631 0f36 02       		.uleb128 0x2
 4632 0f37 74       		.byte	0x74
 4633 0f38 00       		.sleb128 0
 4634 0f39 00       		.byte	0
 4635 0f3a 19       		.uleb128 0x19
 4636 0f3b CC010000 		.4byte	.LVL104
 4637 0f3f 64190000 		.4byte	0x1964
 4638 0f43 670F0000 		.4byte	0xf67
 4639 0f47 1A       		.uleb128 0x1a
 4640 0f48 01       		.uleb128 0x1
 4641 0f49 50       		.byte	0x50
 4642 0f4a 04       		.uleb128 0x4
 4643 0f4b 7D       		.byte	0x7d
 4644 0f4c 0C       		.sleb128 12
 4645 0f4d 94       		.byte	0x94
 4646 0f4e 02       		.byte	0x2
ARM GAS  C:\Users\leoja\AppData\Local\Temp\ccByxJuZ.s 			page 100


 4647 0f4f 1A       		.uleb128 0x1a
 4648 0f50 01       		.uleb128 0x1
 4649 0f51 51       		.byte	0x51
 4650 0f52 04       		.uleb128 0x4
 4651 0f53 7D       		.byte	0x7d
 4652 0f54 10       		.sleb128 16
 4653 0f55 94       		.byte	0x94
 4654 0f56 02       		.byte	0x2
 4655 0f57 1A       		.uleb128 0x1a
 4656 0f58 01       		.uleb128 0x1
 4657 0f59 52       		.byte	0x52
 4658 0f5a 04       		.uleb128 0x4
 4659 0f5b 7D       		.byte	0x7d
 4660 0f5c 14       		.sleb128 20
 4661 0f5d 94       		.byte	0x94
 4662 0f5e 02       		.byte	0x2
 4663 0f5f 1A       		.uleb128 0x1a
 4664 0f60 02       		.uleb128 0x2
 4665 0f61 7D       		.byte	0x7d
 4666 0f62 00       		.sleb128 0
 4667 0f63 02       		.uleb128 0x2
 4668 0f64 74       		.byte	0x74
 4669 0f65 00       		.sleb128 0
 4670 0f66 00       		.byte	0
 4671 0f67 1B       		.uleb128 0x1b
 4672 0f68 FE010000 		.4byte	.LVL106
 4673 0f6c 64190000 		.4byte	0x1964
 4674 0f70 1A       		.uleb128 0x1a
 4675 0f71 01       		.uleb128 0x1
 4676 0f72 50       		.byte	0x50
 4677 0f73 04       		.uleb128 0x4
 4678 0f74 7D       		.byte	0x7d
 4679 0f75 0C       		.sleb128 12
 4680 0f76 94       		.byte	0x94
 4681 0f77 02       		.byte	0x2
 4682 0f78 1A       		.uleb128 0x1a
 4683 0f79 01       		.uleb128 0x1
 4684 0f7a 51       		.byte	0x51
 4685 0f7b 04       		.uleb128 0x4
 4686 0f7c 7D       		.byte	0x7d
 4687 0f7d 10       		.sleb128 16
 4688 0f7e 94       		.byte	0x94
 4689 0f7f 02       		.byte	0x2
 4690 0f80 1A       		.uleb128 0x1a
 4691 0f81 01       		.uleb128 0x1
 4692 0f82 52       		.byte	0x52
 4693 0f83 04       		.uleb128 0x4
 4694 0f84 7D       		.byte	0x7d
 4695 0f85 14       		.sleb128 20
 4696 0f86 94       		.byte	0x94
 4697 0f87 02       		.byte	0x2
 4698 0f88 1A       		.uleb128 0x1a
 4699 0f89 02       		.uleb128 0x2
 4700 0f8a 7D       		.byte	0x7d
 4701 0f8b 00       		.sleb128 0
 4702 0f8c 02       		.uleb128 0x2
 4703 0f8d 74       		.byte	0x74
ARM GAS  C:\Users\leoja\AppData\Local\Temp\ccByxJuZ.s 			page 101


 4704 0f8e 00       		.sleb128 0
 4705 0f8f 00       		.byte	0
 4706 0f90 00       		.byte	0
 4707 0f91 22       		.uleb128 0x22
 4708 0f92 48000000 		.4byte	.LVL88
 4709 0f96 9E190000 		.4byte	0x199e
 4710 0f9a 19       		.uleb128 0x19
 4711 0f9b 34020000 		.4byte	.LVL109
 4712 0f9f 64190000 		.4byte	0x1964
 4713 0fa3 C70F0000 		.4byte	0xfc7
 4714 0fa7 1A       		.uleb128 0x1a
 4715 0fa8 01       		.uleb128 0x1
 4716 0fa9 50       		.byte	0x50
 4717 0faa 04       		.uleb128 0x4
 4718 0fab 7D       		.byte	0x7d
 4719 0fac 0C       		.sleb128 12
 4720 0fad 94       		.byte	0x94
 4721 0fae 02       		.byte	0x2
 4722 0faf 1A       		.uleb128 0x1a
 4723 0fb0 01       		.uleb128 0x1
 4724 0fb1 51       		.byte	0x51
 4725 0fb2 04       		.uleb128 0x4
 4726 0fb3 7D       		.byte	0x7d
 4727 0fb4 10       		.sleb128 16
 4728 0fb5 94       		.byte	0x94
 4729 0fb6 02       		.byte	0x2
 4730 0fb7 1A       		.uleb128 0x1a
 4731 0fb8 01       		.uleb128 0x1
 4732 0fb9 52       		.byte	0x52
 4733 0fba 04       		.uleb128 0x4
 4734 0fbb 7D       		.byte	0x7d
 4735 0fbc 14       		.sleb128 20
 4736 0fbd 94       		.byte	0x94
 4737 0fbe 02       		.byte	0x2
 4738 0fbf 1A       		.uleb128 0x1a
 4739 0fc0 02       		.uleb128 0x2
 4740 0fc1 7D       		.byte	0x7d
 4741 0fc2 00       		.sleb128 0
 4742 0fc3 02       		.uleb128 0x2
 4743 0fc4 77       		.byte	0x77
 4744 0fc5 00       		.sleb128 0
 4745 0fc6 00       		.byte	0
 4746 0fc7 19       		.uleb128 0x19
 4747 0fc8 6C020000 		.4byte	.LVL111
 4748 0fcc 92190000 		.4byte	0x1992
 4749 0fd0 DB0F0000 		.4byte	0xfdb
 4750 0fd4 1A       		.uleb128 0x1a
 4751 0fd5 01       		.uleb128 0x1
 4752 0fd6 50       		.byte	0x50
 4753 0fd7 02       		.uleb128 0x2
 4754 0fd8 76       		.byte	0x76
 4755 0fd9 00       		.sleb128 0
 4756 0fda 00       		.byte	0
 4757 0fdb 22       		.uleb128 0x22
 4758 0fdc 72020000 		.4byte	.LVL112
 4759 0fe0 9E190000 		.4byte	0x199e
 4760 0fe4 00       		.byte	0
ARM GAS  C:\Users\leoja\AppData\Local\Temp\ccByxJuZ.s 			page 102


 4761 0fe5 2A       		.uleb128 0x2a
 4762 0fe6 4A020000 		.4byte	.LASF121
 4763 0fea 01       		.byte	0x1
 4764 0feb 3202     		.2byte	0x232
 4765 0fed 00000000 		.4byte	.LFB41
 4766 0ff1 24010000 		.4byte	.LFE41-.LFB41
 4767 0ff5 01       		.uleb128 0x1
 4768 0ff6 9C       		.byte	0x9c
 4769 0ff7 4C110000 		.4byte	0x114c
 4770 0ffb 26       		.uleb128 0x26
 4771 0ffc E1020000 		.4byte	.LASF66
 4772 1000 01       		.byte	0x1
 4773 1001 3202     		.2byte	0x232
 4774 1003 CE000000 		.4byte	0xce
 4775 1007 69050000 		.4byte	.LLST32
 4776 100b 27       		.uleb128 0x27
 4777 100c 783100   		.ascii	"x1\000"
 4778 100f 01       		.byte	0x1
 4779 1010 3202     		.2byte	0x232
 4780 1012 C3000000 		.4byte	0xc3
 4781 1016 D1050000 		.4byte	.LLST33
 4782 101a 27       		.uleb128 0x27
 4783 101b 793100   		.ascii	"y1\000"
 4784 101e 01       		.byte	0x1
 4785 101f 3202     		.2byte	0x232
 4786 1021 C3000000 		.4byte	0xc3
 4787 1025 F2050000 		.4byte	.LLST34
 4788 1029 27       		.uleb128 0x27
 4789 102a 783200   		.ascii	"x2\000"
 4790 102d 01       		.byte	0x1
 4791 102e 3202     		.2byte	0x232
 4792 1030 C3000000 		.4byte	0xc3
 4793 1034 13060000 		.4byte	.LLST35
 4794 1038 27       		.uleb128 0x27
 4795 1039 793200   		.ascii	"y2\000"
 4796 103c 01       		.byte	0x1
 4797 103d 3202     		.2byte	0x232
 4798 103f C3000000 		.4byte	0xc3
 4799 1043 34060000 		.4byte	.LLST36
 4800 1047 26       		.uleb128 0x26
 4801 1048 62030000 		.4byte	.LASF110
 4802 104c 01       		.byte	0x1
 4803 104d 3202     		.2byte	0x232
 4804 104f AD000000 		.4byte	0xad
 4805 1053 60060000 		.4byte	.LLST37
 4806 1057 28       		.uleb128 0x28
 4807 1058 BB040000 		.4byte	.LASF112
 4808 105c 01       		.byte	0x1
 4809 105d 3302     		.2byte	0x233
 4810 105f 94000000 		.4byte	0x94
 4811 1063 A4060000 		.4byte	.LLST38
 4812 1067 28       		.uleb128 0x28
 4813 1068 BE020000 		.4byte	.LASF113
 4814 106c 01       		.byte	0x1
 4815 106d 3302     		.2byte	0x233
 4816 106f 94000000 		.4byte	0x94
 4817 1073 C3060000 		.4byte	.LLST39
ARM GAS  C:\Users\leoja\AppData\Local\Temp\ccByxJuZ.s 			page 103


 4818 1077 28       		.uleb128 0x28
 4819 1078 14050000 		.4byte	.LASF114
 4820 107c 01       		.byte	0x1
 4821 107d 3402     		.2byte	0x234
 4822 107f 94000000 		.4byte	0x94
 4823 1083 E2060000 		.4byte	.LLST40
 4824 1087 29       		.uleb128 0x29
 4825 1088 36060000 		.4byte	.LASF111
 4826 108c 01       		.byte	0x1
 4827 108d 3502     		.2byte	0x235
 4828 108f 94000000 		.4byte	0x94
 4829 1093 06       		.byte	0x6
 4830 1094 28       		.uleb128 0x28
 4831 1095 AE010000 		.4byte	.LASF115
 4832 1099 01       		.byte	0x1
 4833 109a 4302     		.2byte	0x243
 4834 109c A8030000 		.4byte	0x3a8
 4835 10a0 2D070000 		.4byte	.LLST41
 4836 10a4 24       		.uleb128 0x24
 4837 10a5 08000000 		.4byte	.LASF116
 4838 10a9 01       		.byte	0x1
 4839 10aa 5202     		.2byte	0x252
 4840 10ac 4C110000 		.4byte	0x114c
 4841 10b0 02       		.uleb128 0x2
 4842 10b1 91       		.byte	0x91
 4843 10b2 60       		.sleb128 -32
 4844 10b3 22       		.uleb128 0x22
 4845 10b4 4A000000 		.4byte	.LVL126
 4846 10b8 9E190000 		.4byte	0x199e
 4847 10bc 19       		.uleb128 0x19
 4848 10bd A0000000 		.4byte	.LVL133
 4849 10c1 64190000 		.4byte	0x1964
 4850 10c5 EF100000 		.4byte	0x10ef
 4851 10c9 1A       		.uleb128 0x1a
 4852 10ca 01       		.uleb128 0x1
 4853 10cb 50       		.byte	0x50
 4854 10cc 02       		.uleb128 0x2
 4855 10cd 76       		.byte	0x76
 4856 10ce 00       		.sleb128 0
 4857 10cf 1A       		.uleb128 0x1a
 4858 10d0 01       		.uleb128 0x1
 4859 10d1 51       		.byte	0x51
 4860 10d2 04       		.uleb128 0x4
 4861 10d3 7D       		.byte	0x7d
 4862 10d4 0C       		.sleb128 12
 4863 10d5 94       		.byte	0x94
 4864 10d6 02       		.byte	0x2
 4865 10d7 1A       		.uleb128 0x1a
 4866 10d8 01       		.uleb128 0x1
 4867 10d9 52       		.byte	0x52
 4868 10da 04       		.uleb128 0x4
 4869 10db 7D       		.byte	0x7d
 4870 10dc 10       		.sleb128 16
 4871 10dd 94       		.byte	0x94
 4872 10de 02       		.byte	0x2
 4873 10df 1A       		.uleb128 0x1a
 4874 10e0 01       		.uleb128 0x1
ARM GAS  C:\Users\leoja\AppData\Local\Temp\ccByxJuZ.s 			page 104


 4875 10e1 53       		.byte	0x53
 4876 10e2 04       		.uleb128 0x4
 4877 10e3 7D       		.byte	0x7d
 4878 10e4 14       		.sleb128 20
 4879 10e5 94       		.byte	0x94
 4880 10e6 02       		.byte	0x2
 4881 10e7 1A       		.uleb128 0x1a
 4882 10e8 02       		.uleb128 0x2
 4883 10e9 7D       		.byte	0x7d
 4884 10ea 00       		.sleb128 0
 4885 10eb 02       		.uleb128 0x2
 4886 10ec 74       		.byte	0x74
 4887 10ed 00       		.sleb128 0
 4888 10ee 00       		.byte	0
 4889 10ef 19       		.uleb128 0x19
 4890 10f0 AE000000 		.4byte	.LVL134
 4891 10f4 87190000 		.4byte	0x1987
 4892 10f8 12110000 		.4byte	0x1112
 4893 10fc 1A       		.uleb128 0x1a
 4894 10fd 01       		.uleb128 0x1
 4895 10fe 50       		.byte	0x50
 4896 10ff 02       		.uleb128 0x2
 4897 1100 76       		.byte	0x76
 4898 1101 00       		.sleb128 0
 4899 1102 1A       		.uleb128 0x1a
 4900 1103 01       		.uleb128 0x1
 4901 1104 51       		.byte	0x51
 4902 1105 05       		.uleb128 0x5
 4903 1106 03       		.byte	0x3
 4904 1107 E9000000 		.4byte	.LC63
 4905 110b 1A       		.uleb128 0x1a
 4906 110c 01       		.uleb128 0x1
 4907 110d 52       		.byte	0x52
 4908 110e 02       		.uleb128 0x2
 4909 110f 75       		.byte	0x75
 4910 1110 00       		.sleb128 0
 4911 1111 00       		.byte	0
 4912 1112 19       		.uleb128 0x19
 4913 1113 EC000000 		.4byte	.LVL135
 4914 1117 92190000 		.4byte	0x1992
 4915 111b 42110000 		.4byte	0x1142
 4916 111f 1A       		.uleb128 0x1a
 4917 1120 01       		.uleb128 0x1
 4918 1121 50       		.byte	0x50
 4919 1122 04       		.uleb128 0x4
 4920 1123 7D       		.byte	0x7d
 4921 1124 18       		.sleb128 24
 4922 1125 94       		.byte	0x94
 4923 1126 02       		.byte	0x2
 4924 1127 1A       		.uleb128 0x1a
 4925 1128 01       		.uleb128 0x1
 4926 1129 51       		.byte	0x51
 4927 112a 04       		.uleb128 0x4
 4928 112b 7D       		.byte	0x7d
 4929 112c 1C       		.sleb128 28
 4930 112d 94       		.byte	0x94
 4931 112e 02       		.byte	0x2
ARM GAS  C:\Users\leoja\AppData\Local\Temp\ccByxJuZ.s 			page 105


 4932 112f 1A       		.uleb128 0x1a
 4933 1130 01       		.uleb128 0x1
 4934 1131 52       		.byte	0x52
 4935 1132 02       		.uleb128 0x2
 4936 1133 76       		.byte	0x76
 4937 1134 00       		.sleb128 0
 4938 1135 1A       		.uleb128 0x1a
 4939 1136 01       		.uleb128 0x1
 4940 1137 53       		.byte	0x53
 4941 1138 01       		.uleb128 0x1
 4942 1139 30       		.byte	0x30
 4943 113a 1A       		.uleb128 0x1a
 4944 113b 02       		.uleb128 0x2
 4945 113c 7D       		.byte	0x7d
 4946 113d 00       		.sleb128 0
 4947 113e 02       		.uleb128 0x2
 4948 113f 74       		.byte	0x74
 4949 1140 00       		.sleb128 0
 4950 1141 00       		.byte	0
 4951 1142 22       		.uleb128 0x22
 4952 1143 F2000000 		.4byte	.LVL136
 4953 1147 9E190000 		.4byte	0x199e
 4954 114b 00       		.byte	0
 4955 114c 16       		.uleb128 0x16
 4956 114d F3000000 		.4byte	0xf3
 4957 1151 5C110000 		.4byte	0x115c
 4958 1155 17       		.uleb128 0x17
 4959 1156 01010000 		.4byte	0x101
 4960 115a 06       		.byte	0x6
 4961 115b 00       		.byte	0
 4962 115c 25       		.uleb128 0x25
 4963 115d E1060000 		.4byte	.LASF122
 4964 1161 01       		.byte	0x1
 4965 1162 9C02     		.2byte	0x29c
 4966 1164 00000000 		.4byte	.LFB44
 4967 1168 C0000000 		.4byte	.LFE44-.LFB44
 4968 116c 01       		.uleb128 0x1
 4969 116d 9C       		.byte	0x9c
 4970 116e DC120000 		.4byte	0x12dc
 4971 1172 26       		.uleb128 0x26
 4972 1173 E1020000 		.4byte	.LASF66
 4973 1177 01       		.byte	0x1
 4974 1178 9C02     		.2byte	0x29c
 4975 117a C3000000 		.4byte	0xc3
 4976 117e 40070000 		.4byte	.LLST42
 4977 1182 27       		.uleb128 0x27
 4978 1183 783100   		.ascii	"x1\000"
 4979 1186 01       		.byte	0x1
 4980 1187 9C02     		.2byte	0x29c
 4981 1189 C3000000 		.4byte	0xc3
 4982 118d 61070000 		.4byte	.LLST43
 4983 1191 27       		.uleb128 0x27
 4984 1192 793100   		.ascii	"y1\000"
 4985 1195 01       		.byte	0x1
 4986 1196 9C02     		.2byte	0x29c
 4987 1198 C3000000 		.4byte	0xc3
 4988 119c 82070000 		.4byte	.LLST44
ARM GAS  C:\Users\leoja\AppData\Local\Temp\ccByxJuZ.s 			page 106


 4989 11a0 27       		.uleb128 0x27
 4990 11a1 783200   		.ascii	"x2\000"
 4991 11a4 01       		.byte	0x1
 4992 11a5 9C02     		.2byte	0x29c
 4993 11a7 C3000000 		.4byte	0xc3
 4994 11ab A3070000 		.4byte	.LLST45
 4995 11af 27       		.uleb128 0x27
 4996 11b0 793200   		.ascii	"y2\000"
 4997 11b3 01       		.byte	0x1
 4998 11b4 9C02     		.2byte	0x29c
 4999 11b6 C3000000 		.4byte	0xc3
 5000 11ba C4070000 		.4byte	.LLST46
 5001 11be 26       		.uleb128 0x26
 5002 11bf 62030000 		.4byte	.LASF110
 5003 11c3 01       		.byte	0x1
 5004 11c4 9C02     		.2byte	0x29c
 5005 11c6 AD000000 		.4byte	0xad
 5006 11ca F0070000 		.4byte	.LLST47
 5007 11ce 28       		.uleb128 0x28
 5008 11cf BB040000 		.4byte	.LASF112
 5009 11d3 01       		.byte	0x1
 5010 11d4 9D02     		.2byte	0x29d
 5011 11d6 94000000 		.4byte	0x94
 5012 11da 28080000 		.4byte	.LLST48
 5013 11de 28       		.uleb128 0x28
 5014 11df BE020000 		.4byte	.LASF113
 5015 11e3 01       		.byte	0x1
 5016 11e4 9D02     		.2byte	0x29d
 5017 11e6 94000000 		.4byte	0x94
 5018 11ea 47080000 		.4byte	.LLST49
 5019 11ee 28       		.uleb128 0x28
 5020 11ef 14050000 		.4byte	.LASF114
 5021 11f3 01       		.byte	0x1
 5022 11f4 9E02     		.2byte	0x29e
 5023 11f6 94000000 		.4byte	0x94
 5024 11fa 66080000 		.4byte	.LLST50
 5025 11fe 28       		.uleb128 0x28
 5026 11ff 36060000 		.4byte	.LASF111
 5027 1203 01       		.byte	0x1
 5028 1204 9F02     		.2byte	0x29f
 5029 1206 94000000 		.4byte	0x94
 5030 120a A0080000 		.4byte	.LLST51
 5031 120e 2B       		.uleb128 0x2b
 5032 120f 00000000 		.4byte	.Ldebug_ranges0+0
 5033 1213 5C120000 		.4byte	0x125c
 5034 1217 24       		.uleb128 0x24
 5035 1218 08000000 		.4byte	.LASF116
 5036 121c 01       		.byte	0x1
 5037 121d AE02     		.2byte	0x2ae
 5038 121f DC120000 		.4byte	0x12dc
 5039 1223 02       		.uleb128 0x2
 5040 1224 91       		.byte	0x91
 5041 1225 60       		.sleb128 -32
 5042 1226 19       		.uleb128 0x19
 5043 1227 70000000 		.4byte	.LVL153
 5044 122b 64190000 		.4byte	0x1964
 5045 122f 3B120000 		.4byte	0x123b
ARM GAS  C:\Users\leoja\AppData\Local\Temp\ccByxJuZ.s 			page 107


 5046 1233 1A       		.uleb128 0x1a
 5047 1234 02       		.uleb128 0x2
 5048 1235 7D       		.byte	0x7d
 5049 1236 00       		.sleb128 0
 5050 1237 02       		.uleb128 0x2
 5051 1238 75       		.byte	0x75
 5052 1239 00       		.sleb128 0
 5053 123a 00       		.byte	0
 5054 123b 1B       		.uleb128 0x1b
 5055 123c 7A000000 		.4byte	.LVL154
 5056 1240 87190000 		.4byte	0x1987
 5057 1244 1A       		.uleb128 0x1a
 5058 1245 01       		.uleb128 0x1
 5059 1246 50       		.byte	0x50
 5060 1247 02       		.uleb128 0x2
 5061 1248 76       		.byte	0x76
 5062 1249 00       		.sleb128 0
 5063 124a 1A       		.uleb128 0x1a
 5064 124b 01       		.uleb128 0x1
 5065 124c 51       		.byte	0x51
 5066 124d 05       		.uleb128 0x5
 5067 124e 03       		.byte	0x3
 5068 124f 5D000000 		.4byte	.LC26
 5069 1253 1A       		.uleb128 0x1a
 5070 1254 01       		.uleb128 0x1
 5071 1255 52       		.byte	0x52
 5072 1256 03       		.uleb128 0x3
 5073 1257 91       		.byte	0x91
 5074 1258 54       		.sleb128 -44
 5075 1259 06       		.byte	0x6
 5076 125a 00       		.byte	0
 5077 125b 00       		.byte	0
 5078 125c 20       		.uleb128 0x20
 5079 125d 84000000 		.4byte	.LBB6
 5080 1261 24000000 		.4byte	.LBE6-.LBB6
 5081 1265 C9120000 		.4byte	0x12c9
 5082 1269 24       		.uleb128 0x24
 5083 126a 08000000 		.4byte	.LASF116
 5084 126e 01       		.byte	0x1
 5085 126f B602     		.2byte	0x2b6
 5086 1271 850B0000 		.4byte	0xb85
 5087 1275 02       		.uleb128 0x2
 5088 1276 91       		.byte	0x91
 5089 1277 60       		.sleb128 -32
 5090 1278 22       		.uleb128 0x22
 5091 1279 8A000000 		.4byte	.LVL155
 5092 127d 64190000 		.4byte	0x1964
 5093 1281 19       		.uleb128 0x19
 5094 1282 94000000 		.4byte	.LVL156
 5095 1286 87190000 		.4byte	0x1987
 5096 128a A5120000 		.4byte	0x12a5
 5097 128e 1A       		.uleb128 0x1a
 5098 128f 01       		.uleb128 0x1
 5099 1290 50       		.byte	0x50
 5100 1291 02       		.uleb128 0x2
 5101 1292 76       		.byte	0x76
 5102 1293 00       		.sleb128 0
ARM GAS  C:\Users\leoja\AppData\Local\Temp\ccByxJuZ.s 			page 108


 5103 1294 1A       		.uleb128 0x1a
 5104 1295 01       		.uleb128 0x1
 5105 1296 51       		.byte	0x51
 5106 1297 05       		.uleb128 0x5
 5107 1298 03       		.byte	0x3
 5108 1299 5D000000 		.4byte	.LC26
 5109 129d 1A       		.uleb128 0x1a
 5110 129e 01       		.uleb128 0x1
 5111 129f 52       		.byte	0x52
 5112 12a0 03       		.uleb128 0x3
 5113 12a1 91       		.byte	0x91
 5114 12a2 54       		.sleb128 -44
 5115 12a3 06       		.byte	0x6
 5116 12a4 00       		.byte	0
 5117 12a5 1B       		.uleb128 0x1b
 5118 12a6 A8000000 		.4byte	.LVL157
 5119 12aa 92190000 		.4byte	0x1992
 5120 12ae 1A       		.uleb128 0x1a
 5121 12af 01       		.uleb128 0x1
 5122 12b0 50       		.byte	0x50
 5123 12b1 02       		.uleb128 0x2
 5124 12b2 74       		.byte	0x74
 5125 12b3 00       		.sleb128 0
 5126 12b4 1A       		.uleb128 0x1a
 5127 12b5 01       		.uleb128 0x1
 5128 12b6 51       		.byte	0x51
 5129 12b7 02       		.uleb128 0x2
 5130 12b8 77       		.byte	0x77
 5131 12b9 00       		.sleb128 0
 5132 12ba 1A       		.uleb128 0x1a
 5133 12bb 01       		.uleb128 0x1
 5134 12bc 52       		.byte	0x52
 5135 12bd 02       		.uleb128 0x2
 5136 12be 76       		.byte	0x76
 5137 12bf 00       		.sleb128 0
 5138 12c0 1A       		.uleb128 0x1a
 5139 12c1 02       		.uleb128 0x2
 5140 12c2 7D       		.byte	0x7d
 5141 12c3 00       		.sleb128 0
 5142 12c4 02       		.uleb128 0x2
 5143 12c5 75       		.byte	0x75
 5144 12c6 00       		.sleb128 0
 5145 12c7 00       		.byte	0
 5146 12c8 00       		.byte	0
 5147 12c9 22       		.uleb128 0x22
 5148 12ca 4A000000 		.4byte	.LVL152
 5149 12ce 9E190000 		.4byte	0x199e
 5150 12d2 22       		.uleb128 0x22
 5151 12d3 AE000000 		.4byte	.LVL158
 5152 12d7 9E190000 		.4byte	0x199e
 5153 12db 00       		.byte	0
 5154 12dc 16       		.uleb128 0x16
 5155 12dd F3000000 		.4byte	0xf3
 5156 12e1 EC120000 		.4byte	0x12ec
 5157 12e5 17       		.uleb128 0x17
 5158 12e6 01010000 		.4byte	0x101
 5159 12ea 04       		.byte	0x4
ARM GAS  C:\Users\leoja\AppData\Local\Temp\ccByxJuZ.s 			page 109


 5160 12eb 00       		.byte	0
 5161 12ec 2C       		.uleb128 0x2c
 5162 12ed 90040000 		.4byte	.LASF147
 5163 12f1 01       		.byte	0x1
 5164 12f2 9602     		.2byte	0x296
 5165 12f4 01       		.byte	0x1
 5166 12f5 3E130000 		.4byte	0x133e
 5167 12f9 2D       		.uleb128 0x2d
 5168 12fa E1020000 		.4byte	.LASF66
 5169 12fe 01       		.byte	0x1
 5170 12ff 9602     		.2byte	0x296
 5171 1301 C3000000 		.4byte	0xc3
 5172 1305 2E       		.uleb128 0x2e
 5173 1306 783100   		.ascii	"x1\000"
 5174 1309 01       		.byte	0x1
 5175 130a 9602     		.2byte	0x296
 5176 130c C3000000 		.4byte	0xc3
 5177 1310 2E       		.uleb128 0x2e
 5178 1311 793100   		.ascii	"y1\000"
 5179 1314 01       		.byte	0x1
 5180 1315 9602     		.2byte	0x296
 5181 1317 C3000000 		.4byte	0xc3
 5182 131b 2E       		.uleb128 0x2e
 5183 131c 783200   		.ascii	"x2\000"
 5184 131f 01       		.byte	0x1
 5185 1320 9602     		.2byte	0x296
 5186 1322 C3000000 		.4byte	0xc3
 5187 1326 2E       		.uleb128 0x2e
 5188 1327 793200   		.ascii	"y2\000"
 5189 132a 01       		.byte	0x1
 5190 132b 9602     		.2byte	0x296
 5191 132d C3000000 		.4byte	0xc3
 5192 1331 2D       		.uleb128 0x2d
 5193 1332 62030000 		.4byte	.LASF110
 5194 1336 01       		.byte	0x1
 5195 1337 9602     		.2byte	0x296
 5196 1339 AD000000 		.4byte	0xad
 5197 133d 00       		.byte	0
 5198 133e 2F       		.uleb128 0x2f
 5199 133f EC120000 		.4byte	0x12ec
 5200 1343 00000000 		.4byte	.LFB43
 5201 1347 14000000 		.4byte	.LFE43-.LFB43
 5202 134b 01       		.uleb128 0x1
 5203 134c 9C       		.byte	0x9c
 5204 134d A0130000 		.4byte	0x13a0
 5205 1351 30       		.uleb128 0x30
 5206 1352 F9120000 		.4byte	0x12f9
 5207 1356 E8080000 		.4byte	.LLST52
 5208 135a 30       		.uleb128 0x30
 5209 135b 05130000 		.4byte	0x1305
 5210 135f 09090000 		.4byte	.LLST53
 5211 1363 30       		.uleb128 0x30
 5212 1364 10130000 		.4byte	0x1310
 5213 1368 2A090000 		.4byte	.LLST54
 5214 136c 30       		.uleb128 0x30
 5215 136d 1B130000 		.4byte	0x131b
 5216 1371 4B090000 		.4byte	.LLST55
ARM GAS  C:\Users\leoja\AppData\Local\Temp\ccByxJuZ.s 			page 110


 5217 1375 30       		.uleb128 0x30
 5218 1376 26130000 		.4byte	0x1326
 5219 137a 6C090000 		.4byte	.LLST56
 5220 137e 30       		.uleb128 0x30
 5221 137f 31130000 		.4byte	0x1331
 5222 1383 98090000 		.4byte	.LLST57
 5223 1387 1B       		.uleb128 0x1b
 5224 1388 12000000 		.4byte	.LVL164
 5225 138c 5C110000 		.4byte	0x115c
 5226 1390 1A       		.uleb128 0x1a
 5227 1391 02       		.uleb128 0x2
 5228 1392 7D       		.byte	0x7d
 5229 1393 00       		.sleb128 0
 5230 1394 02       		.uleb128 0x2
 5231 1395 74       		.byte	0x74
 5232 1396 00       		.sleb128 0
 5233 1397 1A       		.uleb128 0x1a
 5234 1398 02       		.uleb128 0x2
 5235 1399 7D       		.byte	0x7d
 5236 139a 04       		.sleb128 4
 5237 139b 02       		.uleb128 0x2
 5238 139c 75       		.byte	0x75
 5239 139d 00       		.sleb128 0
 5240 139e 00       		.byte	0
 5241 139f 00       		.byte	0
 5242 13a0 25       		.uleb128 0x25
 5243 13a1 67030000 		.4byte	.LASF123
 5244 13a5 01       		.byte	0x1
 5245 13a6 BF02     		.2byte	0x2bf
 5246 13a8 00000000 		.4byte	.LFB45
 5247 13ac C4000000 		.4byte	.LFE45-.LFB45
 5248 13b0 01       		.uleb128 0x1
 5249 13b1 9C       		.byte	0x9c
 5250 13b2 EF140000 		.4byte	0x14ef
 5251 13b6 26       		.uleb128 0x26
 5252 13b7 E1020000 		.4byte	.LASF66
 5253 13bb 01       		.byte	0x1
 5254 13bc BF02     		.2byte	0x2bf
 5255 13be C3000000 		.4byte	0xc3
 5256 13c2 DC090000 		.4byte	.LLST58
 5257 13c6 27       		.uleb128 0x27
 5258 13c7 783100   		.ascii	"x1\000"
 5259 13ca 01       		.byte	0x1
 5260 13cb BF02     		.2byte	0x2bf
 5261 13cd C3000000 		.4byte	0xc3
 5262 13d1 FD090000 		.4byte	.LLST59
 5263 13d5 27       		.uleb128 0x27
 5264 13d6 793100   		.ascii	"y1\000"
 5265 13d9 01       		.byte	0x1
 5266 13da BF02     		.2byte	0x2bf
 5267 13dc C3000000 		.4byte	0xc3
 5268 13e0 1E0A0000 		.4byte	.LLST60
 5269 13e4 27       		.uleb128 0x27
 5270 13e5 783200   		.ascii	"x2\000"
 5271 13e8 01       		.byte	0x1
 5272 13e9 BF02     		.2byte	0x2bf
 5273 13eb C3000000 		.4byte	0xc3
ARM GAS  C:\Users\leoja\AppData\Local\Temp\ccByxJuZ.s 			page 111


 5274 13ef 3F0A0000 		.4byte	.LLST61
 5275 13f3 27       		.uleb128 0x27
 5276 13f4 793200   		.ascii	"y2\000"
 5277 13f7 01       		.byte	0x1
 5278 13f8 BF02     		.2byte	0x2bf
 5279 13fa C3000000 		.4byte	0xc3
 5280 13fe 600A0000 		.4byte	.LLST62
 5281 1402 26       		.uleb128 0x26
 5282 1403 62030000 		.4byte	.LASF110
 5283 1407 01       		.byte	0x1
 5284 1408 BF02     		.2byte	0x2bf
 5285 140a AD000000 		.4byte	0xad
 5286 140e 8C0A0000 		.4byte	.LLST63
 5287 1412 28       		.uleb128 0x28
 5288 1413 BB040000 		.4byte	.LASF112
 5289 1417 01       		.byte	0x1
 5290 1418 C002     		.2byte	0x2c0
 5291 141a 94000000 		.4byte	0x94
 5292 141e C40A0000 		.4byte	.LLST64
 5293 1422 28       		.uleb128 0x28
 5294 1423 BE020000 		.4byte	.LASF113
 5295 1427 01       		.byte	0x1
 5296 1428 C002     		.2byte	0x2c0
 5297 142a 94000000 		.4byte	0x94
 5298 142e E30A0000 		.4byte	.LLST65
 5299 1432 28       		.uleb128 0x28
 5300 1433 14050000 		.4byte	.LASF114
 5301 1437 01       		.byte	0x1
 5302 1438 C102     		.2byte	0x2c1
 5303 143a 94000000 		.4byte	0x94
 5304 143e 020B0000 		.4byte	.LLST66
 5305 1442 29       		.uleb128 0x29
 5306 1443 36060000 		.4byte	.LASF111
 5307 1447 01       		.byte	0x1
 5308 1448 C202     		.2byte	0x2c2
 5309 144a 94000000 		.4byte	0x94
 5310 144e 06       		.byte	0x6
 5311 144f 24       		.uleb128 0x24
 5312 1450 08000000 		.4byte	.LASF116
 5313 1454 01       		.byte	0x1
 5314 1455 CC02     		.2byte	0x2cc
 5315 1457 4C110000 		.4byte	0x114c
 5316 145b 02       		.uleb128 0x2
 5317 145c 91       		.byte	0x91
 5318 145d 60       		.sleb128 -32
 5319 145e 22       		.uleb128 0x22
 5320 145f 44000000 		.4byte	.LVL177
 5321 1463 9E190000 		.4byte	0x199e
 5322 1467 19       		.uleb128 0x19
 5323 1468 5C000000 		.4byte	.LVL178
 5324 146c 64190000 		.4byte	0x1964
 5325 1470 91140000 		.4byte	0x1491
 5326 1474 1A       		.uleb128 0x1a
 5327 1475 01       		.uleb128 0x1
 5328 1476 50       		.byte	0x50
 5329 1477 04       		.uleb128 0x4
 5330 1478 7D       		.byte	0x7d
ARM GAS  C:\Users\leoja\AppData\Local\Temp\ccByxJuZ.s 			page 112


 5331 1479 0C       		.sleb128 12
 5332 147a 94       		.byte	0x94
 5333 147b 02       		.byte	0x2
 5334 147c 1A       		.uleb128 0x1a
 5335 147d 01       		.uleb128 0x1
 5336 147e 52       		.byte	0x52
 5337 147f 02       		.uleb128 0x2
 5338 1480 75       		.byte	0x75
 5339 1481 00       		.sleb128 0
 5340 1482 1A       		.uleb128 0x1a
 5341 1483 01       		.uleb128 0x1
 5342 1484 53       		.byte	0x53
 5343 1485 02       		.uleb128 0x2
 5344 1486 76       		.byte	0x76
 5345 1487 00       		.sleb128 0
 5346 1488 1A       		.uleb128 0x1a
 5347 1489 02       		.uleb128 0x2
 5348 148a 7D       		.byte	0x7d
 5349 148b 00       		.sleb128 0
 5350 148c 03       		.uleb128 0x3
 5351 148d 0A       		.byte	0xa
 5352 148e 00FF     		.2byte	0xff00
 5353 1490 00       		.byte	0
 5354 1491 19       		.uleb128 0x19
 5355 1492 66000000 		.4byte	.LVL179
 5356 1496 87190000 		.4byte	0x1987
 5357 149a B4140000 		.4byte	0x14b4
 5358 149e 1A       		.uleb128 0x1a
 5359 149f 01       		.uleb128 0x1
 5360 14a0 50       		.byte	0x50
 5361 14a1 02       		.uleb128 0x2
 5362 14a2 74       		.byte	0x74
 5363 14a3 00       		.sleb128 0
 5364 14a4 1A       		.uleb128 0x1a
 5365 14a5 01       		.uleb128 0x1
 5366 14a6 51       		.byte	0x51
 5367 14a7 05       		.uleb128 0x5
 5368 14a8 03       		.byte	0x3
 5369 14a9 5D000000 		.4byte	.LC26
 5370 14ad 1A       		.uleb128 0x1a
 5371 14ae 01       		.uleb128 0x1
 5372 14af 52       		.byte	0x52
 5373 14b0 02       		.uleb128 0x2
 5374 14b1 77       		.byte	0x77
 5375 14b2 00       		.sleb128 0
 5376 14b3 00       		.byte	0
 5377 14b4 19       		.uleb128 0x19
 5378 14b5 A8000000 		.4byte	.LVL180
 5379 14b9 92190000 		.4byte	0x1992
 5380 14bd E5140000 		.4byte	0x14e5
 5381 14c1 1A       		.uleb128 0x1a
 5382 14c2 01       		.uleb128 0x1
 5383 14c3 50       		.byte	0x50
 5384 14c4 04       		.uleb128 0x4
 5385 14c5 7D       		.byte	0x7d
 5386 14c6 10       		.sleb128 16
 5387 14c7 94       		.byte	0x94
ARM GAS  C:\Users\leoja\AppData\Local\Temp\ccByxJuZ.s 			page 113


 5388 14c8 02       		.byte	0x2
 5389 14c9 1A       		.uleb128 0x1a
 5390 14ca 01       		.uleb128 0x1
 5391 14cb 51       		.byte	0x51
 5392 14cc 04       		.uleb128 0x4
 5393 14cd 7D       		.byte	0x7d
 5394 14ce 14       		.sleb128 20
 5395 14cf 94       		.byte	0x94
 5396 14d0 02       		.byte	0x2
 5397 14d1 1A       		.uleb128 0x1a
 5398 14d2 01       		.uleb128 0x1
 5399 14d3 52       		.byte	0x52
 5400 14d4 02       		.uleb128 0x2
 5401 14d5 74       		.byte	0x74
 5402 14d6 00       		.sleb128 0
 5403 14d7 1A       		.uleb128 0x1a
 5404 14d8 01       		.uleb128 0x1
 5405 14d9 53       		.byte	0x53
 5406 14da 01       		.uleb128 0x1
 5407 14db 30       		.byte	0x30
 5408 14dc 1A       		.uleb128 0x1a
 5409 14dd 02       		.uleb128 0x2
 5410 14de 7D       		.byte	0x7d
 5411 14df 00       		.sleb128 0
 5412 14e0 03       		.uleb128 0x3
 5413 14e1 0A       		.byte	0xa
 5414 14e2 00FF     		.2byte	0xff00
 5415 14e4 00       		.byte	0
 5416 14e5 22       		.uleb128 0x22
 5417 14e6 AE000000 		.4byte	.LVL181
 5418 14ea 9E190000 		.4byte	0x199e
 5419 14ee 00       		.byte	0
 5420 14ef 25       		.uleb128 0x25
 5421 14f0 09020000 		.4byte	.LASF124
 5422 14f4 01       		.byte	0x1
 5423 14f5 E102     		.2byte	0x2e1
 5424 14f7 00000000 		.4byte	.LFB46
 5425 14fb 24020000 		.4byte	.LFE46-.LFB46
 5426 14ff 01       		.uleb128 0x1
 5427 1500 9C       		.byte	0x9c
 5428 1501 4E170000 		.4byte	0x174e
 5429 1505 26       		.uleb128 0x26
 5430 1506 55020000 		.4byte	.LASF125
 5431 150a 01       		.byte	0x1
 5432 150b E102     		.2byte	0x2e1
 5433 150d AD000000 		.4byte	0xad
 5434 1511 4D0B0000 		.4byte	.LLST67
 5435 1515 27       		.uleb128 0x27
 5436 1516 783100   		.ascii	"x1\000"
 5437 1519 01       		.byte	0x1
 5438 151a E102     		.2byte	0x2e1
 5439 151c C3000000 		.4byte	0xc3
 5440 1520 6E0B0000 		.4byte	.LLST68
 5441 1524 27       		.uleb128 0x27
 5442 1525 793100   		.ascii	"y1\000"
 5443 1528 01       		.byte	0x1
 5444 1529 E102     		.2byte	0x2e1
ARM GAS  C:\Users\leoja\AppData\Local\Temp\ccByxJuZ.s 			page 114


 5445 152b C3000000 		.4byte	0xc3
 5446 152f 8F0B0000 		.4byte	.LLST69
 5447 1533 27       		.uleb128 0x27
 5448 1534 783200   		.ascii	"x2\000"
 5449 1537 01       		.byte	0x1
 5450 1538 E102     		.2byte	0x2e1
 5451 153a C3000000 		.4byte	0xc3
 5452 153e B00B0000 		.4byte	.LLST70
 5453 1542 27       		.uleb128 0x27
 5454 1543 793200   		.ascii	"y2\000"
 5455 1546 01       		.byte	0x1
 5456 1547 E102     		.2byte	0x2e1
 5457 1549 C3000000 		.4byte	0xc3
 5458 154d D10B0000 		.4byte	.LLST71
 5459 1551 26       		.uleb128 0x26
 5460 1552 62030000 		.4byte	.LASF110
 5461 1556 01       		.byte	0x1
 5462 1557 E102     		.2byte	0x2e1
 5463 1559 AD000000 		.4byte	0xad
 5464 155d FD0B0000 		.4byte	.LLST72
 5465 1561 28       		.uleb128 0x28
 5466 1562 BB040000 		.4byte	.LASF112
 5467 1566 01       		.byte	0x1
 5468 1567 E202     		.2byte	0x2e2
 5469 1569 94000000 		.4byte	0x94
 5470 156d 410C0000 		.4byte	.LLST73
 5471 1571 28       		.uleb128 0x28
 5472 1572 BE020000 		.4byte	.LASF113
 5473 1576 01       		.byte	0x1
 5474 1577 E202     		.2byte	0x2e2
 5475 1579 94000000 		.4byte	0x94
 5476 157d 780C0000 		.4byte	.LLST74
 5477 1581 28       		.uleb128 0x28
 5478 1582 14050000 		.4byte	.LASF114
 5479 1586 01       		.byte	0x1
 5480 1587 E302     		.2byte	0x2e3
 5481 1589 94000000 		.4byte	0x94
 5482 158d AC0C0000 		.4byte	.LLST75
 5483 1591 29       		.uleb128 0x29
 5484 1592 36060000 		.4byte	.LASF111
 5485 1596 01       		.byte	0x1
 5486 1597 E402     		.2byte	0x2e4
 5487 1599 94000000 		.4byte	0x94
 5488 159d 0A       		.byte	0xa
 5489 159e 28       		.uleb128 0x28
 5490 159f AE010000 		.4byte	.LASF115
 5491 15a3 01       		.byte	0x1
 5492 15a4 EC02     		.2byte	0x2ec
 5493 15a6 A8030000 		.4byte	0x3a8
 5494 15aa F70C0000 		.4byte	.LLST76
 5495 15ae 22       		.uleb128 0x22
 5496 15af 48000000 		.4byte	.LVL194
 5497 15b3 9E190000 		.4byte	0x199e
 5498 15b7 19       		.uleb128 0x19
 5499 15b8 98000000 		.4byte	.LVL198
 5500 15bc 64190000 		.4byte	0x1964
 5501 15c0 EC150000 		.4byte	0x15ec
ARM GAS  C:\Users\leoja\AppData\Local\Temp\ccByxJuZ.s 			page 115


 5502 15c4 1A       		.uleb128 0x1a
 5503 15c5 01       		.uleb128 0x1
 5504 15c6 50       		.byte	0x50
 5505 15c7 04       		.uleb128 0x4
 5506 15c8 7D       		.byte	0x7d
 5507 15c9 08       		.sleb128 8
 5508 15ca 94       		.byte	0x94
 5509 15cb 02       		.byte	0x2
 5510 15cc 1A       		.uleb128 0x1a
 5511 15cd 01       		.uleb128 0x1
 5512 15ce 51       		.byte	0x51
 5513 15cf 04       		.uleb128 0x4
 5514 15d0 7D       		.byte	0x7d
 5515 15d1 0C       		.sleb128 12
 5516 15d2 94       		.byte	0x94
 5517 15d3 02       		.byte	0x2
 5518 15d4 1A       		.uleb128 0x1a
 5519 15d5 01       		.uleb128 0x1
 5520 15d6 52       		.byte	0x52
 5521 15d7 04       		.uleb128 0x4
 5522 15d8 7D       		.byte	0x7d
 5523 15d9 10       		.sleb128 16
 5524 15da 94       		.byte	0x94
 5525 15db 02       		.byte	0x2
 5526 15dc 1A       		.uleb128 0x1a
 5527 15dd 01       		.uleb128 0x1
 5528 15de 53       		.byte	0x53
 5529 15df 04       		.uleb128 0x4
 5530 15e0 7D       		.byte	0x7d
 5531 15e1 14       		.sleb128 20
 5532 15e2 94       		.byte	0x94
 5533 15e3 02       		.byte	0x2
 5534 15e4 1A       		.uleb128 0x1a
 5535 15e5 02       		.uleb128 0x2
 5536 15e6 7D       		.byte	0x7d
 5537 15e7 00       		.sleb128 0
 5538 15e8 02       		.uleb128 0x2
 5539 15e9 77       		.byte	0x77
 5540 15ea 00       		.sleb128 0
 5541 15eb 00       		.byte	0
 5542 15ec 19       		.uleb128 0x19
 5543 15ed CE000000 		.4byte	.LVL200
 5544 15f1 64190000 		.4byte	0x1964
 5545 15f5 21160000 		.4byte	0x1621
 5546 15f9 1A       		.uleb128 0x1a
 5547 15fa 01       		.uleb128 0x1
 5548 15fb 50       		.byte	0x50
 5549 15fc 04       		.uleb128 0x4
 5550 15fd 7D       		.byte	0x7d
 5551 15fe 08       		.sleb128 8
 5552 15ff 94       		.byte	0x94
 5553 1600 02       		.byte	0x2
 5554 1601 1A       		.uleb128 0x1a
 5555 1602 01       		.uleb128 0x1
 5556 1603 51       		.byte	0x51
 5557 1604 04       		.uleb128 0x4
 5558 1605 7D       		.byte	0x7d
ARM GAS  C:\Users\leoja\AppData\Local\Temp\ccByxJuZ.s 			page 116


 5559 1606 0C       		.sleb128 12
 5560 1607 94       		.byte	0x94
 5561 1608 02       		.byte	0x2
 5562 1609 1A       		.uleb128 0x1a
 5563 160a 01       		.uleb128 0x1
 5564 160b 52       		.byte	0x52
 5565 160c 04       		.uleb128 0x4
 5566 160d 7D       		.byte	0x7d
 5567 160e 10       		.sleb128 16
 5568 160f 94       		.byte	0x94
 5569 1610 02       		.byte	0x2
 5570 1611 1A       		.uleb128 0x1a
 5571 1612 01       		.uleb128 0x1
 5572 1613 53       		.byte	0x53
 5573 1614 04       		.uleb128 0x4
 5574 1615 7D       		.byte	0x7d
 5575 1616 14       		.sleb128 20
 5576 1617 94       		.byte	0x94
 5577 1618 02       		.byte	0x2
 5578 1619 1A       		.uleb128 0x1a
 5579 161a 02       		.uleb128 0x2
 5580 161b 7D       		.byte	0x7d
 5581 161c 00       		.sleb128 0
 5582 161d 02       		.uleb128 0x2
 5583 161e 77       		.byte	0x77
 5584 161f 00       		.sleb128 0
 5585 1620 00       		.byte	0
 5586 1621 19       		.uleb128 0x19
 5587 1622 04010000 		.4byte	.LVL202
 5588 1626 64190000 		.4byte	0x1964
 5589 162a 56160000 		.4byte	0x1656
 5590 162e 1A       		.uleb128 0x1a
 5591 162f 01       		.uleb128 0x1
 5592 1630 50       		.byte	0x50
 5593 1631 04       		.uleb128 0x4
 5594 1632 7D       		.byte	0x7d
 5595 1633 08       		.sleb128 8
 5596 1634 94       		.byte	0x94
 5597 1635 02       		.byte	0x2
 5598 1636 1A       		.uleb128 0x1a
 5599 1637 01       		.uleb128 0x1
 5600 1638 51       		.byte	0x51
 5601 1639 04       		.uleb128 0x4
 5602 163a 7D       		.byte	0x7d
 5603 163b 0C       		.sleb128 12
 5604 163c 94       		.byte	0x94
 5605 163d 02       		.byte	0x2
 5606 163e 1A       		.uleb128 0x1a
 5607 163f 01       		.uleb128 0x1
 5608 1640 52       		.byte	0x52
 5609 1641 04       		.uleb128 0x4
 5610 1642 7D       		.byte	0x7d
 5611 1643 10       		.sleb128 16
 5612 1644 94       		.byte	0x94
 5613 1645 02       		.byte	0x2
 5614 1646 1A       		.uleb128 0x1a
 5615 1647 01       		.uleb128 0x1
ARM GAS  C:\Users\leoja\AppData\Local\Temp\ccByxJuZ.s 			page 117


 5616 1648 53       		.byte	0x53
 5617 1649 04       		.uleb128 0x4
 5618 164a 7D       		.byte	0x7d
 5619 164b 14       		.sleb128 20
 5620 164c 94       		.byte	0x94
 5621 164d 02       		.byte	0x2
 5622 164e 1A       		.uleb128 0x1a
 5623 164f 02       		.uleb128 0x2
 5624 1650 7D       		.byte	0x7d
 5625 1651 00       		.sleb128 0
 5626 1652 02       		.uleb128 0x2
 5627 1653 77       		.byte	0x77
 5628 1654 00       		.sleb128 0
 5629 1655 00       		.byte	0
 5630 1656 19       		.uleb128 0x19
 5631 1657 3A010000 		.4byte	.LVL204
 5632 165b 64190000 		.4byte	0x1964
 5633 165f 8B160000 		.4byte	0x168b
 5634 1663 1A       		.uleb128 0x1a
 5635 1664 01       		.uleb128 0x1
 5636 1665 50       		.byte	0x50
 5637 1666 04       		.uleb128 0x4
 5638 1667 7D       		.byte	0x7d
 5639 1668 08       		.sleb128 8
 5640 1669 94       		.byte	0x94
 5641 166a 02       		.byte	0x2
 5642 166b 1A       		.uleb128 0x1a
 5643 166c 01       		.uleb128 0x1
 5644 166d 51       		.byte	0x51
 5645 166e 04       		.uleb128 0x4
 5646 166f 7D       		.byte	0x7d
 5647 1670 0C       		.sleb128 12
 5648 1671 94       		.byte	0x94
 5649 1672 02       		.byte	0x2
 5650 1673 1A       		.uleb128 0x1a
 5651 1674 01       		.uleb128 0x1
 5652 1675 52       		.byte	0x52
 5653 1676 04       		.uleb128 0x4
 5654 1677 7D       		.byte	0x7d
 5655 1678 10       		.sleb128 16
 5656 1679 94       		.byte	0x94
 5657 167a 02       		.byte	0x2
 5658 167b 1A       		.uleb128 0x1a
 5659 167c 01       		.uleb128 0x1
 5660 167d 53       		.byte	0x53
 5661 167e 04       		.uleb128 0x4
 5662 167f 7D       		.byte	0x7d
 5663 1680 14       		.sleb128 20
 5664 1681 94       		.byte	0x94
 5665 1682 02       		.byte	0x2
 5666 1683 1A       		.uleb128 0x1a
 5667 1684 02       		.uleb128 0x2
 5668 1685 7D       		.byte	0x7d
 5669 1686 00       		.sleb128 0
 5670 1687 02       		.uleb128 0x2
 5671 1688 77       		.byte	0x77
 5672 1689 00       		.sleb128 0
ARM GAS  C:\Users\leoja\AppData\Local\Temp\ccByxJuZ.s 			page 118


 5673 168a 00       		.byte	0
 5674 168b 19       		.uleb128 0x19
 5675 168c 70010000 		.4byte	.LVL206
 5676 1690 64190000 		.4byte	0x1964
 5677 1694 C0160000 		.4byte	0x16c0
 5678 1698 1A       		.uleb128 0x1a
 5679 1699 01       		.uleb128 0x1
 5680 169a 50       		.byte	0x50
 5681 169b 04       		.uleb128 0x4
 5682 169c 7D       		.byte	0x7d
 5683 169d 08       		.sleb128 8
 5684 169e 94       		.byte	0x94
 5685 169f 02       		.byte	0x2
 5686 16a0 1A       		.uleb128 0x1a
 5687 16a1 01       		.uleb128 0x1
 5688 16a2 51       		.byte	0x51
 5689 16a3 04       		.uleb128 0x4
 5690 16a4 7D       		.byte	0x7d
 5691 16a5 0C       		.sleb128 12
 5692 16a6 94       		.byte	0x94
 5693 16a7 02       		.byte	0x2
 5694 16a8 1A       		.uleb128 0x1a
 5695 16a9 01       		.uleb128 0x1
 5696 16aa 52       		.byte	0x52
 5697 16ab 04       		.uleb128 0x4
 5698 16ac 7D       		.byte	0x7d
 5699 16ad 10       		.sleb128 16
 5700 16ae 94       		.byte	0x94
 5701 16af 02       		.byte	0x2
 5702 16b0 1A       		.uleb128 0x1a
 5703 16b1 01       		.uleb128 0x1
 5704 16b2 53       		.byte	0x53
 5705 16b3 04       		.uleb128 0x4
 5706 16b4 7D       		.byte	0x7d
 5707 16b5 14       		.sleb128 20
 5708 16b6 94       		.byte	0x94
 5709 16b7 02       		.byte	0x2
 5710 16b8 1A       		.uleb128 0x1a
 5711 16b9 02       		.uleb128 0x2
 5712 16ba 7D       		.byte	0x7d
 5713 16bb 00       		.sleb128 0
 5714 16bc 02       		.uleb128 0x2
 5715 16bd 77       		.byte	0x77
 5716 16be 00       		.sleb128 0
 5717 16bf 00       		.byte	0
 5718 16c0 19       		.uleb128 0x19
 5719 16c1 A6010000 		.4byte	.LVL208
 5720 16c5 64190000 		.4byte	0x1964
 5721 16c9 F5160000 		.4byte	0x16f5
 5722 16cd 1A       		.uleb128 0x1a
 5723 16ce 01       		.uleb128 0x1
 5724 16cf 50       		.byte	0x50
 5725 16d0 04       		.uleb128 0x4
 5726 16d1 7D       		.byte	0x7d
 5727 16d2 08       		.sleb128 8
 5728 16d3 94       		.byte	0x94
 5729 16d4 02       		.byte	0x2
ARM GAS  C:\Users\leoja\AppData\Local\Temp\ccByxJuZ.s 			page 119


 5730 16d5 1A       		.uleb128 0x1a
 5731 16d6 01       		.uleb128 0x1
 5732 16d7 51       		.byte	0x51
 5733 16d8 04       		.uleb128 0x4
 5734 16d9 7D       		.byte	0x7d
 5735 16da 0C       		.sleb128 12
 5736 16db 94       		.byte	0x94
 5737 16dc 02       		.byte	0x2
 5738 16dd 1A       		.uleb128 0x1a
 5739 16de 01       		.uleb128 0x1
 5740 16df 52       		.byte	0x52
 5741 16e0 04       		.uleb128 0x4
 5742 16e1 7D       		.byte	0x7d
 5743 16e2 10       		.sleb128 16
 5744 16e3 94       		.byte	0x94
 5745 16e4 02       		.byte	0x2
 5746 16e5 1A       		.uleb128 0x1a
 5747 16e6 01       		.uleb128 0x1
 5748 16e7 53       		.byte	0x53
 5749 16e8 04       		.uleb128 0x4
 5750 16e9 7D       		.byte	0x7d
 5751 16ea 14       		.sleb128 20
 5752 16eb 94       		.byte	0x94
 5753 16ec 02       		.byte	0x2
 5754 16ed 1A       		.uleb128 0x1a
 5755 16ee 02       		.uleb128 0x2
 5756 16ef 7D       		.byte	0x7d
 5757 16f0 00       		.sleb128 0
 5758 16f1 02       		.uleb128 0x2
 5759 16f2 77       		.byte	0x77
 5760 16f3 00       		.sleb128 0
 5761 16f4 00       		.byte	0
 5762 16f5 19       		.uleb128 0x19
 5763 16f6 DC010000 		.4byte	.LVL210
 5764 16fa 64190000 		.4byte	0x1964
 5765 16fe 2A170000 		.4byte	0x172a
 5766 1702 1A       		.uleb128 0x1a
 5767 1703 01       		.uleb128 0x1
 5768 1704 50       		.byte	0x50
 5769 1705 04       		.uleb128 0x4
 5770 1706 7D       		.byte	0x7d
 5771 1707 08       		.sleb128 8
 5772 1708 94       		.byte	0x94
 5773 1709 02       		.byte	0x2
 5774 170a 1A       		.uleb128 0x1a
 5775 170b 01       		.uleb128 0x1
 5776 170c 51       		.byte	0x51
 5777 170d 04       		.uleb128 0x4
 5778 170e 7D       		.byte	0x7d
 5779 170f 0C       		.sleb128 12
 5780 1710 94       		.byte	0x94
 5781 1711 02       		.byte	0x2
 5782 1712 1A       		.uleb128 0x1a
 5783 1713 01       		.uleb128 0x1
 5784 1714 52       		.byte	0x52
 5785 1715 04       		.uleb128 0x4
 5786 1716 7D       		.byte	0x7d
ARM GAS  C:\Users\leoja\AppData\Local\Temp\ccByxJuZ.s 			page 120


 5787 1717 10       		.sleb128 16
 5788 1718 94       		.byte	0x94
 5789 1719 02       		.byte	0x2
 5790 171a 1A       		.uleb128 0x1a
 5791 171b 01       		.uleb128 0x1
 5792 171c 53       		.byte	0x53
 5793 171d 04       		.uleb128 0x4
 5794 171e 7D       		.byte	0x7d
 5795 171f 14       		.sleb128 20
 5796 1720 94       		.byte	0x94
 5797 1721 02       		.byte	0x2
 5798 1722 1A       		.uleb128 0x1a
 5799 1723 02       		.uleb128 0x2
 5800 1724 7D       		.byte	0x7d
 5801 1725 00       		.sleb128 0
 5802 1726 02       		.uleb128 0x2
 5803 1727 77       		.byte	0x77
 5804 1728 00       		.sleb128 0
 5805 1729 00       		.byte	0
 5806 172a 19       		.uleb128 0x19
 5807 172b F0010000 		.4byte	.LVL212
 5808 172f 92190000 		.4byte	0x1992
 5809 1733 44170000 		.4byte	0x1744
 5810 1737 1A       		.uleb128 0x1a
 5811 1738 01       		.uleb128 0x1
 5812 1739 50       		.byte	0x50
 5813 173a 02       		.uleb128 0x2
 5814 173b 75       		.byte	0x75
 5815 173c 00       		.sleb128 0
 5816 173d 1A       		.uleb128 0x1a
 5817 173e 01       		.uleb128 0x1
 5818 173f 51       		.byte	0x51
 5819 1740 02       		.uleb128 0x2
 5820 1741 76       		.byte	0x76
 5821 1742 00       		.sleb128 0
 5822 1743 00       		.byte	0
 5823 1744 22       		.uleb128 0x22
 5824 1745 F6010000 		.4byte	.LVL213
 5825 1749 9E190000 		.4byte	0x199e
 5826 174d 00       		.byte	0
 5827 174e 25       		.uleb128 0x25
 5828 174f 22060000 		.4byte	.LASF126
 5829 1753 01       		.byte	0x1
 5830 1754 3303     		.2byte	0x333
 5831 1756 00000000 		.4byte	.LFB47
 5832 175a 8C000000 		.4byte	.LFE47-.LFB47
 5833 175e 01       		.uleb128 0x1
 5834 175f 9C       		.byte	0x9c
 5835 1760 AA180000 		.4byte	0x18aa
 5836 1764 26       		.uleb128 0x26
 5837 1765 E1020000 		.4byte	.LASF66
 5838 1769 01       		.byte	0x1
 5839 176a 3303     		.2byte	0x333
 5840 176c C3000000 		.4byte	0xc3
 5841 1770 1C0D0000 		.4byte	.LLST77
 5842 1774 27       		.uleb128 0x27
 5843 1775 783100   		.ascii	"x1\000"
ARM GAS  C:\Users\leoja\AppData\Local\Temp\ccByxJuZ.s 			page 121


 5844 1778 01       		.byte	0x1
 5845 1779 3303     		.2byte	0x333
 5846 177b C3000000 		.4byte	0xc3
 5847 177f 3D0D0000 		.4byte	.LLST78
 5848 1783 27       		.uleb128 0x27
 5849 1784 793100   		.ascii	"y1\000"
 5850 1787 01       		.byte	0x1
 5851 1788 3303     		.2byte	0x333
 5852 178a C3000000 		.4byte	0xc3
 5853 178e 5E0D0000 		.4byte	.LLST79
 5854 1792 27       		.uleb128 0x27
 5855 1793 783200   		.ascii	"x2\000"
 5856 1796 01       		.byte	0x1
 5857 1797 3303     		.2byte	0x333
 5858 1799 C3000000 		.4byte	0xc3
 5859 179d 7F0D0000 		.4byte	.LLST80
 5860 17a1 27       		.uleb128 0x27
 5861 17a2 793200   		.ascii	"y2\000"
 5862 17a5 01       		.byte	0x1
 5863 17a6 3303     		.2byte	0x333
 5864 17a8 C3000000 		.4byte	0xc3
 5865 17ac A00D0000 		.4byte	.LLST81
 5866 17b0 26       		.uleb128 0x26
 5867 17b1 62030000 		.4byte	.LASF110
 5868 17b5 01       		.byte	0x1
 5869 17b6 3303     		.2byte	0x333
 5870 17b8 AD000000 		.4byte	0xad
 5871 17bc CC0D0000 		.4byte	.LLST82
 5872 17c0 28       		.uleb128 0x28
 5873 17c1 BB040000 		.4byte	.LASF112
 5874 17c5 01       		.byte	0x1
 5875 17c6 3403     		.2byte	0x334
 5876 17c8 94000000 		.4byte	0x94
 5877 17cc 040E0000 		.4byte	.LLST83
 5878 17d0 28       		.uleb128 0x28
 5879 17d1 BE020000 		.4byte	.LASF113
 5880 17d5 01       		.byte	0x1
 5881 17d6 3403     		.2byte	0x334
 5882 17d8 94000000 		.4byte	0x94
 5883 17dc 230E0000 		.4byte	.LLST84
 5884 17e0 28       		.uleb128 0x28
 5885 17e1 14050000 		.4byte	.LASF114
 5886 17e5 01       		.byte	0x1
 5887 17e6 3503     		.2byte	0x335
 5888 17e8 94000000 		.4byte	0x94
 5889 17ec 420E0000 		.4byte	.LLST85
 5890 17f0 29       		.uleb128 0x29
 5891 17f1 36060000 		.4byte	.LASF111
 5892 17f5 01       		.byte	0x1
 5893 17f6 3603     		.2byte	0x336
 5894 17f8 94000000 		.4byte	0x94
 5895 17fc 0A       		.byte	0xa
 5896 17fd 31       		.uleb128 0x31
 5897 17fe AE010000 		.4byte	.LASF115
 5898 1802 01       		.byte	0x1
 5899 1803 3F03     		.2byte	0x33f
 5900 1805 A8030000 		.4byte	0x3a8
ARM GAS  C:\Users\leoja\AppData\Local\Temp\ccByxJuZ.s 			page 122


 5901 1809 2FFFAD00 		.4byte	0xadff2f
 5902 180d 24       		.uleb128 0x24
 5903 180e 08000000 		.4byte	.LASF116
 5904 1812 01       		.byte	0x1
 5905 1813 4103     		.2byte	0x341
 5906 1815 AA180000 		.4byte	0x18aa
 5907 1819 02       		.uleb128 0x2
 5908 181a 91       		.byte	0x91
 5909 181b 5C       		.sleb128 -36
 5910 181c 22       		.uleb128 0x22
 5911 181d 40000000 		.4byte	.LVL226
 5912 1821 9E190000 		.4byte	0x199e
 5913 1825 19       		.uleb128 0x19
 5914 1826 4A000000 		.4byte	.LVL227
 5915 182a 87190000 		.4byte	0x1987
 5916 182e 49180000 		.4byte	0x1849
 5917 1832 1A       		.uleb128 0x1a
 5918 1833 01       		.uleb128 0x1
 5919 1834 50       		.byte	0x50
 5920 1835 02       		.uleb128 0x2
 5921 1836 91       		.byte	0x91
 5922 1837 5C       		.sleb128 -36
 5923 1838 1A       		.uleb128 0x1a
 5924 1839 01       		.uleb128 0x1
 5925 183a 51       		.byte	0x51
 5926 183b 05       		.uleb128 0x5
 5927 183c 03       		.byte	0x3
 5928 183d 5D000000 		.4byte	.LC26
 5929 1841 1A       		.uleb128 0x1a
 5930 1842 01       		.uleb128 0x1
 5931 1843 52       		.byte	0x52
 5932 1844 03       		.uleb128 0x3
 5933 1845 91       		.byte	0x91
 5934 1846 54       		.sleb128 -44
 5935 1847 06       		.byte	0x6
 5936 1848 00       		.byte	0
 5937 1849 19       		.uleb128 0x19
 5938 184a 5A000000 		.4byte	.LVL228
 5939 184e 64190000 		.4byte	0x1964
 5940 1852 70180000 		.4byte	0x1870
 5941 1856 1A       		.uleb128 0x1a
 5942 1857 01       		.uleb128 0x1
 5943 1858 50       		.byte	0x50
 5944 1859 02       		.uleb128 0x2
 5945 185a 74       		.byte	0x74
 5946 185b 00       		.sleb128 0
 5947 185c 1A       		.uleb128 0x1a
 5948 185d 01       		.uleb128 0x1
 5949 185e 51       		.byte	0x51
 5950 185f 02       		.uleb128 0x2
 5951 1860 75       		.byte	0x75
 5952 1861 00       		.sleb128 0
 5953 1862 1A       		.uleb128 0x1a
 5954 1863 01       		.uleb128 0x1
 5955 1864 53       		.byte	0x53
 5956 1865 02       		.uleb128 0x2
 5957 1866 76       		.byte	0x76
ARM GAS  C:\Users\leoja\AppData\Local\Temp\ccByxJuZ.s 			page 123


 5958 1867 00       		.sleb128 0
 5959 1868 1A       		.uleb128 0x1a
 5960 1869 02       		.uleb128 0x2
 5961 186a 7D       		.byte	0x7d
 5962 186b 00       		.sleb128 0
 5963 186c 02       		.uleb128 0x2
 5964 186d 77       		.byte	0x77
 5965 186e 00       		.sleb128 0
 5966 186f 00       		.byte	0
 5967 1870 19       		.uleb128 0x19
 5968 1871 70000000 		.4byte	.LVL229
 5969 1875 92190000 		.4byte	0x1992
 5970 1879 A0180000 		.4byte	0x18a0
 5971 187d 1A       		.uleb128 0x1a
 5972 187e 01       		.uleb128 0x1
 5973 187f 50       		.byte	0x50
 5974 1880 04       		.uleb128 0x4
 5975 1881 7D       		.byte	0x7d
 5976 1882 0C       		.sleb128 12
 5977 1883 94       		.byte	0x94
 5978 1884 02       		.byte	0x2
 5979 1885 1A       		.uleb128 0x1a
 5980 1886 01       		.uleb128 0x1
 5981 1887 51       		.byte	0x51
 5982 1888 04       		.uleb128 0x4
 5983 1889 7D       		.byte	0x7d
 5984 188a 10       		.sleb128 16
 5985 188b 94       		.byte	0x94
 5986 188c 02       		.byte	0x2
 5987 188d 1A       		.uleb128 0x1a
 5988 188e 01       		.uleb128 0x1
 5989 188f 52       		.byte	0x52
 5990 1890 02       		.uleb128 0x2
 5991 1891 91       		.byte	0x91
 5992 1892 5C       		.sleb128 -36
 5993 1893 1A       		.uleb128 0x1a
 5994 1894 01       		.uleb128 0x1
 5995 1895 53       		.byte	0x53
 5996 1896 01       		.uleb128 0x1
 5997 1897 30       		.byte	0x30
 5998 1898 1A       		.uleb128 0x1a
 5999 1899 02       		.uleb128 0x2
 6000 189a 7D       		.byte	0x7d
 6001 189b 00       		.sleb128 0
 6002 189c 02       		.uleb128 0x2
 6003 189d 77       		.byte	0x77
 6004 189e 00       		.sleb128 0
 6005 189f 00       		.byte	0
 6006 18a0 22       		.uleb128 0x22
 6007 18a1 76000000 		.4byte	.LVL230
 6008 18a5 9E190000 		.4byte	0x199e
 6009 18a9 00       		.byte	0
 6010 18aa 16       		.uleb128 0x16
 6011 18ab F3000000 		.4byte	0xf3
 6012 18af BA180000 		.4byte	0x18ba
 6013 18b3 17       		.uleb128 0x17
 6014 18b4 01010000 		.4byte	0x101
ARM GAS  C:\Users\leoja\AppData\Local\Temp\ccByxJuZ.s 			page 124


 6015 18b8 09       		.byte	0x9
 6016 18b9 00       		.byte	0
 6017 18ba 32       		.uleb128 0x32
 6018 18bb 44010000 		.4byte	.LASF127
 6019 18bf 07       		.byte	0x7
 6020 18c0 51       		.byte	0x51
 6021 18c1 F9030000 		.4byte	0x3f9
 6022 18c5 32       		.uleb128 0x32
 6023 18c6 EF040000 		.4byte	.LASF128
 6024 18ca 07       		.byte	0x7
 6025 18cb 60       		.byte	0x60
 6026 18cc F9030000 		.4byte	0x3f9
 6027 18d0 33       		.uleb128 0x33
 6028 18d1 35040000 		.4byte	.LASF129
 6029 18d5 08       		.byte	0x8
 6030 18d6 33       		.byte	0x33
 6031 18d7 F9060000 		.4byte	0x6f9
 6032 18db 05       		.uleb128 0x5
 6033 18dc 03       		.byte	0x3
 6034 18dd 00000000 		.4byte	gui1963
 6035 18e1 33       		.uleb128 0x33
 6036 18e2 FA010000 		.4byte	.LASF130
 6037 18e6 09       		.byte	0x9
 6038 18e7 0F       		.byte	0xf
 6039 18e8 A8030000 		.4byte	0x3a8
 6040 18ec 05       		.uleb128 0x5
 6041 18ed 03       		.byte	0x3
 6042 18ee 00000000 		.4byte	last_SOC_color
 6043 18f2 33       		.uleb128 0x33
 6044 18f3 29030000 		.4byte	.LASF131
 6045 18f7 09       		.byte	0x9
 6046 18f8 10       		.byte	0x10
 6047 18f9 A8030000 		.4byte	0x3a8
 6048 18fd 05       		.uleb128 0x5
 6049 18fe 03       		.byte	0x3
 6050 18ff 00000000 		.4byte	last_max_pack_temp_color
 6051 1903 33       		.uleb128 0x33
 6052 1904 6C040000 		.4byte	.LASF132
 6053 1908 09       		.byte	0x9
 6054 1909 11       		.byte	0x11
 6055 190a A8030000 		.4byte	0x3a8
 6056 190e 05       		.uleb128 0x5
 6057 190f 03       		.byte	0x3
 6058 1910 00000000 		.4byte	last_state_color
 6059 1914 33       		.uleb128 0x33
 6060 1915 22050000 		.4byte	.LASF133
 6061 1919 09       		.byte	0x9
 6062 191a 12       		.byte	0x12
 6063 191b A8030000 		.4byte	0x3a8
 6064 191f 05       		.uleb128 0x5
 6065 1920 03       		.byte	0x3
 6066 1921 00000000 		.4byte	last_glv_v_color
 6067 1925 33       		.uleb128 0x33
 6068 1926 03060000 		.4byte	.LASF134
 6069 192a 09       		.byte	0x9
 6070 192b 13       		.byte	0x13
 6071 192c A8030000 		.4byte	0x3a8
ARM GAS  C:\Users\leoja\AppData\Local\Temp\ccByxJuZ.s 			page 125


 6072 1930 05       		.uleb128 0x5
 6073 1931 03       		.byte	0x3
 6074 1932 00000000 		.4byte	last_mc_temp_color
 6075 1936 33       		.uleb128 0x33
 6076 1937 6F020000 		.4byte	.LASF135
 6077 193b 09       		.byte	0x9
 6078 193c 14       		.byte	0x14
 6079 193d A8030000 		.4byte	0x3a8
 6080 1941 05       		.uleb128 0x5
 6081 1942 03       		.byte	0x3
 6082 1943 00000000 		.4byte	last_motor_temp_color
 6083 1947 33       		.uleb128 0x33
 6084 1948 B4010000 		.4byte	.LASF136
 6085 194c 09       		.byte	0x9
 6086 194d 15       		.byte	0x15
 6087 194e A8030000 		.4byte	0x3a8
 6088 1952 05       		.uleb128 0x5
 6089 1953 03       		.byte	0x3
 6090 1954 00000000 		.4byte	last_shutdown_color
 6091 1958 34       		.uleb128 0x34
 6092 1959 EC010000 		.4byte	.LASF137
 6093 195d EC010000 		.4byte	.LASF137
 6094 1961 07       		.byte	0x7
 6095 1962 EC02     		.2byte	0x2ec
 6096 1964 34       		.uleb128 0x34
 6097 1965 D0000000 		.4byte	.LASF138
 6098 1969 D0000000 		.4byte	.LASF138
 6099 196d 07       		.byte	0x7
 6100 196e ED02     		.2byte	0x2ed
 6101 1970 35       		.uleb128 0x35
 6102 1971 00000000 		.4byte	.LASF139
 6103 1975 00000000 		.4byte	.LASF139
 6104 1979 0A       		.byte	0xa
 6105 197a EC       		.byte	0xec
 6106 197b 34       		.uleb128 0x34
 6107 197c AC030000 		.4byte	.LASF140
 6108 1980 AC030000 		.4byte	.LASF140
 6109 1984 07       		.byte	0x7
 6110 1985 F702     		.2byte	0x2f7
 6111 1987 35       		.uleb128 0x35
 6112 1988 C5030000 		.4byte	.LASF141
 6113 198c C5030000 		.4byte	.LASF141
 6114 1990 0B       		.byte	0xb
 6115 1991 E7       		.byte	0xe7
 6116 1992 34       		.uleb128 0x34
 6117 1993 C8010000 		.4byte	.LASF142
 6118 1997 C8010000 		.4byte	.LASF142
 6119 199b 07       		.byte	0x7
 6120 199c F802     		.2byte	0x2f8
 6121 199e 34       		.uleb128 0x34
 6122 199f 93060000 		.4byte	.LASF143
 6123 19a3 93060000 		.4byte	.LASF143
 6124 19a7 07       		.byte	0x7
 6125 19a8 EB02     		.2byte	0x2eb
 6126 19aa 00       		.byte	0
 6127              		.section	.debug_abbrev,"",%progbits
 6128              	.Ldebug_abbrev0:
ARM GAS  C:\Users\leoja\AppData\Local\Temp\ccByxJuZ.s 			page 126


 6129 0000 01       		.uleb128 0x1
 6130 0001 11       		.uleb128 0x11
 6131 0002 01       		.byte	0x1
 6132 0003 25       		.uleb128 0x25
 6133 0004 0E       		.uleb128 0xe
 6134 0005 13       		.uleb128 0x13
 6135 0006 0B       		.uleb128 0xb
 6136 0007 03       		.uleb128 0x3
 6137 0008 0E       		.uleb128 0xe
 6138 0009 1B       		.uleb128 0x1b
 6139 000a 0E       		.uleb128 0xe
 6140 000b 55       		.uleb128 0x55
 6141 000c 17       		.uleb128 0x17
 6142 000d 11       		.uleb128 0x11
 6143 000e 01       		.uleb128 0x1
 6144 000f 10       		.uleb128 0x10
 6145 0010 17       		.uleb128 0x17
 6146 0011 00       		.byte	0
 6147 0012 00       		.byte	0
 6148 0013 02       		.uleb128 0x2
 6149 0014 16       		.uleb128 0x16
 6150 0015 00       		.byte	0
 6151 0016 03       		.uleb128 0x3
 6152 0017 0E       		.uleb128 0xe
 6153 0018 3A       		.uleb128 0x3a
 6154 0019 0B       		.uleb128 0xb
 6155 001a 3B       		.uleb128 0x3b
 6156 001b 0B       		.uleb128 0xb
 6157 001c 49       		.uleb128 0x49
 6158 001d 13       		.uleb128 0x13
 6159 001e 00       		.byte	0
 6160 001f 00       		.byte	0
 6161 0020 03       		.uleb128 0x3
 6162 0021 24       		.uleb128 0x24
 6163 0022 00       		.byte	0
 6164 0023 0B       		.uleb128 0xb
 6165 0024 0B       		.uleb128 0xb
 6166 0025 3E       		.uleb128 0x3e
 6167 0026 0B       		.uleb128 0xb
 6168 0027 03       		.uleb128 0x3
 6169 0028 0E       		.uleb128 0xe
 6170 0029 00       		.byte	0
 6171 002a 00       		.byte	0
 6172 002b 04       		.uleb128 0x4
 6173 002c 24       		.uleb128 0x24
 6174 002d 00       		.byte	0
 6175 002e 0B       		.uleb128 0xb
 6176 002f 0B       		.uleb128 0xb
 6177 0030 3E       		.uleb128 0x3e
 6178 0031 0B       		.uleb128 0xb
 6179 0032 03       		.uleb128 0x3
 6180 0033 08       		.uleb128 0x8
 6181 0034 00       		.byte	0
 6182 0035 00       		.byte	0
 6183 0036 05       		.uleb128 0x5
 6184 0037 16       		.uleb128 0x16
 6185 0038 00       		.byte	0
ARM GAS  C:\Users\leoja\AppData\Local\Temp\ccByxJuZ.s 			page 127


 6186 0039 03       		.uleb128 0x3
 6187 003a 0E       		.uleb128 0xe
 6188 003b 3A       		.uleb128 0x3a
 6189 003c 0B       		.uleb128 0xb
 6190 003d 3B       		.uleb128 0x3b
 6191 003e 05       		.uleb128 0x5
 6192 003f 49       		.uleb128 0x49
 6193 0040 13       		.uleb128 0x13
 6194 0041 00       		.byte	0
 6195 0042 00       		.byte	0
 6196 0043 06       		.uleb128 0x6
 6197 0044 0F       		.uleb128 0xf
 6198 0045 00       		.byte	0
 6199 0046 0B       		.uleb128 0xb
 6200 0047 0B       		.uleb128 0xb
 6201 0048 00       		.byte	0
 6202 0049 00       		.byte	0
 6203 004a 07       		.uleb128 0x7
 6204 004b 0F       		.uleb128 0xf
 6205 004c 00       		.byte	0
 6206 004d 0B       		.uleb128 0xb
 6207 004e 0B       		.uleb128 0xb
 6208 004f 49       		.uleb128 0x49
 6209 0050 13       		.uleb128 0x13
 6210 0051 00       		.byte	0
 6211 0052 00       		.byte	0
 6212 0053 08       		.uleb128 0x8
 6213 0054 04       		.uleb128 0x4
 6214 0055 01       		.byte	0x1
 6215 0056 0B       		.uleb128 0xb
 6216 0057 0B       		.uleb128 0xb
 6217 0058 49       		.uleb128 0x49
 6218 0059 13       		.uleb128 0x13
 6219 005a 3A       		.uleb128 0x3a
 6220 005b 0B       		.uleb128 0xb
 6221 005c 3B       		.uleb128 0x3b
 6222 005d 0B       		.uleb128 0xb
 6223 005e 01       		.uleb128 0x1
 6224 005f 13       		.uleb128 0x13
 6225 0060 00       		.byte	0
 6226 0061 00       		.byte	0
 6227 0062 09       		.uleb128 0x9
 6228 0063 28       		.uleb128 0x28
 6229 0064 00       		.byte	0
 6230 0065 03       		.uleb128 0x3
 6231 0066 08       		.uleb128 0x8
 6232 0067 1C       		.uleb128 0x1c
 6233 0068 0B       		.uleb128 0xb
 6234 0069 00       		.byte	0
 6235 006a 00       		.byte	0
 6236 006b 0A       		.uleb128 0xa
 6237 006c 28       		.uleb128 0x28
 6238 006d 00       		.byte	0
 6239 006e 03       		.uleb128 0x3
 6240 006f 0E       		.uleb128 0xe
 6241 0070 1C       		.uleb128 0x1c
 6242 0071 0B       		.uleb128 0xb
ARM GAS  C:\Users\leoja\AppData\Local\Temp\ccByxJuZ.s 			page 128


 6243 0072 00       		.byte	0
 6244 0073 00       		.byte	0
 6245 0074 0B       		.uleb128 0xb
 6246 0075 13       		.uleb128 0x13
 6247 0076 01       		.byte	0x1
 6248 0077 0B       		.uleb128 0xb
 6249 0078 0B       		.uleb128 0xb
 6250 0079 3A       		.uleb128 0x3a
 6251 007a 0B       		.uleb128 0xb
 6252 007b 3B       		.uleb128 0x3b
 6253 007c 0B       		.uleb128 0xb
 6254 007d 01       		.uleb128 0x1
 6255 007e 13       		.uleb128 0x13
 6256 007f 00       		.byte	0
 6257 0080 00       		.byte	0
 6258 0081 0C       		.uleb128 0xc
 6259 0082 0D       		.uleb128 0xd
 6260 0083 00       		.byte	0
 6261 0084 03       		.uleb128 0x3
 6262 0085 08       		.uleb128 0x8
 6263 0086 3A       		.uleb128 0x3a
 6264 0087 0B       		.uleb128 0xb
 6265 0088 3B       		.uleb128 0x3b
 6266 0089 0B       		.uleb128 0xb
 6267 008a 49       		.uleb128 0x49
 6268 008b 13       		.uleb128 0x13
 6269 008c 38       		.uleb128 0x38
 6270 008d 0B       		.uleb128 0xb
 6271 008e 00       		.byte	0
 6272 008f 00       		.byte	0
 6273 0090 0D       		.uleb128 0xd
 6274 0091 0D       		.uleb128 0xd
 6275 0092 00       		.byte	0
 6276 0093 03       		.uleb128 0x3
 6277 0094 0E       		.uleb128 0xe
 6278 0095 3A       		.uleb128 0x3a
 6279 0096 0B       		.uleb128 0xb
 6280 0097 3B       		.uleb128 0x3b
 6281 0098 0B       		.uleb128 0xb
 6282 0099 49       		.uleb128 0x49
 6283 009a 13       		.uleb128 0x13
 6284 009b 38       		.uleb128 0x38
 6285 009c 0B       		.uleb128 0xb
 6286 009d 00       		.byte	0
 6287 009e 00       		.byte	0
 6288 009f 0E       		.uleb128 0xe
 6289 00a0 13       		.uleb128 0x13
 6290 00a1 01       		.byte	0x1
 6291 00a2 03       		.uleb128 0x3
 6292 00a3 0E       		.uleb128 0xe
 6293 00a4 0B       		.uleb128 0xb
 6294 00a5 0B       		.uleb128 0xb
 6295 00a6 3A       		.uleb128 0x3a
 6296 00a7 0B       		.uleb128 0xb
 6297 00a8 3B       		.uleb128 0x3b
 6298 00a9 0B       		.uleb128 0xb
 6299 00aa 01       		.uleb128 0x1
ARM GAS  C:\Users\leoja\AppData\Local\Temp\ccByxJuZ.s 			page 129


 6300 00ab 13       		.uleb128 0x13
 6301 00ac 00       		.byte	0
 6302 00ad 00       		.byte	0
 6303 00ae 0F       		.uleb128 0xf
 6304 00af 0D       		.uleb128 0xd
 6305 00b0 00       		.byte	0
 6306 00b1 03       		.uleb128 0x3
 6307 00b2 0E       		.uleb128 0xe
 6308 00b3 3A       		.uleb128 0x3a
 6309 00b4 0B       		.uleb128 0xb
 6310 00b5 3B       		.uleb128 0x3b
 6311 00b6 05       		.uleb128 0x5
 6312 00b7 49       		.uleb128 0x49
 6313 00b8 13       		.uleb128 0x13
 6314 00b9 38       		.uleb128 0x38
 6315 00ba 0B       		.uleb128 0xb
 6316 00bb 00       		.byte	0
 6317 00bc 00       		.byte	0
 6318 00bd 10       		.uleb128 0x10
 6319 00be 13       		.uleb128 0x13
 6320 00bf 01       		.byte	0x1
 6321 00c0 03       		.uleb128 0x3
 6322 00c1 0E       		.uleb128 0xe
 6323 00c2 0B       		.uleb128 0xb
 6324 00c3 0B       		.uleb128 0xb
 6325 00c4 3A       		.uleb128 0x3a
 6326 00c5 0B       		.uleb128 0xb
 6327 00c6 3B       		.uleb128 0x3b
 6328 00c7 05       		.uleb128 0x5
 6329 00c8 01       		.uleb128 0x1
 6330 00c9 13       		.uleb128 0x13
 6331 00ca 00       		.byte	0
 6332 00cb 00       		.byte	0
 6333 00cc 11       		.uleb128 0x11
 6334 00cd 0D       		.uleb128 0xd
 6335 00ce 00       		.byte	0
 6336 00cf 03       		.uleb128 0x3
 6337 00d0 08       		.uleb128 0x8
 6338 00d1 3A       		.uleb128 0x3a
 6339 00d2 0B       		.uleb128 0xb
 6340 00d3 3B       		.uleb128 0x3b
 6341 00d4 05       		.uleb128 0x5
 6342 00d5 49       		.uleb128 0x49
 6343 00d6 13       		.uleb128 0x13
 6344 00d7 38       		.uleb128 0x38
 6345 00d8 0B       		.uleb128 0xb
 6346 00d9 00       		.byte	0
 6347 00da 00       		.byte	0
 6348 00db 12       		.uleb128 0x12
 6349 00dc 26       		.uleb128 0x26
 6350 00dd 00       		.byte	0
 6351 00de 49       		.uleb128 0x49
 6352 00df 13       		.uleb128 0x13
 6353 00e0 00       		.byte	0
 6354 00e1 00       		.byte	0
 6355 00e2 13       		.uleb128 0x13
 6356 00e3 15       		.uleb128 0x15
ARM GAS  C:\Users\leoja\AppData\Local\Temp\ccByxJuZ.s 			page 130


 6357 00e4 01       		.byte	0x1
 6358 00e5 27       		.uleb128 0x27
 6359 00e6 19       		.uleb128 0x19
 6360 00e7 01       		.uleb128 0x1
 6361 00e8 13       		.uleb128 0x13
 6362 00e9 00       		.byte	0
 6363 00ea 00       		.byte	0
 6364 00eb 14       		.uleb128 0x14
 6365 00ec 05       		.uleb128 0x5
 6366 00ed 00       		.byte	0
 6367 00ee 49       		.uleb128 0x49
 6368 00ef 13       		.uleb128 0x13
 6369 00f0 00       		.byte	0
 6370 00f1 00       		.byte	0
 6371 00f2 15       		.uleb128 0x15
 6372 00f3 13       		.uleb128 0x13
 6373 00f4 01       		.byte	0x1
 6374 00f5 0B       		.uleb128 0xb
 6375 00f6 0B       		.uleb128 0xb
 6376 00f7 3A       		.uleb128 0x3a
 6377 00f8 0B       		.uleb128 0xb
 6378 00f9 3B       		.uleb128 0x3b
 6379 00fa 05       		.uleb128 0x5
 6380 00fb 01       		.uleb128 0x1
 6381 00fc 13       		.uleb128 0x13
 6382 00fd 00       		.byte	0
 6383 00fe 00       		.byte	0
 6384 00ff 16       		.uleb128 0x16
 6385 0100 01       		.uleb128 0x1
 6386 0101 01       		.byte	0x1
 6387 0102 49       		.uleb128 0x49
 6388 0103 13       		.uleb128 0x13
 6389 0104 01       		.uleb128 0x1
 6390 0105 13       		.uleb128 0x13
 6391 0106 00       		.byte	0
 6392 0107 00       		.byte	0
 6393 0108 17       		.uleb128 0x17
 6394 0109 21       		.uleb128 0x21
 6395 010a 00       		.byte	0
 6396 010b 49       		.uleb128 0x49
 6397 010c 13       		.uleb128 0x13
 6398 010d 2F       		.uleb128 0x2f
 6399 010e 0B       		.uleb128 0xb
 6400 010f 00       		.byte	0
 6401 0110 00       		.byte	0
 6402 0111 18       		.uleb128 0x18
 6403 0112 2E       		.uleb128 0x2e
 6404 0113 01       		.byte	0x1
 6405 0114 3F       		.uleb128 0x3f
 6406 0115 19       		.uleb128 0x19
 6407 0116 03       		.uleb128 0x3
 6408 0117 0E       		.uleb128 0xe
 6409 0118 3A       		.uleb128 0x3a
 6410 0119 0B       		.uleb128 0xb
 6411 011a 3B       		.uleb128 0x3b
 6412 011b 0B       		.uleb128 0xb
 6413 011c 11       		.uleb128 0x11
ARM GAS  C:\Users\leoja\AppData\Local\Temp\ccByxJuZ.s 			page 131


 6414 011d 01       		.uleb128 0x1
 6415 011e 12       		.uleb128 0x12
 6416 011f 06       		.uleb128 0x6
 6417 0120 40       		.uleb128 0x40
 6418 0121 18       		.uleb128 0x18
 6419 0122 9742     		.uleb128 0x2117
 6420 0124 19       		.uleb128 0x19
 6421 0125 01       		.uleb128 0x1
 6422 0126 13       		.uleb128 0x13
 6423 0127 00       		.byte	0
 6424 0128 00       		.byte	0
 6425 0129 19       		.uleb128 0x19
 6426 012a 898201   		.uleb128 0x4109
 6427 012d 01       		.byte	0x1
 6428 012e 11       		.uleb128 0x11
 6429 012f 01       		.uleb128 0x1
 6430 0130 31       		.uleb128 0x31
 6431 0131 13       		.uleb128 0x13
 6432 0132 01       		.uleb128 0x1
 6433 0133 13       		.uleb128 0x13
 6434 0134 00       		.byte	0
 6435 0135 00       		.byte	0
 6436 0136 1A       		.uleb128 0x1a
 6437 0137 8A8201   		.uleb128 0x410a
 6438 013a 00       		.byte	0
 6439 013b 02       		.uleb128 0x2
 6440 013c 18       		.uleb128 0x18
 6441 013d 9142     		.uleb128 0x2111
 6442 013f 18       		.uleb128 0x18
 6443 0140 00       		.byte	0
 6444 0141 00       		.byte	0
 6445 0142 1B       		.uleb128 0x1b
 6446 0143 898201   		.uleb128 0x4109
 6447 0146 01       		.byte	0x1
 6448 0147 11       		.uleb128 0x11
 6449 0148 01       		.uleb128 0x1
 6450 0149 31       		.uleb128 0x31
 6451 014a 13       		.uleb128 0x13
 6452 014b 00       		.byte	0
 6453 014c 00       		.byte	0
 6454 014d 1C       		.uleb128 0x1c
 6455 014e 2E       		.uleb128 0x2e
 6456 014f 01       		.byte	0x1
 6457 0150 3F       		.uleb128 0x3f
 6458 0151 19       		.uleb128 0x19
 6459 0152 03       		.uleb128 0x3
 6460 0153 0E       		.uleb128 0xe
 6461 0154 3A       		.uleb128 0x3a
 6462 0155 0B       		.uleb128 0xb
 6463 0156 3B       		.uleb128 0x3b
 6464 0157 0B       		.uleb128 0xb
 6465 0158 27       		.uleb128 0x27
 6466 0159 19       		.uleb128 0x19
 6467 015a 11       		.uleb128 0x11
 6468 015b 01       		.uleb128 0x1
 6469 015c 12       		.uleb128 0x12
 6470 015d 06       		.uleb128 0x6
ARM GAS  C:\Users\leoja\AppData\Local\Temp\ccByxJuZ.s 			page 132


 6471 015e 40       		.uleb128 0x40
 6472 015f 18       		.uleb128 0x18
 6473 0160 9742     		.uleb128 0x2117
 6474 0162 19       		.uleb128 0x19
 6475 0163 01       		.uleb128 0x1
 6476 0164 13       		.uleb128 0x13
 6477 0165 00       		.byte	0
 6478 0166 00       		.byte	0
 6479 0167 1D       		.uleb128 0x1d
 6480 0168 05       		.uleb128 0x5
 6481 0169 00       		.byte	0
 6482 016a 03       		.uleb128 0x3
 6483 016b 0E       		.uleb128 0xe
 6484 016c 3A       		.uleb128 0x3a
 6485 016d 0B       		.uleb128 0xb
 6486 016e 3B       		.uleb128 0x3b
 6487 016f 0B       		.uleb128 0xb
 6488 0170 49       		.uleb128 0x49
 6489 0171 13       		.uleb128 0x13
 6490 0172 02       		.uleb128 0x2
 6491 0173 17       		.uleb128 0x17
 6492 0174 00       		.byte	0
 6493 0175 00       		.byte	0
 6494 0176 1E       		.uleb128 0x1e
 6495 0177 05       		.uleb128 0x5
 6496 0178 00       		.byte	0
 6497 0179 03       		.uleb128 0x3
 6498 017a 08       		.uleb128 0x8
 6499 017b 3A       		.uleb128 0x3a
 6500 017c 0B       		.uleb128 0xb
 6501 017d 3B       		.uleb128 0x3b
 6502 017e 0B       		.uleb128 0xb
 6503 017f 49       		.uleb128 0x49
 6504 0180 13       		.uleb128 0x13
 6505 0181 02       		.uleb128 0x2
 6506 0182 17       		.uleb128 0x17
 6507 0183 00       		.byte	0
 6508 0184 00       		.byte	0
 6509 0185 1F       		.uleb128 0x1f
 6510 0186 34       		.uleb128 0x34
 6511 0187 00       		.byte	0
 6512 0188 03       		.uleb128 0x3
 6513 0189 0E       		.uleb128 0xe
 6514 018a 3A       		.uleb128 0x3a
 6515 018b 0B       		.uleb128 0xb
 6516 018c 3B       		.uleb128 0x3b
 6517 018d 0B       		.uleb128 0xb
 6518 018e 49       		.uleb128 0x49
 6519 018f 13       		.uleb128 0x13
 6520 0190 02       		.uleb128 0x2
 6521 0191 17       		.uleb128 0x17
 6522 0192 00       		.byte	0
 6523 0193 00       		.byte	0
 6524 0194 20       		.uleb128 0x20
 6525 0195 0B       		.uleb128 0xb
 6526 0196 01       		.byte	0x1
 6527 0197 11       		.uleb128 0x11
ARM GAS  C:\Users\leoja\AppData\Local\Temp\ccByxJuZ.s 			page 133


 6528 0198 01       		.uleb128 0x1
 6529 0199 12       		.uleb128 0x12
 6530 019a 06       		.uleb128 0x6
 6531 019b 01       		.uleb128 0x1
 6532 019c 13       		.uleb128 0x13
 6533 019d 00       		.byte	0
 6534 019e 00       		.byte	0
 6535 019f 21       		.uleb128 0x21
 6536 01a0 34       		.uleb128 0x34
 6537 01a1 00       		.byte	0
 6538 01a2 03       		.uleb128 0x3
 6539 01a3 0E       		.uleb128 0xe
 6540 01a4 3A       		.uleb128 0x3a
 6541 01a5 0B       		.uleb128 0xb
 6542 01a6 3B       		.uleb128 0x3b
 6543 01a7 0B       		.uleb128 0xb
 6544 01a8 49       		.uleb128 0x49
 6545 01a9 13       		.uleb128 0x13
 6546 01aa 02       		.uleb128 0x2
 6547 01ab 18       		.uleb128 0x18
 6548 01ac 00       		.byte	0
 6549 01ad 00       		.byte	0
 6550 01ae 22       		.uleb128 0x22
 6551 01af 898201   		.uleb128 0x4109
 6552 01b2 00       		.byte	0
 6553 01b3 11       		.uleb128 0x11
 6554 01b4 01       		.uleb128 0x1
 6555 01b5 31       		.uleb128 0x31
 6556 01b6 13       		.uleb128 0x13
 6557 01b7 00       		.byte	0
 6558 01b8 00       		.byte	0
 6559 01b9 23       		.uleb128 0x23
 6560 01ba 34       		.uleb128 0x34
 6561 01bb 00       		.byte	0
 6562 01bc 03       		.uleb128 0x3
 6563 01bd 0E       		.uleb128 0xe
 6564 01be 3A       		.uleb128 0x3a
 6565 01bf 0B       		.uleb128 0xb
 6566 01c0 3B       		.uleb128 0x3b
 6567 01c1 0B       		.uleb128 0xb
 6568 01c2 49       		.uleb128 0x49
 6569 01c3 13       		.uleb128 0x13
 6570 01c4 1C       		.uleb128 0x1c
 6571 01c5 0B       		.uleb128 0xb
 6572 01c6 00       		.byte	0
 6573 01c7 00       		.byte	0
 6574 01c8 24       		.uleb128 0x24
 6575 01c9 34       		.uleb128 0x34
 6576 01ca 00       		.byte	0
 6577 01cb 03       		.uleb128 0x3
 6578 01cc 0E       		.uleb128 0xe
 6579 01cd 3A       		.uleb128 0x3a
 6580 01ce 0B       		.uleb128 0xb
 6581 01cf 3B       		.uleb128 0x3b
 6582 01d0 05       		.uleb128 0x5
 6583 01d1 49       		.uleb128 0x49
 6584 01d2 13       		.uleb128 0x13
ARM GAS  C:\Users\leoja\AppData\Local\Temp\ccByxJuZ.s 			page 134


 6585 01d3 02       		.uleb128 0x2
 6586 01d4 18       		.uleb128 0x18
 6587 01d5 00       		.byte	0
 6588 01d6 00       		.byte	0
 6589 01d7 25       		.uleb128 0x25
 6590 01d8 2E       		.uleb128 0x2e
 6591 01d9 01       		.byte	0x1
 6592 01da 3F       		.uleb128 0x3f
 6593 01db 19       		.uleb128 0x19
 6594 01dc 03       		.uleb128 0x3
 6595 01dd 0E       		.uleb128 0xe
 6596 01de 3A       		.uleb128 0x3a
 6597 01df 0B       		.uleb128 0xb
 6598 01e0 3B       		.uleb128 0x3b
 6599 01e1 05       		.uleb128 0x5
 6600 01e2 27       		.uleb128 0x27
 6601 01e3 19       		.uleb128 0x19
 6602 01e4 11       		.uleb128 0x11
 6603 01e5 01       		.uleb128 0x1
 6604 01e6 12       		.uleb128 0x12
 6605 01e7 06       		.uleb128 0x6
 6606 01e8 40       		.uleb128 0x40
 6607 01e9 18       		.uleb128 0x18
 6608 01ea 9742     		.uleb128 0x2117
 6609 01ec 19       		.uleb128 0x19
 6610 01ed 01       		.uleb128 0x1
 6611 01ee 13       		.uleb128 0x13
 6612 01ef 00       		.byte	0
 6613 01f0 00       		.byte	0
 6614 01f1 26       		.uleb128 0x26
 6615 01f2 05       		.uleb128 0x5
 6616 01f3 00       		.byte	0
 6617 01f4 03       		.uleb128 0x3
 6618 01f5 0E       		.uleb128 0xe
 6619 01f6 3A       		.uleb128 0x3a
 6620 01f7 0B       		.uleb128 0xb
 6621 01f8 3B       		.uleb128 0x3b
 6622 01f9 05       		.uleb128 0x5
 6623 01fa 49       		.uleb128 0x49
 6624 01fb 13       		.uleb128 0x13
 6625 01fc 02       		.uleb128 0x2
 6626 01fd 17       		.uleb128 0x17
 6627 01fe 00       		.byte	0
 6628 01ff 00       		.byte	0
 6629 0200 27       		.uleb128 0x27
 6630 0201 05       		.uleb128 0x5
 6631 0202 00       		.byte	0
 6632 0203 03       		.uleb128 0x3
 6633 0204 08       		.uleb128 0x8
 6634 0205 3A       		.uleb128 0x3a
 6635 0206 0B       		.uleb128 0xb
 6636 0207 3B       		.uleb128 0x3b
 6637 0208 05       		.uleb128 0x5
 6638 0209 49       		.uleb128 0x49
 6639 020a 13       		.uleb128 0x13
 6640 020b 02       		.uleb128 0x2
 6641 020c 17       		.uleb128 0x17
ARM GAS  C:\Users\leoja\AppData\Local\Temp\ccByxJuZ.s 			page 135


 6642 020d 00       		.byte	0
 6643 020e 00       		.byte	0
 6644 020f 28       		.uleb128 0x28
 6645 0210 34       		.uleb128 0x34
 6646 0211 00       		.byte	0
 6647 0212 03       		.uleb128 0x3
 6648 0213 0E       		.uleb128 0xe
 6649 0214 3A       		.uleb128 0x3a
 6650 0215 0B       		.uleb128 0xb
 6651 0216 3B       		.uleb128 0x3b
 6652 0217 05       		.uleb128 0x5
 6653 0218 49       		.uleb128 0x49
 6654 0219 13       		.uleb128 0x13
 6655 021a 02       		.uleb128 0x2
 6656 021b 17       		.uleb128 0x17
 6657 021c 00       		.byte	0
 6658 021d 00       		.byte	0
 6659 021e 29       		.uleb128 0x29
 6660 021f 34       		.uleb128 0x34
 6661 0220 00       		.byte	0
 6662 0221 03       		.uleb128 0x3
 6663 0222 0E       		.uleb128 0xe
 6664 0223 3A       		.uleb128 0x3a
 6665 0224 0B       		.uleb128 0xb
 6666 0225 3B       		.uleb128 0x3b
 6667 0226 05       		.uleb128 0x5
 6668 0227 49       		.uleb128 0x49
 6669 0228 13       		.uleb128 0x13
 6670 0229 1C       		.uleb128 0x1c
 6671 022a 0B       		.uleb128 0xb
 6672 022b 00       		.byte	0
 6673 022c 00       		.byte	0
 6674 022d 2A       		.uleb128 0x2a
 6675 022e 2E       		.uleb128 0x2e
 6676 022f 01       		.byte	0x1
 6677 0230 3F       		.uleb128 0x3f
 6678 0231 19       		.uleb128 0x19
 6679 0232 03       		.uleb128 0x3
 6680 0233 0E       		.uleb128 0xe
 6681 0234 3A       		.uleb128 0x3a
 6682 0235 0B       		.uleb128 0xb
 6683 0236 3B       		.uleb128 0x3b
 6684 0237 05       		.uleb128 0x5
 6685 0238 27       		.uleb128 0x27
 6686 0239 19       		.uleb128 0x19
 6687 023a 11       		.uleb128 0x11
 6688 023b 01       		.uleb128 0x1
 6689 023c 12       		.uleb128 0x12
 6690 023d 06       		.uleb128 0x6
 6691 023e 40       		.uleb128 0x40
 6692 023f 18       		.uleb128 0x18
 6693 0240 9642     		.uleb128 0x2116
 6694 0242 19       		.uleb128 0x19
 6695 0243 01       		.uleb128 0x1
 6696 0244 13       		.uleb128 0x13
 6697 0245 00       		.byte	0
 6698 0246 00       		.byte	0
ARM GAS  C:\Users\leoja\AppData\Local\Temp\ccByxJuZ.s 			page 136


 6699 0247 2B       		.uleb128 0x2b
 6700 0248 0B       		.uleb128 0xb
 6701 0249 01       		.byte	0x1
 6702 024a 55       		.uleb128 0x55
 6703 024b 17       		.uleb128 0x17
 6704 024c 01       		.uleb128 0x1
 6705 024d 13       		.uleb128 0x13
 6706 024e 00       		.byte	0
 6707 024f 00       		.byte	0
 6708 0250 2C       		.uleb128 0x2c
 6709 0251 2E       		.uleb128 0x2e
 6710 0252 01       		.byte	0x1
 6711 0253 3F       		.uleb128 0x3f
 6712 0254 19       		.uleb128 0x19
 6713 0255 03       		.uleb128 0x3
 6714 0256 0E       		.uleb128 0xe
 6715 0257 3A       		.uleb128 0x3a
 6716 0258 0B       		.uleb128 0xb
 6717 0259 3B       		.uleb128 0x3b
 6718 025a 05       		.uleb128 0x5
 6719 025b 27       		.uleb128 0x27
 6720 025c 19       		.uleb128 0x19
 6721 025d 20       		.uleb128 0x20
 6722 025e 0B       		.uleb128 0xb
 6723 025f 01       		.uleb128 0x1
 6724 0260 13       		.uleb128 0x13
 6725 0261 00       		.byte	0
 6726 0262 00       		.byte	0
 6727 0263 2D       		.uleb128 0x2d
 6728 0264 05       		.uleb128 0x5
 6729 0265 00       		.byte	0
 6730 0266 03       		.uleb128 0x3
 6731 0267 0E       		.uleb128 0xe
 6732 0268 3A       		.uleb128 0x3a
 6733 0269 0B       		.uleb128 0xb
 6734 026a 3B       		.uleb128 0x3b
 6735 026b 05       		.uleb128 0x5
 6736 026c 49       		.uleb128 0x49
 6737 026d 13       		.uleb128 0x13
 6738 026e 00       		.byte	0
 6739 026f 00       		.byte	0
 6740 0270 2E       		.uleb128 0x2e
 6741 0271 05       		.uleb128 0x5
 6742 0272 00       		.byte	0
 6743 0273 03       		.uleb128 0x3
 6744 0274 08       		.uleb128 0x8
 6745 0275 3A       		.uleb128 0x3a
 6746 0276 0B       		.uleb128 0xb
 6747 0277 3B       		.uleb128 0x3b
 6748 0278 05       		.uleb128 0x5
 6749 0279 49       		.uleb128 0x49
 6750 027a 13       		.uleb128 0x13
 6751 027b 00       		.byte	0
 6752 027c 00       		.byte	0
 6753 027d 2F       		.uleb128 0x2f
 6754 027e 2E       		.uleb128 0x2e
 6755 027f 01       		.byte	0x1
ARM GAS  C:\Users\leoja\AppData\Local\Temp\ccByxJuZ.s 			page 137


 6756 0280 31       		.uleb128 0x31
 6757 0281 13       		.uleb128 0x13
 6758 0282 11       		.uleb128 0x11
 6759 0283 01       		.uleb128 0x1
 6760 0284 12       		.uleb128 0x12
 6761 0285 06       		.uleb128 0x6
 6762 0286 40       		.uleb128 0x40
 6763 0287 18       		.uleb128 0x18
 6764 0288 9742     		.uleb128 0x2117
 6765 028a 19       		.uleb128 0x19
 6766 028b 01       		.uleb128 0x1
 6767 028c 13       		.uleb128 0x13
 6768 028d 00       		.byte	0
 6769 028e 00       		.byte	0
 6770 028f 30       		.uleb128 0x30
 6771 0290 05       		.uleb128 0x5
 6772 0291 00       		.byte	0
 6773 0292 31       		.uleb128 0x31
 6774 0293 13       		.uleb128 0x13
 6775 0294 02       		.uleb128 0x2
 6776 0295 17       		.uleb128 0x17
 6777 0296 00       		.byte	0
 6778 0297 00       		.byte	0
 6779 0298 31       		.uleb128 0x31
 6780 0299 34       		.uleb128 0x34
 6781 029a 00       		.byte	0
 6782 029b 03       		.uleb128 0x3
 6783 029c 0E       		.uleb128 0xe
 6784 029d 3A       		.uleb128 0x3a
 6785 029e 0B       		.uleb128 0xb
 6786 029f 3B       		.uleb128 0x3b
 6787 02a0 05       		.uleb128 0x5
 6788 02a1 49       		.uleb128 0x49
 6789 02a2 13       		.uleb128 0x13
 6790 02a3 1C       		.uleb128 0x1c
 6791 02a4 06       		.uleb128 0x6
 6792 02a5 00       		.byte	0
 6793 02a6 00       		.byte	0
 6794 02a7 32       		.uleb128 0x32
 6795 02a8 34       		.uleb128 0x34
 6796 02a9 00       		.byte	0
 6797 02aa 03       		.uleb128 0x3
 6798 02ab 0E       		.uleb128 0xe
 6799 02ac 3A       		.uleb128 0x3a
 6800 02ad 0B       		.uleb128 0xb
 6801 02ae 3B       		.uleb128 0x3b
 6802 02af 0B       		.uleb128 0xb
 6803 02b0 49       		.uleb128 0x49
 6804 02b1 13       		.uleb128 0x13
 6805 02b2 3F       		.uleb128 0x3f
 6806 02b3 19       		.uleb128 0x19
 6807 02b4 3C       		.uleb128 0x3c
 6808 02b5 19       		.uleb128 0x19
 6809 02b6 00       		.byte	0
 6810 02b7 00       		.byte	0
 6811 02b8 33       		.uleb128 0x33
 6812 02b9 34       		.uleb128 0x34
ARM GAS  C:\Users\leoja\AppData\Local\Temp\ccByxJuZ.s 			page 138


 6813 02ba 00       		.byte	0
 6814 02bb 03       		.uleb128 0x3
 6815 02bc 0E       		.uleb128 0xe
 6816 02bd 3A       		.uleb128 0x3a
 6817 02be 0B       		.uleb128 0xb
 6818 02bf 3B       		.uleb128 0x3b
 6819 02c0 0B       		.uleb128 0xb
 6820 02c1 49       		.uleb128 0x49
 6821 02c2 13       		.uleb128 0x13
 6822 02c3 3F       		.uleb128 0x3f
 6823 02c4 19       		.uleb128 0x19
 6824 02c5 02       		.uleb128 0x2
 6825 02c6 18       		.uleb128 0x18
 6826 02c7 00       		.byte	0
 6827 02c8 00       		.byte	0
 6828 02c9 34       		.uleb128 0x34
 6829 02ca 2E       		.uleb128 0x2e
 6830 02cb 00       		.byte	0
 6831 02cc 3F       		.uleb128 0x3f
 6832 02cd 19       		.uleb128 0x19
 6833 02ce 3C       		.uleb128 0x3c
 6834 02cf 19       		.uleb128 0x19
 6835 02d0 6E       		.uleb128 0x6e
 6836 02d1 0E       		.uleb128 0xe
 6837 02d2 03       		.uleb128 0x3
 6838 02d3 0E       		.uleb128 0xe
 6839 02d4 3A       		.uleb128 0x3a
 6840 02d5 0B       		.uleb128 0xb
 6841 02d6 3B       		.uleb128 0x3b
 6842 02d7 05       		.uleb128 0x5
 6843 02d8 00       		.byte	0
 6844 02d9 00       		.byte	0
 6845 02da 35       		.uleb128 0x35
 6846 02db 2E       		.uleb128 0x2e
 6847 02dc 00       		.byte	0
 6848 02dd 3F       		.uleb128 0x3f
 6849 02de 19       		.uleb128 0x19
 6850 02df 3C       		.uleb128 0x3c
 6851 02e0 19       		.uleb128 0x19
 6852 02e1 6E       		.uleb128 0x6e
 6853 02e2 0E       		.uleb128 0xe
 6854 02e3 03       		.uleb128 0x3
 6855 02e4 0E       		.uleb128 0xe
 6856 02e5 3A       		.uleb128 0x3a
 6857 02e6 0B       		.uleb128 0xb
 6858 02e7 3B       		.uleb128 0x3b
 6859 02e8 0B       		.uleb128 0xb
 6860 02e9 00       		.byte	0
 6861 02ea 00       		.byte	0
 6862 02eb 00       		.byte	0
 6863              		.section	.debug_loc,"",%progbits
 6864              	.Ldebug_loc0:
 6865              	.LLST0:
 6866 0000 00000000 		.4byte	.LVL20
 6867 0004 30000000 		.4byte	.LVL30
 6868 0008 0100     		.2byte	0x1
 6869 000a 50       		.byte	0x50
ARM GAS  C:\Users\leoja\AppData\Local\Temp\ccByxJuZ.s 			page 139


 6870 000b 30000000 		.4byte	.LVL30
 6871 000f 5C010000 		.4byte	.LFE38
 6872 0013 0400     		.2byte	0x4
 6873 0015 F3       		.byte	0xf3
 6874 0016 01       		.uleb128 0x1
 6875 0017 50       		.byte	0x50
 6876 0018 9F       		.byte	0x9f
 6877 0019 00000000 		.4byte	0
 6878 001d 00000000 		.4byte	0
 6879              	.LLST1:
 6880 0021 00000000 		.4byte	.LVL20
 6881 0025 12000000 		.4byte	.LVL24
 6882 0029 0100     		.2byte	0x1
 6883 002b 51       		.byte	0x51
 6884 002c 12000000 		.4byte	.LVL24
 6885 0030 5C010000 		.4byte	.LFE38
 6886 0034 0400     		.2byte	0x4
 6887 0036 F3       		.byte	0xf3
 6888 0037 01       		.uleb128 0x1
 6889 0038 51       		.byte	0x51
 6890 0039 9F       		.byte	0x9f
 6891 003a 00000000 		.4byte	0
 6892 003e 00000000 		.4byte	0
 6893              	.LLST2:
 6894 0042 00000000 		.4byte	.LVL20
 6895 0046 1E000000 		.4byte	.LVL27
 6896 004a 0100     		.2byte	0x1
 6897 004c 52       		.byte	0x52
 6898 004d 1E000000 		.4byte	.LVL27
 6899 0051 5C010000 		.4byte	.LFE38
 6900 0055 0400     		.2byte	0x4
 6901 0057 F3       		.byte	0xf3
 6902 0058 01       		.uleb128 0x1
 6903 0059 52       		.byte	0x52
 6904 005a 9F       		.byte	0x9f
 6905 005b 00000000 		.4byte	0
 6906 005f 00000000 		.4byte	0
 6907              	.LLST3:
 6908 0063 00000000 		.4byte	.LVL20
 6909 0067 08000000 		.4byte	.LVL21
 6910 006b 0100     		.2byte	0x1
 6911 006d 53       		.byte	0x53
 6912 006e 08000000 		.4byte	.LVL21
 6913 0072 5C010000 		.4byte	.LFE38
 6914 0076 0400     		.2byte	0x4
 6915 0078 F3       		.byte	0xf3
 6916 0079 01       		.uleb128 0x1
 6917 007a 53       		.byte	0x53
 6918 007b 9F       		.byte	0x9f
 6919 007c 00000000 		.4byte	0
 6920 0080 00000000 		.4byte	0
 6921              	.LLST4:
 6922 0084 00000000 		.4byte	.LVL20
 6923 0088 08000000 		.4byte	.LVL21
 6924 008c 0200     		.2byte	0x2
 6925 008e 91       		.byte	0x91
 6926 008f 00       		.sleb128 0
ARM GAS  C:\Users\leoja\AppData\Local\Temp\ccByxJuZ.s 			page 140


 6927 0090 08000000 		.4byte	.LVL21
 6928 0094 0A000000 		.4byte	.LVL22
 6929 0098 0200     		.2byte	0x2
 6930 009a 73       		.byte	0x73
 6931 009b 00       		.sleb128 0
 6932 009c 0A000000 		.4byte	.LVL22
 6933 00a0 5C010000 		.4byte	.LFE38
 6934 00a4 0200     		.2byte	0x2
 6935 00a6 91       		.byte	0x91
 6936 00a7 00       		.sleb128 0
 6937 00a8 00000000 		.4byte	0
 6938 00ac 00000000 		.4byte	0
 6939              	.LLST5:
 6940 00b0 00000000 		.4byte	.LVL20
 6941 00b4 08000000 		.4byte	.LVL21
 6942 00b8 0200     		.2byte	0x2
 6943 00ba 91       		.byte	0x91
 6944 00bb 04       		.sleb128 4
 6945 00bc 08000000 		.4byte	.LVL21
 6946 00c0 0A000000 		.4byte	.LVL22
 6947 00c4 0200     		.2byte	0x2
 6948 00c6 73       		.byte	0x73
 6949 00c7 04       		.sleb128 4
 6950 00c8 0A000000 		.4byte	.LVL22
 6951 00cc 10000000 		.4byte	.LVL23
 6952 00d0 0200     		.2byte	0x2
 6953 00d2 91       		.byte	0x91
 6954 00d3 04       		.sleb128 4
 6955 00d4 10000000 		.4byte	.LVL23
 6956 00d8 14000000 		.4byte	.LVL25
 6957 00dc 0200     		.2byte	0x2
 6958 00de 73       		.byte	0x73
 6959 00df 00       		.sleb128 0
 6960 00e0 14000000 		.4byte	.LVL25
 6961 00e4 5C010000 		.4byte	.LFE38
 6962 00e8 0200     		.2byte	0x2
 6963 00ea 91       		.byte	0x91
 6964 00eb 04       		.sleb128 4
 6965 00ec 00000000 		.4byte	0
 6966 00f0 00000000 		.4byte	0
 6967              	.LLST6:
 6968 00f4 2C000000 		.4byte	.LVL28
 6969 00f8 53000000 		.4byte	.LVL33-1
 6970 00fc 0100     		.2byte	0x1
 6971 00fe 52       		.byte	0x52
 6972 00ff 00000000 		.4byte	0
 6973 0103 00000000 		.4byte	0
 6974              	.LLST7:
 6975 0107 3A000000 		.4byte	.LVL31
 6976 010b 64000000 		.4byte	.LVL35
 6977 010f 0100     		.2byte	0x1
 6978 0111 56       		.byte	0x56
 6979 0112 94000000 		.4byte	.LVL37
 6980 0116 CC000000 		.4byte	.LVL41
 6981 011a 0100     		.2byte	0x1
 6982 011c 56       		.byte	0x56
 6983 011d F4000000 		.4byte	.LVL44
ARM GAS  C:\Users\leoja\AppData\Local\Temp\ccByxJuZ.s 			page 141


 6984 0121 FE000000 		.4byte	.LVL45
 6985 0125 0100     		.2byte	0x1
 6986 0127 56       		.byte	0x56
 6987 0128 00000000 		.4byte	0
 6988 012c 00000000 		.4byte	0
 6989              	.LLST8:
 6990 0130 4A000000 		.4byte	.LVL32
 6991 0134 96000000 		.4byte	.LVL38
 6992 0138 0100     		.2byte	0x1
 6993 013a 57       		.byte	0x57
 6994 013b 96000000 		.4byte	.LVL38
 6995 013f E8000000 		.4byte	.LVL42
 6996 0143 1600     		.2byte	0x16
 6997 0145 91       		.byte	0x91
 6998 0146 04       		.sleb128 4
 6999 0147 94       		.byte	0x94
 7000 0148 01       		.byte	0x1
 7001 0149 08       		.byte	0x8
 7002 014a FF       		.byte	0xff
 7003 014b 1A       		.byte	0x1a
 7004 014c 09       		.byte	0x9
 7005 014d EF       		.byte	0xef
 7006 014e 1E       		.byte	0x1e
 7007 014f 74       		.byte	0x74
 7008 0150 00       		.sleb128 0
 7009 0151 91       		.byte	0x91
 7010 0152 54       		.sleb128 -44
 7011 0153 06       		.byte	0x6
 7012 0154 22       		.byte	0x22
 7013 0155 31       		.byte	0x31
 7014 0156 26       		.byte	0x26
 7015 0157 22       		.byte	0x22
 7016 0158 35       		.byte	0x35
 7017 0159 1C       		.byte	0x1c
 7018 015a 9F       		.byte	0x9f
 7019 015b F4000000 		.4byte	.LVL44
 7020 015f 1C010000 		.4byte	.LVL47
 7021 0163 1600     		.2byte	0x16
 7022 0165 91       		.byte	0x91
 7023 0166 04       		.sleb128 4
 7024 0167 94       		.byte	0x94
 7025 0168 01       		.byte	0x1
 7026 0169 08       		.byte	0x8
 7027 016a FF       		.byte	0xff
 7028 016b 1A       		.byte	0x1a
 7029 016c 09       		.byte	0x9
 7030 016d EF       		.byte	0xef
 7031 016e 1E       		.byte	0x1e
 7032 016f 74       		.byte	0x74
 7033 0170 00       		.sleb128 0
 7034 0171 91       		.byte	0x91
 7035 0172 54       		.sleb128 -44
 7036 0173 06       		.byte	0x6
 7037 0174 22       		.byte	0x22
 7038 0175 31       		.byte	0x31
 7039 0176 26       		.byte	0x26
 7040 0177 22       		.byte	0x22
ARM GAS  C:\Users\leoja\AppData\Local\Temp\ccByxJuZ.s 			page 142


 7041 0178 35       		.byte	0x35
 7042 0179 1C       		.byte	0x1c
 7043 017a 9F       		.byte	0x9f
 7044 017b 00000000 		.4byte	0
 7045 017f 00000000 		.4byte	0
 7046              	.LLST9:
 7047 0183 1C000000 		.4byte	.LVL26
 7048 0187 2E000000 		.4byte	.LVL29
 7049 018b 0100     		.2byte	0x1
 7050 018d 53       		.byte	0x53
 7051 018e 2E000000 		.4byte	.LVL29
 7052 0192 53000000 		.4byte	.LVL33-1
 7053 0196 0700     		.2byte	0x7
 7054 0198 71       		.byte	0x71
 7055 0199 00       		.sleb128 0
 7056 019a 44       		.byte	0x44
 7057 019b 1E       		.byte	0x1e
 7058 019c 23       		.byte	0x23
 7059 019d 0C       		.uleb128 0xc
 7060 019e 9F       		.byte	0x9f
 7061 019f 53000000 		.4byte	.LVL33-1
 7062 01a3 5C010000 		.4byte	.LFE38
 7063 01a7 0C00     		.2byte	0xc
 7064 01a9 91       		.byte	0x91
 7065 01aa 04       		.sleb128 4
 7066 01ab 94       		.byte	0x94
 7067 01ac 01       		.byte	0x1
 7068 01ad 08       		.byte	0x8
 7069 01ae FF       		.byte	0xff
 7070 01af 1A       		.byte	0x1a
 7071 01b0 44       		.byte	0x44
 7072 01b1 1E       		.byte	0x1e
 7073 01b2 23       		.byte	0x23
 7074 01b3 0C       		.uleb128 0xc
 7075 01b4 9F       		.byte	0x9f
 7076 01b5 00000000 		.4byte	0
 7077 01b9 00000000 		.4byte	0
 7078              	.LLST10:
 7079 01bd 60000000 		.4byte	.LVL34
 7080 01c1 94000000 		.4byte	.LVL37
 7081 01c5 0400     		.2byte	0x4
 7082 01c7 0A       		.byte	0xa
 7083 01c8 00FF     		.2byte	0xff00
 7084 01ca 9F       		.byte	0x9f
 7085 01cb C2000000 		.4byte	.LVL40
 7086 01cf F4000000 		.4byte	.LVL44
 7087 01d3 0100     		.2byte	0x1
 7088 01d5 55       		.byte	0x55
 7089 01d6 00010000 		.4byte	.LVL46
 7090 01da 2A010000 		.4byte	.LVL49
 7091 01de 0500     		.2byte	0x5
 7092 01e0 08       		.byte	0x8
 7093 01e1 FF       		.byte	0xff
 7094 01e2 40       		.byte	0x40
 7095 01e3 24       		.byte	0x24
 7096 01e4 9F       		.byte	0x9f
 7097 01e5 00000000 		.4byte	0
ARM GAS  C:\Users\leoja\AppData\Local\Temp\ccByxJuZ.s 			page 143


 7098 01e9 00000000 		.4byte	0
 7099              	.LLST11:
 7100 01ed 00000000 		.4byte	.LVL52
 7101 01f1 24000000 		.4byte	.LVL61
 7102 01f5 0100     		.2byte	0x1
 7103 01f7 50       		.byte	0x50
 7104 01f8 24000000 		.4byte	.LVL61
 7105 01fc 0C010000 		.4byte	.LFE39
 7106 0200 0400     		.2byte	0x4
 7107 0202 F3       		.byte	0xf3
 7108 0203 01       		.uleb128 0x1
 7109 0204 50       		.byte	0x50
 7110 0205 9F       		.byte	0x9f
 7111 0206 00000000 		.4byte	0
 7112 020a 00000000 		.4byte	0
 7113              	.LLST12:
 7114 020e 00000000 		.4byte	.LVL52
 7115 0212 18000000 		.4byte	.LVL58
 7116 0216 0100     		.2byte	0x1
 7117 0218 51       		.byte	0x51
 7118 0219 18000000 		.4byte	.LVL58
 7119 021d 0C010000 		.4byte	.LFE39
 7120 0221 0400     		.2byte	0x4
 7121 0223 F3       		.byte	0xf3
 7122 0224 01       		.uleb128 0x1
 7123 0225 51       		.byte	0x51
 7124 0226 9F       		.byte	0x9f
 7125 0227 00000000 		.4byte	0
 7126 022b 00000000 		.4byte	0
 7127              	.LLST13:
 7128 022f 00000000 		.4byte	.LVL52
 7129 0233 12000000 		.4byte	.LVL56
 7130 0237 0100     		.2byte	0x1
 7131 0239 52       		.byte	0x52
 7132 023a 12000000 		.4byte	.LVL56
 7133 023e 0C010000 		.4byte	.LFE39
 7134 0242 0400     		.2byte	0x4
 7135 0244 F3       		.byte	0xf3
 7136 0245 01       		.uleb128 0x1
 7137 0246 52       		.byte	0x52
 7138 0247 9F       		.byte	0x9f
 7139 0248 00000000 		.4byte	0
 7140 024c 00000000 		.4byte	0
 7141              	.LLST14:
 7142 0250 00000000 		.4byte	.LVL52
 7143 0254 08000000 		.4byte	.LVL53
 7144 0258 0100     		.2byte	0x1
 7145 025a 53       		.byte	0x53
 7146 025b 08000000 		.4byte	.LVL53
 7147 025f 0C010000 		.4byte	.LFE39
 7148 0263 0400     		.2byte	0x4
 7149 0265 F3       		.byte	0xf3
 7150 0266 01       		.uleb128 0x1
 7151 0267 53       		.byte	0x53
 7152 0268 9F       		.byte	0x9f
 7153 0269 00000000 		.4byte	0
 7154 026d 00000000 		.4byte	0
ARM GAS  C:\Users\leoja\AppData\Local\Temp\ccByxJuZ.s 			page 144


 7155              	.LLST15:
 7156 0271 00000000 		.4byte	.LVL52
 7157 0275 08000000 		.4byte	.LVL53
 7158 0279 0200     		.2byte	0x2
 7159 027b 91       		.byte	0x91
 7160 027c 00       		.sleb128 0
 7161 027d 08000000 		.4byte	.LVL53
 7162 0281 0A000000 		.4byte	.LVL54
 7163 0285 0200     		.2byte	0x2
 7164 0287 73       		.byte	0x73
 7165 0288 00       		.sleb128 0
 7166 0289 0A000000 		.4byte	.LVL54
 7167 028d 0C010000 		.4byte	.LFE39
 7168 0291 0200     		.2byte	0x2
 7169 0293 91       		.byte	0x91
 7170 0294 00       		.sleb128 0
 7171 0295 00000000 		.4byte	0
 7172 0299 00000000 		.4byte	0
 7173              	.LLST16:
 7174 029d 00000000 		.4byte	.LVL52
 7175 02a1 08000000 		.4byte	.LVL53
 7176 02a5 0200     		.2byte	0x2
 7177 02a7 91       		.byte	0x91
 7178 02a8 04       		.sleb128 4
 7179 02a9 08000000 		.4byte	.LVL53
 7180 02ad 0A000000 		.4byte	.LVL54
 7181 02b1 0200     		.2byte	0x2
 7182 02b3 73       		.byte	0x73
 7183 02b4 04       		.sleb128 4
 7184 02b5 0A000000 		.4byte	.LVL54
 7185 02b9 10000000 		.4byte	.LVL55
 7186 02bd 0200     		.2byte	0x2
 7187 02bf 91       		.byte	0x91
 7188 02c0 04       		.sleb128 4
 7189 02c1 10000000 		.4byte	.LVL55
 7190 02c5 14000000 		.4byte	.LVL57
 7191 02c9 0200     		.2byte	0x2
 7192 02cb 73       		.byte	0x73
 7193 02cc 00       		.sleb128 0
 7194 02cd 14000000 		.4byte	.LVL57
 7195 02d1 0C010000 		.4byte	.LFE39
 7196 02d5 0200     		.2byte	0x2
 7197 02d7 91       		.byte	0x91
 7198 02d8 04       		.sleb128 4
 7199 02d9 00000000 		.4byte	0
 7200 02dd 00000000 		.4byte	0
 7201              	.LLST17:
 7202 02e1 30000000 		.4byte	.LVL62
 7203 02e5 32000000 		.4byte	.LVL63
 7204 02e9 0100     		.2byte	0x1
 7205 02eb 53       		.byte	0x53
 7206 02ec 32000000 		.4byte	.LVL63
 7207 02f0 0C010000 		.4byte	.LFE39
 7208 02f4 0200     		.2byte	0x2
 7209 02f6 91       		.byte	0x91
 7210 02f7 58       		.sleb128 -40
 7211 02f8 00000000 		.4byte	0
ARM GAS  C:\Users\leoja\AppData\Local\Temp\ccByxJuZ.s 			page 145


 7212 02fc 00000000 		.4byte	0
 7213              	.LLST18:
 7214 0300 42000000 		.4byte	.LVL64
 7215 0304 4B000000 		.4byte	.LVL65-1
 7216 0308 0100     		.2byte	0x1
 7217 030a 53       		.byte	0x53
 7218 030b 4B000000 		.4byte	.LVL65-1
 7219 030f 0C010000 		.4byte	.LFE39
 7220 0313 0200     		.2byte	0x2
 7221 0315 91       		.byte	0x91
 7222 0316 5C       		.sleb128 -36
 7223 0317 00000000 		.4byte	0
 7224 031b 00000000 		.4byte	0
 7225              	.LLST19:
 7226 031f 12000000 		.4byte	.LVL56
 7227 0323 1C000000 		.4byte	.LVL59
 7228 0327 0700     		.2byte	0x7
 7229 0329 72       		.byte	0x72
 7230 032a 00       		.sleb128 0
 7231 032b 44       		.byte	0x44
 7232 032c 1E       		.byte	0x1e
 7233 032d 23       		.byte	0x23
 7234 032e 0C       		.uleb128 0xc
 7235 032f 9F       		.byte	0x9f
 7236 0330 1C000000 		.4byte	.LVL59
 7237 0334 1E000000 		.4byte	.LVL60
 7238 0338 0100     		.2byte	0x1
 7239 033a 53       		.byte	0x53
 7240 033b 1E000000 		.4byte	.LVL60
 7241 033f 4B000000 		.4byte	.LVL65-1
 7242 0343 0700     		.2byte	0x7
 7243 0345 72       		.byte	0x72
 7244 0346 00       		.sleb128 0
 7245 0347 44       		.byte	0x44
 7246 0348 1E       		.byte	0x1e
 7247 0349 23       		.byte	0x23
 7248 034a 0C       		.uleb128 0xc
 7249 034b 9F       		.byte	0x9f
 7250 034c 4B000000 		.4byte	.LVL65-1
 7251 0350 0C010000 		.4byte	.LFE39
 7252 0354 0C00     		.2byte	0xc
 7253 0356 91       		.byte	0x91
 7254 0357 04       		.sleb128 4
 7255 0358 94       		.byte	0x94
 7256 0359 01       		.byte	0x1
 7257 035a 08       		.byte	0x8
 7258 035b FF       		.byte	0xff
 7259 035c 1A       		.byte	0x1a
 7260 035d 44       		.byte	0x44
 7261 035e 1E       		.byte	0x1e
 7262 035f 23       		.byte	0x23
 7263 0360 0C       		.uleb128 0xc
 7264 0361 9F       		.byte	0x9f
 7265 0362 00000000 		.4byte	0
 7266 0366 00000000 		.4byte	0
 7267              	.LLST20:
 7268 036a 5A000000 		.4byte	.LVL66
ARM GAS  C:\Users\leoja\AppData\Local\Temp\ccByxJuZ.s 			page 146


 7269 036e 96000000 		.4byte	.LVL69
 7270 0372 0500     		.2byte	0x5
 7271 0374 08       		.byte	0x8
 7272 0375 FF       		.byte	0xff
 7273 0376 40       		.byte	0x40
 7274 0377 24       		.byte	0x24
 7275 0378 9F       		.byte	0x9f
 7276 0379 A2000000 		.4byte	.LVL70
 7277 037d F2000000 		.4byte	.LVL75
 7278 0381 0100     		.2byte	0x1
 7279 0383 54       		.byte	0x54
 7280 0384 00000000 		.4byte	0
 7281 0388 00000000 		.4byte	0
 7282              	.LLST21:
 7283 038c 00000000 		.4byte	.LVL76
 7284 0390 24000000 		.4byte	.LVL84
 7285 0394 0100     		.2byte	0x1
 7286 0396 50       		.byte	0x50
 7287 0397 24000000 		.4byte	.LVL84
 7288 039b B8020000 		.4byte	.LFE40
 7289 039f 0400     		.2byte	0x4
 7290 03a1 F3       		.byte	0xf3
 7291 03a2 01       		.uleb128 0x1
 7292 03a3 50       		.byte	0x50
 7293 03a4 9F       		.byte	0x9f
 7294 03a5 00000000 		.4byte	0
 7295 03a9 00000000 		.4byte	0
 7296              	.LLST22:
 7297 03ad 00000000 		.4byte	.LVL76
 7298 03b1 16000000 		.4byte	.LVL81
 7299 03b5 0100     		.2byte	0x1
 7300 03b7 51       		.byte	0x51
 7301 03b8 16000000 		.4byte	.LVL81
 7302 03bc B8020000 		.4byte	.LFE40
 7303 03c0 0400     		.2byte	0x4
 7304 03c2 F3       		.byte	0xf3
 7305 03c3 01       		.uleb128 0x1
 7306 03c4 51       		.byte	0x51
 7307 03c5 9F       		.byte	0x9f
 7308 03c6 00000000 		.4byte	0
 7309 03ca 00000000 		.4byte	0
 7310              	.LLST23:
 7311 03ce 00000000 		.4byte	.LVL76
 7312 03d2 10000000 		.4byte	.LVL79
 7313 03d6 0100     		.2byte	0x1
 7314 03d8 52       		.byte	0x52
 7315 03d9 10000000 		.4byte	.LVL79
 7316 03dd B8020000 		.4byte	.LFE40
 7317 03e1 0400     		.2byte	0x4
 7318 03e3 F3       		.byte	0xf3
 7319 03e4 01       		.uleb128 0x1
 7320 03e5 52       		.byte	0x52
 7321 03e6 9F       		.byte	0x9f
 7322 03e7 00000000 		.4byte	0
 7323 03eb 00000000 		.4byte	0
 7324              	.LLST24:
 7325 03ef 00000000 		.4byte	.LVL76
ARM GAS  C:\Users\leoja\AppData\Local\Temp\ccByxJuZ.s 			page 147


 7326 03f3 08000000 		.4byte	.LVL77
 7327 03f7 0100     		.2byte	0x1
 7328 03f9 53       		.byte	0x53
 7329 03fa 08000000 		.4byte	.LVL77
 7330 03fe B8020000 		.4byte	.LFE40
 7331 0402 0400     		.2byte	0x4
 7332 0404 F3       		.byte	0xf3
 7333 0405 01       		.uleb128 0x1
 7334 0406 53       		.byte	0x53
 7335 0407 9F       		.byte	0x9f
 7336 0408 00000000 		.4byte	0
 7337 040c 00000000 		.4byte	0
 7338              	.LLST25:
 7339 0410 00000000 		.4byte	.LVL76
 7340 0414 08000000 		.4byte	.LVL77
 7341 0418 0200     		.2byte	0x2
 7342 041a 91       		.byte	0x91
 7343 041b 00       		.sleb128 0
 7344 041c 08000000 		.4byte	.LVL77
 7345 0420 0C000000 		.4byte	.LVL78
 7346 0424 0200     		.2byte	0x2
 7347 0426 73       		.byte	0x73
 7348 0427 00       		.sleb128 0
 7349 0428 0C000000 		.4byte	.LVL78
 7350 042c B8020000 		.4byte	.LFE40
 7351 0430 0200     		.2byte	0x2
 7352 0432 91       		.byte	0x91
 7353 0433 00       		.sleb128 0
 7354 0434 00000000 		.4byte	0
 7355 0438 00000000 		.4byte	0
 7356              	.LLST26:
 7357 043c 00000000 		.4byte	.LVL76
 7358 0440 08000000 		.4byte	.LVL77
 7359 0444 0200     		.2byte	0x2
 7360 0446 91       		.byte	0x91
 7361 0447 04       		.sleb128 4
 7362 0448 08000000 		.4byte	.LVL77
 7363 044c 0C000000 		.4byte	.LVL78
 7364 0450 0200     		.2byte	0x2
 7365 0452 73       		.byte	0x73
 7366 0453 04       		.sleb128 4
 7367 0454 0C000000 		.4byte	.LVL78
 7368 0458 12000000 		.4byte	.LVL80
 7369 045c 0200     		.2byte	0x2
 7370 045e 73       		.byte	0x73
 7371 045f 00       		.sleb128 0
 7372 0460 12000000 		.4byte	.LVL80
 7373 0464 B8020000 		.4byte	.LFE40
 7374 0468 0200     		.2byte	0x2
 7375 046a 91       		.byte	0x91
 7376 046b 04       		.sleb128 4
 7377 046c 00000000 		.4byte	0
 7378 0470 00000000 		.4byte	0
 7379              	.LLST27:
 7380 0474 2E000000 		.4byte	.LVL85
 7381 0478 32000000 		.4byte	.LVL86
 7382 047c 0100     		.2byte	0x1
ARM GAS  C:\Users\leoja\AppData\Local\Temp\ccByxJuZ.s 			page 148


 7383 047e 53       		.byte	0x53
 7384 047f 32000000 		.4byte	.LVL86
 7385 0483 B8020000 		.4byte	.LFE40
 7386 0487 0200     		.2byte	0x2
 7387 0489 91       		.byte	0x91
 7388 048a 60       		.sleb128 -32
 7389 048b 00000000 		.4byte	0
 7390 048f 00000000 		.4byte	0
 7391              	.LLST28:
 7392 0493 3E000000 		.4byte	.LVL87
 7393 0497 47000000 		.4byte	.LVL88-1
 7394 049b 0100     		.2byte	0x1
 7395 049d 53       		.byte	0x53
 7396 049e 47000000 		.4byte	.LVL88-1
 7397 04a2 B8020000 		.4byte	.LFE40
 7398 04a6 0200     		.2byte	0x2
 7399 04a8 91       		.byte	0x91
 7400 04a9 64       		.sleb128 -28
 7401 04aa 00000000 		.4byte	0
 7402 04ae 00000000 		.4byte	0
 7403              	.LLST29:
 7404 04b2 10000000 		.4byte	.LVL79
 7405 04b6 1C000000 		.4byte	.LVL82
 7406 04ba 0700     		.2byte	0x7
 7407 04bc 72       		.byte	0x72
 7408 04bd 00       		.sleb128 0
 7409 04be 44       		.byte	0x44
 7410 04bf 1E       		.byte	0x1e
 7411 04c0 23       		.byte	0x23
 7412 04c1 0C       		.uleb128 0xc
 7413 04c2 9F       		.byte	0x9f
 7414 04c3 1C000000 		.4byte	.LVL82
 7415 04c7 1E000000 		.4byte	.LVL83
 7416 04cb 0100     		.2byte	0x1
 7417 04cd 53       		.byte	0x53
 7418 04ce 1E000000 		.4byte	.LVL83
 7419 04d2 47000000 		.4byte	.LVL88-1
 7420 04d6 0700     		.2byte	0x7
 7421 04d8 72       		.byte	0x72
 7422 04d9 00       		.sleb128 0
 7423 04da 44       		.byte	0x44
 7424 04db 1E       		.byte	0x1e
 7425 04dc 23       		.byte	0x23
 7426 04dd 0C       		.uleb128 0xc
 7427 04de 9F       		.byte	0x9f
 7428 04df 47000000 		.4byte	.LVL88-1
 7429 04e3 B8020000 		.4byte	.LFE40
 7430 04e7 0C00     		.2byte	0xc
 7431 04e9 91       		.byte	0x91
 7432 04ea 04       		.sleb128 4
 7433 04eb 94       		.byte	0x94
 7434 04ec 01       		.byte	0x1
 7435 04ed 08       		.byte	0x8
 7436 04ee FF       		.byte	0xff
 7437 04ef 1A       		.byte	0x1a
 7438 04f0 44       		.byte	0x44
 7439 04f1 1E       		.byte	0x1e
ARM GAS  C:\Users\leoja\AppData\Local\Temp\ccByxJuZ.s 			page 149


 7440 04f2 23       		.byte	0x23
 7441 04f3 0C       		.uleb128 0xc
 7442 04f4 9F       		.byte	0x9f
 7443 04f5 00000000 		.4byte	0
 7444 04f9 00000000 		.4byte	0
 7445              	.LLST30:
 7446 04fd 78000000 		.4byte	.LVL91
 7447 0501 A6000000 		.4byte	.LVL93
 7448 0505 0600     		.2byte	0x6
 7449 0507 0C       		.byte	0xc
 7450 0508 00FFFF00 		.4byte	0xffff00
 7451 050c 9F       		.byte	0x9f
 7452 050d A6000000 		.4byte	.LVL93
 7453 0511 AA010000 		.4byte	.LVL103
 7454 0515 0500     		.2byte	0x5
 7455 0517 08       		.byte	0x8
 7456 0518 FF       		.byte	0xff
 7457 0519 40       		.byte	0x40
 7458 051a 24       		.byte	0x24
 7459 051b 9F       		.byte	0x9f
 7460 051c AA010000 		.4byte	.LVL103
 7461 0520 D8010000 		.4byte	.LVL105
 7462 0524 0600     		.2byte	0x6
 7463 0526 0C       		.byte	0xc
 7464 0527 00FFFF00 		.4byte	0xffff00
 7465 052b 9F       		.byte	0x9f
 7466 052c D8010000 		.4byte	.LVL105
 7467 0530 0A020000 		.4byte	.LVL107
 7468 0534 0500     		.2byte	0x5
 7469 0536 08       		.byte	0x8
 7470 0537 FF       		.byte	0xff
 7471 0538 40       		.byte	0x40
 7472 0539 24       		.byte	0x24
 7473 053a 9F       		.byte	0x9f
 7474 053b 0E020000 		.4byte	.LVL108
 7475 053f 66020000 		.4byte	.LVL110
 7476 0543 0400     		.2byte	0x4
 7477 0545 0A       		.byte	0xa
 7478 0546 00FF     		.2byte	0xff00
 7479 0548 9F       		.byte	0x9f
 7480 0549 00000000 		.4byte	0
 7481 054d 00000000 		.4byte	0
 7482              	.LLST31:
 7483 0551 50000000 		.4byte	.LVL89
 7484 0555 68000000 		.4byte	.LVL90
 7485 0559 0600     		.2byte	0x6
 7486 055b 76       		.byte	0x76
 7487 055c 00       		.sleb128 0
 7488 055d 08       		.byte	0x8
 7489 055e 7F       		.byte	0x7f
 7490 055f 1A       		.byte	0x1a
 7491 0560 9F       		.byte	0x9f
 7492 0561 00000000 		.4byte	0
 7493 0565 00000000 		.4byte	0
 7494              	.LLST32:
 7495 0569 00000000 		.4byte	.LVL113
 7496 056d 24000000 		.4byte	.LVL122
ARM GAS  C:\Users\leoja\AppData\Local\Temp\ccByxJuZ.s 			page 150


 7497 0571 0100     		.2byte	0x1
 7498 0573 50       		.byte	0x50
 7499 0574 24000000 		.4byte	.LVL122
 7500 0578 52000000 		.4byte	.LVL127
 7501 057c 0100     		.2byte	0x1
 7502 057e 54       		.byte	0x54
 7503 057f 52000000 		.4byte	.LVL127
 7504 0583 55000000 		.4byte	.LVL128-1
 7505 0587 0100     		.2byte	0x1
 7506 0589 50       		.byte	0x50
 7507 058a 55000000 		.4byte	.LVL128-1
 7508 058e 56000000 		.4byte	.LVL128
 7509 0592 0700     		.2byte	0x7
 7510 0594 74       		.byte	0x74
 7511 0595 00       		.sleb128 0
 7512 0596 0A       		.byte	0xa
 7513 0597 5B03     		.2byte	0x35b
 7514 0599 1E       		.byte	0x1e
 7515 059a 9F       		.byte	0x9f
 7516 059b 56000000 		.4byte	.LVL128
 7517 059f 5A000000 		.4byte	.LVL129
 7518 05a3 0100     		.2byte	0x1
 7519 05a5 50       		.byte	0x50
 7520 05a6 5A000000 		.4byte	.LVL129
 7521 05aa 5C000000 		.4byte	.LVL130
 7522 05ae 0300     		.2byte	0x3
 7523 05b0 70       		.byte	0x70
 7524 05b1 6E       		.sleb128 -18
 7525 05b2 9F       		.byte	0x9f
 7526 05b3 5C000000 		.4byte	.LVL130
 7527 05b7 98000000 		.4byte	.LVL132
 7528 05bb 0100     		.2byte	0x1
 7529 05bd 50       		.byte	0x50
 7530 05be 98000000 		.4byte	.LVL132
 7531 05c2 F4000000 		.4byte	.LVL138
 7532 05c6 0100     		.2byte	0x1
 7533 05c8 55       		.byte	0x55
 7534 05c9 00000000 		.4byte	0
 7535 05cd 00000000 		.4byte	0
 7536              	.LLST33:
 7537 05d1 00000000 		.4byte	.LVL113
 7538 05d5 18000000 		.4byte	.LVL119
 7539 05d9 0100     		.2byte	0x1
 7540 05db 51       		.byte	0x51
 7541 05dc 18000000 		.4byte	.LVL119
 7542 05e0 24010000 		.4byte	.LFE41
 7543 05e4 0400     		.2byte	0x4
 7544 05e6 F3       		.byte	0xf3
 7545 05e7 01       		.uleb128 0x1
 7546 05e8 51       		.byte	0x51
 7547 05e9 9F       		.byte	0x9f
 7548 05ea 00000000 		.4byte	0
 7549 05ee 00000000 		.4byte	0
 7550              	.LLST34:
 7551 05f2 00000000 		.4byte	.LVL113
 7552 05f6 12000000 		.4byte	.LVL117
 7553 05fa 0100     		.2byte	0x1
ARM GAS  C:\Users\leoja\AppData\Local\Temp\ccByxJuZ.s 			page 151


 7554 05fc 52       		.byte	0x52
 7555 05fd 12000000 		.4byte	.LVL117
 7556 0601 24010000 		.4byte	.LFE41
 7557 0605 0400     		.2byte	0x4
 7558 0607 F3       		.byte	0xf3
 7559 0608 01       		.uleb128 0x1
 7560 0609 52       		.byte	0x52
 7561 060a 9F       		.byte	0x9f
 7562 060b 00000000 		.4byte	0
 7563 060f 00000000 		.4byte	0
 7564              	.LLST35:
 7565 0613 00000000 		.4byte	.LVL113
 7566 0617 08000000 		.4byte	.LVL114
 7567 061b 0100     		.2byte	0x1
 7568 061d 53       		.byte	0x53
 7569 061e 08000000 		.4byte	.LVL114
 7570 0622 24010000 		.4byte	.LFE41
 7571 0626 0400     		.2byte	0x4
 7572 0628 F3       		.byte	0xf3
 7573 0629 01       		.uleb128 0x1
 7574 062a 53       		.byte	0x53
 7575 062b 9F       		.byte	0x9f
 7576 062c 00000000 		.4byte	0
 7577 0630 00000000 		.4byte	0
 7578              	.LLST36:
 7579 0634 00000000 		.4byte	.LVL113
 7580 0638 08000000 		.4byte	.LVL114
 7581 063c 0200     		.2byte	0x2
 7582 063e 91       		.byte	0x91
 7583 063f 00       		.sleb128 0
 7584 0640 08000000 		.4byte	.LVL114
 7585 0644 0A000000 		.4byte	.LVL115
 7586 0648 0200     		.2byte	0x2
 7587 064a 73       		.byte	0x73
 7588 064b 00       		.sleb128 0
 7589 064c 0A000000 		.4byte	.LVL115
 7590 0650 24010000 		.4byte	.LFE41
 7591 0654 0200     		.2byte	0x2
 7592 0656 91       		.byte	0x91
 7593 0657 00       		.sleb128 0
 7594 0658 00000000 		.4byte	0
 7595 065c 00000000 		.4byte	0
 7596              	.LLST37:
 7597 0660 00000000 		.4byte	.LVL113
 7598 0664 08000000 		.4byte	.LVL114
 7599 0668 0200     		.2byte	0x2
 7600 066a 91       		.byte	0x91
 7601 066b 04       		.sleb128 4
 7602 066c 08000000 		.4byte	.LVL114
 7603 0670 0A000000 		.4byte	.LVL115
 7604 0674 0200     		.2byte	0x2
 7605 0676 73       		.byte	0x73
 7606 0677 04       		.sleb128 4
 7607 0678 0A000000 		.4byte	.LVL115
 7608 067c 10000000 		.4byte	.LVL116
 7609 0680 0200     		.2byte	0x2
 7610 0682 91       		.byte	0x91
ARM GAS  C:\Users\leoja\AppData\Local\Temp\ccByxJuZ.s 			page 152


 7611 0683 04       		.sleb128 4
 7612 0684 10000000 		.4byte	.LVL116
 7613 0688 14000000 		.4byte	.LVL118
 7614 068c 0200     		.2byte	0x2
 7615 068e 73       		.byte	0x73
 7616 068f 00       		.sleb128 0
 7617 0690 14000000 		.4byte	.LVL118
 7618 0694 24010000 		.4byte	.LFE41
 7619 0698 0200     		.2byte	0x2
 7620 069a 91       		.byte	0x91
 7621 069b 04       		.sleb128 4
 7622 069c 00000000 		.4byte	0
 7623 06a0 00000000 		.4byte	0
 7624              	.LLST38:
 7625 06a4 2E000000 		.4byte	.LVL123
 7626 06a8 30000000 		.4byte	.LVL124
 7627 06ac 0100     		.2byte	0x1
 7628 06ae 53       		.byte	0x53
 7629 06af 30000000 		.4byte	.LVL124
 7630 06b3 24010000 		.4byte	.LFE41
 7631 06b7 0200     		.2byte	0x2
 7632 06b9 91       		.byte	0x91
 7633 06ba 58       		.sleb128 -40
 7634 06bb 00000000 		.4byte	0
 7635 06bf 00000000 		.4byte	0
 7636              	.LLST39:
 7637 06c3 40000000 		.4byte	.LVL125
 7638 06c7 49000000 		.4byte	.LVL126-1
 7639 06cb 0100     		.2byte	0x1
 7640 06cd 53       		.byte	0x53
 7641 06ce 49000000 		.4byte	.LVL126-1
 7642 06d2 24010000 		.4byte	.LFE41
 7643 06d6 0200     		.2byte	0x2
 7644 06d8 91       		.byte	0x91
 7645 06d9 5C       		.sleb128 -36
 7646 06da 00000000 		.4byte	0
 7647 06de 00000000 		.4byte	0
 7648              	.LLST40:
 7649 06e2 12000000 		.4byte	.LVL117
 7650 06e6 1C000000 		.4byte	.LVL120
 7651 06ea 0700     		.2byte	0x7
 7652 06ec 72       		.byte	0x72
 7653 06ed 00       		.sleb128 0
 7654 06ee 44       		.byte	0x44
 7655 06ef 1E       		.byte	0x1e
 7656 06f0 23       		.byte	0x23
 7657 06f1 0C       		.uleb128 0xc
 7658 06f2 9F       		.byte	0x9f
 7659 06f3 1C000000 		.4byte	.LVL120
 7660 06f7 1E000000 		.4byte	.LVL121
 7661 06fb 0100     		.2byte	0x1
 7662 06fd 53       		.byte	0x53
 7663 06fe 1E000000 		.4byte	.LVL121
 7664 0702 49000000 		.4byte	.LVL126-1
 7665 0706 0700     		.2byte	0x7
 7666 0708 72       		.byte	0x72
 7667 0709 00       		.sleb128 0
ARM GAS  C:\Users\leoja\AppData\Local\Temp\ccByxJuZ.s 			page 153


 7668 070a 44       		.byte	0x44
 7669 070b 1E       		.byte	0x1e
 7670 070c 23       		.byte	0x23
 7671 070d 0C       		.uleb128 0xc
 7672 070e 9F       		.byte	0x9f
 7673 070f 49000000 		.4byte	.LVL126-1
 7674 0713 24010000 		.4byte	.LFE41
 7675 0717 0C00     		.2byte	0xc
 7676 0719 91       		.byte	0x91
 7677 071a 04       		.sleb128 4
 7678 071b 94       		.byte	0x94
 7679 071c 01       		.byte	0x1
 7680 071d 08       		.byte	0x8
 7681 071e FF       		.byte	0xff
 7682 071f 1A       		.byte	0x1a
 7683 0720 44       		.byte	0x44
 7684 0721 1E       		.byte	0x1e
 7685 0722 23       		.byte	0x23
 7686 0723 0C       		.uleb128 0xc
 7687 0724 9F       		.byte	0x9f
 7688 0725 00000000 		.4byte	0
 7689 0729 00000000 		.4byte	0
 7690              	.LLST41:
 7691 072d 7E000000 		.4byte	.LVL131
 7692 0731 F4000000 		.4byte	.LVL137
 7693 0735 0100     		.2byte	0x1
 7694 0737 54       		.byte	0x54
 7695 0738 00000000 		.4byte	0
 7696 073c 00000000 		.4byte	0
 7697              	.LLST42:
 7698 0740 00000000 		.4byte	.LVL139
 7699 0744 2A000000 		.4byte	.LVL148
 7700 0748 0100     		.2byte	0x1
 7701 074a 50       		.byte	0x50
 7702 074b 2A000000 		.4byte	.LVL148
 7703 074f C0000000 		.4byte	.LFE44
 7704 0753 0400     		.2byte	0x4
 7705 0755 F3       		.byte	0xf3
 7706 0756 01       		.uleb128 0x1
 7707 0757 50       		.byte	0x50
 7708 0758 9F       		.byte	0x9f
 7709 0759 00000000 		.4byte	0
 7710 075d 00000000 		.4byte	0
 7711              	.LLST43:
 7712 0761 00000000 		.4byte	.LVL139
 7713 0765 14000000 		.4byte	.LVL143
 7714 0769 0100     		.2byte	0x1
 7715 076b 51       		.byte	0x51
 7716 076c 14000000 		.4byte	.LVL143
 7717 0770 C0000000 		.4byte	.LFE44
 7718 0774 0400     		.2byte	0x4
 7719 0776 F3       		.byte	0xf3
 7720 0777 01       		.uleb128 0x1
 7721 0778 51       		.byte	0x51
 7722 0779 9F       		.byte	0x9f
 7723 077a 00000000 		.4byte	0
 7724 077e 00000000 		.4byte	0
ARM GAS  C:\Users\leoja\AppData\Local\Temp\ccByxJuZ.s 			page 154


 7725              	.LLST44:
 7726 0782 00000000 		.4byte	.LVL139
 7727 0786 06000000 		.4byte	.LVL140
 7728 078a 0100     		.2byte	0x1
 7729 078c 52       		.byte	0x52
 7730 078d 06000000 		.4byte	.LVL140
 7731 0791 C0000000 		.4byte	.LFE44
 7732 0795 0400     		.2byte	0x4
 7733 0797 F3       		.byte	0xf3
 7734 0798 01       		.uleb128 0x1
 7735 0799 52       		.byte	0x52
 7736 079a 9F       		.byte	0x9f
 7737 079b 00000000 		.4byte	0
 7738 079f 00000000 		.4byte	0
 7739              	.LLST45:
 7740 07a3 00000000 		.4byte	.LVL139
 7741 07a7 0C000000 		.4byte	.LVL141
 7742 07ab 0100     		.2byte	0x1
 7743 07ad 53       		.byte	0x53
 7744 07ae 0C000000 		.4byte	.LVL141
 7745 07b2 C0000000 		.4byte	.LFE44
 7746 07b6 0400     		.2byte	0x4
 7747 07b8 F3       		.byte	0xf3
 7748 07b9 01       		.uleb128 0x1
 7749 07ba 53       		.byte	0x53
 7750 07bb 9F       		.byte	0x9f
 7751 07bc 00000000 		.4byte	0
 7752 07c0 00000000 		.4byte	0
 7753              	.LLST46:
 7754 07c4 00000000 		.4byte	.LVL139
 7755 07c8 0C000000 		.4byte	.LVL141
 7756 07cc 0200     		.2byte	0x2
 7757 07ce 91       		.byte	0x91
 7758 07cf 00       		.sleb128 0
 7759 07d0 0C000000 		.4byte	.LVL141
 7760 07d4 10000000 		.4byte	.LVL142
 7761 07d8 0200     		.2byte	0x2
 7762 07da 73       		.byte	0x73
 7763 07db 00       		.sleb128 0
 7764 07dc 10000000 		.4byte	.LVL142
 7765 07e0 C0000000 		.4byte	.LFE44
 7766 07e4 0200     		.2byte	0x2
 7767 07e6 91       		.byte	0x91
 7768 07e7 00       		.sleb128 0
 7769 07e8 00000000 		.4byte	0
 7770 07ec 00000000 		.4byte	0
 7771              	.LLST47:
 7772 07f0 00000000 		.4byte	.LVL139
 7773 07f4 0C000000 		.4byte	.LVL141
 7774 07f8 0200     		.2byte	0x2
 7775 07fa 91       		.byte	0x91
 7776 07fb 04       		.sleb128 4
 7777 07fc 0C000000 		.4byte	.LVL141
 7778 0800 10000000 		.4byte	.LVL142
 7779 0804 0200     		.2byte	0x2
 7780 0806 73       		.byte	0x73
 7781 0807 04       		.sleb128 4
ARM GAS  C:\Users\leoja\AppData\Local\Temp\ccByxJuZ.s 			page 155


 7782 0808 10000000 		.4byte	.LVL142
 7783 080c 16000000 		.4byte	.LVL144
 7784 0810 0200     		.2byte	0x2
 7785 0812 73       		.byte	0x73
 7786 0813 00       		.sleb128 0
 7787 0814 16000000 		.4byte	.LVL144
 7788 0818 C0000000 		.4byte	.LFE44
 7789 081c 0200     		.2byte	0x2
 7790 081e 91       		.byte	0x91
 7791 081f 04       		.sleb128 4
 7792 0820 00000000 		.4byte	0
 7793 0824 00000000 		.4byte	0
 7794              	.LLST48:
 7795 0828 36000000 		.4byte	.LVL149
 7796 082c 38000000 		.4byte	.LVL150
 7797 0830 0100     		.2byte	0x1
 7798 0832 53       		.byte	0x53
 7799 0833 38000000 		.4byte	.LVL150
 7800 0837 C0000000 		.4byte	.LFE44
 7801 083b 0200     		.2byte	0x2
 7802 083d 91       		.byte	0x91
 7803 083e 58       		.sleb128 -40
 7804 083f 00000000 		.4byte	0
 7805 0843 00000000 		.4byte	0
 7806              	.LLST49:
 7807 0847 40000000 		.4byte	.LVL151
 7808 084b 49000000 		.4byte	.LVL152-1
 7809 084f 0100     		.2byte	0x1
 7810 0851 53       		.byte	0x53
 7811 0852 49000000 		.4byte	.LVL152-1
 7812 0856 C0000000 		.4byte	.LFE44
 7813 085a 0200     		.2byte	0x2
 7814 085c 91       		.byte	0x91
 7815 085d 5C       		.sleb128 -36
 7816 085e 00000000 		.4byte	0
 7817 0862 00000000 		.4byte	0
 7818              	.LLST50:
 7819 0866 22000000 		.4byte	.LVL145
 7820 086a 24000000 		.4byte	.LVL146
 7821 086e 0100     		.2byte	0x1
 7822 0870 53       		.byte	0x53
 7823 0871 24000000 		.4byte	.LVL146
 7824 0875 49000000 		.4byte	.LVL152-1
 7825 0879 0700     		.2byte	0x7
 7826 087b 71       		.byte	0x71
 7827 087c 00       		.sleb128 0
 7828 087d 44       		.byte	0x44
 7829 087e 1E       		.byte	0x1e
 7830 087f 23       		.byte	0x23
 7831 0880 0C       		.uleb128 0xc
 7832 0881 9F       		.byte	0x9f
 7833 0882 49000000 		.4byte	.LVL152-1
 7834 0886 C0000000 		.4byte	.LFE44
 7835 088a 0C00     		.2byte	0xc
 7836 088c 91       		.byte	0x91
 7837 088d 04       		.sleb128 4
 7838 088e 94       		.byte	0x94
ARM GAS  C:\Users\leoja\AppData\Local\Temp\ccByxJuZ.s 			page 156


 7839 088f 01       		.byte	0x1
 7840 0890 08       		.byte	0x8
 7841 0891 FF       		.byte	0xff
 7842 0892 1A       		.byte	0x1a
 7843 0893 44       		.byte	0x44
 7844 0894 1E       		.byte	0x1e
 7845 0895 23       		.byte	0x23
 7846 0896 0C       		.uleb128 0xc
 7847 0897 9F       		.byte	0x9f
 7848 0898 00000000 		.4byte	0
 7849 089c 00000000 		.4byte	0
 7850              	.LLST51:
 7851 08a0 22000000 		.4byte	.LVL145
 7852 08a4 26000000 		.4byte	.LVL147
 7853 08a8 0100     		.2byte	0x1
 7854 08aa 52       		.byte	0x52
 7855 08ab 26000000 		.4byte	.LVL147
 7856 08af 2A000000 		.4byte	.LVL148
 7857 08b3 1000     		.2byte	0x10
 7858 08b5 08       		.byte	0x8
 7859 08b6 63       		.byte	0x63
 7860 08b7 40       		.byte	0x40
 7861 08b8 4B       		.byte	0x4b
 7862 08b9 24       		.byte	0x24
 7863 08ba 22       		.byte	0x22
 7864 08bb 70       		.byte	0x70
 7865 08bc 00       		.sleb128 0
 7866 08bd 40       		.byte	0x40
 7867 08be 4B       		.byte	0x4b
 7868 08bf 24       		.byte	0x24
 7869 08c0 22       		.byte	0x22
 7870 08c1 2D       		.byte	0x2d
 7871 08c2 23       		.byte	0x23
 7872 08c3 03       		.uleb128 0x3
 7873 08c4 9F       		.byte	0x9f
 7874 08c5 2A000000 		.4byte	.LVL148
 7875 08c9 C0000000 		.4byte	.LFE44
 7876 08cd 1100     		.2byte	0x11
 7877 08cf 08       		.byte	0x8
 7878 08d0 63       		.byte	0x63
 7879 08d1 40       		.byte	0x40
 7880 08d2 4B       		.byte	0x4b
 7881 08d3 24       		.byte	0x24
 7882 08d4 22       		.byte	0x22
 7883 08d5 91       		.byte	0x91
 7884 08d6 54       		.sleb128 -44
 7885 08d7 06       		.byte	0x6
 7886 08d8 40       		.byte	0x40
 7887 08d9 4B       		.byte	0x4b
 7888 08da 24       		.byte	0x24
 7889 08db 22       		.byte	0x22
 7890 08dc 2D       		.byte	0x2d
 7891 08dd 23       		.byte	0x23
 7892 08de 03       		.uleb128 0x3
 7893 08df 9F       		.byte	0x9f
 7894 08e0 00000000 		.4byte	0
 7895 08e4 00000000 		.4byte	0
ARM GAS  C:\Users\leoja\AppData\Local\Temp\ccByxJuZ.s 			page 157


 7896              	.LLST52:
 7897 08e8 00000000 		.4byte	.LVL159
 7898 08ec 11000000 		.4byte	.LVL164-1
 7899 08f0 0100     		.2byte	0x1
 7900 08f2 50       		.byte	0x50
 7901 08f3 11000000 		.4byte	.LVL164-1
 7902 08f7 14000000 		.4byte	.LFE43
 7903 08fb 0400     		.2byte	0x4
 7904 08fd F3       		.byte	0xf3
 7905 08fe 01       		.uleb128 0x1
 7906 08ff 50       		.byte	0x50
 7907 0900 9F       		.byte	0x9f
 7908 0901 00000000 		.4byte	0
 7909 0905 00000000 		.4byte	0
 7910              	.LLST53:
 7911 0909 00000000 		.4byte	.LVL159
 7912 090d 11000000 		.4byte	.LVL164-1
 7913 0911 0100     		.2byte	0x1
 7914 0913 51       		.byte	0x51
 7915 0914 11000000 		.4byte	.LVL164-1
 7916 0918 14000000 		.4byte	.LFE43
 7917 091c 0400     		.2byte	0x4
 7918 091e F3       		.byte	0xf3
 7919 091f 01       		.uleb128 0x1
 7920 0920 51       		.byte	0x51
 7921 0921 9F       		.byte	0x9f
 7922 0922 00000000 		.4byte	0
 7923 0926 00000000 		.4byte	0
 7924              	.LLST54:
 7925 092a 00000000 		.4byte	.LVL159
 7926 092e 11000000 		.4byte	.LVL164-1
 7927 0932 0100     		.2byte	0x1
 7928 0934 52       		.byte	0x52
 7929 0935 11000000 		.4byte	.LVL164-1
 7930 0939 14000000 		.4byte	.LFE43
 7931 093d 0400     		.2byte	0x4
 7932 093f F3       		.byte	0xf3
 7933 0940 01       		.uleb128 0x1
 7934 0941 52       		.byte	0x52
 7935 0942 9F       		.byte	0x9f
 7936 0943 00000000 		.4byte	0
 7937 0947 00000000 		.4byte	0
 7938              	.LLST55:
 7939 094b 00000000 		.4byte	.LVL159
 7940 094f 11000000 		.4byte	.LVL164-1
 7941 0953 0100     		.2byte	0x1
 7942 0955 53       		.byte	0x53
 7943 0956 11000000 		.4byte	.LVL164-1
 7944 095a 14000000 		.4byte	.LFE43
 7945 095e 0400     		.2byte	0x4
 7946 0960 F3       		.byte	0xf3
 7947 0961 01       		.uleb128 0x1
 7948 0962 53       		.byte	0x53
 7949 0963 9F       		.byte	0x9f
 7950 0964 00000000 		.4byte	0
 7951 0968 00000000 		.4byte	0
 7952              	.LLST56:
ARM GAS  C:\Users\leoja\AppData\Local\Temp\ccByxJuZ.s 			page 158


 7953 096c 00000000 		.4byte	.LVL159
 7954 0970 04000000 		.4byte	.LVL160
 7955 0974 0200     		.2byte	0x2
 7956 0976 91       		.byte	0x91
 7957 0977 00       		.sleb128 0
 7958 0978 04000000 		.4byte	.LVL160
 7959 097c 0A000000 		.4byte	.LVL163
 7960 0980 0200     		.2byte	0x2
 7961 0982 74       		.byte	0x74
 7962 0983 00       		.sleb128 0
 7963 0984 0A000000 		.4byte	.LVL163
 7964 0988 14000000 		.4byte	.LFE43
 7965 098c 0200     		.2byte	0x2
 7966 098e 91       		.byte	0x91
 7967 098f 00       		.sleb128 0
 7968 0990 00000000 		.4byte	0
 7969 0994 00000000 		.4byte	0
 7970              	.LLST57:
 7971 0998 00000000 		.4byte	.LVL159
 7972 099c 04000000 		.4byte	.LVL160
 7973 09a0 0200     		.2byte	0x2
 7974 09a2 91       		.byte	0x91
 7975 09a3 04       		.sleb128 4
 7976 09a4 04000000 		.4byte	.LVL160
 7977 09a8 06000000 		.4byte	.LVL161
 7978 09ac 0200     		.2byte	0x2
 7979 09ae 74       		.byte	0x74
 7980 09af 04       		.sleb128 4
 7981 09b0 06000000 		.4byte	.LVL161
 7982 09b4 08000000 		.4byte	.LVL162
 7983 09b8 0200     		.2byte	0x2
 7984 09ba 75       		.byte	0x75
 7985 09bb 00       		.sleb128 0
 7986 09bc 08000000 		.4byte	.LVL162
 7987 09c0 0A000000 		.4byte	.LVL163
 7988 09c4 0200     		.2byte	0x2
 7989 09c6 74       		.byte	0x74
 7990 09c7 04       		.sleb128 4
 7991 09c8 0A000000 		.4byte	.LVL163
 7992 09cc 14000000 		.4byte	.LFE43
 7993 09d0 0200     		.2byte	0x2
 7994 09d2 91       		.byte	0x91
 7995 09d3 04       		.sleb128 4
 7996 09d4 00000000 		.4byte	0
 7997 09d8 00000000 		.4byte	0
 7998              	.LLST58:
 7999 09dc 00000000 		.4byte	.LVL165
 8000 09e0 22000000 		.4byte	.LVL173
 8001 09e4 0100     		.2byte	0x1
 8002 09e6 50       		.byte	0x50
 8003 09e7 22000000 		.4byte	.LVL173
 8004 09eb C4000000 		.4byte	.LFE45
 8005 09ef 0400     		.2byte	0x4
 8006 09f1 F3       		.byte	0xf3
 8007 09f2 01       		.uleb128 0x1
 8008 09f3 50       		.byte	0x50
 8009 09f4 9F       		.byte	0x9f
ARM GAS  C:\Users\leoja\AppData\Local\Temp\ccByxJuZ.s 			page 159


 8010 09f5 00000000 		.4byte	0
 8011 09f9 00000000 		.4byte	0
 8012              	.LLST59:
 8013 09fd 00000000 		.4byte	.LVL165
 8014 0a01 16000000 		.4byte	.LVL170
 8015 0a05 0100     		.2byte	0x1
 8016 0a07 51       		.byte	0x51
 8017 0a08 16000000 		.4byte	.LVL170
 8018 0a0c C4000000 		.4byte	.LFE45
 8019 0a10 0400     		.2byte	0x4
 8020 0a12 F3       		.byte	0xf3
 8021 0a13 01       		.uleb128 0x1
 8022 0a14 51       		.byte	0x51
 8023 0a15 9F       		.byte	0x9f
 8024 0a16 00000000 		.4byte	0
 8025 0a1a 00000000 		.4byte	0
 8026              	.LLST60:
 8027 0a1e 00000000 		.4byte	.LVL165
 8028 0a22 10000000 		.4byte	.LVL168
 8029 0a26 0100     		.2byte	0x1
 8030 0a28 52       		.byte	0x52
 8031 0a29 10000000 		.4byte	.LVL168
 8032 0a2d C4000000 		.4byte	.LFE45
 8033 0a31 0400     		.2byte	0x4
 8034 0a33 F3       		.byte	0xf3
 8035 0a34 01       		.uleb128 0x1
 8036 0a35 52       		.byte	0x52
 8037 0a36 9F       		.byte	0x9f
 8038 0a37 00000000 		.4byte	0
 8039 0a3b 00000000 		.4byte	0
 8040              	.LLST61:
 8041 0a3f 00000000 		.4byte	.LVL165
 8042 0a43 08000000 		.4byte	.LVL166
 8043 0a47 0100     		.2byte	0x1
 8044 0a49 53       		.byte	0x53
 8045 0a4a 08000000 		.4byte	.LVL166
 8046 0a4e C4000000 		.4byte	.LFE45
 8047 0a52 0400     		.2byte	0x4
 8048 0a54 F3       		.byte	0xf3
 8049 0a55 01       		.uleb128 0x1
 8050 0a56 53       		.byte	0x53
 8051 0a57 9F       		.byte	0x9f
 8052 0a58 00000000 		.4byte	0
 8053 0a5c 00000000 		.4byte	0
 8054              	.LLST62:
 8055 0a60 00000000 		.4byte	.LVL165
 8056 0a64 08000000 		.4byte	.LVL166
 8057 0a68 0200     		.2byte	0x2
 8058 0a6a 91       		.byte	0x91
 8059 0a6b 00       		.sleb128 0
 8060 0a6c 08000000 		.4byte	.LVL166
 8061 0a70 0C000000 		.4byte	.LVL167
 8062 0a74 0200     		.2byte	0x2
 8063 0a76 73       		.byte	0x73
 8064 0a77 00       		.sleb128 0
 8065 0a78 0C000000 		.4byte	.LVL167
 8066 0a7c C4000000 		.4byte	.LFE45
ARM GAS  C:\Users\leoja\AppData\Local\Temp\ccByxJuZ.s 			page 160


 8067 0a80 0200     		.2byte	0x2
 8068 0a82 91       		.byte	0x91
 8069 0a83 00       		.sleb128 0
 8070 0a84 00000000 		.4byte	0
 8071 0a88 00000000 		.4byte	0
 8072              	.LLST63:
 8073 0a8c 00000000 		.4byte	.LVL165
 8074 0a90 08000000 		.4byte	.LVL166
 8075 0a94 0200     		.2byte	0x2
 8076 0a96 91       		.byte	0x91
 8077 0a97 04       		.sleb128 4
 8078 0a98 08000000 		.4byte	.LVL166
 8079 0a9c 0C000000 		.4byte	.LVL167
 8080 0aa0 0200     		.2byte	0x2
 8081 0aa2 73       		.byte	0x73
 8082 0aa3 04       		.sleb128 4
 8083 0aa4 0C000000 		.4byte	.LVL167
 8084 0aa8 12000000 		.4byte	.LVL169
 8085 0aac 0200     		.2byte	0x2
 8086 0aae 73       		.byte	0x73
 8087 0aaf 00       		.sleb128 0
 8088 0ab0 12000000 		.4byte	.LVL169
 8089 0ab4 C4000000 		.4byte	.LFE45
 8090 0ab8 0200     		.2byte	0x2
 8091 0aba 91       		.byte	0x91
 8092 0abb 04       		.sleb128 4
 8093 0abc 00000000 		.4byte	0
 8094 0ac0 00000000 		.4byte	0
 8095              	.LLST64:
 8096 0ac4 30000000 		.4byte	.LVL174
 8097 0ac8 32000000 		.4byte	.LVL175
 8098 0acc 0100     		.2byte	0x1
 8099 0ace 53       		.byte	0x53
 8100 0acf 32000000 		.4byte	.LVL175
 8101 0ad3 C4000000 		.4byte	.LFE45
 8102 0ad7 0200     		.2byte	0x2
 8103 0ad9 91       		.byte	0x91
 8104 0ada 58       		.sleb128 -40
 8105 0adb 00000000 		.4byte	0
 8106 0adf 00000000 		.4byte	0
 8107              	.LLST65:
 8108 0ae3 3A000000 		.4byte	.LVL176
 8109 0ae7 43000000 		.4byte	.LVL177-1
 8110 0aeb 0100     		.2byte	0x1
 8111 0aed 53       		.byte	0x53
 8112 0aee 43000000 		.4byte	.LVL177-1
 8113 0af2 C4000000 		.4byte	.LFE45
 8114 0af6 0200     		.2byte	0x2
 8115 0af8 91       		.byte	0x91
 8116 0af9 5C       		.sleb128 -36
 8117 0afa 00000000 		.4byte	0
 8118 0afe 00000000 		.4byte	0
 8119              	.LLST66:
 8120 0b02 10000000 		.4byte	.LVL168
 8121 0b06 1A000000 		.4byte	.LVL171
 8122 0b0a 0700     		.2byte	0x7
 8123 0b0c 72       		.byte	0x72
ARM GAS  C:\Users\leoja\AppData\Local\Temp\ccByxJuZ.s 			page 161


 8124 0b0d 00       		.sleb128 0
 8125 0b0e 44       		.byte	0x44
 8126 0b0f 1E       		.byte	0x1e
 8127 0b10 23       		.byte	0x23
 8128 0b11 0C       		.uleb128 0xc
 8129 0b12 9F       		.byte	0x9f
 8130 0b13 1A000000 		.4byte	.LVL171
 8131 0b17 1C000000 		.4byte	.LVL172
 8132 0b1b 0100     		.2byte	0x1
 8133 0b1d 53       		.byte	0x53
 8134 0b1e 1C000000 		.4byte	.LVL172
 8135 0b22 43000000 		.4byte	.LVL177-1
 8136 0b26 0700     		.2byte	0x7
 8137 0b28 72       		.byte	0x72
 8138 0b29 00       		.sleb128 0
 8139 0b2a 44       		.byte	0x44
 8140 0b2b 1E       		.byte	0x1e
 8141 0b2c 23       		.byte	0x23
 8142 0b2d 0C       		.uleb128 0xc
 8143 0b2e 9F       		.byte	0x9f
 8144 0b2f 43000000 		.4byte	.LVL177-1
 8145 0b33 C4000000 		.4byte	.LFE45
 8146 0b37 0C00     		.2byte	0xc
 8147 0b39 91       		.byte	0x91
 8148 0b3a 04       		.sleb128 4
 8149 0b3b 94       		.byte	0x94
 8150 0b3c 01       		.byte	0x1
 8151 0b3d 08       		.byte	0x8
 8152 0b3e FF       		.byte	0xff
 8153 0b3f 1A       		.byte	0x1a
 8154 0b40 44       		.byte	0x44
 8155 0b41 1E       		.byte	0x1e
 8156 0b42 23       		.byte	0x23
 8157 0b43 0C       		.uleb128 0xc
 8158 0b44 9F       		.byte	0x9f
 8159 0b45 00000000 		.4byte	0
 8160 0b49 00000000 		.4byte	0
 8161              	.LLST67:
 8162 0b4d 00000000 		.4byte	.LVL182
 8163 0b51 22000000 		.4byte	.LVL190
 8164 0b55 0100     		.2byte	0x1
 8165 0b57 50       		.byte	0x50
 8166 0b58 22000000 		.4byte	.LVL190
 8167 0b5c 24020000 		.4byte	.LFE46
 8168 0b60 0400     		.2byte	0x4
 8169 0b62 F3       		.byte	0xf3
 8170 0b63 01       		.uleb128 0x1
 8171 0b64 50       		.byte	0x50
 8172 0b65 9F       		.byte	0x9f
 8173 0b66 00000000 		.4byte	0
 8174 0b6a 00000000 		.4byte	0
 8175              	.LLST68:
 8176 0b6e 00000000 		.4byte	.LVL182
 8177 0b72 0A000000 		.4byte	.LVL183
 8178 0b76 0100     		.2byte	0x1
 8179 0b78 51       		.byte	0x51
 8180 0b79 0A000000 		.4byte	.LVL183
ARM GAS  C:\Users\leoja\AppData\Local\Temp\ccByxJuZ.s 			page 162


 8181 0b7d 24020000 		.4byte	.LFE46
 8182 0b81 0400     		.2byte	0x4
 8183 0b83 F3       		.byte	0xf3
 8184 0b84 01       		.uleb128 0x1
 8185 0b85 51       		.byte	0x51
 8186 0b86 9F       		.byte	0x9f
 8187 0b87 00000000 		.4byte	0
 8188 0b8b 00000000 		.4byte	0
 8189              	.LLST69:
 8190 0b8f 00000000 		.4byte	.LVL182
 8191 0b93 18000000 		.4byte	.LVL187
 8192 0b97 0100     		.2byte	0x1
 8193 0b99 52       		.byte	0x52
 8194 0b9a 18000000 		.4byte	.LVL187
 8195 0b9e 24020000 		.4byte	.LFE46
 8196 0ba2 0400     		.2byte	0x4
 8197 0ba4 F3       		.byte	0xf3
 8198 0ba5 01       		.uleb128 0x1
 8199 0ba6 52       		.byte	0x52
 8200 0ba7 9F       		.byte	0x9f
 8201 0ba8 00000000 		.4byte	0
 8202 0bac 00000000 		.4byte	0
 8203              	.LLST70:
 8204 0bb0 00000000 		.4byte	.LVL182
 8205 0bb4 0E000000 		.4byte	.LVL184
 8206 0bb8 0100     		.2byte	0x1
 8207 0bba 53       		.byte	0x53
 8208 0bbb 0E000000 		.4byte	.LVL184
 8209 0bbf 24020000 		.4byte	.LFE46
 8210 0bc3 0400     		.2byte	0x4
 8211 0bc5 F3       		.byte	0xf3
 8212 0bc6 01       		.uleb128 0x1
 8213 0bc7 53       		.byte	0x53
 8214 0bc8 9F       		.byte	0x9f
 8215 0bc9 00000000 		.4byte	0
 8216 0bcd 00000000 		.4byte	0
 8217              	.LLST71:
 8218 0bd1 00000000 		.4byte	.LVL182
 8219 0bd5 0E000000 		.4byte	.LVL184
 8220 0bd9 0200     		.2byte	0x2
 8221 0bdb 91       		.byte	0x91
 8222 0bdc 00       		.sleb128 0
 8223 0bdd 0E000000 		.4byte	.LVL184
 8224 0be1 10000000 		.4byte	.LVL185
 8225 0be5 0200     		.2byte	0x2
 8226 0be7 73       		.byte	0x73
 8227 0be8 00       		.sleb128 0
 8228 0be9 10000000 		.4byte	.LVL185
 8229 0bed 24020000 		.4byte	.LFE46
 8230 0bf1 0200     		.2byte	0x2
 8231 0bf3 91       		.byte	0x91
 8232 0bf4 00       		.sleb128 0
 8233 0bf5 00000000 		.4byte	0
 8234 0bf9 00000000 		.4byte	0
 8235              	.LLST72:
 8236 0bfd 00000000 		.4byte	.LVL182
 8237 0c01 0E000000 		.4byte	.LVL184
ARM GAS  C:\Users\leoja\AppData\Local\Temp\ccByxJuZ.s 			page 163


 8238 0c05 0200     		.2byte	0x2
 8239 0c07 91       		.byte	0x91
 8240 0c08 04       		.sleb128 4
 8241 0c09 0E000000 		.4byte	.LVL184
 8242 0c0d 10000000 		.4byte	.LVL185
 8243 0c11 0200     		.2byte	0x2
 8244 0c13 73       		.byte	0x73
 8245 0c14 04       		.sleb128 4
 8246 0c15 10000000 		.4byte	.LVL185
 8247 0c19 16000000 		.4byte	.LVL186
 8248 0c1d 0200     		.2byte	0x2
 8249 0c1f 91       		.byte	0x91
 8250 0c20 04       		.sleb128 4
 8251 0c21 16000000 		.4byte	.LVL186
 8252 0c25 26000000 		.4byte	.LVL191
 8253 0c29 0200     		.2byte	0x2
 8254 0c2b 73       		.byte	0x73
 8255 0c2c 00       		.sleb128 0
 8256 0c2d 26000000 		.4byte	.LVL191
 8257 0c31 24020000 		.4byte	.LFE46
 8258 0c35 0200     		.2byte	0x2
 8259 0c37 91       		.byte	0x91
 8260 0c38 04       		.sleb128 4
 8261 0c39 00000000 		.4byte	0
 8262 0c3d 00000000 		.4byte	0
 8263              	.LLST73:
 8264 0c41 2C000000 		.4byte	.LVL192
 8265 0c45 4E000000 		.4byte	.LVL196
 8266 0c49 0100     		.2byte	0x1
 8267 0c4b 55       		.byte	0x55
 8268 0c4c 4E000000 		.4byte	.LVL196
 8269 0c50 24020000 		.4byte	.LFE46
 8270 0c54 1A00     		.2byte	0x1a
 8271 0c56 91       		.byte	0x91
 8272 0c57 58       		.sleb128 -40
 8273 0c58 06       		.byte	0x6
 8274 0c59 91       		.byte	0x91
 8275 0c5a 60       		.sleb128 -32
 8276 0c5b 06       		.byte	0x6
 8277 0c5c 22       		.byte	0x22
 8278 0c5d 31       		.byte	0x31
 8279 0c5e 26       		.byte	0x26
 8280 0c5f 91       		.byte	0x91
 8281 0c60 04       		.sleb128 4
 8282 0c61 94       		.byte	0x94
 8283 0c62 01       		.byte	0x1
 8284 0c63 08       		.byte	0x8
 8285 0c64 FF       		.byte	0xff
 8286 0c65 1A       		.byte	0x1a
 8287 0c66 44       		.byte	0x44
 8288 0c67 1E       		.byte	0x1e
 8289 0c68 23       		.byte	0x23
 8290 0c69 0C       		.uleb128 0xc
 8291 0c6a 3A       		.byte	0x3a
 8292 0c6b 1E       		.byte	0x1e
 8293 0c6c 31       		.byte	0x31
 8294 0c6d 26       		.byte	0x26
ARM GAS  C:\Users\leoja\AppData\Local\Temp\ccByxJuZ.s 			page 164


 8295 0c6e 1C       		.byte	0x1c
 8296 0c6f 9F       		.byte	0x9f
 8297 0c70 00000000 		.4byte	0
 8298 0c74 00000000 		.4byte	0
 8299              	.LLST74:
 8300 0c78 3E000000 		.4byte	.LVL193
 8301 0c7c 4C000000 		.4byte	.LVL195
 8302 0c80 0100     		.2byte	0x1
 8303 0c82 56       		.byte	0x56
 8304 0c83 4C000000 		.4byte	.LVL195
 8305 0c87 24020000 		.4byte	.LFE46
 8306 0c8b 1700     		.2byte	0x17
 8307 0c8d 91       		.byte	0x91
 8308 0c8e 04       		.sleb128 4
 8309 0c8f 94       		.byte	0x94
 8310 0c90 01       		.byte	0x1
 8311 0c91 08       		.byte	0x8
 8312 0c92 FF       		.byte	0xff
 8313 0c93 1A       		.byte	0x1a
 8314 0c94 09       		.byte	0x9
 8315 0c95 EF       		.byte	0xef
 8316 0c96 1E       		.byte	0x1e
 8317 0c97 91       		.byte	0x91
 8318 0c98 5C       		.sleb128 -36
 8319 0c99 06       		.byte	0x6
 8320 0c9a 91       		.byte	0x91
 8321 0c9b 64       		.sleb128 -28
 8322 0c9c 06       		.byte	0x6
 8323 0c9d 22       		.byte	0x22
 8324 0c9e 31       		.byte	0x31
 8325 0c9f 26       		.byte	0x26
 8326 0ca0 22       		.byte	0x22
 8327 0ca1 35       		.byte	0x35
 8328 0ca2 1C       		.byte	0x1c
 8329 0ca3 9F       		.byte	0x9f
 8330 0ca4 00000000 		.4byte	0
 8331 0ca8 00000000 		.4byte	0
 8332              	.LLST75:
 8333 0cac 18000000 		.4byte	.LVL187
 8334 0cb0 1E000000 		.4byte	.LVL188
 8335 0cb4 0700     		.2byte	0x7
 8336 0cb6 72       		.byte	0x72
 8337 0cb7 00       		.sleb128 0
 8338 0cb8 44       		.byte	0x44
 8339 0cb9 1E       		.byte	0x1e
 8340 0cba 23       		.byte	0x23
 8341 0cbb 0C       		.uleb128 0xc
 8342 0cbc 9F       		.byte	0x9f
 8343 0cbd 1E000000 		.4byte	.LVL188
 8344 0cc1 20000000 		.4byte	.LVL189
 8345 0cc5 0100     		.2byte	0x1
 8346 0cc7 55       		.byte	0x55
 8347 0cc8 20000000 		.4byte	.LVL189
 8348 0ccc 47000000 		.4byte	.LVL194-1
 8349 0cd0 0700     		.2byte	0x7
 8350 0cd2 72       		.byte	0x72
 8351 0cd3 00       		.sleb128 0
ARM GAS  C:\Users\leoja\AppData\Local\Temp\ccByxJuZ.s 			page 165


 8352 0cd4 44       		.byte	0x44
 8353 0cd5 1E       		.byte	0x1e
 8354 0cd6 23       		.byte	0x23
 8355 0cd7 0C       		.uleb128 0xc
 8356 0cd8 9F       		.byte	0x9f
 8357 0cd9 47000000 		.4byte	.LVL194-1
 8358 0cdd 24020000 		.4byte	.LFE46
 8359 0ce1 0C00     		.2byte	0xc
 8360 0ce3 91       		.byte	0x91
 8361 0ce4 04       		.sleb128 4
 8362 0ce5 94       		.byte	0x94
 8363 0ce6 01       		.byte	0x1
 8364 0ce7 08       		.byte	0x8
 8365 0ce8 FF       		.byte	0xff
 8366 0ce9 1A       		.byte	0x1a
 8367 0cea 44       		.byte	0x44
 8368 0ceb 1E       		.byte	0x1e
 8369 0cec 23       		.byte	0x23
 8370 0ced 0C       		.uleb128 0xc
 8371 0cee 9F       		.byte	0x9f
 8372 0cef 00000000 		.4byte	0
 8373 0cf3 00000000 		.4byte	0
 8374              	.LLST76:
 8375 0cf7 70000000 		.4byte	.LVL197
 8376 0cfb B4010000 		.4byte	.LVL209
 8377 0cff 0500     		.2byte	0x5
 8378 0d01 08       		.byte	0x8
 8379 0d02 FF       		.byte	0xff
 8380 0d03 40       		.byte	0x40
 8381 0d04 24       		.byte	0x24
 8382 0d05 9F       		.byte	0x9f
 8383 0d06 B4010000 		.4byte	.LVL209
 8384 0d0a E8010000 		.4byte	.LVL211
 8385 0d0e 0400     		.2byte	0x4
 8386 0d10 0A       		.byte	0xa
 8387 0d11 00FF     		.2byte	0xff00
 8388 0d13 9F       		.byte	0x9f
 8389 0d14 00000000 		.4byte	0
 8390 0d18 00000000 		.4byte	0
 8391              	.LLST77:
 8392 0d1c 00000000 		.4byte	.LVL214
 8393 0d20 20000000 		.4byte	.LVL222
 8394 0d24 0100     		.2byte	0x1
 8395 0d26 50       		.byte	0x50
 8396 0d27 20000000 		.4byte	.LVL222
 8397 0d2b 8C000000 		.4byte	.LFE47
 8398 0d2f 0400     		.2byte	0x4
 8399 0d31 F3       		.byte	0xf3
 8400 0d32 01       		.uleb128 0x1
 8401 0d33 50       		.byte	0x50
 8402 0d34 9F       		.byte	0x9f
 8403 0d35 00000000 		.4byte	0
 8404 0d39 00000000 		.4byte	0
 8405              	.LLST78:
 8406 0d3d 00000000 		.4byte	.LVL214
 8407 0d41 16000000 		.4byte	.LVL219
 8408 0d45 0100     		.2byte	0x1
ARM GAS  C:\Users\leoja\AppData\Local\Temp\ccByxJuZ.s 			page 166


 8409 0d47 51       		.byte	0x51
 8410 0d48 16000000 		.4byte	.LVL219
 8411 0d4c 8C000000 		.4byte	.LFE47
 8412 0d50 0400     		.2byte	0x4
 8413 0d52 F3       		.byte	0xf3
 8414 0d53 01       		.uleb128 0x1
 8415 0d54 51       		.byte	0x51
 8416 0d55 9F       		.byte	0x9f
 8417 0d56 00000000 		.4byte	0
 8418 0d5a 00000000 		.4byte	0
 8419              	.LLST79:
 8420 0d5e 00000000 		.4byte	.LVL214
 8421 0d62 10000000 		.4byte	.LVL217
 8422 0d66 0100     		.2byte	0x1
 8423 0d68 52       		.byte	0x52
 8424 0d69 10000000 		.4byte	.LVL217
 8425 0d6d 8C000000 		.4byte	.LFE47
 8426 0d71 0400     		.2byte	0x4
 8427 0d73 F3       		.byte	0xf3
 8428 0d74 01       		.uleb128 0x1
 8429 0d75 52       		.byte	0x52
 8430 0d76 9F       		.byte	0x9f
 8431 0d77 00000000 		.4byte	0
 8432 0d7b 00000000 		.4byte	0
 8433              	.LLST80:
 8434 0d7f 00000000 		.4byte	.LVL214
 8435 0d83 08000000 		.4byte	.LVL215
 8436 0d87 0100     		.2byte	0x1
 8437 0d89 53       		.byte	0x53
 8438 0d8a 08000000 		.4byte	.LVL215
 8439 0d8e 8C000000 		.4byte	.LFE47
 8440 0d92 0400     		.2byte	0x4
 8441 0d94 F3       		.byte	0xf3
 8442 0d95 01       		.uleb128 0x1
 8443 0d96 53       		.byte	0x53
 8444 0d97 9F       		.byte	0x9f
 8445 0d98 00000000 		.4byte	0
 8446 0d9c 00000000 		.4byte	0
 8447              	.LLST81:
 8448 0da0 00000000 		.4byte	.LVL214
 8449 0da4 08000000 		.4byte	.LVL215
 8450 0da8 0200     		.2byte	0x2
 8451 0daa 91       		.byte	0x91
 8452 0dab 00       		.sleb128 0
 8453 0dac 08000000 		.4byte	.LVL215
 8454 0db0 0C000000 		.4byte	.LVL216
 8455 0db4 0200     		.2byte	0x2
 8456 0db6 73       		.byte	0x73
 8457 0db7 00       		.sleb128 0
 8458 0db8 0C000000 		.4byte	.LVL216
 8459 0dbc 8C000000 		.4byte	.LFE47
 8460 0dc0 0200     		.2byte	0x2
 8461 0dc2 91       		.byte	0x91
 8462 0dc3 00       		.sleb128 0
 8463 0dc4 00000000 		.4byte	0
 8464 0dc8 00000000 		.4byte	0
 8465              	.LLST82:
ARM GAS  C:\Users\leoja\AppData\Local\Temp\ccByxJuZ.s 			page 167


 8466 0dcc 00000000 		.4byte	.LVL214
 8467 0dd0 08000000 		.4byte	.LVL215
 8468 0dd4 0200     		.2byte	0x2
 8469 0dd6 91       		.byte	0x91
 8470 0dd7 04       		.sleb128 4
 8471 0dd8 08000000 		.4byte	.LVL215
 8472 0ddc 0C000000 		.4byte	.LVL216
 8473 0de0 0200     		.2byte	0x2
 8474 0de2 73       		.byte	0x73
 8475 0de3 04       		.sleb128 4
 8476 0de4 0C000000 		.4byte	.LVL216
 8477 0de8 12000000 		.4byte	.LVL218
 8478 0dec 0200     		.2byte	0x2
 8479 0dee 73       		.byte	0x73
 8480 0def 00       		.sleb128 0
 8481 0df0 12000000 		.4byte	.LVL218
 8482 0df4 8C000000 		.4byte	.LFE47
 8483 0df8 0200     		.2byte	0x2
 8484 0dfa 91       		.byte	0x91
 8485 0dfb 04       		.sleb128 4
 8486 0dfc 00000000 		.4byte	0
 8487 0e00 00000000 		.4byte	0
 8488              	.LLST83:
 8489 0e04 2C000000 		.4byte	.LVL223
 8490 0e08 2E000000 		.4byte	.LVL224
 8491 0e0c 0100     		.2byte	0x1
 8492 0e0e 53       		.byte	0x53
 8493 0e0f 2E000000 		.4byte	.LVL224
 8494 0e13 8C000000 		.4byte	.LFE47
 8495 0e17 0200     		.2byte	0x2
 8496 0e19 91       		.byte	0x91
 8497 0e1a 4C       		.sleb128 -52
 8498 0e1b 00000000 		.4byte	0
 8499 0e1f 00000000 		.4byte	0
 8500              	.LLST84:
 8501 0e23 36000000 		.4byte	.LVL225
 8502 0e27 3F000000 		.4byte	.LVL226-1
 8503 0e2b 0100     		.2byte	0x1
 8504 0e2d 53       		.byte	0x53
 8505 0e2e 3F000000 		.4byte	.LVL226-1
 8506 0e32 8C000000 		.4byte	.LFE47
 8507 0e36 0200     		.2byte	0x2
 8508 0e38 91       		.byte	0x91
 8509 0e39 50       		.sleb128 -48
 8510 0e3a 00000000 		.4byte	0
 8511 0e3e 00000000 		.4byte	0
 8512              	.LLST85:
 8513 0e42 10000000 		.4byte	.LVL217
 8514 0e46 1A000000 		.4byte	.LVL220
 8515 0e4a 0700     		.2byte	0x7
 8516 0e4c 72       		.byte	0x72
 8517 0e4d 00       		.sleb128 0
 8518 0e4e 44       		.byte	0x44
 8519 0e4f 1E       		.byte	0x1e
 8520 0e50 23       		.byte	0x23
 8521 0e51 0C       		.uleb128 0xc
 8522 0e52 9F       		.byte	0x9f
ARM GAS  C:\Users\leoja\AppData\Local\Temp\ccByxJuZ.s 			page 168


 8523 0e53 1A000000 		.4byte	.LVL220
 8524 0e57 1C000000 		.4byte	.LVL221
 8525 0e5b 0100     		.2byte	0x1
 8526 0e5d 53       		.byte	0x53
 8527 0e5e 1C000000 		.4byte	.LVL221
 8528 0e62 3F000000 		.4byte	.LVL226-1
 8529 0e66 0700     		.2byte	0x7
 8530 0e68 72       		.byte	0x72
 8531 0e69 00       		.sleb128 0
 8532 0e6a 44       		.byte	0x44
 8533 0e6b 1E       		.byte	0x1e
 8534 0e6c 23       		.byte	0x23
 8535 0e6d 0C       		.uleb128 0xc
 8536 0e6e 9F       		.byte	0x9f
 8537 0e6f 3F000000 		.4byte	.LVL226-1
 8538 0e73 8C000000 		.4byte	.LFE47
 8539 0e77 0C00     		.2byte	0xc
 8540 0e79 91       		.byte	0x91
 8541 0e7a 04       		.sleb128 4
 8542 0e7b 94       		.byte	0x94
 8543 0e7c 01       		.byte	0x1
 8544 0e7d 08       		.byte	0x8
 8545 0e7e FF       		.byte	0xff
 8546 0e7f 1A       		.byte	0x1a
 8547 0e80 44       		.byte	0x44
 8548 0e81 1E       		.byte	0x1e
 8549 0e82 23       		.byte	0x23
 8550 0e83 0C       		.uleb128 0xc
 8551 0e84 9F       		.byte	0x9f
 8552 0e85 00000000 		.4byte	0
 8553 0e89 00000000 		.4byte	0
 8554              		.section	.debug_aranges,"",%progbits
 8555 0000 74000000 		.4byte	0x74
 8556 0004 0200     		.2byte	0x2
 8557 0006 00000000 		.4byte	.Ldebug_info0
 8558 000a 04       		.byte	0x4
 8559 000b 00       		.byte	0
 8560 000c 0000     		.2byte	0
 8561 000e 0000     		.2byte	0
 8562 0010 00000000 		.4byte	.LFB35
 8563 0014 70000000 		.4byte	.LFE35-.LFB35
 8564 0018 00000000 		.4byte	.LFB36
 8565 001c 7C000000 		.4byte	.LFE36-.LFB36
 8566 0020 00000000 		.4byte	.LFB37
 8567 0024 48000000 		.4byte	.LFE37-.LFB37
 8568 0028 00000000 		.4byte	.LFB38
 8569 002c 5C010000 		.4byte	.LFE38-.LFB38
 8570 0030 00000000 		.4byte	.LFB39
 8571 0034 0C010000 		.4byte	.LFE39-.LFB39
 8572 0038 00000000 		.4byte	.LFB40
 8573 003c B8020000 		.4byte	.LFE40-.LFB40
 8574 0040 00000000 		.4byte	.LFB41
 8575 0044 24010000 		.4byte	.LFE41-.LFB41
 8576 0048 00000000 		.4byte	.LFB44
 8577 004c C0000000 		.4byte	.LFE44-.LFB44
 8578 0050 00000000 		.4byte	.LFB43
 8579 0054 14000000 		.4byte	.LFE43-.LFB43
ARM GAS  C:\Users\leoja\AppData\Local\Temp\ccByxJuZ.s 			page 169


 8580 0058 00000000 		.4byte	.LFB45
 8581 005c C4000000 		.4byte	.LFE45-.LFB45
 8582 0060 00000000 		.4byte	.LFB46
 8583 0064 24020000 		.4byte	.LFE46-.LFB46
 8584 0068 00000000 		.4byte	.LFB47
 8585 006c 8C000000 		.4byte	.LFE47-.LFB47
 8586 0070 00000000 		.4byte	0
 8587 0074 00000000 		.4byte	0
 8588              		.section	.debug_ranges,"",%progbits
 8589              	.Ldebug_ranges0:
 8590 0000 64000000 		.4byte	.LBB4
 8591 0004 66000000 		.4byte	.LBE4
 8592 0008 6A000000 		.4byte	.LBB5
 8593 000c 84000000 		.4byte	.LBE5
 8594 0010 00000000 		.4byte	0
 8595 0014 00000000 		.4byte	0
 8596 0018 00000000 		.4byte	.LFB35
 8597 001c 70000000 		.4byte	.LFE35
 8598 0020 00000000 		.4byte	.LFB36
 8599 0024 7C000000 		.4byte	.LFE36
 8600 0028 00000000 		.4byte	.LFB37
 8601 002c 48000000 		.4byte	.LFE37
 8602 0030 00000000 		.4byte	.LFB38
 8603 0034 5C010000 		.4byte	.LFE38
 8604 0038 00000000 		.4byte	.LFB39
 8605 003c 0C010000 		.4byte	.LFE39
 8606 0040 00000000 		.4byte	.LFB40
 8607 0044 B8020000 		.4byte	.LFE40
 8608 0048 00000000 		.4byte	.LFB41
 8609 004c 24010000 		.4byte	.LFE41
 8610 0050 00000000 		.4byte	.LFB44
 8611 0054 C0000000 		.4byte	.LFE44
 8612 0058 00000000 		.4byte	.LFB43
 8613 005c 14000000 		.4byte	.LFE43
 8614 0060 00000000 		.4byte	.LFB45
 8615 0064 C4000000 		.4byte	.LFE45
 8616 0068 00000000 		.4byte	.LFB46
 8617 006c 24020000 		.4byte	.LFE46
 8618 0070 00000000 		.4byte	.LFB47
 8619 0074 8C000000 		.4byte	.LFE47
 8620 0078 00000000 		.4byte	0
 8621 007c 00000000 		.4byte	0
 8622              		.section	.debug_line,"",%progbits
 8623              	.Ldebug_line0:
 8624 0000 50040000 		.section	.debug_str,"MS",%progbits,1
 8624      02000F02 
 8624      00000201 
 8624      FB0E0D00 
 8624      01010101 
 8625              	.LASF139:
 8626 0000 43794465 		.ascii	"CyDelay\000"
 8626      6C617900 
 8627              	.LASF116:
 8628 0008 64617461 		.ascii	"data_s\000"
 8628      5F7300
 8629              	.LASF49:
 8630 000f 464F4E54 		.ascii	"FONT_TYPE_8BPP\000"
ARM GAS  C:\Users\leoja\AppData\Local\Temp\ccByxJuZ.s 			page 170


 8630      5F545950 
 8630      455F3842 
 8630      505000
 8631              	.LASF37:
 8632 001e 494D445F 		.ascii	"IMD_OK\000"
 8632      4F4B00
 8633              	.LASF105:
 8634 0025 6465736B 		.ascii	"desktop_color\000"
 8634      746F705F 
 8634      636F6C6F 
 8634      7200
 8635              	.LASF60:
 8636 0033 746F7563 		.ascii	"touch_state\000"
 8636      685F7374 
 8636      61746500 
 8637              	.LASF74:
 8638 003f 55475F43 		.ascii	"UG_COLOR\000"
 8638      4F4C4F52 
 8638      00
 8639              	.LASF45:
 8640 0048 55475F55 		.ascii	"UG_U16\000"
 8640      313600
 8641              	.LASF13:
 8642 004f 756E7369 		.ascii	"unsigned int\000"
 8642      676E6564 
 8642      20696E74 
 8642      00
 8643              	.LASF104:
 8644 005c 63686172 		.ascii	"char_v_space\000"
 8644      5F765F73 
 8644      70616365 
 8644      00
 8645              	.LASF29:
 8646 0069 4E4F4E45 		.ascii	"NONE\000"
 8646      00
 8647              	.LASF92:
 8648 006e 795F656E 		.ascii	"y_end\000"
 8648      6400
 8649              	.LASF102:
 8650 0074 636F6E73 		.ascii	"console\000"
 8650      6F6C6500 
 8651              	.LASF69:
 8652 007c 535F5749 		.ascii	"S_WINDOW\000"
 8652      4E444F57 
 8652      00
 8653              	.LASF39:
 8654 0085 53687574 		.ascii	"Shutdown_Final\000"
 8654      646F776E 
 8654      5F46696E 
 8654      616C00
 8655              	.LASF34:
 8656 0094 53454E53 		.ascii	"SENSOR_DISCREPANCY\000"
 8656      4F525F44 
 8656      49534352 
 8656      4550414E 
 8656      435900
 8657              	.LASF61:
ARM GAS  C:\Users\leoja\AppData\Local\Temp\ccByxJuZ.s 			page 171


 8658 00a7 75706461 		.ascii	"update\000"
 8658      746500
 8659              	.LASF97:
 8660 00ae 795F6469 		.ascii	"y_dim\000"
 8660      6D00
 8661              	.LASF50:
 8662 00b4 464F4E54 		.ascii	"FONT_TYPE\000"
 8662      5F545950 
 8662      4500
 8663              	.LASF35:
 8664 00be 4252414B 		.ascii	"BRAKE_IMPLAUSIBLE\000"
 8664      455F494D 
 8664      504C4155 
 8664      5349424C 
 8664      4500
 8665              	.LASF138:
 8666 00d0 55475F46 		.ascii	"UG_FillFrame\000"
 8666      696C6C46 
 8666      72616D65 
 8666      00
 8667              	.LASF71:
 8668 00dd 6F626A6C 		.ascii	"objlst\000"
 8668      737400
 8669              	.LASF99:
 8670 00e4 6E657874 		.ascii	"next_window\000"
 8670      5F77696E 
 8670      646F7700 
 8671              	.LASF73:
 8672 00f0 7469746C 		.ascii	"title\000"
 8672      6500
 8673              	.LASF18:
 8674 00f6 75696E74 		.ascii	"uint32_t\000"
 8674      33325F74 
 8674      00
 8675              	.LASF14:
 8676 00ff 696E7438 		.ascii	"int8_t\000"
 8676      5F7400
 8677              	.LASF47:
 8678 0106 55475F55 		.ascii	"UG_U32\000"
 8678      333200
 8679              	.LASF91:
 8680 010d 785F656E 		.ascii	"x_end\000"
 8680      6400
 8681              	.LASF20:
 8682 0113 666C6F61 		.ascii	"float\000"
 8682      7400
 8683              	.LASF65:
 8684 0119 6576656E 		.ascii	"event\000"
 8684      7400
 8685              	.LASF101:
 8686 011f 6C617374 		.ascii	"last_window\000"
 8686      5F77696E 
 8686      646F7700 
 8687              	.LASF94:
 8688 012b 6261636B 		.ascii	"back_color\000"
 8688      5F636F6C 
 8688      6F7200
ARM GAS  C:\Users\leoja\AppData\Local\Temp\ccByxJuZ.s 			page 172


 8689              	.LASF27:
 8690 0136 44524956 		.ascii	"DRIVE\000"
 8690      4500
 8691              	.LASF16:
 8692 013c 696E7431 		.ascii	"int16_t\000"
 8692      365F7400 
 8693              	.LASF127:
 8694 0144 464F4E54 		.ascii	"FONT_12X16\000"
 8694      5F313258 
 8694      313600
 8695              	.LASF12:
 8696 014f 6C6F6E67 		.ascii	"long long unsigned int\000"
 8696      206C6F6E 
 8696      6720756E 
 8696      7369676E 
 8696      65642069 
 8697              	.LASF107:
 8698 0166 63616C69 		.ascii	"calibrateScreen\000"
 8698      62726174 
 8698      65536372 
 8698      65656E00 
 8699              	.LASF6:
 8700 0176 5F5F7569 		.ascii	"__uint16_t\000"
 8700      6E743136 
 8700      5F7400
 8701              	.LASF100:
 8702 0181 61637469 		.ascii	"active_window\000"
 8702      76655F77 
 8702      696E646F 
 8702      7700
 8703              	.LASF70:
 8704 018f 6F626A63 		.ascii	"objcnt\000"
 8704      6E7400
 8705              	.LASF46:
 8706 0196 55475F53 		.ascii	"UG_S16\000"
 8706      313600
 8707              	.LASF93:
 8708 019d 666F7265 		.ascii	"fore_color\000"
 8708      5F636F6C 
 8708      6F7200
 8709              	.LASF88:
 8710 01a8 795F706F 		.ascii	"y_pos\000"
 8710      7300
 8711              	.LASF115:
 8712 01ae 636F6C6F 		.ascii	"color\000"
 8712      7200
 8713              	.LASF136:
 8714 01b4 6C617374 		.ascii	"last_shutdown_color\000"
 8714      5F736875 
 8714      74646F77 
 8714      6E5F636F 
 8714      6C6F7200 
 8715              	.LASF142:
 8716 01c8 55475F50 		.ascii	"UG_PutColorString\000"
 8716      7574436F 
 8716      6C6F7253 
 8716      7472696E 
ARM GAS  C:\Users\leoja\AppData\Local\Temp\ccByxJuZ.s 			page 173


 8716      6700
 8717              	.LASF32:
 8718 01da 4252414B 		.ascii	"BRAKE_NOT_PRESSED\000"
 8718      455F4E4F 
 8718      545F5052 
 8718      45535345 
 8718      4400
 8719              	.LASF137:
 8720 01ec 55475F46 		.ascii	"UG_FillScreen\000"
 8720      696C6C53 
 8720      63726565 
 8720      6E00
 8721              	.LASF130:
 8722 01fa 6C617374 		.ascii	"last_SOC_color\000"
 8722      5F534F43 
 8722      5F636F6C 
 8722      6F7200
 8723              	.LASF124:
 8724 0209 64697370 		.ascii	"disp_shutdown_circuit\000"
 8724      5F736875 
 8724      74646F77 
 8724      6E5F6369 
 8724      72637569 
 8725              	.LASF52:
 8726 021f 63686172 		.ascii	"char_width\000"
 8726      5F776964 
 8726      746800
 8727              	.LASF33:
 8728 022a 48565F44 		.ascii	"HV_DISABLED_WHILE_DRIVING\000"
 8728      49534142 
 8728      4C45445F 
 8728      5748494C 
 8728      455F4452 
 8729              	.LASF36:
 8730 0244 4553544F 		.ascii	"ESTOP\000"
 8730      5000
 8731              	.LASF121:
 8732 024a 64697370 		.ascii	"disp_glv_v\000"
 8732      5F676C76 
 8732      5F7600
 8733              	.LASF125:
 8734 0255 73687574 		.ascii	"shutdown_flags\000"
 8734      646F776E 
 8734      5F666C61 
 8734      677300
 8735              	.LASF119:
 8736 0264 64697370 		.ascii	"disp_state\000"
 8736      5F737461 
 8736      746500
 8737              	.LASF135:
 8738 026f 6C617374 		.ascii	"last_motor_temp_color\000"
 8738      5F6D6F74 
 8738      6F725F74 
 8738      656D705F 
 8738      636F6C6F 
 8739              	.LASF26:
 8740 0285 48565F45 		.ascii	"HV_ENABLED\000"
ARM GAS  C:\Users\leoja\AppData\Local\Temp\ccByxJuZ.s 			page 174


 8740      4E41424C 
 8740      454400
 8741              	.LASF90:
 8742 0290 795F7374 		.ascii	"y_start\000"
 8742      61727400 
 8743              	.LASF81:
 8744 0298 765F7370 		.ascii	"v_space\000"
 8744      61636500 
 8745              	.LASF22:
 8746 02a0 63686172 		.ascii	"char\000"
 8746      00
 8747              	.LASF31:
 8748 02a5 434F4E53 		.ascii	"CONSERVATIVE_TIMER_MAXED\000"
 8748      45525641 
 8748      54495645 
 8748      5F54494D 
 8748      45525F4D 
 8749              	.LASF113:
 8750 02be 79466F6E 		.ascii	"yFont\000"
 8750      7400
 8751              	.LASF51:
 8752 02c4 666F6E74 		.ascii	"font_type\000"
 8752      5F747970 
 8752      6500
 8753              	.LASF75:
 8754 02ce 55475F41 		.ascii	"UG_AREA\000"
 8754      52454100 
 8755              	.LASF77:
 8756 02d6 55475F4D 		.ascii	"UG_MESSAGE\000"
 8756      45535341 
 8756      474500
 8757              	.LASF66:
 8758 02e1 64617461 		.ascii	"data\000"
 8758      00
 8759              	.LASF40:
 8760 02e6 41495231 		.ascii	"AIR1\000"
 8760      00
 8761              	.LASF41:
 8762 02eb 41495232 		.ascii	"AIR2\000"
 8762      00
 8763              	.LASF15:
 8764 02f0 75696E74 		.ascii	"uint8_t\000"
 8764      385F7400 
 8765              	.LASF98:
 8766 02f8 746F7563 		.ascii	"touch\000"
 8766      6800
 8767              	.LASF85:
 8768 02fe 64726976 		.ascii	"driver\000"
 8768      657200
 8769              	.LASF42:
 8770 0305 50726563 		.ascii	"Precharge\000"
 8770      68617267 
 8770      6500
 8771              	.LASF44:
 8772 030f 55475F53 		.ascii	"UG_S8\000"
 8772      3800
 8773              	.LASF96:
ARM GAS  C:\Users\leoja\AppData\Local\Temp\ccByxJuZ.s 			page 175


 8774 0315 785F6469 		.ascii	"x_dim\000"
 8774      6D00
 8775              	.LASF11:
 8776 031b 6C6F6E67 		.ascii	"long long int\000"
 8776      206C6F6E 
 8776      6720696E 
 8776      7400
 8777              	.LASF131:
 8778 0329 6C617374 		.ascii	"last_max_pack_temp_color\000"
 8778      5F6D6178 
 8778      5F706163 
 8778      6B5F7465 
 8778      6D705F63 
 8779              	.LASF4:
 8780 0342 5F5F696E 		.ascii	"__int16_t\000"
 8780      7431365F 
 8780      7400
 8781              	.LASF58:
 8782 034c 55475F4F 		.ascii	"UG_OBJECT\000"
 8782      424A4543 
 8782      5400
 8783              	.LASF95:
 8784 0356 70736574 		.ascii	"pset\000"
 8784      00
 8785              	.LASF76:
 8786 035b 7375625F 		.ascii	"sub_id\000"
 8786      696400
 8787              	.LASF110:
 8788 0362 73697A65 		.ascii	"size\000"
 8788      00
 8789              	.LASF123:
 8790 0367 64697370 		.ascii	"disp_gen_voltage\000"
 8790      5F67656E 
 8790      5F766F6C 
 8790      74616765 
 8790      00
 8791              	.LASF83:
 8792 0378 68656967 		.ascii	"height\000"
 8792      687400
 8793              	.LASF54:
 8794 037f 73746172 		.ascii	"start_char\000"
 8794      745F6368 
 8794      617200
 8795              	.LASF25:
 8796 038a 50524543 		.ascii	"PRECHARGING\000"
 8796      48415247 
 8796      494E4700 
 8797              	.LASF43:
 8798 0396 55475F55 		.ascii	"UG_U8\000"
 8798      3800
 8799              	.LASF0:
 8800 039c 5F5F696E 		.ascii	"__int8_t\000"
 8800      74385F74 
 8800      00
 8801              	.LASF56:
 8802 03a5 77696474 		.ascii	"widths\000"
 8802      687300
ARM GAS  C:\Users\leoja\AppData\Local\Temp\ccByxJuZ.s 			page 176


 8803              	.LASF140:
 8804 03ac 55475F50 		.ascii	"UG_PutString\000"
 8804      75745374 
 8804      72696E67 
 8804      00
 8805              	.LASF23:
 8806 03b9 6C6F6E67 		.ascii	"long double\000"
 8806      20646F75 
 8806      626C6500 
 8807              	.LASF141:
 8808 03c5 73707269 		.ascii	"sprintf\000"
 8808      6E746600 
 8809              	.LASF17:
 8810 03cd 75696E74 		.ascii	"uint16_t\000"
 8810      31365F74 
 8810      00
 8811              	.LASF146:
 8812 03d6 443A5C55 		.ascii	"D:\\Users\\leoja\\Documents\\GitHub\\Dashboard-Firm"
 8812      73657273 
 8812      5C6C656F 
 8812      6A615C44 
 8812      6F63756D 
 8813 0404 77617265 		.ascii	"ware-FE10\\Dashboard-Firmware-FE9\\Dashboard.cydsn\000"
 8813      2D464531 
 8813      305C4461 
 8813      7368626F 
 8813      6172642D 
 8814              	.LASF129:
 8815 0435 67756931 		.ascii	"gui1963\000"
 8815      39363300 
 8816              	.LASF84:
 8817 043d 55475F54 		.ascii	"UG_TITLE\000"
 8817      49544C45 
 8817      00
 8818              	.LASF86:
 8819 0446 55475F44 		.ascii	"UG_DRIVER\000"
 8819      52495645 
 8819      5200
 8820              	.LASF87:
 8821 0450 785F706F 		.ascii	"x_pos\000"
 8821      7300
 8822              	.LASF53:
 8823 0456 63686172 		.ascii	"char_height\000"
 8823      5F686569 
 8823      67687400 
 8824              	.LASF5:
 8825 0462 73686F72 		.ascii	"short int\000"
 8825      7420696E 
 8825      7400
 8826              	.LASF132:
 8827 046c 6C617374 		.ascii	"last_state_color\000"
 8827      5F737461 
 8827      74655F63 
 8827      6F6C6F72 
 8827      00
 8828              	.LASF8:
 8829 047d 6C6F6E67 		.ascii	"long int\000"
ARM GAS  C:\Users\leoja\AppData\Local\Temp\ccByxJuZ.s 			page 177


 8829      20696E74 
 8829      00
 8830              	.LASF67:
 8831 0486 55475F57 		.ascii	"UG_WINDOW\000"
 8831      494E444F 
 8831      5700
 8832              	.LASF147:
 8833 0490 64697370 		.ascii	"disp_motor_temp\000"
 8833      5F6D6F74 
 8833      6F725F74 
 8833      656D7000 
 8834              	.LASF55:
 8835 04a0 656E645F 		.ascii	"end_char\000"
 8835      63686172 
 8835      00
 8836              	.LASF57:
 8837 04a9 55475F46 		.ascii	"UG_FONT\000"
 8837      4F4E5400 
 8838              	.LASF1:
 8839 04b1 5F5F7569 		.ascii	"__uint8_t\000"
 8839      6E74385F 
 8839      7400
 8840              	.LASF112:
 8841 04bb 78466F6E 		.ascii	"xFont\000"
 8841      7400
 8842              	.LASF79:
 8843 04c1 666F6E74 		.ascii	"font\000"
 8843      00
 8844              	.LASF24:
 8845 04c6 73697A65 		.ascii	"sizetype\000"
 8845      74797065 
 8845      00
 8846              	.LASF10:
 8847 04cf 6C6F6E67 		.ascii	"long unsigned int\000"
 8847      20756E73 
 8847      69676E65 
 8847      6420696E 
 8847      7400
 8848              	.LASF108:
 8849 04e1 64656275 		.ascii	"debugTemplate\000"
 8849      6754656D 
 8849      706C6174 
 8849      6500
 8850              	.LASF128:
 8851 04ef 464F4E54 		.ascii	"FONT_32X53\000"
 8851      5F333258 
 8851      353300
 8852              	.LASF38:
 8853 04fa 424D535F 		.ascii	"BMS_OK\000"
 8853      4F4B00
 8854              	.LASF118:
 8855 0501 64697370 		.ascii	"disp_max_pack_temp\000"
 8855      5F6D6178 
 8855      5F706163 
 8855      6B5F7465 
 8855      6D7000
 8856              	.LASF114:
ARM GAS  C:\Users\leoja\AppData\Local\Temp\ccByxJuZ.s 			page 178


 8857 0514 686F7269 		.ascii	"horizFontSize\000"
 8857      7A466F6E 
 8857      7453697A 
 8857      6500
 8858              	.LASF133:
 8859 0522 6C617374 		.ascii	"last_glv_v_color\000"
 8859      5F676C76 
 8859      5F765F63 
 8859      6F6C6F72 
 8859      00
 8860              	.LASF64:
 8861 0533 74797065 		.ascii	"type\000"
 8861      00
 8862              	.LASF3:
 8863 0538 756E7369 		.ascii	"unsigned char\000"
 8863      676E6564 
 8863      20636861 
 8863      7200
 8864              	.LASF9:
 8865 0546 5F5F7569 		.ascii	"__uint32_t\000"
 8865      6E743332 
 8865      5F7400
 8866              	.LASF80:
 8867 0551 685F7370 		.ascii	"h_space\000"
 8867      61636500 
 8868              	.LASF109:
 8869 0559 64726976 		.ascii	"driveTemplate\000"
 8869      6554656D 
 8869      706C6174 
 8869      6500
 8870              	.LASF89:
 8871 0567 785F7374 		.ascii	"x_start\000"
 8871      61727400 
 8872              	.LASF28:
 8873 056f 4641554C 		.ascii	"FAULT\000"
 8873      5400
 8874              	.LASF144:
 8875 0575 474E5520 		.ascii	"GNU C11 5.4.1 20160609 (release) [ARM/embedded-5-br"
 8875      43313120 
 8875      352E342E 
 8875      31203230 
 8875      31363036 
 8876 05a8 616E6368 		.ascii	"anch revision 237715] -mcpu=cortex-m0 -mthumb -g -O"
 8876      20726576 
 8876      6973696F 
 8876      6E203233 
 8876      37373135 
 8877 05db 73202D66 		.ascii	"s -ffunction-sections -ffat-lto-objects\000"
 8877      66756E63 
 8877      74696F6E 
 8877      2D736563 
 8877      74696F6E 
 8878              	.LASF134:
 8879 0603 6C617374 		.ascii	"last_mc_temp_color\000"
 8879      5F6D635F 
 8879      74656D70 
 8879      5F636F6C 
ARM GAS  C:\Users\leoja\AppData\Local\Temp\ccByxJuZ.s 			page 179


 8879      6F7200
 8880              	.LASF72:
 8881 0616 7374796C 		.ascii	"style\000"
 8881      6500
 8882              	.LASF59:
 8883 061c 73746174 		.ascii	"state\000"
 8883      6500
 8884              	.LASF126:
 8885 0622 64697370 		.ascii	"disp_debug\000"
 8885      5F646562 
 8885      756700
 8886              	.LASF117:
 8887 062d 64697370 		.ascii	"disp_SOC\000"
 8887      5F534F43 
 8887      00
 8888              	.LASF111:
 8889 0636 73747269 		.ascii	"stringSize\000"
 8889      6E675369 
 8889      7A6500
 8890              	.LASF106:
 8891 0641 55475F47 		.ascii	"UG_GUI\000"
 8891      554900
 8892              	.LASF63:
 8893 0648 615F7265 		.ascii	"a_rel\000"
 8893      6C00
 8894              	.LASF78:
 8895 064e 55475F54 		.ascii	"UG_TOUCH\000"
 8895      4F554348 
 8895      00
 8896              	.LASF2:
 8897 0657 7369676E 		.ascii	"signed char\000"
 8897      65642063 
 8897      68617200 
 8898              	.LASF7:
 8899 0663 73686F72 		.ascii	"short unsigned int\000"
 8899      7420756E 
 8899      7369676E 
 8899      65642069 
 8899      6E7400
 8900              	.LASF145:
 8901 0676 66727563 		.ascii	"frucd_display.c\000"
 8901      645F6469 
 8901      73706C61 
 8901      792E6300 
 8902              	.LASF19:
 8903 0686 75696E74 		.ascii	"uint8\000"
 8903      3800
 8904              	.LASF21:
 8905 068c 646F7562 		.ascii	"double\000"
 8905      6C6500
 8906              	.LASF143:
 8907 0693 55475F46 		.ascii	"UG_FontSelect\000"
 8907      6F6E7453 
 8907      656C6563 
 8907      7400
 8908              	.LASF30:
 8909 06a1 44524956 		.ascii	"DRIVE_REQUEST_FROM_LV\000"
ARM GAS  C:\Users\leoja\AppData\Local\Temp\ccByxJuZ.s 			page 180


 8909      455F5245 
 8909      51554553 
 8909      545F4652 
 8909      4F4D5F4C 
 8910              	.LASF68:
 8911 06b7 535F4F42 		.ascii	"S_OBJECT\000"
 8911      4A454354 
 8911      00
 8912              	.LASF82:
 8913 06c0 616C6967 		.ascii	"align\000"
 8913      6E00
 8914              	.LASF62:
 8915 06c6 615F6162 		.ascii	"a_abs\000"
 8915      7300
 8916              	.LASF120:
 8917 06cc 6661756C 		.ascii	"fault\000"
 8917      7400
 8918              	.LASF48:
 8919 06d2 464F4E54 		.ascii	"FONT_TYPE_1BPP\000"
 8919      5F545950 
 8919      455F3142 
 8919      505000
 8920              	.LASF122:
 8921 06e1 64697370 		.ascii	"disp_gen_temp\000"
 8921      5F67656E 
 8921      5F74656D 
 8921      7000
 8922              	.LASF103:
 8923 06ef 63686172 		.ascii	"char_h_space\000"
 8923      5F685F73 
 8923      70616365 
 8923      00
 8924              		.ident	"GCC: (GNU Tools for ARM Embedded Processors) 5.4.1 20160609 (release) [ARM/embedded-5-bran
