ARM GAS  C:\Users\leoja\AppData\Local\Temp\cciPvcJP.s 			page 1


   1              		.syntax unified
   2              		.cpu cortex-m0
   3              		.fpu softvfp
   4              		.eabi_attribute 20, 1
   5              		.eabi_attribute 21, 1
   6              		.eabi_attribute 23, 3
   7              		.eabi_attribute 24, 1
   8              		.eabi_attribute 25, 1
   9              		.eabi_attribute 26, 1
  10              		.eabi_attribute 30, 4
  11              		.eabi_attribute 34, 0
  12              		.eabi_attribute 18, 4
  13              		.thumb
  14              		.syntax unified
  15              		.file	"frucd_display.c"
  16              		.text
  17              	.Ltext0:
  18              		.cfi_sections	.debug_frame
  19              		.section	.text.calibrateScreen,"ax",%progbits
  20              		.align	1
  21              		.global	calibrateScreen
  22              		.code	16
  23              		.thumb_func
  24              		.type	calibrateScreen, %function
  25              	calibrateScreen:
  26              	.LFB35:
  27              		.file 1 "frucd_display.c"
   1:frucd_display.c **** /* ========================================
   2:frucd_display.c ****  *
   3:frucd_display.c ****  * APIs for updating FRUCD Dashboard display
   4:frucd_display.c ****  *
   5:frucd_display.c ****  * ========================================
   6:frucd_display.c **** */
   7:frucd_display.c **** #include "frucd_display.h"
   8:frucd_display.c **** 
   9:frucd_display.c **** // Just a test function that displays elements at the supposed corners of the screen
  10:frucd_display.c **** void calibrateScreen() {
  28              		.loc 1 10 0
  29              		.cfi_startproc
  30              		@ args = 0, pretend = 0, frame = 0
  31              		@ frame_needed = 0, uses_anonymous_args = 0
  32 0000 F7B5     		push	{r0, r1, r2, r4, r5, r6, r7, lr}
  33              		.cfi_def_cfa_offset 32
  34              		.cfi_offset 0, -32
  35              		.cfi_offset 1, -28
  36              		.cfi_offset 2, -24
  37              		.cfi_offset 4, -20
  38              		.cfi_offset 5, -16
  39              		.cfi_offset 6, -12
  40              		.cfi_offset 7, -8
  41              		.cfi_offset 14, -4
  11:frucd_display.c ****     UG_FillScreen(C_WHITE);
  42              		.loc 1 11 0
  43 0002 1948     		ldr	r0, .L2
  44 0004 FFF7FEFF 		bl	UG_FillScreen
  45              	.LVL0:
  12:frucd_display.c ****     //libTFT_FillRectangle(0, 0, 10, 10, RED);
ARM GAS  C:\Users\leoja\AppData\Local\Temp\cciPvcJP.s 			page 2


  13:frucd_display.c ****     UG_FillFrame(0, 0, 10, 10, C_RED);
  46              		.loc 1 13 0
  47 0008 FF23     		movs	r3, #255
  48 000a 1B04     		lsls	r3, r3, #16
  49 000c 0093     		str	r3, [sp]
  50 000e 0021     		movs	r1, #0
  51 0010 0A23     		movs	r3, #10
  52 0012 0800     		movs	r0, r1
  53 0014 1A00     		movs	r2, r3
  14:frucd_display.c ****     //libTFT_FillRectangle(0, 262, 10, 10, BLUE);
  15:frucd_display.c ****     UG_FillFrame(0, 262, 10, 272, C_BLUE);
  54              		.loc 1 15 0
  55 0016 8827     		movs	r7, #136
  56 0018 8325     		movs	r5, #131
  13:frucd_display.c ****     //libTFT_FillRectangle(0, 262, 10, 10, BLUE);
  57              		.loc 1 13 0
  58 001a FFF7FEFF 		bl	UG_FillFrame
  59              	.LVL1:
  60              		.loc 1 15 0
  61 001e FF23     		movs	r3, #255
  62 0020 7F00     		lsls	r7, r7, #1
  63 0022 6D00     		lsls	r5, r5, #1
  64 0024 2900     		movs	r1, r5
  65 0026 0093     		str	r3, [sp]
  66 0028 0A22     		movs	r2, #10
  67 002a 3B00     		movs	r3, r7
  68 002c 0020     		movs	r0, #0
  69 002e FFF7FEFF 		bl	UG_FillFrame
  70              	.LVL2:
  16:frucd_display.c ****     //libTFT_FillRectangle(470, 0, 10, 10, GREEN);
  17:frucd_display.c ****     UG_FillFrame(470, 0, 480, 10, C_GREEN);
  71              		.loc 1 17 0
  72 0032 F026     		movs	r6, #240
  73 0034 EB24     		movs	r4, #235
  74 0036 FF23     		movs	r3, #255
  75 0038 7600     		lsls	r6, r6, #1
  76 003a 6400     		lsls	r4, r4, #1
  77 003c 1B02     		lsls	r3, r3, #8
  78 003e 3200     		movs	r2, r6
  79 0040 0093     		str	r3, [sp]
  80 0042 2000     		movs	r0, r4
  81 0044 0A23     		movs	r3, #10
  82 0046 0021     		movs	r1, #0
  83 0048 FFF7FEFF 		bl	UG_FillFrame
  84              	.LVL3:
  18:frucd_display.c ****     //libTFT_FillRectangle(470, 262, 10, 10, YELLOW);
  19:frucd_display.c ****     UG_FillFrame(470, 262, 480, 272, C_YELLOW);
  85              		.loc 1 19 0
  86 004c 074B     		ldr	r3, .L2+4
  87 004e 3200     		movs	r2, r6
  88 0050 2900     		movs	r1, r5
  89 0052 0093     		str	r3, [sp]
  90 0054 2000     		movs	r0, r4
  91 0056 3B00     		movs	r3, r7
  92 0058 FFF7FEFF 		bl	UG_FillFrame
  93              	.LVL4:
  20:frucd_display.c ****     CyDelay(300);
ARM GAS  C:\Users\leoja\AppData\Local\Temp\cciPvcJP.s 			page 3


  94              		.loc 1 20 0
  95 005c 9620     		movs	r0, #150
  96 005e 4000     		lsls	r0, r0, #1
  97 0060 FFF7FEFF 		bl	CyDelay
  98              	.LVL5:
  21:frucd_display.c **** }
  99              		.loc 1 21 0
 100              		@ sp needed
 101 0064 F7BD     		pop	{r0, r1, r2, r4, r5, r6, r7, pc}
 102              	.L3:
 103 0066 C046     		.align	2
 104              	.L2:
 105 0068 FFFFFF00 		.word	16777215
 106 006c 00FFFF00 		.word	16776960
 107              		.cfi_endproc
 108              	.LFE35:
 109              		.size	calibrateScreen, .-calibrateScreen
 110              		.section	.text.debugTemplate,"ax",%progbits
 111              		.align	1
 112              		.global	debugTemplate
 113              		.code	16
 114              		.thumb_func
 115              		.type	debugTemplate, %function
 116              	debugTemplate:
 117              	.LFB36:
  22:frucd_display.c **** 
  23:frucd_display.c **** // Initializes dashboard layout/label
  24:frucd_display.c **** /*
  25:frucd_display.c **** void initDashTemplate() {
  26:frucd_display.c ****     UG_FillScreen(C_BLACK);
  27:frucd_display.c ****     UG_PutString(68, 10, "PACK SOC");
  28:frucd_display.c ****     UG_PutString(297, 10, "MAX PACK T");
  29:frucd_display.c ****     UG_PutString(10, 195, "STATE:");
  30:frucd_display.c ****     UG_PutString(10, 240, "GLV V:");
  31:frucd_display.c ****     UG_PutString(339, 195, "MC T:");
  32:frucd_display.c ****     UG_PutString(300, 240, "MOTOR T:");
  33:frucd_display.c **** }
  34:frucd_display.c **** */
  35:frucd_display.c **** 
  36:frucd_display.c **** void debugTemplate(){
 118              		.loc 1 36 0
 119              		.cfi_startproc
 120              		@ args = 0, pretend = 0, frame = 0
 121              		@ frame_needed = 0, uses_anonymous_args = 0
 122 0000 10B5     		push	{r4, lr}
 123              		.cfi_def_cfa_offset 8
 124              		.cfi_offset 4, -8
 125              		.cfi_offset 14, -4
  37:frucd_display.c ****     UG_FillScreen(C_BLACK);
 126              		.loc 1 37 0
 127 0002 0020     		movs	r0, #0
 128 0004 FFF7FEFF 		bl	UG_FillScreen
 129              	.LVL6:
  38:frucd_display.c ****     UG_PutString(10, 10, "PACK SOC:");
 130              		.loc 1 38 0
 131 0008 0A21     		movs	r1, #10
 132 000a 144A     		ldr	r2, .L5
ARM GAS  C:\Users\leoja\AppData\Local\Temp\cciPvcJP.s 			page 4


 133 000c 0800     		movs	r0, r1
 134 000e FFF7FEFF 		bl	UG_PutString
 135              	.LVL7:
  39:frucd_display.c ****     UG_PutString(250, 10, "MAX PACK T:");
 136              		.loc 1 39 0
 137 0012 134A     		ldr	r2, .L5+4
 138 0014 0A21     		movs	r1, #10
 139 0016 FA20     		movs	r0, #250
 140 0018 FFF7FEFF 		bl	UG_PutString
 141              	.LVL8:
  40:frucd_display.c ****     UG_PutString(10, 75, "STATE:");
 142              		.loc 1 40 0
 143 001c 114A     		ldr	r2, .L5+8
 144 001e 4B21     		movs	r1, #75
 145 0020 0A20     		movs	r0, #10
 146 0022 FFF7FEFF 		bl	UG_PutString
 147              	.LVL9:
  41:frucd_display.c ****     UG_PutString(250, 75, "MC T:");
 148              		.loc 1 41 0
 149 0026 104A     		ldr	r2, .L5+12
 150 0028 4B21     		movs	r1, #75
 151 002a FA20     		movs	r0, #250
 152 002c FFF7FEFF 		bl	UG_PutString
 153              	.LVL10:
  42:frucd_display.c ****     UG_PutString(10, 140, "GLV V:");
 154              		.loc 1 42 0
 155 0030 0E4A     		ldr	r2, .L5+16
 156 0032 8C21     		movs	r1, #140
 157 0034 0A20     		movs	r0, #10
 158 0036 FFF7FEFF 		bl	UG_PutString
 159              	.LVL11:
  43:frucd_display.c ****     UG_PutString(250, 140, "MOTOR T:");
 160              		.loc 1 43 0
 161 003a 0D4A     		ldr	r2, .L5+20
 162 003c 8C21     		movs	r1, #140
 163 003e FA20     		movs	r0, #250
 164 0040 FFF7FEFF 		bl	UG_PutString
 165              	.LVL12:
  44:frucd_display.c ****     UG_PutString(10, 205, "SHUTDOWN:");
 166              		.loc 1 44 0
 167 0044 0B4A     		ldr	r2, .L5+24
 168 0046 CD21     		movs	r1, #205
 169 0048 0A20     		movs	r0, #10
 170 004a FFF7FEFF 		bl	UG_PutString
 171              	.LVL13:
  45:frucd_display.c ****     UG_PutString(250, 205, "DEBUG:");
 172              		.loc 1 45 0
 173 004e 0A4A     		ldr	r2, .L5+28
 174 0050 CD21     		movs	r1, #205
 175 0052 FA20     		movs	r0, #250
 176 0054 FFF7FEFF 		bl	UG_PutString
 177              	.LVL14:
  46:frucd_display.c **** }
 178              		.loc 1 46 0
 179              		@ sp needed
 180 0058 10BD     		pop	{r4, pc}
 181              	.L6:
ARM GAS  C:\Users\leoja\AppData\Local\Temp\cciPvcJP.s 			page 5


 182 005a C046     		.align	2
 183              	.L5:
 184 005c 00000000 		.word	.LC0
 185 0060 0A000000 		.word	.LC2
 186 0064 16000000 		.word	.LC4
 187 0068 1D000000 		.word	.LC6
 188 006c 23000000 		.word	.LC8
 189 0070 2A000000 		.word	.LC10
 190 0074 33000000 		.word	.LC12
 191 0078 3D000000 		.word	.LC14
 192              		.cfi_endproc
 193              	.LFE36:
 194              		.size	debugTemplate, .-debugTemplate
 195              		.section	.text.driveTemplate,"ax",%progbits
 196              		.align	1
 197              		.global	driveTemplate
 198              		.code	16
 199              		.thumb_func
 200              		.type	driveTemplate, %function
 201              	driveTemplate:
 202              	.LFB37:
  47:frucd_display.c **** void driveTemplate(){
 203              		.loc 1 47 0
 204              		.cfi_startproc
 205              		@ args = 0, pretend = 0, frame = 0
 206              		@ frame_needed = 0, uses_anonymous_args = 0
 207 0000 10B5     		push	{r4, lr}
 208              		.cfi_def_cfa_offset 8
 209              		.cfi_offset 4, -8
 210              		.cfi_offset 14, -4
  48:frucd_display.c ****     UG_FillScreen(C_BLACK);
 211              		.loc 1 48 0
 212 0002 0020     		movs	r0, #0
 213 0004 FFF7FEFF 		bl	UG_FillScreen
 214              	.LVL15:
  49:frucd_display.c ****     UG_PutString(68, 10, "PACK SOC");
 215              		.loc 1 49 0
 216 0008 0B4A     		ldr	r2, .L8
 217 000a 0A21     		movs	r1, #10
 218 000c 4420     		movs	r0, #68
 219 000e FFF7FEFF 		bl	UG_PutString
 220              	.LVL16:
  50:frucd_display.c ****     UG_PutString(297, 10, "MAX PACK T");
 221              		.loc 1 50 0
 222 0012 2A20     		movs	r0, #42
 223 0014 094A     		ldr	r2, .L8+4
 224 0016 0A21     		movs	r1, #10
 225 0018 FF30     		adds	r0, r0, #255
 226 001a FFF7FEFF 		bl	UG_PutString
 227              	.LVL17:
  51:frucd_display.c ****     UG_PutString(5, 180, "STATE:");
 228              		.loc 1 51 0
 229 001e 084A     		ldr	r2, .L8+8
 230 0020 B421     		movs	r1, #180
 231 0022 0520     		movs	r0, #5
 232 0024 FFF7FEFF 		bl	UG_PutString
 233              	.LVL18:
ARM GAS  C:\Users\leoja\AppData\Local\Temp\cciPvcJP.s 			page 6


  52:frucd_display.c ****     UG_PutString(275, 180, "GLV V:");
 234              		.loc 1 52 0
 235 0028 1420     		movs	r0, #20
 236 002a 064A     		ldr	r2, .L8+12
 237 002c B421     		movs	r1, #180
 238 002e FF30     		adds	r0, r0, #255
 239 0030 FFF7FEFF 		bl	UG_PutString
 240              	.LVL19:
  53:frucd_display.c ****     
  54:frucd_display.c **** }
 241              		.loc 1 54 0
 242              		@ sp needed
 243 0034 10BD     		pop	{r4, pc}
 244              	.L9:
 245 0036 C046     		.align	2
 246              	.L8:
 247 0038 44000000 		.word	.LC16
 248 003c 4D000000 		.word	.LC18
 249 0040 16000000 		.word	.LC4
 250 0044 23000000 		.word	.LC8
 251              		.cfi_endproc
 252              	.LFE37:
 253              		.size	driveTemplate, .-driveTemplate
 254              		.section	.text.disp_SOC,"ax",%progbits
 255              		.align	1
 256              		.global	disp_SOC
 257              		.code	16
 258              		.thumb_func
 259              		.type	disp_SOC, %function
 260              	disp_SOC:
 261              	.LFB38:
  55:frucd_display.c **** /*
  56:frucd_display.c ****  * BEGIN: functions to show data on dash
  57:frucd_display.c ****  * - handle variety of digit counts
  58:frucd_display.c ****  * - color decision logic is in here
  59:frucd_display.c ****  */
  60:frucd_display.c **** 
  61:frucd_display.c **** 
  62:frucd_display.c **** 
  63:frucd_display.c **** /* Left in non-generalized functions for future reference*/
  64:frucd_display.c **** 
  65:frucd_display.c **** 
  66:frucd_display.c **** /*
  67:frucd_display.c **** void disp_SOC(uint8_t data) {
  68:frucd_display.c ****     UG_FontSelect(&FONT_32X53);
  69:frucd_display.c ****     UG_COLOR color;
  70:frucd_display.c ****     if (data == 100) {
  71:frucd_display.c ****         // handle 100% case
  72:frucd_display.c ****         color = C_GREEN;
  73:frucd_display.c ****         if (color != last_SOC_color) {
  74:frucd_display.c ****             // only draw rectangle if color changed
  75:frucd_display.c ****             UG_FillFrame(30, 35, 210, 170, color);
  76:frucd_display.c ****             last_SOC_color = color;
  77:frucd_display.c ****         }
  78:frucd_display.c ****         UG_PutColorString(55, 80, "100%", C_BLACK, C_GREEN);
  79:frucd_display.c ****     } else {
  80:frucd_display.c ****         // handle other cases
ARM GAS  C:\Users\leoja\AppData\Local\Temp\cciPvcJP.s 			page 7


  81:frucd_display.c ****         char data_s[4];
  82:frucd_display.c ****         sprintf(data_s, "%d", data);
  83:frucd_display.c ****         if (data >= 10) {
  84:frucd_display.c ****             // handle 2 digit cases
  85:frucd_display.c ****             // choose color
  86:frucd_display.c ****             if (data > 75) {
  87:frucd_display.c ****                 color = C_GREEN;
  88:frucd_display.c ****             } else if (data > 50) {
  89:frucd_display.c ****                 color = C_YELLOW;
  90:frucd_display.c ****             } else if (data > 25) {
  91:frucd_display.c ****                 color = C_ORANGE;
  92:frucd_display.c ****             } else {
  93:frucd_display.c ****                 color = C_RED;
  94:frucd_display.c ****             }
  95:frucd_display.c ****             data_s[2] = '%';
  96:frucd_display.c ****             data_s[3] = '\0';
  97:frucd_display.c ****             if (color != last_SOC_color) {
  98:frucd_display.c ****                 // only draw rectangle if color changed
  99:frucd_display.c ****                 UG_FillFrame(30, 35, 210, 170, color);
 100:frucd_display.c ****                 last_SOC_color = color;
 101:frucd_display.c ****             }
 102:frucd_display.c ****             UG_PutColorString(70, 80, data_s, C_BLACK, color);
 103:frucd_display.c ****         } else {
 104:frucd_display.c ****             // handle 1 digit cases
 105:frucd_display.c ****             data_s[1] = '%';
 106:frucd_display.c ****             data_s[2] = '\0';
 107:frucd_display.c ****             color = C_RED;
 108:frucd_display.c ****             
 109:frucd_display.c ****             
 110:frucd_display.c ****             
 111:frucd_display.c ****             
 112:frucd_display.c ****             //why is this here?
 113:frucd_display.c ****             UG_FillFrame(30, 35, 210, 170, C_BLACK);
 114:frucd_display.c ****             
 115:frucd_display.c ****             
 116:frucd_display.c ****             
 117:frucd_display.c ****             
 118:frucd_display.c ****             
 119:frucd_display.c ****             
 120:frucd_display.c ****             
 121:frucd_display.c ****             UG_FillFrame(30, 35, 210, 170, color);
 122:frucd_display.c ****             UG_PutColorString(90, 80, data_s, C_BLACK, color);
 123:frucd_display.c ****         }   
 124:frucd_display.c ****     }
 125:frucd_display.c ****     UG_FontSelect(&FONT_12X16);
 126:frucd_display.c **** }
 127:frucd_display.c **** 
 128:frucd_display.c **** 
 129:frucd_display.c **** */
 130:frucd_display.c **** 
 131:frucd_display.c **** 
 132:frucd_display.c **** // size is big if 1, small if not
 133:frucd_display.c **** void disp_SOC(uint8_t data, uint16_t x1, uint16_t y1, uint16_t x2, uint16_t y2, uint8_t size) {
 262              		.loc 1 133 0
 263              		.cfi_startproc
 264              		@ args = 8, pretend = 0, frame = 32
 265              		@ frame_needed = 0, uses_anonymous_args = 0
ARM GAS  C:\Users\leoja\AppData\Local\Temp\cciPvcJP.s 			page 8


 266              	.LVL20:
 267 0000 F0B5     		push	{r4, r5, r6, r7, lr}
 268              		.cfi_def_cfa_offset 20
 269              		.cfi_offset 4, -20
 270              		.cfi_offset 5, -16
 271              		.cfi_offset 6, -12
 272              		.cfi_offset 7, -8
 273              		.cfi_offset 14, -4
 274 0002 8BB0     		sub	sp, sp, #44
 275              		.cfi_def_cfa_offset 64
 276              		.loc 1 133 0
 277 0004 0493     		str	r3, [sp, #16]
 278 0006 10AB     		add	r3, sp, #64
 279              	.LVL21:
 280 0008 1B88     		ldrh	r3, [r3]
 281              	.LVL22:
 282 000a 0391     		str	r1, [sp, #12]
 283 000c 0593     		str	r3, [sp, #20]
 284 000e 11AB     		add	r3, sp, #68
 285              	.LVL23:
 286 0010 1978     		ldrb	r1, [r3]
 287              	.LVL24:
 134:frucd_display.c ****     int stringSize;
 135:frucd_display.c ****     int xFont, yFont;
 136:frucd_display.c ****     int horizFontSize = 12 + 20*size;
 288              		.loc 1 136 0
 289 0012 1423     		movs	r3, #20
 290              	.LVL25:
 291 0014 4B43     		muls	r3, r1
 133:frucd_display.c ****     int stringSize;
 292              		.loc 1 133 0
 293 0016 1400     		movs	r4, r2
 294 0018 0500     		movs	r5, r0
 295              		.loc 1 136 0
 296 001a 0C33     		adds	r3, r3, #12
 297              	.LVL26:
 137:frucd_display.c ****     if (data >= 100) {
 138:frucd_display.c ****         stringSize = 4;
 298              		.loc 1 138 0
 299 001c 0422     		movs	r2, #4
 300              	.LVL27:
 137:frucd_display.c ****     if (data >= 100) {
 301              		.loc 1 137 0
 302 001e 6328     		cmp	r0, #99
 303 0020 04D8     		bhi	.L11
 139:frucd_display.c ****     }else if (data >= 10){
 140:frucd_display.c ****         stringSize = 3;
 141:frucd_display.c ****     }else{
 142:frucd_display.c ****         stringSize = 2;
 304              		.loc 1 142 0
 305 0022 0532     		adds	r2, r2, #5
 306 0024 8242     		cmp	r2, r0
 307 0026 9241     		sbcs	r2, r2, r2
 308 0028 5242     		rsbs	r2, r2, #0
 309 002a 0232     		adds	r2, r2, #2
 310              	.L11:
 311              	.LVL28:
ARM GAS  C:\Users\leoja\AppData\Local\Temp\cciPvcJP.s 			page 9


 143:frucd_display.c ****     }
 144:frucd_display.c ****     
 145:frucd_display.c ****     xFont = (x1 + x2)/2 - ((horizFontSize*stringSize)/2);
 312              		.loc 1 145 0
 313 002c 5343     		muls	r3, r2
 314              	.LVL29:
 315 002e 0398     		ldr	r0, [sp, #12]
 316              	.LVL30:
 317 0030 049E     		ldr	r6, [sp, #16]
 318 0032 5B10     		asrs	r3, r3, #1
 319 0034 8619     		adds	r6, r0, r6
 320 0036 7010     		asrs	r0, r6, #1
 321 0038 C61A     		subs	r6, r0, r3
 322              	.LVL31:
 146:frucd_display.c ****     yFont = (y1 + y2)/2 - 5 - (size*17);    
 323              		.loc 1 146 0
 324 003a 059B     		ldr	r3, [sp, #20]
 325 003c E718     		adds	r7, r4, r3
 326 003e 7F10     		asrs	r7, r7, #1
 327 0040 7B1F     		subs	r3, r7, #5
 328 0042 1127     		movs	r7, #17
 329 0044 7F42     		rsbs	r7, r7, #0
 330 0046 4F43     		muls	r7, r1
 331 0048 DF19     		adds	r7, r3, r7
 332              	.LVL32:
 147:frucd_display.c ****     if(size == 1){
 333              		.loc 1 147 0
 334 004a 0129     		cmp	r1, #1
 335 004c 02D1     		bne	.L12
 148:frucd_display.c ****         UG_FontSelect(&FONT_32X53);
 336              		.loc 1 148 0
 337 004e 3C48     		ldr	r0, .L29
 338 0050 FFF7FEFF 		bl	UG_FontSelect
 339              	.LVL33:
 340              	.L12:
 341 0054 3BB2     		sxth	r3, r7
 342 0056 0693     		str	r3, [sp, #24]
 343 0058 33B2     		sxth	r3, r6
 344 005a 0793     		str	r3, [sp, #28]
 149:frucd_display.c ****        
 150:frucd_display.c ****     }
 151:frucd_display.c ****         
 152:frucd_display.c ****     UG_COLOR color;
 153:frucd_display.c ****     if (data == 100) {
 345              		.loc 1 153 0
 346 005c 642D     		cmp	r5, #100
 347 005e 19D1     		bne	.L13
 348              	.LVL34:
 154:frucd_display.c ****         // handle 100% case
 155:frucd_display.c ****         color = C_GREEN;
 156:frucd_display.c ****         if (color != last_SOC_color) {
 349              		.loc 1 156 0
 350 0060 FF25     		movs	r5, #255
 351 0062 384E     		ldr	r6, .L29+4
 352              	.LVL35:
 353 0064 2D02     		lsls	r5, r5, #8
 354 0066 3368     		ldr	r3, [r6]
ARM GAS  C:\Users\leoja\AppData\Local\Temp\cciPvcJP.s 			page 10


 355 0068 AB42     		cmp	r3, r5
 356 006a 0DD0     		beq	.L14
 157:frucd_display.c ****             // only draw rectangle if color changed
 158:frucd_display.c ****             UG_FillFrame(x1, y1, x2, y2, color);
 357              		.loc 1 158 0
 358 006c 6B46     		mov	r3, sp
 359 006e 6846     		mov	r0, sp
 360 0070 1422     		movs	r2, #20
 361 0072 9B5E     		ldrsh	r3, [r3, r2]
 362 0074 6A46     		mov	r2, sp
 363 0076 1021     		movs	r1, #16
 364 0078 525E     		ldrsh	r2, [r2, r1]
 365 007a 21B2     		sxth	r1, r4
 366 007c 0C24     		movs	r4, #12
 367 007e 005F     		ldrsh	r0, [r0, r4]
 368 0080 0095     		str	r5, [sp]
 369 0082 FFF7FEFF 		bl	UG_FillFrame
 370              	.LVL36:
 159:frucd_display.c ****             last_SOC_color = color;
 371              		.loc 1 159 0
 372 0086 3560     		str	r5, [r6]
 373              	.L14:
 160:frucd_display.c ****         }
 161:frucd_display.c ****         
 162:frucd_display.c ****         UG_PutColorString(xFont, yFont, "100%", C_BLACK, C_GREEN);
 374              		.loc 1 162 0
 375 0088 FF23     		movs	r3, #255
 376 008a 1B02     		lsls	r3, r3, #8
 377 008c 0093     		str	r3, [sp]
 378 008e 2E4A     		ldr	r2, .L29+8
 379 0090 0023     		movs	r3, #0
 380 0092 4CE0     		b	.L26
 381              	.LVL37:
 382              	.L13:
 383              	.LBB2:
 163:frucd_display.c ****     } else {
 164:frucd_display.c ****         // handle other cases
 165:frucd_display.c ****         char data_s[4];
 166:frucd_display.c ****         sprintf(data_s, "%d", data);
 384              		.loc 1 166 0
 385 0094 09AF     		add	r7, sp, #36
 386              	.LVL38:
 387 0096 2A00     		movs	r2, r5
 388 0098 2C49     		ldr	r1, .L29+12
 389 009a 3800     		movs	r0, r7
 390 009c FFF7FEFF 		bl	sprintf
 391              	.LVL39:
 167:frucd_display.c ****         if (data >= 10) {
 392              		.loc 1 167 0
 393 00a0 092D     		cmp	r5, #9
 394 00a2 27D9     		bls	.L16
 168:frucd_display.c ****             // handle 2 digit cases
 169:frucd_display.c ****             // choose color
 170:frucd_display.c ****             if (data > 75) {
 395              		.loc 1 170 0
 396 00a4 4B2D     		cmp	r5, #75
 397 00a6 06D8     		bhi	.L23
ARM GAS  C:\Users\leoja\AppData\Local\Temp\cciPvcJP.s 			page 11


 171:frucd_display.c ****                 color = C_GREEN;
 172:frucd_display.c ****             } else if (data > 50) {
 398              		.loc 1 172 0
 399 00a8 322D     		cmp	r5, #50
 400 00aa 07D8     		bhi	.L24
 173:frucd_display.c ****                 color = C_YELLOW;
 174:frucd_display.c ****             } else if (data > 25) {
 401              		.loc 1 174 0
 402 00ac 192D     		cmp	r5, #25
 403 00ae 07D8     		bhi	.L25
 175:frucd_display.c ****                 color = C_ORANGE;
 176:frucd_display.c ****             } else {
 177:frucd_display.c ****                 color = C_RED;
 404              		.loc 1 177 0
 405 00b0 FF25     		movs	r5, #255
 406 00b2 2D04     		lsls	r5, r5, #16
 407 00b4 05E0     		b	.L17
 408              	.L23:
 171:frucd_display.c ****             } else if (data > 50) {
 409              		.loc 1 171 0
 410 00b6 FF25     		movs	r5, #255
 411 00b8 2D02     		lsls	r5, r5, #8
 412 00ba 02E0     		b	.L17
 413              	.L24:
 173:frucd_display.c ****                 color = C_YELLOW;
 414              		.loc 1 173 0
 415 00bc 244D     		ldr	r5, .L29+16
 416 00be 00E0     		b	.L17
 417              	.L25:
 175:frucd_display.c ****                 color = C_ORANGE;
 418              		.loc 1 175 0
 419 00c0 244D     		ldr	r5, .L29+20
 420              	.L17:
 421              	.LVL40:
 178:frucd_display.c ****             }
 179:frucd_display.c ****             data_s[2] = '%';
 422              		.loc 1 179 0
 423 00c2 2522     		movs	r2, #37
 424 00c4 09AB     		add	r3, sp, #36
 425 00c6 9A70     		strb	r2, [r3, #2]
 180:frucd_display.c ****             data_s[3] = '\0';
 426              		.loc 1 180 0
 427 00c8 0022     		movs	r2, #0
 181:frucd_display.c ****             if (color != last_SOC_color) {
 428              		.loc 1 181 0
 429 00ca 1E4E     		ldr	r6, .L29+4
 430              	.LVL41:
 180:frucd_display.c ****             data_s[3] = '\0';
 431              		.loc 1 180 0
 432 00cc DA70     		strb	r2, [r3, #3]
 433              		.loc 1 181 0
 434 00ce 3368     		ldr	r3, [r6]
 435 00d0 9D42     		cmp	r5, r3
 436 00d2 0DD0     		beq	.L18
 182:frucd_display.c ****                 // only draw rectangle if color changed
 183:frucd_display.c ****                 UG_FillFrame(x1, y1, x2, y2, color);
 437              		.loc 1 183 0
ARM GAS  C:\Users\leoja\AppData\Local\Temp\cciPvcJP.s 			page 12


 438 00d4 6B46     		mov	r3, sp
 439 00d6 6846     		mov	r0, sp
 440 00d8 1422     		movs	r2, #20
 441 00da 9B5E     		ldrsh	r3, [r3, r2]
 442 00dc 6A46     		mov	r2, sp
 443 00de 1021     		movs	r1, #16
 444 00e0 525E     		ldrsh	r2, [r2, r1]
 445 00e2 21B2     		sxth	r1, r4
 446 00e4 0C24     		movs	r4, #12
 447 00e6 005F     		ldrsh	r0, [r0, r4]
 448              	.LVL42:
 449 00e8 0095     		str	r5, [sp]
 450 00ea FFF7FEFF 		bl	UG_FillFrame
 451              	.LVL43:
 184:frucd_display.c ****                 last_SOC_color = color;
 452              		.loc 1 184 0
 453 00ee 3560     		str	r5, [r6]
 454              	.L18:
 185:frucd_display.c ****             }
 186:frucd_display.c ****             UG_PutColorString(xFont, yFont, data_s, C_BLACK, color);
 455              		.loc 1 186 0
 456 00f0 0095     		str	r5, [sp]
 457 00f2 1AE0     		b	.L27
 458              	.LVL44:
 459              	.L16:
 187:frucd_display.c ****         } else {
 188:frucd_display.c ****             // handle 1 digit cases
 189:frucd_display.c ****             data_s[1] = '%';
 460              		.loc 1 189 0
 461 00f4 2523     		movs	r3, #37
 462 00f6 7B70     		strb	r3, [r7, #1]
 190:frucd_display.c ****             data_s[2] = '\0';
 463              		.loc 1 190 0
 464 00f8 0023     		movs	r3, #0
 191:frucd_display.c ****             color = C_RED;
 192:frucd_display.c ****             if (color != last_SOC_color) {
 465              		.loc 1 192 0
 466 00fa FF25     		movs	r5, #255
 467 00fc 114E     		ldr	r6, .L29+4
 468              	.LVL45:
 190:frucd_display.c ****             data_s[2] = '\0';
 469              		.loc 1 190 0
 470 00fe BB70     		strb	r3, [r7, #2]
 471              	.LVL46:
 472              		.loc 1 192 0
 473 0100 3368     		ldr	r3, [r6]
 474 0102 2D04     		lsls	r5, r5, #16
 475 0104 AB42     		cmp	r3, r5
 476 0106 0DD0     		beq	.L20
 193:frucd_display.c ****             // only draw rectangle if color changed
 194:frucd_display.c ****                 UG_FillFrame(x1, y1, x2, y2, color);
 477              		.loc 1 194 0
 478 0108 6B46     		mov	r3, sp
 479 010a 6846     		mov	r0, sp
 480 010c 1422     		movs	r2, #20
 481 010e 9B5E     		ldrsh	r3, [r3, r2]
 482 0110 6A46     		mov	r2, sp
ARM GAS  C:\Users\leoja\AppData\Local\Temp\cciPvcJP.s 			page 13


 483 0112 1021     		movs	r1, #16
 484 0114 525E     		ldrsh	r2, [r2, r1]
 485 0116 21B2     		sxth	r1, r4
 486 0118 0C24     		movs	r4, #12
 487 011a 005F     		ldrsh	r0, [r0, r4]
 488              	.LVL47:
 489 011c 0095     		str	r5, [sp]
 490 011e FFF7FEFF 		bl	UG_FillFrame
 491              	.LVL48:
 195:frucd_display.c ****                 last_SOC_color = color;
 492              		.loc 1 195 0
 493 0122 3560     		str	r5, [r6]
 494              	.L20:
 196:frucd_display.c ****             }
 197:frucd_display.c ****            
 198:frucd_display.c ****             UG_PutColorString(xFont, yFont, data_s, C_BLACK, color);
 495              		.loc 1 198 0
 496 0124 FF23     		movs	r3, #255
 497 0126 1B04     		lsls	r3, r3, #16
 498 0128 0093     		str	r3, [sp]
 499              	.LVL49:
 500              	.L27:
 501 012a 0023     		movs	r3, #0
 502 012c 3A00     		movs	r2, r7
 503              	.L26:
 504 012e 0699     		ldr	r1, [sp, #24]
 505 0130 0798     		ldr	r0, [sp, #28]
 506 0132 FFF7FEFF 		bl	UG_PutColorString
 507              	.LVL50:
 508              	.LBE2:
 199:frucd_display.c ****         }   
 200:frucd_display.c ****     }
 201:frucd_display.c ****     UG_FontSelect(&FONT_12X16);
 509              		.loc 1 201 0
 510 0136 0848     		ldr	r0, .L29+24
 511 0138 FFF7FEFF 		bl	UG_FontSelect
 512              	.LVL51:
 202:frucd_display.c **** }
 513              		.loc 1 202 0
 514 013c 0BB0     		add	sp, sp, #44
 515              		@ sp needed
 516 013e F0BD     		pop	{r4, r5, r6, r7, pc}
 517              	.L30:
 518              		.align	2
 519              	.L29:
 520 0140 00000000 		.word	FONT_32X53
 521 0144 00000000 		.word	last_SOC_color
 522 0148 58000000 		.word	.LC24
 523 014c 5D000000 		.word	.LC26
 524 0150 00FFFF00 		.word	16776960
 525 0154 00A5FF00 		.word	16753920
 526 0158 00000000 		.word	FONT_12X16
 527              		.cfi_endproc
 528              	.LFE38:
 529              		.size	disp_SOC, .-disp_SOC
 530              		.section	.text.disp_max_pack_temp,"ax",%progbits
 531              		.align	1
ARM GAS  C:\Users\leoja\AppData\Local\Temp\cciPvcJP.s 			page 14


 532              		.global	disp_max_pack_temp
 533              		.code	16
 534              		.thumb_func
 535              		.type	disp_max_pack_temp, %function
 536              	disp_max_pack_temp:
 537              	.LFB39:
 203:frucd_display.c **** 
 204:frucd_display.c **** /*
 205:frucd_display.c **** 
 206:frucd_display.c **** void disp_max_pack_temp(uint8_t data) {
 207:frucd_display.c ****     // choose color
 208:frucd_display.c ****     UG_COLOR color;
 209:frucd_display.c ****     if (data < 45) {
 210:frucd_display.c ****         color = C_GREEN;
 211:frucd_display.c ****     } else if (data < 50) {
 212:frucd_display.c ****         color = C_YELLOW;
 213:frucd_display.c ****     } else if (data < 55) {
 214:frucd_display.c ****         color = C_ORANGE;
 215:frucd_display.c ****     } else {
 216:frucd_display.c ****         color = C_RED;
 217:frucd_display.c **** 
 218:frucd_display.c ****         UG_FillFrame(270, 35, 450, 170, C_BLACK);
 219:frucd_display.c ****         UG_FillFrame(270, 35, 450, 170, color);
 220:frucd_display.c ****         
 221:frucd_display.c ****     }
 222:frucd_display.c ****     
 223:frucd_display.c ****     if (color != last_max_pack_temp_color) {
 224:frucd_display.c ****         // only draw rectangle if color changed
 225:frucd_display.c ****         UG_FillFrame(270, 35, 450, 170, color);
 226:frucd_display.c ****         last_max_pack_temp_color = color;
 227:frucd_display.c ****     }
 228:frucd_display.c ****     UG_FontSelect(&FONT_32X53);
 229:frucd_display.c ****     char data_s[4];
 230:frucd_display.c ****     sprintf(data_s, "%d", data);
 231:frucd_display.c ****     data_s[2] = 'C';
 232:frucd_display.c ****     data_s[3] = '\0';
 233:frucd_display.c ****     UG_PutColorString(310, 80, data_s, C_BLACK, color);
 234:frucd_display.c ****     UG_FontSelect(&FONT_12X16);
 235:frucd_display.c **** }
 236:frucd_display.c **** 
 237:frucd_display.c **** */
 238:frucd_display.c **** 
 239:frucd_display.c **** 
 240:frucd_display.c **** void disp_max_pack_temp(uint8_t data, uint16_t x1, uint16_t y1, uint16_t x2, uint16_t y2, uint8_t s
 538              		.loc 1 240 0
 539              		.cfi_startproc
 540              		@ args = 8, pretend = 0, frame = 40
 541              		@ frame_needed = 0, uses_anonymous_args = 0
 542              	.LVL52:
 543 0000 F0B5     		push	{r4, r5, r6, r7, lr}
 544              		.cfi_def_cfa_offset 20
 545              		.cfi_offset 4, -20
 546              		.cfi_offset 5, -16
 547              		.cfi_offset 6, -12
 548              		.cfi_offset 7, -8
 549              		.cfi_offset 14, -4
 550 0002 8DB0     		sub	sp, sp, #52
ARM GAS  C:\Users\leoja\AppData\Local\Temp\cciPvcJP.s 			page 15


 551              		.cfi_def_cfa_offset 72
 552              		.loc 1 240 0
 553 0004 0593     		str	r3, [sp, #20]
 554 0006 12AB     		add	r3, sp, #72
 555              	.LVL53:
 556 0008 1B88     		ldrh	r3, [r3]
 557              	.LVL54:
 558 000a 0492     		str	r2, [sp, #16]
 559 000c 0693     		str	r3, [sp, #24]
 560 000e 13AB     		add	r3, sp, #76
 561              	.LVL55:
 562 0010 1A78     		ldrb	r2, [r3]
 563              	.LVL56:
 241:frucd_display.c ****     int xFont, yFont;
 242:frucd_display.c ****     int horizFontSize = 12 + 20*size;
 243:frucd_display.c ****     int stringSize;
 244:frucd_display.c ****     stringSize = 3;
 245:frucd_display.c ****     xFont = (x1 + x2)/2 - ((horizFontSize*stringSize)/2);
 564              		.loc 1 245 0
 565 0012 1423     		movs	r3, #20
 566              	.LVL57:
 240:frucd_display.c ****     int xFont, yFont;
 567              		.loc 1 240 0
 568 0014 0391     		str	r1, [sp, #12]
 569              		.loc 1 245 0
 570 0016 0321     		movs	r1, #3
 571              	.LVL58:
 572 0018 5343     		muls	r3, r2
 573 001a 0C33     		adds	r3, r3, #12
 574              	.LVL59:
 575 001c 4B43     		muls	r3, r1
 576              	.LVL60:
 240:frucd_display.c ****     int xFont, yFont;
 577              		.loc 1 240 0
 578 001e 0290     		str	r0, [sp, #8]
 579              		.loc 1 245 0
 580 0020 0399     		ldr	r1, [sp, #12]
 581 0022 0598     		ldr	r0, [sp, #20]
 582              	.LVL61:
 583 0024 5B10     		asrs	r3, r3, #1
 584 0026 0818     		adds	r0, r1, r0
 585 0028 4010     		asrs	r0, r0, #1
 586 002a C31A     		subs	r3, r0, r3
 246:frucd_display.c ****     yFont = (y1 + y2)/2 - 5 - (size*17);    
 587              		.loc 1 246 0
 588 002c 0699     		ldr	r1, [sp, #24]
 245:frucd_display.c ****     yFont = (y1 + y2)/2 - 5 - (size*17);    
 589              		.loc 1 245 0
 590 002e 0893     		str	r3, [sp, #32]
 591              	.LVL62:
 592              		.loc 1 246 0
 593 0030 049B     		ldr	r3, [sp, #16]
 594              	.LVL63:
 595 0032 5B18     		adds	r3, r3, r1
 596 0034 1121     		movs	r1, #17
 597 0036 4942     		rsbs	r1, r1, #0
 598 0038 5143     		muls	r1, r2
ARM GAS  C:\Users\leoja\AppData\Local\Temp\cciPvcJP.s 			page 16


 599 003a 5B10     		asrs	r3, r3, #1
 600 003c 053B     		subs	r3, r3, #5
 601 003e 5B18     		adds	r3, r3, r1
 602 0040 0993     		str	r3, [sp, #36]
 603              	.LVL64:
 247:frucd_display.c ****     if(size == 1){
 604              		.loc 1 247 0
 605 0042 012A     		cmp	r2, #1
 606 0044 02D1     		bne	.L32
 248:frucd_display.c ****         UG_FontSelect(&FONT_32X53);
 607              		.loc 1 248 0
 608 0046 2B48     		ldr	r0, .L38
 609 0048 FFF7FEFF 		bl	UG_FontSelect
 610              	.LVL65:
 611              	.L32:
 249:frucd_display.c ****     }
 250:frucd_display.c ****     
 251:frucd_display.c ****     // choose color
 252:frucd_display.c ****     UG_COLOR color;
 253:frucd_display.c ****     if (data < 45) {
 612              		.loc 1 253 0
 613 004c 029B     		ldr	r3, [sp, #8]
 614 004e 2C2B     		cmp	r3, #44
 615 0050 21D9     		bls	.L35
 254:frucd_display.c ****         color = C_GREEN;
 255:frucd_display.c ****     } else if (data < 50) {
 616              		.loc 1 255 0
 617 0052 312B     		cmp	r3, #49
 618 0054 22D9     		bls	.L36
 256:frucd_display.c ****         color = C_YELLOW;
 257:frucd_display.c ****     } else if (data < 55) {
 619              		.loc 1 257 0
 620 0056 362B     		cmp	r3, #54
 621 0058 22D9     		bls	.L37
 622              	.LVL66:
 258:frucd_display.c ****         color = C_ORANGE;
 259:frucd_display.c ****     } else {
 260:frucd_display.c ****         color = C_RED; 
 261:frucd_display.c ****         
 262:frucd_display.c ****         UG_FillFrame(x1, y1, x2, y2, C_BLACK);
 623              		.loc 1 262 0
 624 005a 6B46     		mov	r3, sp
 625 005c 0C25     		movs	r5, #12
 626 005e 5D5F     		ldrsh	r5, [r3, r5]
 627 0060 6B46     		mov	r3, sp
 628 0062 1026     		movs	r6, #16
 629 0064 9E5F     		ldrsh	r6, [r3, r6]
 630 0066 6B46     		mov	r3, sp
 631 0068 1427     		movs	r7, #20
 632 006a DF5F     		ldrsh	r7, [r3, r7]
 633 006c 6B46     		mov	r3, sp
 263:frucd_display.c ****         UG_FillFrame(x1, y1, x2, y2, color);
 634              		.loc 1 263 0
 635 006e FF24     		movs	r4, #255
 262:frucd_display.c ****         UG_FillFrame(x1, y1, x2, y2, color);
 636              		.loc 1 262 0
 637 0070 1822     		movs	r2, #24
ARM GAS  C:\Users\leoja\AppData\Local\Temp\cciPvcJP.s 			page 17


 638 0072 9B5E     		ldrsh	r3, [r3, r2]
 639 0074 0022     		movs	r2, #0
 640 0076 3100     		movs	r1, r6
 641 0078 0092     		str	r2, [sp]
 642 007a 2800     		movs	r0, r5
 643 007c 3A00     		movs	r2, r7
 644              		.loc 1 263 0
 645 007e 2404     		lsls	r4, r4, #16
 262:frucd_display.c ****         UG_FillFrame(x1, y1, x2, y2, color);
 646              		.loc 1 262 0
 647 0080 0793     		str	r3, [sp, #28]
 648 0082 FFF7FEFF 		bl	UG_FillFrame
 649              	.LVL67:
 650              		.loc 1 263 0
 651 0086 0094     		str	r4, [sp]
 652 0088 079B     		ldr	r3, [sp, #28]
 653 008a 3A00     		movs	r2, r7
 654 008c 3100     		movs	r1, r6
 655 008e 2800     		movs	r0, r5
 656 0090 FFF7FEFF 		bl	UG_FillFrame
 657              	.LVL68:
 658 0094 05E0     		b	.L33
 659              	.LVL69:
 660              	.L35:
 254:frucd_display.c ****     } else if (data < 50) {
 661              		.loc 1 254 0
 662 0096 FF24     		movs	r4, #255
 663 0098 2402     		lsls	r4, r4, #8
 664 009a 02E0     		b	.L33
 665              	.L36:
 256:frucd_display.c ****     } else if (data < 55) {
 666              		.loc 1 256 0
 667 009c 164C     		ldr	r4, .L38+4
 668 009e 00E0     		b	.L33
 669              	.L37:
 258:frucd_display.c ****     } else {
 670              		.loc 1 258 0
 671 00a0 164C     		ldr	r4, .L38+8
 672              	.L33:
 673              	.LVL70:
 264:frucd_display.c ****     
 265:frucd_display.c ****     }
 266:frucd_display.c **** 
 267:frucd_display.c ****    
 268:frucd_display.c ****     
 269:frucd_display.c ****    
 270:frucd_display.c ****     if (color != last_max_pack_temp_color) {
 674              		.loc 1 270 0
 675 00a2 174D     		ldr	r5, .L38+12
 676 00a4 2B68     		ldr	r3, [r5]
 677 00a6 9C42     		cmp	r4, r3
 678 00a8 0FD0     		beq	.L34
 271:frucd_display.c ****         UG_FillFrame(x1, y1, x2, y2, color);
 679              		.loc 1 271 0
 680 00aa 6B46     		mov	r3, sp
 681 00ac 1822     		movs	r2, #24
 682 00ae 9B5E     		ldrsh	r3, [r3, r2]
ARM GAS  C:\Users\leoja\AppData\Local\Temp\cciPvcJP.s 			page 18


 683 00b0 6A46     		mov	r2, sp
 684 00b2 1421     		movs	r1, #20
 685 00b4 525E     		ldrsh	r2, [r2, r1]
 686 00b6 6946     		mov	r1, sp
 687 00b8 1020     		movs	r0, #16
 688 00ba 095E     		ldrsh	r1, [r1, r0]
 689 00bc 6846     		mov	r0, sp
 690 00be 0C26     		movs	r6, #12
 691 00c0 805F     		ldrsh	r0, [r0, r6]
 692 00c2 0094     		str	r4, [sp]
 693 00c4 FFF7FEFF 		bl	UG_FillFrame
 694              	.LVL71:
 272:frucd_display.c ****         last_max_pack_temp_color = color;
 695              		.loc 1 272 0
 696 00c8 2C60     		str	r4, [r5]
 697              	.L34:
 273:frucd_display.c ****     }
 274:frucd_display.c **** 
 275:frucd_display.c ****     char data_s[4];
 276:frucd_display.c ****     sprintf(data_s, "%d C", data);
 698              		.loc 1 276 0
 699 00ca 029A     		ldr	r2, [sp, #8]
 700 00cc 0D49     		ldr	r1, .L38+16
 701 00ce 0BA8     		add	r0, sp, #44
 702 00d0 FFF7FEFF 		bl	sprintf
 703              	.LVL72:
 277:frucd_display.c ****    // data_s[2] = 'C';
 278:frucd_display.c ****     //data_s[3] = '\0';
 279:frucd_display.c ****     UG_PutColorString(xFont, yFont, data_s, C_BLACK, color);
 704              		.loc 1 279 0
 705 00d4 6B46     		mov	r3, sp
 706 00d6 2421     		movs	r1, #36
 707 00d8 595E     		ldrsh	r1, [r3, r1]
 708 00da 6B46     		mov	r3, sp
 709 00dc 0BAA     		add	r2, sp, #44
 710 00de 2020     		movs	r0, #32
 711 00e0 185E     		ldrsh	r0, [r3, r0]
 712 00e2 0023     		movs	r3, #0
 713 00e4 0094     		str	r4, [sp]
 714 00e6 FFF7FEFF 		bl	UG_PutColorString
 715              	.LVL73:
 280:frucd_display.c ****     UG_FontSelect(&FONT_12X16);
 716              		.loc 1 280 0
 717 00ea 0748     		ldr	r0, .L38+20
 718 00ec FFF7FEFF 		bl	UG_FontSelect
 719              	.LVL74:
 281:frucd_display.c **** }
 720              		.loc 1 281 0
 721 00f0 0DB0     		add	sp, sp, #52
 722              		@ sp needed
 723              	.LVL75:
 724 00f2 F0BD     		pop	{r4, r5, r6, r7, pc}
 725              	.L39:
 726              		.align	2
 727              	.L38:
 728 00f4 00000000 		.word	FONT_32X53
 729 00f8 00FFFF00 		.word	16776960
ARM GAS  C:\Users\leoja\AppData\Local\Temp\cciPvcJP.s 			page 19


 730 00fc 00A5FF00 		.word	16753920
 731 0100 00000000 		.word	last_max_pack_temp_color
 732 0104 60000000 		.word	.LC31
 733 0108 00000000 		.word	FONT_12X16
 734              		.cfi_endproc
 735              	.LFE39:
 736              		.size	disp_max_pack_temp, .-disp_max_pack_temp
 737              		.section	.text.disp_state,"ax",%progbits
 738              		.align	1
 739              		.global	disp_state
 740              		.code	16
 741              		.thumb_func
 742              		.type	disp_state, %function
 743              	disp_state:
 744              	.LFB40:
 282:frucd_display.c **** 
 283:frucd_display.c **** 
 284:frucd_display.c **** /*
 285:frucd_display.c **** 
 286:frucd_display.c **** void disp_state(uint8_t state) { // TODO
 287:frucd_display.c ****     UG_COLOR color;
 288:frucd_display.c ****     // check fault bit
 289:frucd_display.c ****     if (state & 0x80) {
 290:frucd_display.c ****         // *************** FAULTS ***************
 291:frucd_display.c ****         uint8 fault = state & 0x7f; // mask off fault bit
 292:frucd_display.c ****         switch(fault) {
 293:frucd_display.c ****             case NONE: // STARTUP (effectively)
 294:frucd_display.c ****                 // not obtainable via CAN
 295:frucd_display.c ****                 // would only show when hardcoded on startup
 296:frucd_display.c ****                 color = C_YELLOW;
 297:frucd_display.c ****                 if (color != last_state_color) {
 298:frucd_display.c ****                     // only draw rectangle if color changed
 299:frucd_display.c ****                     UG_FillFrame(95, 185, 240, 215, color);
 300:frucd_display.c ****                     last_state_color = color;
 301:frucd_display.c ****                 }
 302:frucd_display.c ****                 UG_PutColorString(100, 195, " STARTUP  ", C_BLACK, color);
 303:frucd_display.c ****                 break;
 304:frucd_display.c ****             case DRIVE_REQUEST_FROM_LV:
 305:frucd_display.c ****                 color = C_RED;
 306:frucd_display.c ****                 if (color != last_state_color) {
 307:frucd_display.c ****                     // only draw rectangle if color changed
 308:frucd_display.c ****                     UG_FillFrame(95, 185, 240, 215, color);
 309:frucd_display.c ****                     last_state_color = color;
 310:frucd_display.c ****                 }
 311:frucd_display.c ****                 UG_PutColorString(100, 195, "DRV FRM LV", C_BLACK, color);
 312:frucd_display.c ****                 break;
 313:frucd_display.c ****             case CONSERVATIVE_TIMER_MAXED:
 314:frucd_display.c ****                 color = C_RED;
 315:frucd_display.c ****                 if (color != last_state_color) {
 316:frucd_display.c ****                     // only draw rectangle if color changed
 317:frucd_display.c ****                     UG_FillFrame(95, 185, 240, 215, color);
 318:frucd_display.c ****                     last_state_color = color;
 319:frucd_display.c ****                 }
 320:frucd_display.c ****                 UG_PutColorString(100, 195, "PRE TM OUT", C_BLACK, color);
 321:frucd_display.c ****                 break;
 322:frucd_display.c ****             case BRAKE_NOT_PRESSED:
 323:frucd_display.c ****                 color = C_RED;
ARM GAS  C:\Users\leoja\AppData\Local\Temp\cciPvcJP.s 			page 20


 324:frucd_display.c ****                 if (color != last_state_color) {
 325:frucd_display.c ****                     // only draw rectangle if color changed
 326:frucd_display.c ****                     UG_FillFrame(95, 185, 240, 215, color);
 327:frucd_display.c ****                     last_state_color = color;
 328:frucd_display.c ****                 }
 329:frucd_display.c ****                 UG_PutColorString(100, 195, "BR NOT PRS", C_BLACK, color);
 330:frucd_display.c ****                 break;
 331:frucd_display.c ****             case HV_DISABLED_WHILE_DRIVING:
 332:frucd_display.c ****                 color = C_RED;
 333:frucd_display.c ****                 if (color != last_state_color) {
 334:frucd_display.c ****                     // only draw rectangle if color changed
 335:frucd_display.c ****                     UG_FillFrame(95, 185, 240, 215, color);
 336:frucd_display.c ****                     last_state_color = color;
 337:frucd_display.c ****                 }
 338:frucd_display.c ****                 UG_PutColorString(100, 195, "HV OFF DRV", C_BLACK, color);
 339:frucd_display.c ****                 break;
 340:frucd_display.c ****             case SENSOR_DISCREPANCY:
 341:frucd_display.c ****                 color = C_RED;
 342:frucd_display.c ****                 if (color != last_state_color) {
 343:frucd_display.c ****                     // only draw rectangle if color changed
 344:frucd_display.c ****                     UG_FillFrame(95, 185, 240, 215, color);
 345:frucd_display.c ****                     last_state_color = color;
 346:frucd_display.c ****                 }
 347:frucd_display.c ****                 UG_PutColorString(100, 195, "SNSR DSCRP", C_BLACK, color);
 348:frucd_display.c ****                 break;
 349:frucd_display.c ****             case BRAKE_IMPLAUSIBLE:
 350:frucd_display.c ****                 color = C_YELLOW;
 351:frucd_display.c ****                 if (color != last_state_color) {
 352:frucd_display.c ****                     // only draw rectangle if color changed
 353:frucd_display.c ****                     UG_FillFrame(95, 185, 240, 215, color);
 354:frucd_display.c ****                     last_state_color = color;
 355:frucd_display.c ****                 }
 356:frucd_display.c ****                 UG_PutColorString(100, 195, "BSPD TRIPD", C_BLACK, color); //whitespace to clear
 357:frucd_display.c ****                 break;
 358:frucd_display.c ****             case ESTOP:
 359:frucd_display.c ****                 color = C_RED;
 360:frucd_display.c ****                 if (color != last_state_color) {
 361:frucd_display.c ****                     // only draw rectangle if color changed
 362:frucd_display.c ****                     UG_FillFrame(95, 185, 240, 215, color);
 363:frucd_display.c ****                     last_state_color = color;
 364:frucd_display.c ****                 }
 365:frucd_display.c ****                 UG_PutColorString(100, 195, "SHTDWN OPN", C_BLACK, color); //whitespace to clear
 366:frucd_display.c ****                 break;
 367:frucd_display.c ****         }
 368:frucd_display.c ****         
 369:frucd_display.c ****     } else {
 370:frucd_display.c ****         // *************** NO FAULTS ***************
 371:frucd_display.c ****         color = C_GREEN;
 372:frucd_display.c ****         if (color != last_state_color) {
 373:frucd_display.c ****             // only draw rectangle if color changed
 374:frucd_display.c ****             UG_FillFrame(95, 185, 240, 215, color);
 375:frucd_display.c ****             last_state_color = color;
 376:frucd_display.c ****         }
 377:frucd_display.c ****         switch(state) {
 378:frucd_display.c ****             case LV:
 379:frucd_display.c ****                 UG_PutColorString(100, 195, "    LV    ", C_BLACK, color);
 380:frucd_display.c ****                 break;
ARM GAS  C:\Users\leoja\AppData\Local\Temp\cciPvcJP.s 			page 21


 381:frucd_display.c ****             case PRECHARGING:
 382:frucd_display.c ****                 UG_PutColorString(100, 195, "PRECHARGE ", C_BLACK, color);
 383:frucd_display.c ****                 break;
 384:frucd_display.c ****             case HV_ENABLED:
 385:frucd_display.c ****                 UG_PutColorString(100, 195, "HV ENABLED", C_BLACK, color);
 386:frucd_display.c ****                 break;
 387:frucd_display.c ****             case DRIVE:
 388:frucd_display.c ****                 UG_PutColorString(100, 195, "  DRIVE   ", C_BLACK, color);
 389:frucd_display.c ****                 break;
 390:frucd_display.c ****         }
 391:frucd_display.c ****     }
 392:frucd_display.c **** }
 393:frucd_display.c **** 
 394:frucd_display.c **** 
 395:frucd_display.c **** */
 396:frucd_display.c **** 
 397:frucd_display.c **** 
 398:frucd_display.c **** void disp_state(uint8_t state, uint16_t x1, uint16_t y1, uint16_t x2, uint16_t y2, uint8_t size) { 
 745              		.loc 1 398 0
 746              		.cfi_startproc
 747              		@ args = 8, pretend = 0, frame = 24
 748              		@ frame_needed = 0, uses_anonymous_args = 0
 749              	.LVL76:
 750 0000 F0B5     		push	{r4, r5, r6, r7, lr}
 751              		.cfi_def_cfa_offset 20
 752              		.cfi_offset 4, -20
 753              		.cfi_offset 5, -16
 754              		.cfi_offset 6, -12
 755              		.cfi_offset 7, -8
 756              		.cfi_offset 14, -4
 757 0002 89B0     		sub	sp, sp, #36
 758              		.cfi_def_cfa_offset 56
 759              		.loc 1 398 0
 760 0004 0593     		str	r3, [sp, #20]
 761 0006 0EAB     		add	r3, sp, #56
 762              	.LVL77:
 763 0008 1C88     		ldrh	r4, [r3]
 764 000a 0FAB     		add	r3, sp, #60
 765              	.LVL78:
 766 000c 0492     		str	r2, [sp, #16]
 767 000e 1A78     		ldrb	r2, [r3]
 768              	.LVL79:
 399:frucd_display.c ****     int xFont, yFont;
 400:frucd_display.c ****     int horizFontSize = 12 + 20*size;
 401:frucd_display.c ****     int stringSize;
 402:frucd_display.c ****     stringSize = 10;
 403:frucd_display.c ****     xFont = (x1 + x2)/2 - ((horizFontSize*stringSize)/2);
 769              		.loc 1 403 0
 770 0010 1423     		movs	r3, #20
 771              	.LVL80:
 398:frucd_display.c ****     int xFont, yFont;
 772              		.loc 1 398 0
 773 0012 0391     		str	r1, [sp, #12]
 774              		.loc 1 403 0
 775 0014 0A21     		movs	r1, #10
 776              	.LVL81:
 404:frucd_display.c ****     yFont = (y1 + y2)/2 - 5 - (size*17);    
ARM GAS  C:\Users\leoja\AppData\Local\Temp\cciPvcJP.s 			page 22


 777              		.loc 1 404 0
 778 0016 1127     		movs	r7, #17
 403:frucd_display.c ****     yFont = (y1 + y2)/2 - 5 - (size*17);    
 779              		.loc 1 403 0
 780 0018 5343     		muls	r3, r2
 781 001a 0C33     		adds	r3, r3, #12
 782              	.LVL82:
 783 001c 4B43     		muls	r3, r1
 784              	.LVL83:
 398:frucd_display.c ****     int xFont, yFont;
 785              		.loc 1 398 0
 786 001e 0600     		movs	r6, r0
 403:frucd_display.c ****     yFont = (y1 + y2)/2 - 5 - (size*17);    
 787              		.loc 1 403 0
 788 0020 0399     		ldr	r1, [sp, #12]
 789 0022 0598     		ldr	r0, [sp, #20]
 790              	.LVL84:
 791 0024 5B10     		asrs	r3, r3, #1
 792 0026 0918     		adds	r1, r1, r0
 793 0028 4910     		asrs	r1, r1, #1
 794 002a CB1A     		subs	r3, r1, r3
 795 002c 0693     		str	r3, [sp, #24]
 796              	.LVL85:
 797              		.loc 1 404 0
 798 002e 7F42     		rsbs	r7, r7, #0
 799 0030 049B     		ldr	r3, [sp, #16]
 800              	.LVL86:
 801 0032 5743     		muls	r7, r2
 802 0034 1B19     		adds	r3, r3, r4
 803 0036 5B10     		asrs	r3, r3, #1
 804 0038 053B     		subs	r3, r3, #5
 805 003a DB19     		adds	r3, r3, r7
 806 003c 0793     		str	r3, [sp, #28]
 807              	.LVL87:
 405:frucd_display.c ****     if(size == 1){
 808              		.loc 1 405 0
 809 003e 012A     		cmp	r2, #1
 810 0040 02D1     		bne	.L41
 406:frucd_display.c ****         UG_FontSelect(&FONT_32X53);
 811              		.loc 1 406 0
 812 0042 B448     		ldr	r0, .L75
 813 0044 FFF7FEFF 		bl	UG_FontSelect
 814              	.LVL88:
 815              	.L41:
 407:frucd_display.c ****         
 408:frucd_display.c ****     }
 409:frucd_display.c ****     UG_COLOR color;
 410:frucd_display.c ****     // check fault bit
 411:frucd_display.c ****     if (state & 0x80) {
 816              		.loc 1 411 0
 817 0048 73B2     		sxtb	r3, r6
 818 004a B34D     		ldr	r5, .L75+4
 819 004c 002B     		cmp	r3, #0
 820 004e 00DB     		blt	.LCB727
 821 0050 2CE1     		b	.L42	@long jump
 822              	.LCB727:
 823              	.LVL89:
ARM GAS  C:\Users\leoja\AppData\Local\Temp\cciPvcJP.s 			page 23


 824 0052 6B46     		mov	r3, sp
 825              	.LBB3:
 412:frucd_display.c ****         // *************** FAULTS ***************
 413:frucd_display.c ****         uint8 fault = state & 0x7f; // mask off fault bit
 414:frucd_display.c ****         switch(fault) {
 826              		.loc 1 414 0
 827 0054 7F20     		movs	r0, #127
 828 0056 1C27     		movs	r7, #28
 829 0058 DF5F     		ldrsh	r7, [r3, r7]
 830 005a 6B46     		mov	r3, sp
 831 005c 3040     		ands	r0, r6
 832 005e 1826     		movs	r6, #24
 833 0060 9E5F     		ldrsh	r6, [r3, r6]
 834              	.LVL90:
 415:frucd_display.c ****             case NONE: // STARTUP (effectively)
 416:frucd_display.c ****                 // not obtainable via CAN
 417:frucd_display.c ****                 // would only show when hardcoded on startup
 418:frucd_display.c ****                 color = C_YELLOW;
 419:frucd_display.c ****                 if (color != last_state_color) {
 420:frucd_display.c ****                     // only draw rectangle if color changed
 421:frucd_display.c ****                     UG_FillFrame(x1, y1, x2, y2, color);
 422:frucd_display.c ****                     last_state_color = color;
 423:frucd_display.c ****                 }
 424:frucd_display.c ****                 UG_PutColorString(xFont, yFont, " STARTUP  ", C_BLACK, color);
 425:frucd_display.c ****                 break;
 426:frucd_display.c ****             case DRIVE_REQUEST_FROM_LV:
 427:frucd_display.c ****                 color = C_RED;
 428:frucd_display.c ****                 if (color != last_state_color) {
 429:frucd_display.c ****                     // only draw rectangle if color changed
 430:frucd_display.c ****                     UG_FillFrame(x1, y1, x2, y2, color);
 431:frucd_display.c ****                     last_state_color = color;
 432:frucd_display.c ****                 }
 433:frucd_display.c ****                 UG_PutColorString(xFont, yFont, "DRV FRM LV", C_BLACK, color);
 434:frucd_display.c ****                 break;
 435:frucd_display.c ****             case CONSERVATIVE_TIMER_MAXED:
 436:frucd_display.c ****                 color = C_RED;
 437:frucd_display.c ****                 if (color != last_state_color) {
 438:frucd_display.c ****                     // only draw rectangle if color changed
 439:frucd_display.c ****                     UG_FillFrame(x1, y1, x2, y2, color);
 440:frucd_display.c ****                     last_state_color = color;
 441:frucd_display.c ****                 }
 442:frucd_display.c ****                 UG_PutColorString(xFont, yFont, "PRE TM OUT", C_BLACK, color);
 443:frucd_display.c ****                 break;
 444:frucd_display.c ****             case BRAKE_NOT_PRESSED:
 445:frucd_display.c ****                 color = C_RED;
 446:frucd_display.c ****                 if (color != last_state_color) {
 447:frucd_display.c ****                     // only draw rectangle if color changed
 448:frucd_display.c ****                     UG_FillFrame(x1, y1, x2, y2, color);
 449:frucd_display.c ****                     last_state_color = color;
 450:frucd_display.c ****                 }
 451:frucd_display.c ****                 UG_PutColorString(xFont, yFont, "BR NOT PRS", C_BLACK, color);
 452:frucd_display.c ****                 break;
 453:frucd_display.c ****             case HV_DISABLED_WHILE_DRIVING:
 454:frucd_display.c ****                 color = C_RED;
 455:frucd_display.c ****                 if (color != last_state_color) {
 456:frucd_display.c ****                     // only draw rectangle if color changed
 457:frucd_display.c ****                     UG_FillFrame(x1, y1, x2, y2, color);
ARM GAS  C:\Users\leoja\AppData\Local\Temp\cciPvcJP.s 			page 24


 458:frucd_display.c ****                     last_state_color = color;
 459:frucd_display.c ****                 }
 460:frucd_display.c ****                 UG_PutColorString(xFont, yFont, "HV OFF DRV", C_BLACK, color);
 461:frucd_display.c ****                 break;
 462:frucd_display.c ****             case SENSOR_DISCREPANCY:
 463:frucd_display.c ****                 color = C_RED;
 464:frucd_display.c ****                 if (color != last_state_color) {
 465:frucd_display.c ****                     // only draw rectangle if color changed
 466:frucd_display.c ****                     UG_FillFrame(x1, y1, x2, y2, color);
 467:frucd_display.c ****                     last_state_color = color;
 468:frucd_display.c ****                 }
 469:frucd_display.c ****                 UG_PutColorString(xFont, yFont, "SNSR DSCRP", C_BLACK, color);
 470:frucd_display.c ****                 break;
 471:frucd_display.c ****             case BRAKE_IMPLAUSIBLE:
 472:frucd_display.c ****                 color = C_YELLOW;
 473:frucd_display.c ****                 if (color != last_state_color) {
 474:frucd_display.c ****                     // only draw rectangle if color changed
 475:frucd_display.c ****                     UG_FillFrame(x1, y1, x2, y2, color);
 476:frucd_display.c ****                     last_state_color = color;
 477:frucd_display.c ****                 }
 478:frucd_display.c ****                 UG_PutColorString(xFont, yFont, "BSPD TRIPD", C_BLACK, color); //whitespace to clea
 479:frucd_display.c ****                 break;
 480:frucd_display.c ****             case SHUTDOWN_CIRCUIT_OPEN:
 481:frucd_display.c ****                 color = C_RED;
 482:frucd_display.c ****                 if (color != last_state_color) {
 483:frucd_display.c ****                     // only draw rectangle if color changed
 484:frucd_display.c ****                     UG_FillFrame(x1, y1, x2, y2, color);
 485:frucd_display.c ****                     last_state_color = color;
 486:frucd_display.c ****                 }
 487:frucd_display.c ****                 UG_PutColorString(xFont, yFont, "SHTDWN OPN", C_BLACK, color); //whitespace to clea
 488:frucd_display.c ****                 break;
 489:frucd_display.c ****             case UNCALIBRATED:
 490:frucd_display.c ****                 color = C_RED;
 491:frucd_display.c ****                 if (color != last_state_color) {
 492:frucd_display.c ****                     // only draw rectangle if color changed
 493:frucd_display.c ****                     UG_FillFrame(x1, y1, x2, y2, color);
 494:frucd_display.c ****                     last_state_color = color;
 495:frucd_display.c ****                 }
 496:frucd_display.c ****                 UG_PutColorString(xFont, yFont, "UNCALIBRTD", C_BLACK, color); //whitespace to clea
 497:frucd_display.c ****                 break;
 498:frucd_display.c ****             case HARD_BSPD:
 499:frucd_display.c ****                 color = C_RED;
 500:frucd_display.c ****                 if (color != last_state_color) {
 501:frucd_display.c ****                     // only draw rectangle if color changed
 502:frucd_display.c ****                     UG_FillFrame(x1, y1, x2, y2, color);
 503:frucd_display.c ****                     last_state_color = color;
 504:frucd_display.c ****                 }
 505:frucd_display.c ****                 UG_PutColorString(xFont, yFont, "HARD BSPD", C_BLACK, color); //whitespace to clear
 506:frucd_display.c ****                 break;
 507:frucd_display.c ****             default:
 508:frucd_display.c ****                 color = C_RED;
 509:frucd_display.c ****                 if (color != last_state_color) {
 835              		.loc 1 509 0
 836 0062 2B68     		ldr	r3, [r5]
 837 0064 1A00     		movs	r2, r3
 414:frucd_display.c ****             case NONE: // STARTUP (effectively)
 838              		.loc 1 414 0
ARM GAS  C:\Users\leoja\AppData\Local\Temp\cciPvcJP.s 			page 25


 839 0066 0928     		cmp	r0, #9
 840 0068 00D9     		bls	.LCB741
 841 006a 05E1     		b	.L43	@long jump
 842              	.LCB741:
 843 006c FFF7FEFF 		bl	__gnu_thumb1_case_uqi
 844              	.L45:
 845 0070 05       		.byte	(.L44-.L45)/2
 846 0071 1C       		.byte	(.L46-.L45)/2
 847 0072 36       		.byte	(.L47-.L45)/2
 848 0073 51       		.byte	(.L48-.L45)/2
 849 0074 6B       		.byte	(.L49-.L45)/2
 850 0075 85       		.byte	(.L50-.L45)/2
 851 0076 9F       		.byte	(.L51-.L45)/2
 852 0077 B6       		.byte	(.L52-.L45)/2
 853 0078 D0       		.byte	(.L53-.L45)/2
 854 0079 EA       		.byte	(.L54-.L45)/2
 855              		.p2align 1
 856              	.L44:
 857              	.LVL91:
 419:frucd_display.c ****                     // only draw rectangle if color changed
 858              		.loc 1 419 0
 859 007a A84B     		ldr	r3, .L75+8
 860 007c 9A42     		cmp	r2, r3
 861 007e 0ED0     		beq	.L55
 421:frucd_display.c ****                     last_state_color = color;
 862              		.loc 1 421 0
 863 0080 6A46     		mov	r2, sp
 864 0082 1421     		movs	r1, #20
 865 0084 525E     		ldrsh	r2, [r2, r1]
 866 0086 6946     		mov	r1, sp
 867 0088 1020     		movs	r0, #16
 868 008a 095E     		ldrsh	r1, [r1, r0]
 869 008c 6846     		mov	r0, sp
 870 008e 23B2     		sxth	r3, r4
 871 0090 0C24     		movs	r4, #12
 872 0092 005F     		ldrsh	r0, [r0, r4]
 873 0094 A14C     		ldr	r4, .L75+8
 874 0096 0094     		str	r4, [sp]
 875 0098 FFF7FEFF 		bl	UG_FillFrame
 876              	.LVL92:
 422:frucd_display.c ****                 }
 877              		.loc 1 422 0
 878 009c 2C60     		str	r4, [r5]
 879              	.L55:
 424:frucd_display.c ****                 break;
 880              		.loc 1 424 0
 881 009e 9F4B     		ldr	r3, .L75+8
 882 00a0 9F4A     		ldr	r2, .L75+12
 883 00a2 0093     		str	r3, [sp]
 884 00a4 0023     		movs	r3, #0
 885 00a6 32E0     		b	.L74
 886              	.LVL93:
 887              	.L46:
 428:frucd_display.c ****                     // only draw rectangle if color changed
 888              		.loc 1 428 0
 889 00a8 FF23     		movs	r3, #255
 890 00aa 1B04     		lsls	r3, r3, #16
ARM GAS  C:\Users\leoja\AppData\Local\Temp\cciPvcJP.s 			page 26


 891 00ac 9A42     		cmp	r2, r3
 892 00ae 0FD0     		beq	.L57
 430:frucd_display.c ****                     last_state_color = color;
 893              		.loc 1 430 0
 894 00b0 6A46     		mov	r2, sp
 895 00b2 1421     		movs	r1, #20
 896 00b4 525E     		ldrsh	r2, [r2, r1]
 897 00b6 6946     		mov	r1, sp
 898 00b8 1020     		movs	r0, #16
 899 00ba 095E     		ldrsh	r1, [r1, r0]
 900 00bc 6846     		mov	r0, sp
 901 00be 23B2     		sxth	r3, r4
 902 00c0 0C24     		movs	r4, #12
 903 00c2 005F     		ldrsh	r0, [r0, r4]
 904 00c4 FF24     		movs	r4, #255
 905 00c6 2404     		lsls	r4, r4, #16
 906 00c8 0094     		str	r4, [sp]
 907 00ca FFF7FEFF 		bl	UG_FillFrame
 908              	.LVL94:
 431:frucd_display.c ****                 }
 909              		.loc 1 431 0
 910 00ce 2C60     		str	r4, [r5]
 911              	.L57:
 433:frucd_display.c ****                 break;
 912              		.loc 1 433 0
 913 00d0 FF23     		movs	r3, #255
 914 00d2 1B04     		lsls	r3, r3, #16
 915 00d4 0093     		str	r3, [sp]
 916 00d6 934A     		ldr	r2, .L75+16
 917 00d8 0023     		movs	r3, #0
 918 00da 18E0     		b	.L74
 919              	.LVL95:
 920              	.L47:
 437:frucd_display.c ****                     // only draw rectangle if color changed
 921              		.loc 1 437 0
 922 00dc FF23     		movs	r3, #255
 923 00de 1B04     		lsls	r3, r3, #16
 924 00e0 9A42     		cmp	r2, r3
 925 00e2 0FD0     		beq	.L58
 439:frucd_display.c ****                     last_state_color = color;
 926              		.loc 1 439 0
 927 00e4 6A46     		mov	r2, sp
 928 00e6 1421     		movs	r1, #20
 929 00e8 525E     		ldrsh	r2, [r2, r1]
 930 00ea 6946     		mov	r1, sp
 931 00ec 1020     		movs	r0, #16
 932 00ee 095E     		ldrsh	r1, [r1, r0]
 933 00f0 6846     		mov	r0, sp
 934 00f2 23B2     		sxth	r3, r4
 935 00f4 0C24     		movs	r4, #12
 936 00f6 005F     		ldrsh	r0, [r0, r4]
 937 00f8 FF24     		movs	r4, #255
 938 00fa 2404     		lsls	r4, r4, #16
 939 00fc 0094     		str	r4, [sp]
 940 00fe FFF7FEFF 		bl	UG_FillFrame
 941              	.LVL96:
 440:frucd_display.c ****                 }
ARM GAS  C:\Users\leoja\AppData\Local\Temp\cciPvcJP.s 			page 27


 942              		.loc 1 440 0
 943 0102 2C60     		str	r4, [r5]
 944              	.L58:
 442:frucd_display.c ****                 break;
 945              		.loc 1 442 0
 946 0104 FF23     		movs	r3, #255
 947 0106 1B04     		lsls	r3, r3, #16
 948 0108 0093     		str	r3, [sp]
 949 010a 0023     		movs	r3, #0
 950 010c 864A     		ldr	r2, .L75+20
 951              	.LVL97:
 952              	.L74:
 953 010e 3900     		movs	r1, r7
 954 0110 F7E0     		b	.L73
 955              	.L48:
 956              	.LVL98:
 446:frucd_display.c ****                     // only draw rectangle if color changed
 957              		.loc 1 446 0
 958 0112 FF23     		movs	r3, #255
 959 0114 1B04     		lsls	r3, r3, #16
 960 0116 9A42     		cmp	r2, r3
 961 0118 0FD0     		beq	.L59
 448:frucd_display.c ****                     last_state_color = color;
 962              		.loc 1 448 0
 963 011a 6A46     		mov	r2, sp
 964 011c 1421     		movs	r1, #20
 965 011e 525E     		ldrsh	r2, [r2, r1]
 966 0120 6946     		mov	r1, sp
 967 0122 1020     		movs	r0, #16
 968 0124 095E     		ldrsh	r1, [r1, r0]
 969 0126 6846     		mov	r0, sp
 970 0128 23B2     		sxth	r3, r4
 971 012a 0C24     		movs	r4, #12
 972 012c 005F     		ldrsh	r0, [r0, r4]
 973 012e FF24     		movs	r4, #255
 974 0130 2404     		lsls	r4, r4, #16
 975 0132 0094     		str	r4, [sp]
 976 0134 FFF7FEFF 		bl	UG_FillFrame
 977              	.LVL99:
 449:frucd_display.c ****                 }
 978              		.loc 1 449 0
 979 0138 2C60     		str	r4, [r5]
 980              	.L59:
 451:frucd_display.c ****                 break;
 981              		.loc 1 451 0
 982 013a FF23     		movs	r3, #255
 983 013c 1B04     		lsls	r3, r3, #16
 984 013e 0093     		str	r3, [sp]
 985 0140 7A4A     		ldr	r2, .L75+24
 986 0142 0023     		movs	r3, #0
 987 0144 E3E7     		b	.L74
 988              	.LVL100:
 989              	.L49:
 455:frucd_display.c ****                     // only draw rectangle if color changed
 990              		.loc 1 455 0
 991 0146 FF23     		movs	r3, #255
 992 0148 1B04     		lsls	r3, r3, #16
ARM GAS  C:\Users\leoja\AppData\Local\Temp\cciPvcJP.s 			page 28


 993 014a 9A42     		cmp	r2, r3
 994 014c 0FD0     		beq	.L60
 457:frucd_display.c ****                     last_state_color = color;
 995              		.loc 1 457 0
 996 014e 6A46     		mov	r2, sp
 997 0150 1421     		movs	r1, #20
 998 0152 525E     		ldrsh	r2, [r2, r1]
 999 0154 6946     		mov	r1, sp
 1000 0156 1020     		movs	r0, #16
 1001 0158 095E     		ldrsh	r1, [r1, r0]
 1002 015a 6846     		mov	r0, sp
 1003 015c 23B2     		sxth	r3, r4
 1004 015e 0C24     		movs	r4, #12
 1005 0160 005F     		ldrsh	r0, [r0, r4]
 1006 0162 FF24     		movs	r4, #255
 1007 0164 2404     		lsls	r4, r4, #16
 1008 0166 0094     		str	r4, [sp]
 1009 0168 FFF7FEFF 		bl	UG_FillFrame
 1010              	.LVL101:
 458:frucd_display.c ****                 }
 1011              		.loc 1 458 0
 1012 016c 2C60     		str	r4, [r5]
 1013              	.L60:
 460:frucd_display.c ****                 break;
 1014              		.loc 1 460 0
 1015 016e FF23     		movs	r3, #255
 1016 0170 1B04     		lsls	r3, r3, #16
 1017 0172 0093     		str	r3, [sp]
 1018 0174 6E4A     		ldr	r2, .L75+28
 1019 0176 0023     		movs	r3, #0
 1020 0178 C9E7     		b	.L74
 1021              	.LVL102:
 1022              	.L50:
 464:frucd_display.c ****                     // only draw rectangle if color changed
 1023              		.loc 1 464 0
 1024 017a FF23     		movs	r3, #255
 1025 017c 1B04     		lsls	r3, r3, #16
 1026 017e 9A42     		cmp	r2, r3
 1027 0180 0FD0     		beq	.L61
 466:frucd_display.c ****                     last_state_color = color;
 1028              		.loc 1 466 0
 1029 0182 6A46     		mov	r2, sp
 1030 0184 1421     		movs	r1, #20
 1031 0186 525E     		ldrsh	r2, [r2, r1]
 1032 0188 6946     		mov	r1, sp
 1033 018a 1020     		movs	r0, #16
 1034 018c 095E     		ldrsh	r1, [r1, r0]
 1035 018e 6846     		mov	r0, sp
 1036 0190 23B2     		sxth	r3, r4
 1037 0192 0C24     		movs	r4, #12
 1038 0194 005F     		ldrsh	r0, [r0, r4]
 1039 0196 FF24     		movs	r4, #255
 1040 0198 2404     		lsls	r4, r4, #16
 1041 019a 0094     		str	r4, [sp]
 1042 019c FFF7FEFF 		bl	UG_FillFrame
 1043              	.LVL103:
 467:frucd_display.c ****                 }
ARM GAS  C:\Users\leoja\AppData\Local\Temp\cciPvcJP.s 			page 29


 1044              		.loc 1 467 0
 1045 01a0 2C60     		str	r4, [r5]
 1046              	.L61:
 469:frucd_display.c ****                 break;
 1047              		.loc 1 469 0
 1048 01a2 FF23     		movs	r3, #255
 1049 01a4 1B04     		lsls	r3, r3, #16
 1050 01a6 0093     		str	r3, [sp]
 1051 01a8 624A     		ldr	r2, .L75+32
 1052 01aa 0023     		movs	r3, #0
 1053 01ac AFE7     		b	.L74
 1054              	.LVL104:
 1055              	.L51:
 473:frucd_display.c ****                     // only draw rectangle if color changed
 1056              		.loc 1 473 0
 1057 01ae 5B4B     		ldr	r3, .L75+8
 1058 01b0 9A42     		cmp	r2, r3
 1059 01b2 0ED0     		beq	.L62
 475:frucd_display.c ****                     last_state_color = color;
 1060              		.loc 1 475 0
 1061 01b4 6A46     		mov	r2, sp
 1062 01b6 1421     		movs	r1, #20
 1063 01b8 525E     		ldrsh	r2, [r2, r1]
 1064 01ba 6946     		mov	r1, sp
 1065 01bc 1020     		movs	r0, #16
 1066 01be 095E     		ldrsh	r1, [r1, r0]
 1067 01c0 6846     		mov	r0, sp
 1068 01c2 23B2     		sxth	r3, r4
 1069 01c4 0C24     		movs	r4, #12
 1070 01c6 005F     		ldrsh	r0, [r0, r4]
 1071 01c8 544C     		ldr	r4, .L75+8
 1072 01ca 0094     		str	r4, [sp]
 1073 01cc FFF7FEFF 		bl	UG_FillFrame
 1074              	.LVL105:
 476:frucd_display.c ****                 }
 1075              		.loc 1 476 0
 1076 01d0 2C60     		str	r4, [r5]
 1077              	.L62:
 478:frucd_display.c ****                 break;
 1078              		.loc 1 478 0
 1079 01d2 524B     		ldr	r3, .L75+8
 1080 01d4 584A     		ldr	r2, .L75+36
 1081 01d6 0093     		str	r3, [sp]
 1082 01d8 0023     		movs	r3, #0
 1083 01da 98E7     		b	.L74
 1084              	.LVL106:
 1085              	.L52:
 482:frucd_display.c ****                     // only draw rectangle if color changed
 1086              		.loc 1 482 0
 1087 01dc FF23     		movs	r3, #255
 1088 01de 1B04     		lsls	r3, r3, #16
 1089 01e0 9A42     		cmp	r2, r3
 1090 01e2 0FD0     		beq	.L63
 484:frucd_display.c ****                     last_state_color = color;
 1091              		.loc 1 484 0
 1092 01e4 6A46     		mov	r2, sp
 1093 01e6 1421     		movs	r1, #20
ARM GAS  C:\Users\leoja\AppData\Local\Temp\cciPvcJP.s 			page 30


 1094 01e8 525E     		ldrsh	r2, [r2, r1]
 1095 01ea 6946     		mov	r1, sp
 1096 01ec 1020     		movs	r0, #16
 1097 01ee 095E     		ldrsh	r1, [r1, r0]
 1098 01f0 6846     		mov	r0, sp
 1099 01f2 23B2     		sxth	r3, r4
 1100 01f4 0C24     		movs	r4, #12
 1101 01f6 005F     		ldrsh	r0, [r0, r4]
 1102 01f8 FF24     		movs	r4, #255
 1103 01fa 2404     		lsls	r4, r4, #16
 1104 01fc 0094     		str	r4, [sp]
 1105 01fe FFF7FEFF 		bl	UG_FillFrame
 1106              	.LVL107:
 485:frucd_display.c ****                 }
 1107              		.loc 1 485 0
 1108 0202 2C60     		str	r4, [r5]
 1109              	.L63:
 487:frucd_display.c ****                 break;
 1110              		.loc 1 487 0
 1111 0204 FF23     		movs	r3, #255
 1112 0206 1B04     		lsls	r3, r3, #16
 1113 0208 0093     		str	r3, [sp]
 1114 020a 4C4A     		ldr	r2, .L75+40
 1115 020c 0023     		movs	r3, #0
 1116 020e 7EE7     		b	.L74
 1117              	.LVL108:
 1118              	.L53:
 491:frucd_display.c ****                     // only draw rectangle if color changed
 1119              		.loc 1 491 0
 1120 0210 FF23     		movs	r3, #255
 1121 0212 1B04     		lsls	r3, r3, #16
 1122 0214 9A42     		cmp	r2, r3
 1123 0216 0FD0     		beq	.L64
 493:frucd_display.c ****                     last_state_color = color;
 1124              		.loc 1 493 0
 1125 0218 6A46     		mov	r2, sp
 1126 021a 1421     		movs	r1, #20
 1127 021c 525E     		ldrsh	r2, [r2, r1]
 1128 021e 6946     		mov	r1, sp
 1129 0220 1020     		movs	r0, #16
 1130 0222 095E     		ldrsh	r1, [r1, r0]
 1131 0224 6846     		mov	r0, sp
 1132 0226 23B2     		sxth	r3, r4
 1133 0228 0C24     		movs	r4, #12
 1134 022a 005F     		ldrsh	r0, [r0, r4]
 1135 022c FF24     		movs	r4, #255
 1136 022e 2404     		lsls	r4, r4, #16
 1137 0230 0094     		str	r4, [sp]
 1138 0232 FFF7FEFF 		bl	UG_FillFrame
 1139              	.LVL109:
 494:frucd_display.c ****                 }
 1140              		.loc 1 494 0
 1141 0236 2C60     		str	r4, [r5]
 1142              	.L64:
 496:frucd_display.c ****                 break;
 1143              		.loc 1 496 0
 1144 0238 FF23     		movs	r3, #255
ARM GAS  C:\Users\leoja\AppData\Local\Temp\cciPvcJP.s 			page 31


 1145 023a 1B04     		lsls	r3, r3, #16
 1146 023c 0093     		str	r3, [sp]
 1147 023e 404A     		ldr	r2, .L75+44
 1148 0240 0023     		movs	r3, #0
 1149 0242 64E7     		b	.L74
 1150              	.LVL110:
 1151              	.L54:
 500:frucd_display.c ****                     // only draw rectangle if color changed
 1152              		.loc 1 500 0
 1153 0244 FF23     		movs	r3, #255
 1154 0246 1B04     		lsls	r3, r3, #16
 1155 0248 9A42     		cmp	r2, r3
 1156 024a 0FD0     		beq	.L65
 502:frucd_display.c ****                     last_state_color = color;
 1157              		.loc 1 502 0
 1158 024c 6A46     		mov	r2, sp
 1159 024e 1421     		movs	r1, #20
 1160 0250 525E     		ldrsh	r2, [r2, r1]
 1161 0252 6946     		mov	r1, sp
 1162 0254 1020     		movs	r0, #16
 1163 0256 095E     		ldrsh	r1, [r1, r0]
 1164 0258 6846     		mov	r0, sp
 1165 025a 23B2     		sxth	r3, r4
 1166 025c 0C24     		movs	r4, #12
 1167 025e 005F     		ldrsh	r0, [r0, r4]
 1168 0260 FF24     		movs	r4, #255
 1169 0262 2404     		lsls	r4, r4, #16
 1170 0264 0094     		str	r4, [sp]
 1171 0266 FFF7FEFF 		bl	UG_FillFrame
 1172              	.LVL111:
 503:frucd_display.c ****                 }
 1173              		.loc 1 503 0
 1174 026a 2C60     		str	r4, [r5]
 1175              	.L65:
 505:frucd_display.c ****                 break;
 1176              		.loc 1 505 0
 1177 026c FF23     		movs	r3, #255
 1178 026e 1B04     		lsls	r3, r3, #16
 1179 0270 0093     		str	r3, [sp]
 1180 0272 344A     		ldr	r2, .L75+48
 1181 0274 0023     		movs	r3, #0
 1182 0276 4AE7     		b	.L74
 1183              	.LVL112:
 1184              	.L43:
 1185              		.loc 1 509 0
 1186 0278 FF23     		movs	r3, #255
 1187 027a 1B04     		lsls	r3, r3, #16
 1188 027c 9A42     		cmp	r2, r3
 1189 027e 0FD0     		beq	.L66
 510:frucd_display.c ****                     // only draw rectangle if color changed
 511:frucd_display.c ****                     UG_FillFrame(x1, y1, x2, y2, color);
 1190              		.loc 1 511 0
 1191 0280 6A46     		mov	r2, sp
 1192 0282 1421     		movs	r1, #20
 1193 0284 525E     		ldrsh	r2, [r2, r1]
 1194 0286 6946     		mov	r1, sp
 1195 0288 1020     		movs	r0, #16
ARM GAS  C:\Users\leoja\AppData\Local\Temp\cciPvcJP.s 			page 32


 1196 028a 095E     		ldrsh	r1, [r1, r0]
 1197 028c 6846     		mov	r0, sp
 1198 028e 23B2     		sxth	r3, r4
 1199 0290 0C24     		movs	r4, #12
 1200 0292 005F     		ldrsh	r0, [r0, r4]
 1201 0294 FF24     		movs	r4, #255
 1202 0296 2404     		lsls	r4, r4, #16
 1203 0298 0094     		str	r4, [sp]
 1204 029a FFF7FEFF 		bl	UG_FillFrame
 1205              	.LVL113:
 512:frucd_display.c ****                     last_state_color = color;
 1206              		.loc 1 512 0
 1207 029e 2C60     		str	r4, [r5]
 1208              	.L66:
 513:frucd_display.c ****                 }
 514:frucd_display.c ****                 UG_PutColorString(xFont, yFont, "YO WTF?", C_BLACK, color); //whitespace to clear
 1209              		.loc 1 514 0
 1210 02a0 FF23     		movs	r3, #255
 1211 02a2 1B04     		lsls	r3, r3, #16
 1212 02a4 0093     		str	r3, [sp]
 1213 02a6 284A     		ldr	r2, .L75+52
 1214 02a8 0023     		movs	r3, #0
 1215 02aa 30E7     		b	.L74
 1216              	.LVL114:
 1217              	.L42:
 1218              	.LBE3:
 515:frucd_display.c ****                 break;
 516:frucd_display.c ****            
 517:frucd_display.c ****         }
 518:frucd_display.c ****     } else {
 519:frucd_display.c ****         // *************** NO FAULTS ***************
 520:frucd_display.c ****         color = C_GREEN;
 521:frucd_display.c ****         if (color != last_state_color) {
 1219              		.loc 1 521 0
 1220 02ac FF27     		movs	r7, #255
 1221 02ae 2B68     		ldr	r3, [r5]
 1222 02b0 3F02     		lsls	r7, r7, #8
 1223 02b2 BB42     		cmp	r3, r7
 1224 02b4 0DD0     		beq	.L67
 522:frucd_display.c ****             // only draw rectangle if color changed
 523:frucd_display.c ****             UG_FillFrame(x1, y1, x2, y2, color);
 1225              		.loc 1 523 0
 1226 02b6 6A46     		mov	r2, sp
 1227 02b8 1421     		movs	r1, #20
 1228 02ba 525E     		ldrsh	r2, [r2, r1]
 1229 02bc 6946     		mov	r1, sp
 1230 02be 1020     		movs	r0, #16
 1231 02c0 095E     		ldrsh	r1, [r1, r0]
 1232 02c2 6846     		mov	r0, sp
 1233 02c4 23B2     		sxth	r3, r4
 1234 02c6 0C24     		movs	r4, #12
 1235 02c8 005F     		ldrsh	r0, [r0, r4]
 1236 02ca 0097     		str	r7, [sp]
 1237 02cc FFF7FEFF 		bl	UG_FillFrame
 1238              	.LVL115:
 524:frucd_display.c ****             last_state_color = color;
 1239              		.loc 1 524 0
ARM GAS  C:\Users\leoja\AppData\Local\Temp\cciPvcJP.s 			page 33


 1240 02d0 2F60     		str	r7, [r5]
 1241              	.L67:
 525:frucd_display.c ****         }
 526:frucd_display.c ****         switch(state) {
 1242              		.loc 1 526 0
 1243 02d2 032E     		cmp	r6, #3
 1244 02d4 18D8     		bhi	.L56
 1245 02d6 6B46     		mov	r3, sp
 1246 02d8 1C21     		movs	r1, #28
 1247 02da 595E     		ldrsh	r1, [r3, r1]
 1248 02dc 6B46     		mov	r3, sp
 1249 02de 3000     		movs	r0, r6
 1250 02e0 1826     		movs	r6, #24
 1251 02e2 9E5F     		ldrsh	r6, [r3, r6]
 1252 02e4 FF23     		movs	r3, #255
 1253 02e6 1B02     		lsls	r3, r3, #8
 527:frucd_display.c ****             case LV:
 528:frucd_display.c ****                 UG_PutColorString(xFont, yFont, "    LV    ", C_BLACK, color);
 529:frucd_display.c ****                 break;
 530:frucd_display.c ****             case PRECHARGING:
 531:frucd_display.c ****                 UG_PutColorString(xFont, yFont, "PRECHARGE ", C_BLACK, color);
 532:frucd_display.c ****                 break;
 533:frucd_display.c ****             case HV_ENABLED:
 534:frucd_display.c ****                 UG_PutColorString(xFont, yFont, "HV ENABLED", C_BLACK, color);
 535:frucd_display.c ****                 break;
 536:frucd_display.c ****             case DRIVE:
 537:frucd_display.c ****                 UG_PutColorString(xFont, yFont, "  DRIVE   ", C_BLACK, color);
 1254              		.loc 1 537 0
 1255 02e8 0093     		str	r3, [sp]
 1256 02ea 0023     		movs	r3, #0
 526:frucd_display.c ****             case LV:
 1257              		.loc 1 526 0
 1258 02ec FFF7FEFF 		bl	__gnu_thumb1_case_uqi
 1259              	.L69:
 1260 02f0 02       		.byte	(.L68-.L69)/2
 1261 02f1 04       		.byte	(.L70-.L69)/2
 1262 02f2 06       		.byte	(.L71-.L69)/2
 1263 02f3 08       		.byte	(.L72-.L69)/2
 1264              		.p2align 1
 1265              	.L68:
 528:frucd_display.c ****                 break;
 1266              		.loc 1 528 0
 1267 02f4 154A     		ldr	r2, .L75+56
 1268 02f6 04E0     		b	.L73
 1269              	.L70:
 531:frucd_display.c ****                 break;
 1270              		.loc 1 531 0
 1271 02f8 154A     		ldr	r2, .L75+60
 1272 02fa 02E0     		b	.L73
 1273              	.L71:
 534:frucd_display.c ****                 break;
 1274              		.loc 1 534 0
 1275 02fc 154A     		ldr	r2, .L75+64
 1276 02fe 00E0     		b	.L73
 1277              	.L72:
 1278              		.loc 1 537 0
 1279 0300 154A     		ldr	r2, .L75+68
ARM GAS  C:\Users\leoja\AppData\Local\Temp\cciPvcJP.s 			page 34


 1280              	.LVL116:
 1281              	.L73:
 1282 0302 3000     		movs	r0, r6
 1283 0304 FFF7FEFF 		bl	UG_PutColorString
 1284              	.LVL117:
 1285              	.L56:
 538:frucd_display.c ****                 break;
 539:frucd_display.c ****         }
 540:frucd_display.c ****     }
 541:frucd_display.c ****      UG_FontSelect(&FONT_12X16);
 1286              		.loc 1 541 0
 1287 0308 1448     		ldr	r0, .L75+72
 1288 030a FFF7FEFF 		bl	UG_FontSelect
 1289              	.LVL118:
 542:frucd_display.c **** }
 1290              		.loc 1 542 0
 1291 030e 09B0     		add	sp, sp, #36
 1292              		@ sp needed
 1293 0310 F0BD     		pop	{r4, r5, r6, r7, pc}
 1294              	.L76:
 1295 0312 C046     		.align	2
 1296              	.L75:
 1297 0314 00000000 		.word	FONT_32X53
 1298 0318 00000000 		.word	last_state_color
 1299 031c 00FFFF00 		.word	16776960
 1300 0320 65000000 		.word	.LC36
 1301 0324 70000000 		.word	.LC38
 1302 0328 7B000000 		.word	.LC40
 1303 032c 86000000 		.word	.LC42
 1304 0330 91000000 		.word	.LC44
 1305 0334 9C000000 		.word	.LC46
 1306 0338 A7000000 		.word	.LC48
 1307 033c B2000000 		.word	.LC50
 1308 0340 BD000000 		.word	.LC52
 1309 0344 C8000000 		.word	.LC54
 1310 0348 D2000000 		.word	.LC56
 1311 034c DA000000 		.word	.LC58
 1312 0350 E5000000 		.word	.LC60
 1313 0354 F0000000 		.word	.LC62
 1314 0358 FB000000 		.word	.LC64
 1315 035c 00000000 		.word	FONT_12X16
 1316              		.cfi_endproc
 1317              	.LFE40:
 1318              		.size	disp_state, .-disp_state
 1319              		.global	__aeabi_uidiv
 1320              		.section	.text.disp_glv_v,"ax",%progbits
 1321              		.align	1
 1322              		.global	disp_glv_v
 1323              		.code	16
 1324              		.thumb_func
 1325              		.type	disp_glv_v, %function
 1326              	disp_glv_v:
 1327              	.LFB41:
 543:frucd_display.c **** 
 544:frucd_display.c **** /*
 545:frucd_display.c **** 
 546:frucd_display.c **** void disp_glv_v(uint32_t data) {
ARM GAS  C:\Users\leoja\AppData\Local\Temp\cciPvcJP.s 			page 35


 547:frucd_display.c ****     // translate from voltage divider measurement to true voltage
 548:frucd_display.c ****     // y = 0.4295x + 18.254
 549:frucd_display.c ****     data *= 859;
 550:frucd_display.c ****     data /= 2000; // 0.4295
 551:frucd_display.c ****     data += 18;
 552:frucd_display.c ****     UG_COLOR color;
 553:frucd_display.c ****     if (data > 1150) {
 554:frucd_display.c ****         color = C_GREEN;
 555:frucd_display.c ****     } else if (data > 1100) {
 556:frucd_display.c ****         color = C_YELLOW;
 557:frucd_display.c ****     } else if (data > 1050) {
 558:frucd_display.c ****         color = C_ORANGE;
 559:frucd_display.c ****     } else {
 560:frucd_display.c ****         color = C_RED;
 561:frucd_display.c ****     }
 562:frucd_display.c ****     if (color != last_glv_v_color) {
 563:frucd_display.c ****         // only draw rectangle if color changed
 564:frucd_display.c ****         UG_FillFrame(95, 230, 182, 260, color);
 565:frucd_display.c ****         last_glv_v_color = color;
 566:frucd_display.c ****     }
 567:frucd_display.c ****     char data_s[7];
 568:frucd_display.c ****     sprintf(data_s, "%d", data);
 569:frucd_display.c ****     // handle 3 digit cases; 2 and 1 are practically impossible
 570:frucd_display.c ****     if (data < 1000) {
 571:frucd_display.c ****         data_s[3] = data_s[2];
 572:frucd_display.c ****         data_s[2] = data_s[1];
 573:frucd_display.c ****         data_s[1] = data_s[0];  
 574:frucd_display.c ****         data_s[0] = ' ';
 575:frucd_display.c ****     }
 576:frucd_display.c ****     // shift over fractional part
 577:frucd_display.c ****     data_s[4] = data_s[3];
 578:frucd_display.c ****     data_s[3] = data_s[2];
 579:frucd_display.c ****     // add syntax
 580:frucd_display.c ****     data_s[2] = '.';
 581:frucd_display.c ****     data_s[5] = 'V';
 582:frucd_display.c ****     data_s[6] = '\0';
 583:frucd_display.c ****     UG_PutColorString(100, 240, data_s, C_BLACK, color);
 584:frucd_display.c **** }
 585:frucd_display.c **** 
 586:frucd_display.c **** */
 587:frucd_display.c **** 
 588:frucd_display.c **** 
 589:frucd_display.c **** void disp_glv_v(uint32_t data, uint16_t x1, uint16_t y1, uint16_t x2, uint16_t y2, uint8_t size) { 
 1328              		.loc 1 589 0
 1329              		.cfi_startproc
 1330              		@ args = 8, pretend = 0, frame = 32
 1331              		@ frame_needed = 0, uses_anonymous_args = 0
 1332              	.LVL119:
 1333 0000 F0B5     		push	{r4, r5, r6, r7, lr}
 1334              		.cfi_def_cfa_offset 20
 1335              		.cfi_offset 4, -20
 1336              		.cfi_offset 5, -16
 1337              		.cfi_offset 6, -12
 1338              		.cfi_offset 7, -8
 1339              		.cfi_offset 14, -4
 1340 0002 8BB0     		sub	sp, sp, #44
 1341              		.cfi_def_cfa_offset 64
ARM GAS  C:\Users\leoja\AppData\Local\Temp\cciPvcJP.s 			page 36


 1342              		.loc 1 589 0
 1343 0004 0493     		str	r3, [sp, #16]
 1344 0006 10AB     		add	r3, sp, #64
 1345              	.LVL120:
 1346 0008 1B88     		ldrh	r3, [r3]
 1347              	.LVL121:
 1348 000a 0392     		str	r2, [sp, #12]
 1349 000c 0593     		str	r3, [sp, #20]
 1350 000e 11AB     		add	r3, sp, #68
 1351              	.LVL122:
 1352 0010 1A78     		ldrb	r2, [r3]
 1353              	.LVL123:
 590:frucd_display.c ****     int xFont, yFont;
 591:frucd_display.c ****     int horizFontSize = 12 + 20*size;
 592:frucd_display.c ****     int stringSize;
 593:frucd_display.c ****     stringSize = 6;
 594:frucd_display.c ****     xFont = (x1 + x2)/2 - ((horizFontSize*stringSize)/2);
 1354              		.loc 1 594 0
 1355 0012 1423     		movs	r3, #20
 1356              	.LVL124:
 589:frucd_display.c ****     int xFont, yFont;
 1357              		.loc 1 589 0
 1358 0014 0E00     		movs	r6, r1
 1359              		.loc 1 594 0
 1360 0016 0621     		movs	r1, #6
 1361              	.LVL125:
 1362 0018 5343     		muls	r3, r2
 1363 001a 0C33     		adds	r3, r3, #12
 1364              	.LVL126:
 1365 001c 4B43     		muls	r3, r1
 1366              	.LVL127:
 1367 001e 0499     		ldr	r1, [sp, #16]
 589:frucd_display.c ****     int xFont, yFont;
 1368              		.loc 1 589 0
 1369 0020 0400     		movs	r4, r0
 1370              		.loc 1 594 0
 1371 0022 7018     		adds	r0, r6, r1
 1372              	.LVL128:
 1373 0024 5B10     		asrs	r3, r3, #1
 1374 0026 4010     		asrs	r0, r0, #1
 1375 0028 C31A     		subs	r3, r0, r3
 595:frucd_display.c ****     yFont = (y1 + y2)/2 - 5 - (size*17);    
 1376              		.loc 1 595 0
 1377 002a 0599     		ldr	r1, [sp, #20]
 594:frucd_display.c ****     yFont = (y1 + y2)/2 - 5 - (size*17);    
 1378              		.loc 1 594 0
 1379 002c 0693     		str	r3, [sp, #24]
 1380              	.LVL129:
 1381              		.loc 1 595 0
 1382 002e 039B     		ldr	r3, [sp, #12]
 1383              	.LVL130:
 1384 0030 5B18     		adds	r3, r3, r1
 1385 0032 1121     		movs	r1, #17
 1386 0034 4942     		rsbs	r1, r1, #0
 1387 0036 5143     		muls	r1, r2
 1388 0038 5B10     		asrs	r3, r3, #1
 1389 003a 053B     		subs	r3, r3, #5
ARM GAS  C:\Users\leoja\AppData\Local\Temp\cciPvcJP.s 			page 37


 1390 003c 5B18     		adds	r3, r3, r1
 1391 003e 0793     		str	r3, [sp, #28]
 1392              	.LVL131:
 596:frucd_display.c ****     
 597:frucd_display.c ****     
 598:frucd_display.c ****     if(size == 1){
 1393              		.loc 1 598 0
 1394 0040 012A     		cmp	r2, #1
 1395 0042 02D1     		bne	.L78
 599:frucd_display.c ****         UG_FontSelect(&FONT_32X53);  
 1396              		.loc 1 599 0
 1397 0044 2C48     		ldr	r0, .L85
 1398 0046 FFF7FEFF 		bl	UG_FontSelect
 1399              	.LVL132:
 1400              	.L78:
 600:frucd_display.c ****     }
 601:frucd_display.c ****     // translate from voltage divider measurement to true voltage
 602:frucd_display.c ****     // y = 0.4295x + 18.254
 603:frucd_display.c ****     data *= 859;
 604:frucd_display.c ****     data /= 2000; // 0.4295
 1401              		.loc 1 604 0
 1402 004a FA21     		movs	r1, #250
 603:frucd_display.c ****     data /= 2000; // 0.4295
 1403              		.loc 1 603 0
 1404 004c 2B48     		ldr	r0, .L85+4
 1405              		.loc 1 604 0
 1406 004e C900     		lsls	r1, r1, #3
 603:frucd_display.c ****     data /= 2000; // 0.4295
 1407              		.loc 1 603 0
 1408 0050 6043     		muls	r0, r4
 1409              	.LVL133:
 1410              		.loc 1 604 0
 1411 0052 FFF7FEFF 		bl	__aeabi_uidiv
 1412              	.LVL134:
 605:frucd_display.c ****     data += 18;
 606:frucd_display.c ****     UG_COLOR color;
 607:frucd_display.c ****     if (data > 1150) {
 1413              		.loc 1 607 0
 1414 0056 2A4B     		ldr	r3, .L85+8
 605:frucd_display.c ****     data += 18;
 1415              		.loc 1 605 0
 1416 0058 1230     		adds	r0, r0, #18
 1417              	.LVL135:
 1418 005a 0500     		movs	r5, r0
 1419              	.LVL136:
 1420              		.loc 1 607 0
 1421 005c 9842     		cmp	r0, r3
 1422 005e 08D8     		bhi	.L82
 608:frucd_display.c ****         color = C_GREEN;
 609:frucd_display.c ****     } else if (data > 1100) {
 1423              		.loc 1 609 0
 1424 0060 284B     		ldr	r3, .L85+12
 1425 0062 9842     		cmp	r0, r3
 1426 0064 08D8     		bhi	.L83
 610:frucd_display.c ****         color = C_YELLOW;
 611:frucd_display.c ****     } else if (data > 1050) {
 1427              		.loc 1 611 0
ARM GAS  C:\Users\leoja\AppData\Local\Temp\cciPvcJP.s 			page 38


 1428 0066 284B     		ldr	r3, .L85+16
 1429 0068 9842     		cmp	r0, r3
 1430 006a 07D8     		bhi	.L84
 612:frucd_display.c ****         color = C_ORANGE;
 613:frucd_display.c ****     } else {
 614:frucd_display.c ****         color = C_RED;
 1431              		.loc 1 614 0
 1432 006c FF24     		movs	r4, #255
 1433 006e 2404     		lsls	r4, r4, #16
 1434 0070 05E0     		b	.L79
 1435              	.L82:
 608:frucd_display.c ****     } else if (data > 1100) {
 1436              		.loc 1 608 0
 1437 0072 FF24     		movs	r4, #255
 1438 0074 2402     		lsls	r4, r4, #8
 1439 0076 02E0     		b	.L79
 1440              	.L83:
 610:frucd_display.c ****         color = C_YELLOW;
 1441              		.loc 1 610 0
 1442 0078 244C     		ldr	r4, .L85+20
 1443 007a 00E0     		b	.L79
 1444              	.L84:
 612:frucd_display.c ****         color = C_ORANGE;
 1445              		.loc 1 612 0
 1446 007c 244C     		ldr	r4, .L85+24
 1447              	.L79:
 1448              	.LVL137:
 615:frucd_display.c ****     }
 616:frucd_display.c ****     if (color != last_glv_v_color) {
 1449              		.loc 1 616 0
 1450 007e 254F     		ldr	r7, .L85+28
 1451 0080 3B68     		ldr	r3, [r7]
 1452 0082 9C42     		cmp	r4, r3
 1453 0084 0DD0     		beq	.L80
 617:frucd_display.c ****         // only draw rectangle if color changed
 618:frucd_display.c ****         UG_FillFrame(x1, y1, x2, y2, color);
 1454              		.loc 1 618 0
 1455 0086 6B46     		mov	r3, sp
 1456 0088 1422     		movs	r2, #20
 1457 008a 9B5E     		ldrsh	r3, [r3, r2]
 1458 008c 6A46     		mov	r2, sp
 1459 008e 1021     		movs	r1, #16
 1460 0090 525E     		ldrsh	r2, [r2, r1]
 1461 0092 6946     		mov	r1, sp
 1462 0094 0C20     		movs	r0, #12
 1463 0096 095E     		ldrsh	r1, [r1, r0]
 1464              	.LVL138:
 1465 0098 30B2     		sxth	r0, r6
 1466 009a 0094     		str	r4, [sp]
 1467 009c FFF7FEFF 		bl	UG_FillFrame
 1468              	.LVL139:
 619:frucd_display.c ****         last_glv_v_color = color;
 1469              		.loc 1 619 0
 1470 00a0 3C60     		str	r4, [r7]
 1471              	.L80:
 620:frucd_display.c ****     }
 621:frucd_display.c ****     char data_s[7];
ARM GAS  C:\Users\leoja\AppData\Local\Temp\cciPvcJP.s 			page 39


 622:frucd_display.c ****     sprintf(data_s, "%lu", data);
 1472              		.loc 1 622 0
 1473 00a2 08AE     		add	r6, sp, #32
 1474 00a4 2A00     		movs	r2, r5
 1475 00a6 1C49     		ldr	r1, .L85+32
 1476 00a8 3000     		movs	r0, r6
 1477 00aa FFF7FEFF 		bl	sprintf
 1478              	.LVL140:
 623:frucd_display.c ****     // handle 3 digit cases; 2 and 1 are practically impossible
 624:frucd_display.c ****     if (data < 1000) {
 1479              		.loc 1 624 0
 1480 00ae 1B4B     		ldr	r3, .L85+36
 1481 00b0 9D42     		cmp	r5, r3
 1482 00b2 07D8     		bhi	.L81
 625:frucd_display.c ****         data_s[3] = data_s[2];
 1483              		.loc 1 625 0
 1484 00b4 B378     		ldrb	r3, [r6, #2]
 1485 00b6 F370     		strb	r3, [r6, #3]
 626:frucd_display.c ****         data_s[2] = data_s[1];
 1486              		.loc 1 626 0
 1487 00b8 7378     		ldrb	r3, [r6, #1]
 1488 00ba B370     		strb	r3, [r6, #2]
 627:frucd_display.c ****         data_s[1] = data_s[0];  
 1489              		.loc 1 627 0
 1490 00bc 3378     		ldrb	r3, [r6]
 1491 00be 7370     		strb	r3, [r6, #1]
 628:frucd_display.c ****         data_s[0] = ' ';
 1492              		.loc 1 628 0
 1493 00c0 2023     		movs	r3, #32
 1494 00c2 3370     		strb	r3, [r6]
 1495              	.L81:
 629:frucd_display.c ****     }
 630:frucd_display.c ****     // shift over fractional part
 631:frucd_display.c ****     data_s[4] = data_s[3];
 1496              		.loc 1 631 0
 1497 00c4 F378     		ldrb	r3, [r6, #3]
 632:frucd_display.c ****     data_s[3] = data_s[2];
 633:frucd_display.c ****     // add syntax
 634:frucd_display.c ****     data_s[2] = '.';
 635:frucd_display.c ****     data_s[5] = 'V';
 636:frucd_display.c ****     data_s[6] = '\0';
 637:frucd_display.c ****     UG_PutColorString(xFont, yFont, data_s, C_BLACK, color);
 1498              		.loc 1 637 0
 1499 00c6 6A46     		mov	r2, sp
 631:frucd_display.c ****     data_s[3] = data_s[2];
 1500              		.loc 1 631 0
 1501 00c8 3371     		strb	r3, [r6, #4]
 632:frucd_display.c ****     data_s[3] = data_s[2];
 1502              		.loc 1 632 0
 1503 00ca B378     		ldrb	r3, [r6, #2]
 1504              		.loc 1 637 0
 1505 00cc 1C21     		movs	r1, #28
 1506 00ce 515E     		ldrsh	r1, [r2, r1]
 632:frucd_display.c ****     data_s[3] = data_s[2];
 1507              		.loc 1 632 0
 1508 00d0 F370     		strb	r3, [r6, #3]
 634:frucd_display.c ****     data_s[5] = 'V';
ARM GAS  C:\Users\leoja\AppData\Local\Temp\cciPvcJP.s 			page 40


 1509              		.loc 1 634 0
 1510 00d2 2E23     		movs	r3, #46
 1511 00d4 B370     		strb	r3, [r6, #2]
 635:frucd_display.c ****     data_s[6] = '\0';
 1512              		.loc 1 635 0
 1513 00d6 2833     		adds	r3, r3, #40
 1514 00d8 7371     		strb	r3, [r6, #5]
 1515              		.loc 1 637 0
 1516 00da 6A46     		mov	r2, sp
 636:frucd_display.c ****     UG_PutColorString(xFont, yFont, data_s, C_BLACK, color);
 1517              		.loc 1 636 0
 1518 00dc 0023     		movs	r3, #0
 1519              		.loc 1 637 0
 1520 00de 1820     		movs	r0, #24
 1521 00e0 105E     		ldrsh	r0, [r2, r0]
 636:frucd_display.c ****     UG_PutColorString(xFont, yFont, data_s, C_BLACK, color);
 1522              		.loc 1 636 0
 1523 00e2 B371     		strb	r3, [r6, #6]
 1524              		.loc 1 637 0
 1525 00e4 3200     		movs	r2, r6
 1526 00e6 0094     		str	r4, [sp]
 1527 00e8 FFF7FEFF 		bl	UG_PutColorString
 1528              	.LVL141:
 638:frucd_display.c ****     UG_FontSelect(&FONT_12X16);
 1529              		.loc 1 638 0
 1530 00ec 0C48     		ldr	r0, .L85+40
 1531 00ee FFF7FEFF 		bl	UG_FontSelect
 1532              	.LVL142:
 639:frucd_display.c **** }
 1533              		.loc 1 639 0
 1534 00f2 0BB0     		add	sp, sp, #44
 1535              		@ sp needed
 1536              	.LVL143:
 1537              	.LVL144:
 1538 00f4 F0BD     		pop	{r4, r5, r6, r7, pc}
 1539              	.L86:
 1540 00f6 C046     		.align	2
 1541              	.L85:
 1542 00f8 00000000 		.word	FONT_32X53
 1543 00fc 5B030000 		.word	859
 1544 0100 7E040000 		.word	1150
 1545 0104 4C040000 		.word	1100
 1546 0108 1A040000 		.word	1050
 1547 010c 00FFFF00 		.word	16776960
 1548 0110 00A5FF00 		.word	16753920
 1549 0114 00000000 		.word	last_glv_v_color
 1550 0118 06010000 		.word	.LC69
 1551 011c E7030000 		.word	999
 1552 0120 00000000 		.word	FONT_12X16
 1553              		.cfi_endproc
 1554              	.LFE41:
 1555              		.size	disp_glv_v, .-disp_glv_v
 1556              		.section	.text.disp_gen_temp,"ax",%progbits
 1557              		.align	1
 1558              		.global	disp_gen_temp
 1559              		.code	16
 1560              		.thumb_func
ARM GAS  C:\Users\leoja\AppData\Local\Temp\cciPvcJP.s 			page 41


 1561              		.type	disp_gen_temp, %function
 1562              	disp_gen_temp:
 1563              	.LFB44:
 640:frucd_display.c **** 
 641:frucd_display.c **** 
 642:frucd_display.c **** /*
 643:frucd_display.c **** void disp_mc_temp(uint16_t data) {
 644:frucd_display.c ****     if (data >= 100) {
 645:frucd_display.c ****         // handle 3 digit cases
 646:frucd_display.c ****         UG_FillFrame(410, 185, 470, 215, C_GREEN);
 647:frucd_display.c ****         char data_s[5];
 648:frucd_display.c ****         sprintf(data_s, "%d", data);
 649:frucd_display.c ****         data_s[3] = 'C';
 650:frucd_display.c ****         data_s[4] = '\0';
 651:frucd_display.c ****         UG_PutColorString(415, 195, data_s, C_BLACK, C_GREEN);
 652:frucd_display.c ****     } else {
 653:frucd_display.c ****         // handle 2 digit cases
 654:frucd_display.c ****         UG_FillFrame(410, 185, 470, 215, C_GREEN);
 655:frucd_display.c ****         char data_s[4];
 656:frucd_display.c ****         sprintf(data_s, "%d", data);
 657:frucd_display.c ****         data_s[2] = 'C';
 658:frucd_display.c ****         data_s[3] = '\0';
 659:frucd_display.c ****         UG_PutColorString(422, 195, data_s, C_BLACK, C_GREEN);
 660:frucd_display.c ****     }
 661:frucd_display.c **** }
 662:frucd_display.c **** */
 663:frucd_display.c **** 
 664:frucd_display.c **** void disp_mc_temp(uint16_t data, uint16_t x1, uint16_t y1, uint16_t x2, uint16_t y2, uint8_t size){
 665:frucd_display.c ****     disp_gen_temp(data, x1, y1, x2, y2, size);
 666:frucd_display.c **** }
 667:frucd_display.c **** /*
 668:frucd_display.c **** void disp_motor_temp(uint16_t data) {
 669:frucd_display.c ****     if (data >= 100) {
 670:frucd_display.c ****         // handle 3 digit cases
 671:frucd_display.c ****         UG_FillFrame(410, 230, 470, 260, C_GREEN);
 672:frucd_display.c ****         char data_s[5];
 673:frucd_display.c ****         sprintf(data_s, "%d", data);
 674:frucd_display.c ****         data_s[3] = 'C';
 675:frucd_display.c ****         data_s[4] = '\0';
 676:frucd_display.c ****         UG_PutColorString(415, 240, data_s, C_BLACK, C_GREEN);
 677:frucd_display.c ****     } else {
 678:frucd_display.c ****         // handle 2 digit cases
 679:frucd_display.c ****         UG_FillFrame(410, 230, 470, 260, C_GREEN);
 680:frucd_display.c ****         char data_s[4];
 681:frucd_display.c ****         sprintf(data_s, "%d", data);
 682:frucd_display.c ****         data_s[2] = 'C';
 683:frucd_display.c ****         data_s[3] = '\0';
 684:frucd_display.c ****         UG_PutColorString(422, 240, data_s, C_BLACK, C_GREEN);
 685:frucd_display.c ****     }
 686:frucd_display.c **** }
 687:frucd_display.c **** */
 688:frucd_display.c **** 
 689:frucd_display.c **** void disp_motor_temp(uint16_t data, uint16_t x1, uint16_t y1, uint16_t x2, uint16_t y2, uint8_t siz
 690:frucd_display.c ****     disp_gen_temp(data, x1, y1, x2, y2, size);
 691:frucd_display.c **** }
 692:frucd_display.c **** 
 693:frucd_display.c **** 
ARM GAS  C:\Users\leoja\AppData\Local\Temp\cciPvcJP.s 			page 42


 694:frucd_display.c **** 
 695:frucd_display.c **** void disp_gen_temp(uint16_t data, uint16_t x1, uint16_t y1, uint16_t x2, uint16_t y2, uint8_t size)
 1564              		.loc 1 695 0
 1565              		.cfi_startproc
 1566              		@ args = 8, pretend = 0, frame = 24
 1567              		@ frame_needed = 0, uses_anonymous_args = 0
 1568              	.LVL145:
 1569 0000 F0B5     		push	{r4, r5, r6, r7, lr}
 1570              		.cfi_def_cfa_offset 20
 1571              		.cfi_offset 4, -20
 1572              		.cfi_offset 5, -16
 1573              		.cfi_offset 6, -12
 1574              		.cfi_offset 7, -8
 1575              		.cfi_offset 14, -4
 1576 0002 1500     		movs	r5, r2
 696:frucd_display.c ****     int xFont, yFont;
 697:frucd_display.c ****     int horizFontSize = 12 + 20*size;
 698:frucd_display.c ****     int stringSize;
 699:frucd_display.c ****     if (data >= 100) {
 700:frucd_display.c ****         stringSize = 4;
 701:frucd_display.c ****     }else{
 702:frucd_display.c ****         stringSize = 3;
 1577              		.loc 1 702 0
 1578 0004 6322     		movs	r2, #99
 1579              	.LVL146:
 695:frucd_display.c ****     int xFont, yFont;
 1580              		.loc 1 695 0
 1581 0006 89B0     		sub	sp, sp, #36
 1582              		.cfi_def_cfa_offset 56
 695:frucd_display.c ****     int xFont, yFont;
 1583              		.loc 1 695 0
 1584 0008 1E00     		movs	r6, r3
 1585 000a 0EAB     		add	r3, sp, #56
 1586              	.LVL147:
 1587 000c 1F88     		ldrh	r7, [r3]
 1588 000e 0FAB     		add	r3, sp, #60
 1589              	.LVL148:
 1590 0010 0C00     		movs	r4, r1
 1591 0012 1978     		ldrb	r1, [r3]
 1592              	.LVL149:
 697:frucd_display.c ****     int stringSize;
 1593              		.loc 1 697 0
 1594 0014 1423     		movs	r3, #20
 1595              	.LVL150:
 1596              		.loc 1 702 0
 1597 0016 8242     		cmp	r2, r0
 1598 0018 9241     		sbcs	r2, r2, r2
 697:frucd_display.c ****     int stringSize;
 1599              		.loc 1 697 0
 1600 001a 4B43     		muls	r3, r1
 1601              		.loc 1 702 0
 1602 001c 5242     		rsbs	r2, r2, #0
 1603 001e 0332     		adds	r2, r2, #3
 697:frucd_display.c ****     int stringSize;
 1604              		.loc 1 697 0
 1605 0020 0C33     		adds	r3, r3, #12
 1606              	.LVL151:
ARM GAS  C:\Users\leoja\AppData\Local\Temp\cciPvcJP.s 			page 43


 703:frucd_display.c ****     }
 704:frucd_display.c ****     xFont = (x1 + x2)/2 - ((horizFontSize*stringSize)/2);
 1607              		.loc 1 704 0
 1608 0022 5343     		muls	r3, r2
 1609              	.LVL152:
 705:frucd_display.c ****     yFont = (y1 + y2)/2 - 5 - (size*17);    
 1610              		.loc 1 705 0
 1611 0024 1122     		movs	r2, #17
 1612              	.LVL153:
 695:frucd_display.c ****     int xFont, yFont;
 1613              		.loc 1 695 0
 1614 0026 0390     		str	r0, [sp, #12]
 704:frucd_display.c ****     yFont = (y1 + y2)/2 - 5 - (size*17);    
 1615              		.loc 1 704 0
 1616 0028 A019     		adds	r0, r4, r6
 1617              	.LVL154:
 1618 002a 4010     		asrs	r0, r0, #1
 1619 002c 5B10     		asrs	r3, r3, #1
 1620              		.loc 1 705 0
 1621 002e 5242     		rsbs	r2, r2, #0
 704:frucd_display.c ****     yFont = (y1 + y2)/2 - 5 - (size*17);    
 1622              		.loc 1 704 0
 1623 0030 C31A     		subs	r3, r0, r3
 1624              		.loc 1 705 0
 1625 0032 4A43     		muls	r2, r1
 704:frucd_display.c ****     yFont = (y1 + y2)/2 - 5 - (size*17);    
 1626              		.loc 1 704 0
 1627 0034 0493     		str	r3, [sp, #16]
 1628              	.LVL155:
 1629              		.loc 1 705 0
 1630 0036 EB19     		adds	r3, r5, r7
 1631              	.LVL156:
 1632 0038 5B10     		asrs	r3, r3, #1
 1633 003a 053B     		subs	r3, r3, #5
 1634 003c 9B18     		adds	r3, r3, r2
 1635 003e 0593     		str	r3, [sp, #20]
 1636              	.LVL157:
 706:frucd_display.c ****     if(size == 1){
 1637              		.loc 1 706 0
 1638 0040 0129     		cmp	r1, #1
 1639 0042 02D1     		bne	.L89
 707:frucd_display.c ****         UG_FontSelect(&FONT_32X53);
 1640              		.loc 1 707 0
 1641 0044 1B48     		ldr	r0, .L94
 1642 0046 FFF7FEFF 		bl	UG_FontSelect
 1643              	.LVL158:
 1644              	.L89:
 1645 004a 20B2     		sxth	r0, r4
 1646 004c 6C46     		mov	r4, sp
 1647 004e 29B2     		sxth	r1, r5
 1648 0050 FF25     		movs	r5, #255
 1649 0052 32B2     		sxth	r2, r6
 1650 0054 3BB2     		sxth	r3, r7
 1651 0056 1426     		movs	r6, #20
 1652 0058 A75F     		ldrsh	r7, [r4, r6]
 1653 005a 1026     		movs	r6, #16
 1654 005c A65F     		ldrsh	r6, [r4, r6]
ARM GAS  C:\Users\leoja\AppData\Local\Temp\cciPvcJP.s 			page 44


 1655 005e 2D02     		lsls	r5, r5, #8
 1656 0060 3400     		movs	r4, r6
 708:frucd_display.c ****         
 709:frucd_display.c ****     }
 710:frucd_display.c ****     if (data >= 100) {
 1657              		.loc 1 710 0
 1658 0062 039E     		ldr	r6, [sp, #12]
 1659              	.LBB4:
 711:frucd_display.c ****         // handle 3 digit cases
 712:frucd_display.c ****         UG_FillFrame(x1, y1, x2, y2, C_GREEN);
 1660              		.loc 1 712 0
 1661 0064 0095     		str	r5, [sp]
 1662              	.LBE4:
 710:frucd_display.c ****         // handle 3 digit cases
 1663              		.loc 1 710 0
 1664 0066 632E     		cmp	r6, #99
 1665 0068 0CD9     		bls	.L90
 1666              	.LBB5:
 713:frucd_display.c ****         char data_s[5];
 714:frucd_display.c ****         sprintf(data_s, "%d", data);
 1667              		.loc 1 714 0
 1668 006a 06AE     		add	r6, sp, #24
 712:frucd_display.c ****         char data_s[5];
 1669              		.loc 1 712 0
 1670 006c FFF7FEFF 		bl	UG_FillFrame
 1671              	.LVL159:
 1672              		.loc 1 714 0
 1673 0070 039A     		ldr	r2, [sp, #12]
 1674 0072 1149     		ldr	r1, .L94+4
 1675 0074 3000     		movs	r0, r6
 1676 0076 FFF7FEFF 		bl	sprintf
 1677              	.LVL160:
 715:frucd_display.c ****         data_s[3] = 'C';
 1678              		.loc 1 715 0
 1679 007a 4323     		movs	r3, #67
 1680 007c F370     		strb	r3, [r6, #3]
 716:frucd_display.c ****         data_s[4] = '\0';
 1681              		.loc 1 716 0
 1682 007e 0023     		movs	r3, #0
 1683 0080 3371     		strb	r3, [r6, #4]
 1684 0082 0BE0     		b	.L93
 1685              	.L90:
 1686              	.LBE5:
 1687              	.LBB6:
 717:frucd_display.c ****         UG_PutColorString(xFont, yFont, data_s, C_BLACK, C_GREEN);
 718:frucd_display.c ****     } else {
 719:frucd_display.c ****         // handle 2 digit cases
 720:frucd_display.c ****         UG_FillFrame(x1, y1, x2, y2, C_GREEN);
 721:frucd_display.c ****         char data_s[4];
 722:frucd_display.c ****         sprintf(data_s, "%d", data);
 1688              		.loc 1 722 0
 1689 0084 06AE     		add	r6, sp, #24
 720:frucd_display.c ****         char data_s[4];
 1690              		.loc 1 720 0
 1691 0086 FFF7FEFF 		bl	UG_FillFrame
 1692              	.LVL161:
 1693              		.loc 1 722 0
ARM GAS  C:\Users\leoja\AppData\Local\Temp\cciPvcJP.s 			page 45


 1694 008a 039A     		ldr	r2, [sp, #12]
 1695 008c 0A49     		ldr	r1, .L94+4
 1696 008e 3000     		movs	r0, r6
 1697 0090 FFF7FEFF 		bl	sprintf
 1698              	.LVL162:
 723:frucd_display.c ****         data_s[2] = 'C';
 1699              		.loc 1 723 0
 1700 0094 4323     		movs	r3, #67
 1701 0096 B370     		strb	r3, [r6, #2]
 724:frucd_display.c ****         data_s[3] = '\0';
 1702              		.loc 1 724 0
 1703 0098 0023     		movs	r3, #0
 1704 009a F370     		strb	r3, [r6, #3]
 1705              	.L93:
 725:frucd_display.c ****         UG_PutColorString(xFont, yFont, data_s, C_BLACK, C_GREEN);
 1706              		.loc 1 725 0
 1707 009c 3200     		movs	r2, r6
 1708 009e 3900     		movs	r1, r7
 1709 00a0 2000     		movs	r0, r4
 1710 00a2 0095     		str	r5, [sp]
 1711 00a4 FFF7FEFF 		bl	UG_PutColorString
 1712              	.LVL163:
 1713              	.LBE6:
 726:frucd_display.c ****     }
 727:frucd_display.c ****      UG_FontSelect(&FONT_12X16);
 1714              		.loc 1 727 0
 1715 00a8 0448     		ldr	r0, .L94+8
 1716 00aa FFF7FEFF 		bl	UG_FontSelect
 1717              	.LVL164:
 728:frucd_display.c **** }
 1718              		.loc 1 728 0
 1719 00ae 09B0     		add	sp, sp, #36
 1720              		@ sp needed
 1721 00b0 F0BD     		pop	{r4, r5, r6, r7, pc}
 1722              	.L95:
 1723 00b2 C046     		.align	2
 1724              	.L94:
 1725 00b4 00000000 		.word	FONT_32X53
 1726 00b8 5D000000 		.word	.LC26
 1727 00bc 00000000 		.word	FONT_12X16
 1728              		.cfi_endproc
 1729              	.LFE44:
 1730              		.size	disp_gen_temp, .-disp_gen_temp
 1731              		.section	.text.disp_motor_temp,"ax",%progbits
 1732              		.align	1
 1733              		.global	disp_motor_temp
 1734              		.code	16
 1735              		.thumb_func
 1736              		.type	disp_motor_temp, %function
 1737              	disp_motor_temp:
 1738              	.LFB43:
 689:frucd_display.c ****     disp_gen_temp(data, x1, y1, x2, y2, size);
 1739              		.loc 1 689 0
 1740              		.cfi_startproc
 1741              		@ args = 8, pretend = 0, frame = 0
 1742              		@ frame_needed = 0, uses_anonymous_args = 0
 1743              	.LVL165:
ARM GAS  C:\Users\leoja\AppData\Local\Temp\cciPvcJP.s 			page 46


 1744 0000 37B5     		push	{r0, r1, r2, r4, r5, lr}
 1745              		.cfi_def_cfa_offset 24
 1746              		.cfi_offset 0, -24
 1747              		.cfi_offset 1, -20
 1748              		.cfi_offset 2, -16
 1749              		.cfi_offset 4, -12
 1750              		.cfi_offset 5, -8
 1751              		.cfi_offset 14, -4
 689:frucd_display.c ****     disp_gen_temp(data, x1, y1, x2, y2, size);
 1752              		.loc 1 689 0
 1753 0002 06AC     		add	r4, sp, #24
 1754              	.LVL166:
 1755 0004 07AD     		add	r5, sp, #28
 1756              	.LVL167:
 1757 0006 2D78     		ldrb	r5, [r5]
 1758              	.LVL168:
 1759 0008 2488     		ldrh	r4, [r4]
 1760              	.LVL169:
 690:frucd_display.c **** }
 1761              		.loc 1 690 0
 1762 000a 0195     		str	r5, [sp, #4]
 1763 000c 0094     		str	r4, [sp]
 1764 000e FFF7FEFF 		bl	disp_gen_temp
 1765              	.LVL170:
 691:frucd_display.c **** 
 1766              		.loc 1 691 0
 1767              		@ sp needed
 1768 0012 37BD     		pop	{r0, r1, r2, r4, r5, pc}
 1769              		.cfi_endproc
 1770              	.LFE43:
 1771              		.size	disp_motor_temp, .-disp_motor_temp
 1772              		.section	.text.disp_mc_temp,"ax",%progbits
 1773              		.align	1
 1774              		.global	disp_mc_temp
 1775              		.code	16
 1776              		.thumb_func
 1777              		.type	disp_mc_temp, %function
 1778              	disp_mc_temp:
 1779              	.LFB49:
 1780              		.cfi_startproc
 1781              		@ args = 8, pretend = 0, frame = 0
 1782              		@ frame_needed = 0, uses_anonymous_args = 0
 1783 0000 37B5     		push	{r0, r1, r2, r4, r5, lr}
 1784              		.cfi_def_cfa_offset 24
 1785              		.cfi_offset 0, -24
 1786              		.cfi_offset 1, -20
 1787              		.cfi_offset 2, -16
 1788              		.cfi_offset 4, -12
 1789              		.cfi_offset 5, -8
 1790              		.cfi_offset 14, -4
 1791 0002 06AC     		add	r4, sp, #24
 1792 0004 07AD     		add	r5, sp, #28
 1793 0006 2D78     		ldrb	r5, [r5]
 1794 0008 2488     		ldrh	r4, [r4]
 1795 000a 0195     		str	r5, [sp, #4]
 1796 000c 0094     		str	r4, [sp]
 1797 000e FFF7FEFF 		bl	disp_gen_temp
ARM GAS  C:\Users\leoja\AppData\Local\Temp\cciPvcJP.s 			page 47


 1798              		@ sp needed
 1799 0012 37BD     		pop	{r0, r1, r2, r4, r5, pc}
 1800              		.cfi_endproc
 1801              	.LFE49:
 1802              		.size	disp_mc_temp, .-disp_mc_temp
 1803              		.section	.text.disp_gen_voltage,"ax",%progbits
 1804              		.align	1
 1805              		.global	disp_gen_voltage
 1806              		.code	16
 1807              		.thumb_func
 1808              		.type	disp_gen_voltage, %function
 1809              	disp_gen_voltage:
 1810              	.LFB45:
 729:frucd_display.c **** 
 730:frucd_display.c **** void disp_gen_voltage(uint16_t data, uint16_t x1, uint16_t y1, uint16_t x2, uint16_t y2, uint8_t si
 1811              		.loc 1 730 0
 1812              		.cfi_startproc
 1813              		@ args = 8, pretend = 0, frame = 24
 1814              		@ frame_needed = 0, uses_anonymous_args = 0
 1815              	.LVL171:
 1816              		.loc 1 730 0
 1817 0000 F0B5     		push	{r4, r5, r6, r7, lr}
 1818              		.cfi_def_cfa_offset 20
 1819              		.cfi_offset 4, -20
 1820              		.cfi_offset 5, -16
 1821              		.cfi_offset 6, -12
 1822              		.cfi_offset 7, -8
 1823              		.cfi_offset 14, -4
 1824 0002 89B0     		sub	sp, sp, #36
 1825              		.cfi_def_cfa_offset 56
 1826              		.loc 1 730 0
 1827 0004 1D00     		movs	r5, r3
 1828 0006 0EAB     		add	r3, sp, #56
 1829              	.LVL172:
 1830 0008 1E88     		ldrh	r6, [r3]
 1831 000a 0FAB     		add	r3, sp, #60
 1832              	.LVL173:
 1833 000c 1400     		movs	r4, r2
 1834 000e 1A78     		ldrb	r2, [r3]
 1835              	.LVL174:
 731:frucd_display.c ****     int xFont, yFont;
 732:frucd_display.c ****     int horizFontSize = 12 + 20*size;
 733:frucd_display.c ****     int stringSize;
 734:frucd_display.c ****     stringSize = 6;
 735:frucd_display.c ****    
 736:frucd_display.c ****     xFont = (x1 + x2)/2 - ((horizFontSize*stringSize)/2);
 1836              		.loc 1 736 0
 1837 0010 1423     		movs	r3, #20
 1838              	.LVL175:
 730:frucd_display.c ****     int xFont, yFont;
 1839              		.loc 1 730 0
 1840 0012 0391     		str	r1, [sp, #12]
 1841              		.loc 1 736 0
 1842 0014 0621     		movs	r1, #6
 1843              	.LVL176:
 1844 0016 5343     		muls	r3, r2
 1845 0018 0C33     		adds	r3, r3, #12
ARM GAS  C:\Users\leoja\AppData\Local\Temp\cciPvcJP.s 			page 48


 1846              	.LVL177:
 1847 001a 4B43     		muls	r3, r1
 1848              	.LVL178:
 1849 001c 0399     		ldr	r1, [sp, #12]
 730:frucd_display.c ****     int xFont, yFont;
 1850              		.loc 1 730 0
 1851 001e 0700     		movs	r7, r0
 1852              		.loc 1 736 0
 1853 0020 4819     		adds	r0, r1, r5
 1854              	.LVL179:
 737:frucd_display.c ****     yFont = (y1 + y2)/2 - 5 - (size*17);    
 1855              		.loc 1 737 0
 1856 0022 1121     		movs	r1, #17
 736:frucd_display.c ****     yFont = (y1 + y2)/2 - 5 - (size*17);    
 1857              		.loc 1 736 0
 1858 0024 5B10     		asrs	r3, r3, #1
 1859 0026 4010     		asrs	r0, r0, #1
 1860              		.loc 1 737 0
 1861 0028 4942     		rsbs	r1, r1, #0
 736:frucd_display.c ****     yFont = (y1 + y2)/2 - 5 - (size*17);    
 1862              		.loc 1 736 0
 1863 002a C31A     		subs	r3, r0, r3
 1864              		.loc 1 737 0
 1865 002c 5143     		muls	r1, r2
 736:frucd_display.c ****     yFont = (y1 + y2)/2 - 5 - (size*17);    
 1866              		.loc 1 736 0
 1867 002e 0493     		str	r3, [sp, #16]
 1868              	.LVL180:
 1869              		.loc 1 737 0
 1870 0030 A319     		adds	r3, r4, r6
 1871              	.LVL181:
 1872 0032 5B10     		asrs	r3, r3, #1
 1873 0034 053B     		subs	r3, r3, #5
 1874 0036 5B18     		adds	r3, r3, r1
 1875 0038 0593     		str	r3, [sp, #20]
 1876              	.LVL182:
 738:frucd_display.c ****     if(size == 1){
 1877              		.loc 1 738 0
 1878 003a 012A     		cmp	r2, #1
 1879 003c 02D1     		bne	.L99
 739:frucd_display.c ****         UG_FontSelect(&FONT_32X53);
 1880              		.loc 1 739 0
 1881 003e 1D48     		ldr	r0, .L101
 1882 0040 FFF7FEFF 		bl	UG_FontSelect
 1883              	.LVL183:
 1884              	.L99:
 740:frucd_display.c ****         
 741:frucd_display.c ****     }
 742:frucd_display.c ****     UG_FillFrame(x1, y1, x2, y2, C_GREEN);
 1885              		.loc 1 742 0
 1886 0044 6846     		mov	r0, sp
 1887 0046 21B2     		sxth	r1, r4
 1888 0048 0C24     		movs	r4, #12
 1889 004a 005F     		ldrsh	r0, [r0, r4]
 1890 004c FF24     		movs	r4, #255
 1891 004e 2402     		lsls	r4, r4, #8
 1892 0050 33B2     		sxth	r3, r6
ARM GAS  C:\Users\leoja\AppData\Local\Temp\cciPvcJP.s 			page 49


 1893 0052 2AB2     		sxth	r2, r5
 1894 0054 0094     		str	r4, [sp]
 743:frucd_display.c ****     char data_s[7];
 744:frucd_display.c ****     sprintf(data_s, "%d", data);
 1895              		.loc 1 744 0
 1896 0056 06AC     		add	r4, sp, #24
 742:frucd_display.c ****     char data_s[7];
 1897              		.loc 1 742 0
 1898 0058 FFF7FEFF 		bl	UG_FillFrame
 1899              	.LVL184:
 1900              		.loc 1 744 0
 1901 005c 3A00     		movs	r2, r7
 1902 005e 1649     		ldr	r1, .L101+4
 1903 0060 2000     		movs	r0, r4
 1904 0062 FFF7FEFF 		bl	sprintf
 1905              	.LVL185:
 745:frucd_display.c ****     // handle 3 digit cases; 2 and 1 are practically impossible
 746:frucd_display.c ****     if (data < 1000) {
 1906              		.loc 1 746 0
 1907 0066 154B     		ldr	r3, .L101+8
 1908 0068 9F42     		cmp	r7, r3
 1909 006a 07D8     		bhi	.L100
 747:frucd_display.c ****         data_s[3] = data_s[2];
 1910              		.loc 1 747 0
 1911 006c A378     		ldrb	r3, [r4, #2]
 1912 006e E370     		strb	r3, [r4, #3]
 748:frucd_display.c ****         data_s[2] = data_s[1];
 1913              		.loc 1 748 0
 1914 0070 6378     		ldrb	r3, [r4, #1]
 1915 0072 A370     		strb	r3, [r4, #2]
 749:frucd_display.c ****         data_s[1] = data_s[0];  
 1916              		.loc 1 749 0
 1917 0074 2378     		ldrb	r3, [r4]
 1918 0076 6370     		strb	r3, [r4, #1]
 750:frucd_display.c ****         data_s[0] = ' ';
 1919              		.loc 1 750 0
 1920 0078 2023     		movs	r3, #32
 1921 007a 2370     		strb	r3, [r4]
 1922              	.L100:
 751:frucd_display.c ****     }
 752:frucd_display.c ****     // shift over fractional part
 753:frucd_display.c ****     data_s[4] = data_s[3];
 754:frucd_display.c ****     data_s[3] = data_s[2];
 755:frucd_display.c ****     // add syntax
 756:frucd_display.c ****     data_s[2] = '.';
 757:frucd_display.c ****     data_s[5] = 'V';
 758:frucd_display.c ****     data_s[6] = '\0';
 759:frucd_display.c ****     UG_PutColorString(xFont, yFont, data_s, C_BLACK, C_GREEN);
 1923              		.loc 1 759 0
 1924 007c 6A46     		mov	r2, sp
 753:frucd_display.c ****     data_s[3] = data_s[2];
 1925              		.loc 1 753 0
 1926 007e E378     		ldrb	r3, [r4, #3]
 1927              		.loc 1 759 0
 1928 0080 1421     		movs	r1, #20
 1929 0082 515E     		ldrsh	r1, [r2, r1]
 753:frucd_display.c ****     data_s[3] = data_s[2];
ARM GAS  C:\Users\leoja\AppData\Local\Temp\cciPvcJP.s 			page 50


 1930              		.loc 1 753 0
 1931 0084 2371     		strb	r3, [r4, #4]
 754:frucd_display.c ****     // add syntax
 1932              		.loc 1 754 0
 1933 0086 A378     		ldrb	r3, [r4, #2]
 1934              		.loc 1 759 0
 1935 0088 6A46     		mov	r2, sp
 754:frucd_display.c ****     // add syntax
 1936              		.loc 1 754 0
 1937 008a E370     		strb	r3, [r4, #3]
 756:frucd_display.c ****     data_s[5] = 'V';
 1938              		.loc 1 756 0
 1939 008c 2E23     		movs	r3, #46
 1940              		.loc 1 759 0
 1941 008e 1020     		movs	r0, #16
 1942 0090 105E     		ldrsh	r0, [r2, r0]
 756:frucd_display.c ****     data_s[5] = 'V';
 1943              		.loc 1 756 0
 1944 0092 A370     		strb	r3, [r4, #2]
 1945              		.loc 1 759 0
 1946 0094 FF22     		movs	r2, #255
 757:frucd_display.c ****     data_s[6] = '\0';
 1947              		.loc 1 757 0
 1948 0096 2833     		adds	r3, r3, #40
 1949 0098 6371     		strb	r3, [r4, #5]
 758:frucd_display.c ****     UG_PutColorString(xFont, yFont, data_s, C_BLACK, C_GREEN);
 1950              		.loc 1 758 0
 1951 009a 0023     		movs	r3, #0
 1952              		.loc 1 759 0
 1953 009c 1202     		lsls	r2, r2, #8
 758:frucd_display.c ****     UG_PutColorString(xFont, yFont, data_s, C_BLACK, C_GREEN);
 1954              		.loc 1 758 0
 1955 009e A371     		strb	r3, [r4, #6]
 1956              		.loc 1 759 0
 1957 00a0 0092     		str	r2, [sp]
 1958 00a2 2200     		movs	r2, r4
 1959 00a4 FFF7FEFF 		bl	UG_PutColorString
 1960              	.LVL186:
 760:frucd_display.c ****     
 761:frucd_display.c ****     UG_FontSelect(&FONT_12X16);
 1961              		.loc 1 761 0
 1962 00a8 0548     		ldr	r0, .L101+12
 1963 00aa FFF7FEFF 		bl	UG_FontSelect
 1964              	.LVL187:
 762:frucd_display.c **** }
 1965              		.loc 1 762 0
 1966 00ae 09B0     		add	sp, sp, #36
 1967              		@ sp needed
 1968 00b0 F0BD     		pop	{r4, r5, r6, r7, pc}
 1969              	.L102:
 1970 00b2 C046     		.align	2
 1971              	.L101:
 1972 00b4 00000000 		.word	FONT_32X53
 1973 00b8 5D000000 		.word	.LC26
 1974 00bc E7030000 		.word	999
 1975 00c0 00000000 		.word	FONT_12X16
 1976              		.cfi_endproc
ARM GAS  C:\Users\leoja\AppData\Local\Temp\cciPvcJP.s 			page 51


 1977              	.LFE45:
 1978              		.size	disp_gen_voltage, .-disp_gen_voltage
 1979              		.section	.text.disp_shutdown_circuit,"ax",%progbits
 1980              		.align	1
 1981              		.global	disp_shutdown_circuit
 1982              		.code	16
 1983              		.thumb_func
 1984              		.type	disp_shutdown_circuit, %function
 1985              	disp_shutdown_circuit:
 1986              	.LFB46:
 763:frucd_display.c **** 
 764:frucd_display.c **** void disp_shutdown_circuit(uint8_t shutdown_flags, uint16_t x1, uint16_t y1, uint16_t x2, uint16_t 
 1987              		.loc 1 764 0
 1988              		.cfi_startproc
 1989              		@ args = 8, pretend = 0, frame = 16
 1990              		@ frame_needed = 0, uses_anonymous_args = 0
 1991              	.LVL188:
 1992 0000 F0B5     		push	{r4, r5, r6, r7, lr}
 1993              		.cfi_def_cfa_offset 20
 1994              		.cfi_offset 4, -20
 1995              		.cfi_offset 5, -16
 1996              		.cfi_offset 6, -12
 1997              		.cfi_offset 7, -8
 1998              		.cfi_offset 14, -4
 765:frucd_display.c ****     int xFont, yFont;
 766:frucd_display.c ****     int horizFontSize = 12 + 20*size;
 767:frucd_display.c ****     int stringSize;
 768:frucd_display.c ****     stringSize = 10;
 769:frucd_display.c ****     xFont = (x1 + x2)/2 - ((horizFontSize*stringSize)/2);
 1999              		.loc 1 769 0
 2000 0002 1425     		movs	r5, #20
 764:frucd_display.c ****     int xFont, yFont;
 2001              		.loc 1 764 0
 2002 0004 87B0     		sub	sp, sp, #28
 2003              		.cfi_def_cfa_offset 48
 764:frucd_display.c ****     int xFont, yFont;
 2004              		.loc 1 764 0
 2005 0006 0291     		str	r1, [sp, #8]
 2006              		.loc 1 769 0
 2007 0008 0A21     		movs	r1, #10
 2008              	.LVL189:
 764:frucd_display.c ****     int xFont, yFont;
 2009              		.loc 1 764 0
 2010 000a 0493     		str	r3, [sp, #16]
 2011 000c 0CAB     		add	r3, sp, #48
 2012              	.LVL190:
 2013 000e 1B88     		ldrh	r3, [r3]
 2014              	.LVL191:
 2015 0010 0392     		str	r2, [sp, #12]
 2016 0012 0593     		str	r3, [sp, #20]
 2017 0014 0DAB     		add	r3, sp, #52
 2018              	.LVL192:
 2019 0016 1A78     		ldrb	r2, [r3]
 2020              	.LVL193:
 2021 0018 0700     		movs	r7, r0
 2022              		.loc 1 769 0
 2023 001a 5543     		muls	r5, r2
ARM GAS  C:\Users\leoja\AppData\Local\Temp\cciPvcJP.s 			page 52


 2024 001c 0C35     		adds	r5, r5, #12
 2025              	.LVL194:
 2026 001e 4D43     		muls	r5, r1
 2027              	.LVL195:
 2028 0020 0498     		ldr	r0, [sp, #16]
 2029              	.LVL196:
 2030 0022 0299     		ldr	r1, [sp, #8]
 2031 0024 6B10     		asrs	r3, r5, #1
 2032              	.LVL197:
 2033 0026 0D18     		adds	r5, r1, r0
 2034 0028 6D10     		asrs	r5, r5, #1
 2035 002a ED1A     		subs	r5, r5, r3
 2036              	.LVL198:
 770:frucd_display.c ****     yFont = (y1 + y2)/2 - 5 - (size*17);    
 2037              		.loc 1 770 0
 2038 002c 0599     		ldr	r1, [sp, #20]
 2039 002e 039B     		ldr	r3, [sp, #12]
 2040 0030 5E18     		adds	r6, r3, r1
 2041 0032 7610     		asrs	r6, r6, #1
 2042 0034 731F     		subs	r3, r6, #5
 2043 0036 1126     		movs	r6, #17
 2044 0038 7642     		rsbs	r6, r6, #0
 2045 003a 5643     		muls	r6, r2
 2046 003c 9E19     		adds	r6, r3, r6
 2047              	.LVL199:
 771:frucd_display.c ****     if(size == 1){
 2048              		.loc 1 771 0
 2049 003e 012A     		cmp	r2, #1
 2050 0040 02D1     		bne	.L104
 772:frucd_display.c ****         UG_FontSelect(&FONT_32X53);
 2051              		.loc 1 772 0
 2052 0042 6E48     		ldr	r0, .L123
 2053 0044 FFF7FEFF 		bl	UG_FontSelect
 2054              	.LVL200:
 2055              	.L104:
 2056 0048 6D4C     		ldr	r4, .L123+4
 2057 004a 36B2     		sxth	r6, r6
 2058              	.LVL201:
 2059 004c 2DB2     		sxth	r5, r5
 2060              	.LVL202:
 773:frucd_display.c ****         
 774:frucd_display.c ****     }
 775:frucd_display.c ****     UG_COLOR color;
 776:frucd_display.c **** 
 777:frucd_display.c ****     switch(shutdown_flags) {
 2061              		.loc 1 777 0
 2062 004e 042F     		cmp	r7, #4
 2063 0050 5FD0     		beq	.L106
 2064 0052 05D8     		bhi	.L107
 2065 0054 012F     		cmp	r7, #1
 2066 0056 00D1     		bne	.LCB1899
 2067 0058 91E0     		b	.L108	@long jump
 2068              	.LCB1899:
 2069 005a 022F     		cmp	r7, #2
 2070 005c 74D0     		beq	.L109
 2071 005e A9E0     		b	.L105
 2072              	.L107:
ARM GAS  C:\Users\leoja\AppData\Local\Temp\cciPvcJP.s 			page 53


 2073 0060 102F     		cmp	r7, #16
 2074 0062 20D0     		beq	.L110
 2075 0064 202F     		cmp	r7, #32
 2076 0066 03D0     		beq	.L111
 2077 0068 082F     		cmp	r7, #8
 2078 006a 00D0     		beq	.LCB1911
 2079 006c A2E0     		b	.L105	@long jump
 2080              	.LCB1911:
 2081 006e 35E0     		b	.L122
 2082              	.L111:
 2083              	.LVL203:
 778:frucd_display.c ****         case IMD_OK:
 779:frucd_display.c ****             color = C_RED;
 780:frucd_display.c ****             if (color != last_shutdown_color) {
 2084              		.loc 1 780 0
 2085 0070 FF27     		movs	r7, #255
 2086 0072 2368     		ldr	r3, [r4]
 2087 0074 3F04     		lsls	r7, r7, #16
 2088 0076 BB42     		cmp	r3, r7
 2089 0078 0FD0     		beq	.L113
 781:frucd_display.c ****                 // only draw rectangle if color changed
 782:frucd_display.c ****                 UG_FillFrame(x1, y1, x2, y2, color);
 2090              		.loc 1 782 0
 2091 007a 6B46     		mov	r3, sp
 2092 007c 1422     		movs	r2, #20
 2093 007e 9B5E     		ldrsh	r3, [r3, r2]
 2094 0080 9C46     		mov	ip, r3
 2095 0082 6B46     		mov	r3, sp
 2096 0084 1021     		movs	r1, #16
 2097 0086 5A5E     		ldrsh	r2, [r3, r1]
 2098 0088 0C20     		movs	r0, #12
 2099 008a 195E     		ldrsh	r1, [r3, r0]
 2100 008c 0820     		movs	r0, #8
 2101 008e 185E     		ldrsh	r0, [r3, r0]
 2102 0090 0097     		str	r7, [sp]
 2103 0092 6346     		mov	r3, ip
 2104 0094 FFF7FEFF 		bl	UG_FillFrame
 2105              	.LVL204:
 783:frucd_display.c ****                 last_shutdown_color = color;
 2106              		.loc 1 783 0
 2107 0098 2760     		str	r7, [r4]
 2108              	.L113:
 784:frucd_display.c ****             }
 785:frucd_display.c ****             UG_PutColorString(xFont, yFont, "IMD_OK", C_BLACK, color);
 2109              		.loc 1 785 0
 2110 009a FF23     		movs	r3, #255
 2111 009c 1B04     		lsls	r3, r3, #16
 2112 009e 0093     		str	r3, [sp]
 2113 00a0 584A     		ldr	r2, .L123+8
 2114 00a2 0023     		movs	r3, #0
 2115 00a4 A0E0     		b	.L121
 2116              	.LVL205:
 2117              	.L110:
 786:frucd_display.c ****             break;
 787:frucd_display.c ****         case BMS_OK:
 788:frucd_display.c ****             color = C_RED;
 789:frucd_display.c ****             if (color != last_shutdown_color) {
ARM GAS  C:\Users\leoja\AppData\Local\Temp\cciPvcJP.s 			page 54


 2118              		.loc 1 789 0
 2119 00a6 FF27     		movs	r7, #255
 2120 00a8 2368     		ldr	r3, [r4]
 2121 00aa 3F04     		lsls	r7, r7, #16
 2122 00ac BB42     		cmp	r3, r7
 2123 00ae 0FD0     		beq	.L115
 790:frucd_display.c ****                 // only draw rectangle if color changed
 791:frucd_display.c ****                 UG_FillFrame(x1, y1, x2, y2, color);
 2124              		.loc 1 791 0
 2125 00b0 6B46     		mov	r3, sp
 2126 00b2 1422     		movs	r2, #20
 2127 00b4 9B5E     		ldrsh	r3, [r3, r2]
 2128 00b6 9C46     		mov	ip, r3
 2129 00b8 6B46     		mov	r3, sp
 2130 00ba 1021     		movs	r1, #16
 2131 00bc 5A5E     		ldrsh	r2, [r3, r1]
 2132 00be 0C20     		movs	r0, #12
 2133 00c0 195E     		ldrsh	r1, [r3, r0]
 2134 00c2 0820     		movs	r0, #8
 2135 00c4 185E     		ldrsh	r0, [r3, r0]
 2136 00c6 0097     		str	r7, [sp]
 2137 00c8 6346     		mov	r3, ip
 2138 00ca FFF7FEFF 		bl	UG_FillFrame
 2139              	.LVL206:
 792:frucd_display.c ****                 last_shutdown_color = color;
 2140              		.loc 1 792 0
 2141 00ce 2760     		str	r7, [r4]
 2142              	.L115:
 793:frucd_display.c ****             }
 794:frucd_display.c ****             UG_PutColorString(xFont, yFont, "BMS_OK", C_BLACK, color);
 2143              		.loc 1 794 0
 2144 00d0 FF23     		movs	r3, #255
 2145 00d2 1B04     		lsls	r3, r3, #16
 2146 00d4 0093     		str	r3, [sp]
 2147 00d6 4C4A     		ldr	r2, .L123+12
 2148 00d8 0023     		movs	r3, #0
 2149 00da 85E0     		b	.L121
 2150              	.LVL207:
 2151              	.L122:
 795:frucd_display.c ****             break;
 796:frucd_display.c ****         case Shutdown_Final:
 797:frucd_display.c ****             color = C_RED;
 798:frucd_display.c ****             if (color != last_shutdown_color) {
 2152              		.loc 1 798 0
 2153 00dc FF27     		movs	r7, #255
 2154 00de 2368     		ldr	r3, [r4]
 2155 00e0 3F04     		lsls	r7, r7, #16
 2156 00e2 BB42     		cmp	r3, r7
 2157 00e4 0FD0     		beq	.L116
 799:frucd_display.c ****                 // only draw rectangle if color changed
 800:frucd_display.c ****                 UG_FillFrame(x1, y1, x2, y2, color);
 2158              		.loc 1 800 0
 2159 00e6 6B46     		mov	r3, sp
 2160 00e8 1422     		movs	r2, #20
 2161 00ea 9B5E     		ldrsh	r3, [r3, r2]
 2162 00ec 9C46     		mov	ip, r3
 2163 00ee 6B46     		mov	r3, sp
ARM GAS  C:\Users\leoja\AppData\Local\Temp\cciPvcJP.s 			page 55


 2164 00f0 1021     		movs	r1, #16
 2165 00f2 5A5E     		ldrsh	r2, [r3, r1]
 2166 00f4 0C20     		movs	r0, #12
 2167 00f6 195E     		ldrsh	r1, [r3, r0]
 2168 00f8 0820     		movs	r0, #8
 2169 00fa 185E     		ldrsh	r0, [r3, r0]
 2170 00fc 0097     		str	r7, [sp]
 2171 00fe 6346     		mov	r3, ip
 2172 0100 FFF7FEFF 		bl	UG_FillFrame
 2173              	.LVL208:
 801:frucd_display.c ****                 last_shutdown_color = color;
 2174              		.loc 1 801 0
 2175 0104 2760     		str	r7, [r4]
 2176              	.L116:
 802:frucd_display.c ****             }
 803:frucd_display.c ****             UG_PutColorString(xFont, yFont, "Shutdown_Final", C_BLACK, color);
 2177              		.loc 1 803 0
 2178 0106 FF23     		movs	r3, #255
 2179 0108 1B04     		lsls	r3, r3, #16
 2180 010a 0093     		str	r3, [sp]
 2181 010c 3F4A     		ldr	r2, .L123+16
 2182 010e 0023     		movs	r3, #0
 2183 0110 6AE0     		b	.L121
 2184              	.LVL209:
 2185              	.L106:
 804:frucd_display.c ****             break;
 805:frucd_display.c ****         case AIR1:
 806:frucd_display.c ****             color = C_RED;
 807:frucd_display.c ****             if (color != last_shutdown_color) {
 2186              		.loc 1 807 0
 2187 0112 FF27     		movs	r7, #255
 2188 0114 2368     		ldr	r3, [r4]
 2189 0116 3F04     		lsls	r7, r7, #16
 2190 0118 BB42     		cmp	r3, r7
 2191 011a 0FD0     		beq	.L117
 808:frucd_display.c ****                 // only draw rectangle if color changed
 809:frucd_display.c ****                 UG_FillFrame(x1, y1, x2, y2, color);
 2192              		.loc 1 809 0
 2193 011c 6B46     		mov	r3, sp
 2194 011e 1422     		movs	r2, #20
 2195 0120 9B5E     		ldrsh	r3, [r3, r2]
 2196 0122 9C46     		mov	ip, r3
 2197 0124 6B46     		mov	r3, sp
 2198 0126 1021     		movs	r1, #16
 2199 0128 5A5E     		ldrsh	r2, [r3, r1]
 2200 012a 0C20     		movs	r0, #12
 2201 012c 195E     		ldrsh	r1, [r3, r0]
 2202 012e 0820     		movs	r0, #8
 2203 0130 185E     		ldrsh	r0, [r3, r0]
 2204 0132 0097     		str	r7, [sp]
 2205 0134 6346     		mov	r3, ip
 2206 0136 FFF7FEFF 		bl	UG_FillFrame
 2207              	.LVL210:
 810:frucd_display.c ****                 last_shutdown_color = color;
 2208              		.loc 1 810 0
 2209 013a 2760     		str	r7, [r4]
 2210              	.L117:
ARM GAS  C:\Users\leoja\AppData\Local\Temp\cciPvcJP.s 			page 56


 811:frucd_display.c ****             }
 812:frucd_display.c ****             UG_PutColorString(xFont, yFont, "AIR_1", C_BLACK, color);
 2211              		.loc 1 812 0
 2212 013c FF23     		movs	r3, #255
 2213 013e 1B04     		lsls	r3, r3, #16
 2214 0140 0093     		str	r3, [sp]
 2215 0142 334A     		ldr	r2, .L123+20
 2216 0144 0023     		movs	r3, #0
 2217 0146 4FE0     		b	.L121
 2218              	.LVL211:
 2219              	.L109:
 813:frucd_display.c ****             break;
 814:frucd_display.c ****         case AIR2:
 815:frucd_display.c ****             color = C_RED;
 816:frucd_display.c ****             if (color != last_shutdown_color) {
 2220              		.loc 1 816 0
 2221 0148 FF27     		movs	r7, #255
 2222 014a 2368     		ldr	r3, [r4]
 2223 014c 3F04     		lsls	r7, r7, #16
 2224 014e BB42     		cmp	r3, r7
 2225 0150 0FD0     		beq	.L118
 817:frucd_display.c ****                 // only draw rectangle if color changed
 818:frucd_display.c ****                 UG_FillFrame(x1, y1, x2, y2, color);
 2226              		.loc 1 818 0
 2227 0152 6B46     		mov	r3, sp
 2228 0154 1422     		movs	r2, #20
 2229 0156 9B5E     		ldrsh	r3, [r3, r2]
 2230 0158 9C46     		mov	ip, r3
 2231 015a 6B46     		mov	r3, sp
 2232 015c 1021     		movs	r1, #16
 2233 015e 5A5E     		ldrsh	r2, [r3, r1]
 2234 0160 0C20     		movs	r0, #12
 2235 0162 195E     		ldrsh	r1, [r3, r0]
 2236 0164 0820     		movs	r0, #8
 2237 0166 185E     		ldrsh	r0, [r3, r0]
 2238 0168 0097     		str	r7, [sp]
 2239 016a 6346     		mov	r3, ip
 2240 016c FFF7FEFF 		bl	UG_FillFrame
 2241              	.LVL212:
 819:frucd_display.c ****                 last_shutdown_color = color;
 2242              		.loc 1 819 0
 2243 0170 2760     		str	r7, [r4]
 2244              	.L118:
 820:frucd_display.c ****             }
 821:frucd_display.c ****             UG_PutColorString(xFont, yFont, "AIR_2", C_BLACK, color);
 2245              		.loc 1 821 0
 2246 0172 FF23     		movs	r3, #255
 2247 0174 1B04     		lsls	r3, r3, #16
 2248 0176 0093     		str	r3, [sp]
 2249 0178 264A     		ldr	r2, .L123+24
 2250 017a 0023     		movs	r3, #0
 2251 017c 34E0     		b	.L121
 2252              	.LVL213:
 2253              	.L108:
 822:frucd_display.c ****             break;
 823:frucd_display.c ****         case Precharge:
 824:frucd_display.c ****             color = C_RED;
ARM GAS  C:\Users\leoja\AppData\Local\Temp\cciPvcJP.s 			page 57


 825:frucd_display.c ****             if (color != last_shutdown_color) {
 2254              		.loc 1 825 0
 2255 017e FF27     		movs	r7, #255
 2256 0180 2368     		ldr	r3, [r4]
 2257 0182 3F04     		lsls	r7, r7, #16
 2258 0184 BB42     		cmp	r3, r7
 2259 0186 0FD0     		beq	.L119
 826:frucd_display.c ****                 // only draw rectangle if color changed
 827:frucd_display.c ****                 UG_FillFrame(x1, y1, x2, y2, color);
 2260              		.loc 1 827 0
 2261 0188 6B46     		mov	r3, sp
 2262 018a 1422     		movs	r2, #20
 2263 018c 9B5E     		ldrsh	r3, [r3, r2]
 2264 018e 9C46     		mov	ip, r3
 2265 0190 6B46     		mov	r3, sp
 2266 0192 1021     		movs	r1, #16
 2267 0194 5A5E     		ldrsh	r2, [r3, r1]
 2268 0196 0C20     		movs	r0, #12
 2269 0198 195E     		ldrsh	r1, [r3, r0]
 2270 019a 0820     		movs	r0, #8
 2271 019c 185E     		ldrsh	r0, [r3, r0]
 2272 019e 0097     		str	r7, [sp]
 2273 01a0 6346     		mov	r3, ip
 2274 01a2 FFF7FEFF 		bl	UG_FillFrame
 2275              	.LVL214:
 828:frucd_display.c ****                 last_shutdown_color = color;
 2276              		.loc 1 828 0
 2277 01a6 2760     		str	r7, [r4]
 2278              	.L119:
 829:frucd_display.c ****             }
 830:frucd_display.c ****             UG_PutColorString(xFont, yFont, "Precharge", C_BLACK, color);
 2279              		.loc 1 830 0
 2280 01a8 FF23     		movs	r3, #255
 2281 01aa 1B04     		lsls	r3, r3, #16
 2282 01ac 0093     		str	r3, [sp]
 2283 01ae 1A4A     		ldr	r2, .L123+28
 2284 01b0 0023     		movs	r3, #0
 2285 01b2 19E0     		b	.L121
 2286              	.LVL215:
 2287              	.L105:
 831:frucd_display.c ****             break;
 832:frucd_display.c ****         default:
 833:frucd_display.c ****             color = C_GREEN;
 834:frucd_display.c ****             if (color != last_shutdown_color) {
 2288              		.loc 1 834 0
 2289 01b4 FF27     		movs	r7, #255
 2290 01b6 2368     		ldr	r3, [r4]
 2291 01b8 3F02     		lsls	r7, r7, #8
 2292 01ba BB42     		cmp	r3, r7
 2293 01bc 0FD0     		beq	.L120
 835:frucd_display.c ****                 // only draw rectangle if color changed
 836:frucd_display.c ****                 UG_FillFrame(x1, y1, x2, y2, color);
 2294              		.loc 1 836 0
 2295 01be 6B46     		mov	r3, sp
 2296 01c0 1422     		movs	r2, #20
 2297 01c2 9B5E     		ldrsh	r3, [r3, r2]
 2298 01c4 9C46     		mov	ip, r3
ARM GAS  C:\Users\leoja\AppData\Local\Temp\cciPvcJP.s 			page 58


 2299 01c6 6B46     		mov	r3, sp
 2300 01c8 1021     		movs	r1, #16
 2301 01ca 5A5E     		ldrsh	r2, [r3, r1]
 2302 01cc 0C20     		movs	r0, #12
 2303 01ce 195E     		ldrsh	r1, [r3, r0]
 2304 01d0 0820     		movs	r0, #8
 2305 01d2 185E     		ldrsh	r0, [r3, r0]
 2306 01d4 0097     		str	r7, [sp]
 2307 01d6 6346     		mov	r3, ip
 2308 01d8 FFF7FEFF 		bl	UG_FillFrame
 2309              	.LVL216:
 837:frucd_display.c ****                 last_shutdown_color = color;
 2310              		.loc 1 837 0
 2311 01dc 2760     		str	r7, [r4]
 2312              	.L120:
 838:frucd_display.c ****             }
 839:frucd_display.c ****             UG_PutColorString(xFont, yFont, "None", C_BLACK, color);
 2313              		.loc 1 839 0
 2314 01de FF23     		movs	r3, #255
 2315 01e0 1B02     		lsls	r3, r3, #8
 2316 01e2 0093     		str	r3, [sp]
 2317 01e4 0023     		movs	r3, #0
 2318 01e6 0D4A     		ldr	r2, .L123+32
 2319              	.LVL217:
 2320              	.L121:
 2321 01e8 3100     		movs	r1, r6
 2322 01ea 2800     		movs	r0, r5
 2323 01ec FFF7FEFF 		bl	UG_PutColorString
 2324              	.LVL218:
 840:frucd_display.c ****             break;
 841:frucd_display.c ****     }
 842:frucd_display.c ****     
 843:frucd_display.c ****     UG_FontSelect(&FONT_12X16);
 2325              		.loc 1 843 0
 2326 01f0 0B48     		ldr	r0, .L123+36
 2327 01f2 FFF7FEFF 		bl	UG_FontSelect
 2328              	.LVL219:
 844:frucd_display.c **** }
 2329              		.loc 1 844 0
 2330 01f6 07B0     		add	sp, sp, #28
 2331              		@ sp needed
 2332 01f8 F0BD     		pop	{r4, r5, r6, r7, pc}
 2333              	.L124:
 2334 01fa C046     		.align	2
 2335              	.L123:
 2336 01fc 00000000 		.word	FONT_32X53
 2337 0200 00000000 		.word	last_shutdown_color
 2338 0204 0A010000 		.word	.LC80
 2339 0208 11010000 		.word	.LC82
 2340 020c 18010000 		.word	.LC84
 2341 0210 27010000 		.word	.LC86
 2342 0214 2D010000 		.word	.LC88
 2343 0218 33010000 		.word	.LC90
 2344 021c 3D010000 		.word	.LC92
 2345 0220 00000000 		.word	FONT_12X16
 2346              		.cfi_endproc
 2347              	.LFE46:
ARM GAS  C:\Users\leoja\AppData\Local\Temp\cciPvcJP.s 			page 59


 2348              		.size	disp_shutdown_circuit, .-disp_shutdown_circuit
 2349              		.section	.text.disp_debug,"ax",%progbits
 2350              		.align	1
 2351              		.global	disp_debug
 2352              		.code	16
 2353              		.thumb_func
 2354              		.type	disp_debug, %function
 2355              	disp_debug:
 2356              	.LFB47:
 845:frucd_display.c **** 
 846:frucd_display.c **** void disp_debug(uint16_t data, uint16_t x1, uint16_t y1, uint16_t x2, uint16_t y2, uint8_t size) {
 2357              		.loc 1 846 0
 2358              		.cfi_startproc
 2359              		@ args = 8, pretend = 0, frame = 32
 2360              		@ frame_needed = 0, uses_anonymous_args = 0
 2361              	.LVL220:
 2362 0000 F0B5     		push	{r4, r5, r6, r7, lr}
 2363              		.cfi_def_cfa_offset 20
 2364              		.cfi_offset 4, -20
 2365              		.cfi_offset 5, -16
 2366              		.cfi_offset 6, -12
 2367              		.cfi_offset 7, -8
 2368              		.cfi_offset 14, -4
 2369 0002 8BB0     		sub	sp, sp, #44
 2370              		.cfi_def_cfa_offset 64
 2371              		.loc 1 846 0
 2372 0004 1F00     		movs	r7, r3
 2373 0006 10AB     		add	r3, sp, #64
 2374              	.LVL221:
 2375 0008 1E88     		ldrh	r6, [r3]
 2376 000a 11AB     		add	r3, sp, #68
 2377              	.LVL222:
 2378 000c 1500     		movs	r5, r2
 2379 000e 1A78     		ldrb	r2, [r3]
 2380              	.LVL223:
 847:frucd_display.c ****     int xFont, yFont;
 848:frucd_display.c ****     int horizFontSize = 12 + 20*size;
 849:frucd_display.c ****     int stringSize;
 850:frucd_display.c ****     stringSize = 10;
 851:frucd_display.c ****     xFont = (x1 + x2)/2 - ((horizFontSize*stringSize)/2);
 2381              		.loc 1 851 0
 2382 0010 1423     		movs	r3, #20
 2383              	.LVL224:
 846:frucd_display.c ****     int xFont, yFont;
 2384              		.loc 1 846 0
 2385 0012 0C00     		movs	r4, r1
 2386              		.loc 1 851 0
 2387 0014 0A21     		movs	r1, #10
 2388              	.LVL225:
 2389 0016 5343     		muls	r3, r2
 2390 0018 0C33     		adds	r3, r3, #12
 2391              	.LVL226:
 2392 001a 4B43     		muls	r3, r1
 2393              	.LVL227:
 846:frucd_display.c ****     int xFont, yFont;
 2394              		.loc 1 846 0
 2395 001c 0590     		str	r0, [sp, #20]
ARM GAS  C:\Users\leoja\AppData\Local\Temp\cciPvcJP.s 			page 60


 2396              		.loc 1 851 0
 2397 001e E019     		adds	r0, r4, r7
 2398              	.LVL228:
 2399 0020 5B10     		asrs	r3, r3, #1
 2400 0022 4010     		asrs	r0, r0, #1
 852:frucd_display.c ****     yFont = (y1 + y2)/2 - 5 - (size*17);    
 2401              		.loc 1 852 0
 2402 0024 1B39     		subs	r1, r1, #27
 851:frucd_display.c ****     yFont = (y1 + y2)/2 - 5 - (size*17);    
 2403              		.loc 1 851 0
 2404 0026 C31A     		subs	r3, r0, r3
 2405              		.loc 1 852 0
 2406 0028 5143     		muls	r1, r2
 851:frucd_display.c ****     yFont = (y1 + y2)/2 - 5 - (size*17);    
 2407              		.loc 1 851 0
 2408 002a 0393     		str	r3, [sp, #12]
 2409              	.LVL229:
 2410              		.loc 1 852 0
 2411 002c AB19     		adds	r3, r5, r6
 2412              	.LVL230:
 2413 002e 5B10     		asrs	r3, r3, #1
 2414 0030 053B     		subs	r3, r3, #5
 2415 0032 5B18     		adds	r3, r3, r1
 2416 0034 0493     		str	r3, [sp, #16]
 2417              	.LVL231:
 853:frucd_display.c ****     if(size == 1){
 2418              		.loc 1 853 0
 2419 0036 012A     		cmp	r2, #1
 2420 0038 02D1     		bne	.L126
 854:frucd_display.c ****         UG_FontSelect(&FONT_32X53);
 2421              		.loc 1 854 0
 2422 003a 1048     		ldr	r0, .L127
 2423 003c FFF7FEFF 		bl	UG_FontSelect
 2424              	.LVL232:
 2425              	.L126:
 855:frucd_display.c ****     }
 856:frucd_display.c ****     
 857:frucd_display.c ****     // choose color
 858:frucd_display.c ****     UG_COLOR color = C_GREEN_YELLOW;
 859:frucd_display.c **** 
 860:frucd_display.c ****     char data_s[10];
 861:frucd_display.c ****     sprintf(data_s, "%d", data);
 2426              		.loc 1 861 0
 2427 0040 059A     		ldr	r2, [sp, #20]
 2428 0042 0F49     		ldr	r1, .L127+4
 2429 0044 07A8     		add	r0, sp, #28
 2430 0046 FFF7FEFF 		bl	sprintf
 2431              	.LVL233:
 862:frucd_display.c ****     UG_FillFrame(x1, y1, x2, y2, color);
 2432              		.loc 1 862 0
 2433 004a 3AB2     		sxth	r2, r7
 2434 004c 0D4F     		ldr	r7, .L127+8
 2435 004e 33B2     		sxth	r3, r6
 2436 0050 29B2     		sxth	r1, r5
 2437 0052 20B2     		sxth	r0, r4
 2438 0054 0097     		str	r7, [sp]
 2439 0056 FFF7FEFF 		bl	UG_FillFrame
ARM GAS  C:\Users\leoja\AppData\Local\Temp\cciPvcJP.s 			page 61


 2440              	.LVL234:
 863:frucd_display.c ****     UG_PutColorString(xFont, yFont, data_s, C_BLACK, color);
 2441              		.loc 1 863 0
 2442 005a 6B46     		mov	r3, sp
 2443 005c 1021     		movs	r1, #16
 2444 005e 595E     		ldrsh	r1, [r3, r1]
 2445 0060 6B46     		mov	r3, sp
 2446 0062 07AA     		add	r2, sp, #28
 2447 0064 0C20     		movs	r0, #12
 2448 0066 185E     		ldrsh	r0, [r3, r0]
 2449 0068 0023     		movs	r3, #0
 2450 006a 0097     		str	r7, [sp]
 2451 006c FFF7FEFF 		bl	UG_PutColorString
 2452              	.LVL235:
 864:frucd_display.c ****     UG_FontSelect(&FONT_12X16);
 2453              		.loc 1 864 0
 2454 0070 0548     		ldr	r0, .L127+12
 2455 0072 FFF7FEFF 		bl	UG_FontSelect
 2456              	.LVL236:
 865:frucd_display.c **** }
 2457              		.loc 1 865 0
 2458 0076 0BB0     		add	sp, sp, #44
 2459              		@ sp needed
 2460 0078 F0BD     		pop	{r4, r5, r6, r7, pc}
 2461              	.L128:
 2462 007a C046     		.align	2
 2463              	.L127:
 2464 007c 00000000 		.word	FONT_32X53
 2465 0080 5D000000 		.word	.LC26
 2466 0084 2FFFAD00 		.word	11403055
 2467 0088 00000000 		.word	FONT_12X16
 2468              		.cfi_endproc
 2469              	.LFE47:
 2470              		.size	disp_debug, .-disp_debug
 2471              		.comm	last_shutdown_color,4,4
 2472              		.comm	last_motor_temp_color,4,4
 2473              		.comm	last_mc_temp_color,4,4
 2474              		.comm	last_glv_v_color,4,4
 2475              		.comm	last_state_color,4,4
 2476              		.comm	last_max_pack_temp_color,4,4
 2477              		.comm	last_SOC_color,4,4
 2478              		.comm	gui1963,120,4
 2479              		.section	.rodata.str1.1,"aMS",%progbits,1
 2480              	.LC0:
 2481 0000 5041434B 		.ascii	"PACK SOC:\000"
 2481      20534F43 
 2481      3A00
 2482              	.LC2:
 2483 000a 4D415820 		.ascii	"MAX PACK T:\000"
 2483      5041434B 
 2483      20543A00 
 2484              	.LC4:
 2485 0016 53544154 		.ascii	"STATE:\000"
 2485      453A00
 2486              	.LC6:
 2487 001d 4D432054 		.ascii	"MC T:\000"
 2487      3A00
ARM GAS  C:\Users\leoja\AppData\Local\Temp\cciPvcJP.s 			page 62


 2488              	.LC8:
 2489 0023 474C5620 		.ascii	"GLV V:\000"
 2489      563A00
 2490              	.LC10:
 2491 002a 4D4F544F 		.ascii	"MOTOR T:\000"
 2491      5220543A 
 2491      00
 2492              	.LC12:
 2493 0033 53485554 		.ascii	"SHUTDOWN:\000"
 2493      444F574E 
 2493      3A00
 2494              	.LC14:
 2495 003d 44454255 		.ascii	"DEBUG:\000"
 2495      473A00
 2496              	.LC16:
 2497 0044 5041434B 		.ascii	"PACK SOC\000"
 2497      20534F43 
 2497      00
 2498              	.LC18:
 2499 004d 4D415820 		.ascii	"MAX PACK T\000"
 2499      5041434B 
 2499      205400
 2500              	.LC24:
 2501 0058 31303025 		.ascii	"100%\000"
 2501      00
 2502              	.LC26:
 2503 005d 256400   		.ascii	"%d\000"
 2504              	.LC31:
 2505 0060 25642043 		.ascii	"%d C\000"
 2505      00
 2506              	.LC36:
 2507 0065 20535441 		.ascii	" STARTUP  \000"
 2507      52545550 
 2507      202000
 2508              	.LC38:
 2509 0070 44525620 		.ascii	"DRV FRM LV\000"
 2509      46524D20 
 2509      4C5600
 2510              	.LC40:
 2511 007b 50524520 		.ascii	"PRE TM OUT\000"
 2511      544D204F 
 2511      555400
 2512              	.LC42:
 2513 0086 4252204E 		.ascii	"BR NOT PRS\000"
 2513      4F542050 
 2513      525300
 2514              	.LC44:
 2515 0091 4856204F 		.ascii	"HV OFF DRV\000"
 2515      46462044 
 2515      525600
 2516              	.LC46:
 2517 009c 534E5352 		.ascii	"SNSR DSCRP\000"
 2517      20445343 
 2517      525000
 2518              	.LC48:
 2519 00a7 42535044 		.ascii	"BSPD TRIPD\000"
 2519      20545249 
ARM GAS  C:\Users\leoja\AppData\Local\Temp\cciPvcJP.s 			page 63


 2519      504400
 2520              	.LC50:
 2521 00b2 53485444 		.ascii	"SHTDWN OPN\000"
 2521      574E204F 
 2521      504E00
 2522              	.LC52:
 2523 00bd 554E4341 		.ascii	"UNCALIBRTD\000"
 2523      4C494252 
 2523      544400
 2524              	.LC54:
 2525 00c8 48415244 		.ascii	"HARD BSPD\000"
 2525      20425350 
 2525      4400
 2526              	.LC56:
 2527 00d2 594F2057 		.ascii	"YO WTF?\000"
 2527      54463F00 
 2528              	.LC58:
 2529 00da 20202020 		.ascii	"    LV    \000"
 2529      4C562020 
 2529      202000
 2530              	.LC60:
 2531 00e5 50524543 		.ascii	"PRECHARGE \000"
 2531      48415247 
 2531      452000
 2532              	.LC62:
 2533 00f0 48562045 		.ascii	"HV ENABLED\000"
 2533      4E41424C 
 2533      454400
 2534              	.LC64:
 2535 00fb 20204452 		.ascii	"  DRIVE   \000"
 2535      49564520 
 2535      202000
 2536              	.LC69:
 2537 0106 256C7500 		.ascii	"%lu\000"
 2538              	.LC80:
 2539 010a 494D445F 		.ascii	"IMD_OK\000"
 2539      4F4B00
 2540              	.LC82:
 2541 0111 424D535F 		.ascii	"BMS_OK\000"
 2541      4F4B00
 2542              	.LC84:
 2543 0118 53687574 		.ascii	"Shutdown_Final\000"
 2543      646F776E 
 2543      5F46696E 
 2543      616C00
 2544              	.LC86:
 2545 0127 4149525F 		.ascii	"AIR_1\000"
 2545      3100
 2546              	.LC88:
 2547 012d 4149525F 		.ascii	"AIR_2\000"
 2547      3200
 2548              	.LC90:
 2549 0133 50726563 		.ascii	"Precharge\000"
 2549      68617267 
 2549      6500
 2550              	.LC92:
 2551 013d 4E6F6E65 		.ascii	"None\000"
ARM GAS  C:\Users\leoja\AppData\Local\Temp\cciPvcJP.s 			page 64


 2551      00
 2552              		.text
 2553              	.Letext0:
 2554              		.file 2 "c:\\program files (x86)\\cypress\\psoc creator\\4.4\\psoc creator\\import\\gnu\\arm\\5.4.
 2555              		.file 3 "c:\\program files (x86)\\cypress\\psoc creator\\4.4\\psoc creator\\import\\gnu\\arm\\5.4.
 2556              		.file 4 "Generated_Source\\PSoC4/cytypes.h"
 2557              		.file 5 "data.h"
 2558              		.file 6 "ugui_config.h"
 2559              		.file 7 "ugui.h"
 2560              		.file 8 "ugui_SSD1963.h"
 2561              		.file 9 "frucd_display.h"
 2562              		.file 10 "Generated_Source\\PSoC4/CyLib.h"
 2563              		.file 11 "c:\\program files (x86)\\cypress\\psoc creator\\4.4\\psoc creator\\import\\gnu\\arm\\5.4
 2564              		.section	.debug_info,"",%progbits
 2565              	.Ldebug_info0:
 2566 0000 3A1A0000 		.4byte	0x1a3a
 2567 0004 0400     		.2byte	0x4
 2568 0006 00000000 		.4byte	.Ldebug_abbrev0
 2569 000a 04       		.byte	0x4
 2570 000b 01       		.uleb128 0x1
 2571 000c 9C050000 		.4byte	.LASF146
 2572 0010 0C       		.byte	0xc
 2573 0011 9D060000 		.4byte	.LASF147
 2574 0015 E0000000 		.4byte	.LASF148
 2575 0019 18000000 		.4byte	.Ldebug_ranges0+0x18
 2576 001d 00000000 		.4byte	0
 2577 0021 00000000 		.4byte	.Ldebug_line0
 2578 0025 02       		.uleb128 0x2
 2579 0026 22040000 		.4byte	.LASF0
 2580 002a 02       		.byte	0x2
 2581 002b 1B       		.byte	0x1b
 2582 002c 30000000 		.4byte	0x30
 2583 0030 03       		.uleb128 0x3
 2584 0031 01       		.byte	0x1
 2585 0032 06       		.byte	0x6
 2586 0033 7E060000 		.4byte	.LASF2
 2587 0037 02       		.uleb128 0x2
 2588 0038 D8040000 		.4byte	.LASF1
 2589 003c 02       		.byte	0x2
 2590 003d 1D       		.byte	0x1d
 2591 003e 42000000 		.4byte	0x42
 2592 0042 03       		.uleb128 0x3
 2593 0043 01       		.byte	0x1
 2594 0044 08       		.byte	0x8
 2595 0045 5F050000 		.4byte	.LASF3
 2596 0049 02       		.uleb128 0x2
 2597 004a C8030000 		.4byte	.LASF4
 2598 004e 02       		.byte	0x2
 2599 004f 29       		.byte	0x29
 2600 0050 54000000 		.4byte	0x54
 2601 0054 03       		.uleb128 0x3
 2602 0055 02       		.byte	0x2
 2603 0056 05       		.byte	0x5
 2604 0057 89040000 		.4byte	.LASF5
 2605 005b 02       		.uleb128 0x2
 2606 005c D8010000 		.4byte	.LASF6
 2607 0060 02       		.byte	0x2
ARM GAS  C:\Users\leoja\AppData\Local\Temp\cciPvcJP.s 			page 65


 2608 0061 2B       		.byte	0x2b
 2609 0062 66000000 		.4byte	0x66
 2610 0066 03       		.uleb128 0x3
 2611 0067 02       		.byte	0x2
 2612 0068 07       		.byte	0x7
 2613 0069 8A060000 		.4byte	.LASF7
 2614 006d 03       		.uleb128 0x3
 2615 006e 04       		.byte	0x4
 2616 006f 05       		.byte	0x5
 2617 0070 A4040000 		.4byte	.LASF8
 2618 0074 02       		.uleb128 0x2
 2619 0075 6D050000 		.4byte	.LASF9
 2620 0079 02       		.byte	0x2
 2621 007a 41       		.byte	0x41
 2622 007b 7F000000 		.4byte	0x7f
 2623 007f 03       		.uleb128 0x3
 2624 0080 04       		.byte	0x4
 2625 0081 07       		.byte	0x7
 2626 0082 F6040000 		.4byte	.LASF10
 2627 0086 03       		.uleb128 0x3
 2628 0087 08       		.byte	0x8
 2629 0088 05       		.byte	0x5
 2630 0089 A1030000 		.4byte	.LASF11
 2631 008d 03       		.uleb128 0x3
 2632 008e 08       		.byte	0x8
 2633 008f 07       		.byte	0x7
 2634 0090 B1010000 		.4byte	.LASF12
 2635 0094 04       		.uleb128 0x4
 2636 0095 04       		.byte	0x4
 2637 0096 05       		.byte	0x5
 2638 0097 696E7400 		.ascii	"int\000"
 2639 009b 03       		.uleb128 0x3
 2640 009c 04       		.byte	0x4
 2641 009d 07       		.byte	0x7
 2642 009e 4F000000 		.4byte	.LASF13
 2643 00a2 02       		.uleb128 0x2
 2644 00a3 61010000 		.4byte	.LASF14
 2645 00a7 03       		.byte	0x3
 2646 00a8 14       		.byte	0x14
 2647 00a9 25000000 		.4byte	0x25
 2648 00ad 02       		.uleb128 0x2
 2649 00ae 76030000 		.4byte	.LASF15
 2650 00b2 03       		.byte	0x3
 2651 00b3 18       		.byte	0x18
 2652 00b4 37000000 		.4byte	0x37
 2653 00b8 02       		.uleb128 0x2
 2654 00b9 9E010000 		.4byte	.LASF16
 2655 00bd 03       		.byte	0x3
 2656 00be 20       		.byte	0x20
 2657 00bf 49000000 		.4byte	0x49
 2658 00c3 02       		.uleb128 0x2
 2659 00c4 53040000 		.4byte	.LASF17
 2660 00c8 03       		.byte	0x3
 2661 00c9 24       		.byte	0x24
 2662 00ca 5B000000 		.4byte	0x5b
 2663 00ce 02       		.uleb128 0x2
 2664 00cf 58010000 		.4byte	.LASF18
ARM GAS  C:\Users\leoja\AppData\Local\Temp\cciPvcJP.s 			page 66


 2665 00d3 03       		.byte	0x3
 2666 00d4 30       		.byte	0x30
 2667 00d5 74000000 		.4byte	0x74
 2668 00d9 05       		.uleb128 0x5
 2669 00da AD060000 		.4byte	.LASF19
 2670 00de 04       		.byte	0x4
 2671 00df FC01     		.2byte	0x1fc
 2672 00e1 42000000 		.4byte	0x42
 2673 00e5 03       		.uleb128 0x3
 2674 00e6 04       		.byte	0x4
 2675 00e7 04       		.byte	0x4
 2676 00e8 75010000 		.4byte	.LASF20
 2677 00ec 03       		.uleb128 0x3
 2678 00ed 08       		.byte	0x8
 2679 00ee 04       		.byte	0x4
 2680 00ef B3060000 		.4byte	.LASF21
 2681 00f3 03       		.uleb128 0x3
 2682 00f4 01       		.byte	0x1
 2683 00f5 08       		.byte	0x8
 2684 00f6 1C030000 		.4byte	.LASF22
 2685 00fa 03       		.uleb128 0x3
 2686 00fb 08       		.byte	0x8
 2687 00fc 04       		.byte	0x4
 2688 00fd 3F040000 		.4byte	.LASF23
 2689 0101 03       		.uleb128 0x3
 2690 0102 04       		.byte	0x4
 2691 0103 07       		.byte	0x7
 2692 0104 ED040000 		.4byte	.LASF24
 2693 0108 06       		.uleb128 0x6
 2694 0109 04       		.byte	0x4
 2695 010a 07       		.uleb128 0x7
 2696 010b 04       		.byte	0x4
 2697 010c F3000000 		.4byte	0xf3
 2698 0110 07       		.uleb128 0x7
 2699 0111 04       		.byte	0x4
 2700 0112 42000000 		.4byte	0x42
 2701 0116 08       		.uleb128 0x8
 2702 0117 01       		.byte	0x1
 2703 0118 42000000 		.4byte	0x42
 2704 011c 05       		.byte	0x5
 2705 011d 09       		.byte	0x9
 2706 011e 40010000 		.4byte	0x140
 2707 0122 09       		.uleb128 0x9
 2708 0123 4C5600   		.ascii	"LV\000"
 2709 0126 00       		.byte	0
 2710 0127 0A       		.uleb128 0xa
 2711 0128 10040000 		.4byte	.LASF25
 2712 012c 01       		.byte	0x1
 2713 012d 0A       		.uleb128 0xa
 2714 012e 01030000 		.4byte	.LASF26
 2715 0132 02       		.byte	0x2
 2716 0133 0A       		.uleb128 0xa
 2717 0134 98010000 		.4byte	.LASF27
 2718 0138 03       		.byte	0x3
 2719 0139 0A       		.uleb128 0xa
 2720 013a 96050000 		.4byte	.LASF28
 2721 013e 80       		.byte	0x80
ARM GAS  C:\Users\leoja\AppData\Local\Temp\cciPvcJP.s 			page 67


 2722 013f 00       		.byte	0
 2723 0140 08       		.uleb128 0x8
 2724 0141 01       		.byte	0x1
 2725 0142 42000000 		.4byte	0x42
 2726 0146 05       		.byte	0x5
 2727 0147 11       		.byte	0x11
 2728 0148 89010000 		.4byte	0x189
 2729 014c 0A       		.uleb128 0xa
 2730 014d 69000000 		.4byte	.LASF29
 2731 0151 00       		.byte	0
 2732 0152 0A       		.uleb128 0xa
 2733 0153 C8060000 		.4byte	.LASF30
 2734 0157 01       		.byte	0x1
 2735 0158 0A       		.uleb128 0xa
 2736 0159 21030000 		.4byte	.LASF31
 2737 015d 02       		.byte	0x2
 2738 015e 0A       		.uleb128 0xa
 2739 015f 3C020000 		.4byte	.LASF32
 2740 0163 03       		.byte	0x3
 2741 0164 0A       		.uleb128 0xa
 2742 0165 8C020000 		.4byte	.LASF33
 2743 0169 04       		.byte	0x4
 2744 016a 0A       		.uleb128 0xa
 2745 016b 94000000 		.4byte	.LASF34
 2746 016f 05       		.byte	0x5
 2747 0170 0A       		.uleb128 0xa
 2748 0171 C1000000 		.4byte	.LASF35
 2749 0175 06       		.byte	0x6
 2750 0176 0A       		.uleb128 0xa
 2751 0177 EB020000 		.4byte	.LASF36
 2752 017b 07       		.byte	0x7
 2753 017c 0A       		.uleb128 0xa
 2754 017d B4000000 		.4byte	.LASF37
 2755 0181 08       		.byte	0x8
 2756 0182 0A       		.uleb128 0xa
 2757 0183 C0020000 		.4byte	.LASF38
 2758 0187 09       		.byte	0x9
 2759 0188 00       		.byte	0
 2760 0189 08       		.uleb128 0x8
 2761 018a 01       		.byte	0x1
 2762 018b 42000000 		.4byte	0x42
 2763 018f 05       		.byte	0x5
 2764 0190 1E       		.byte	0x1e
 2765 0191 BA010000 		.4byte	0x1ba
 2766 0195 0A       		.uleb128 0xa
 2767 0196 1E000000 		.4byte	.LASF39
 2768 019a 20       		.byte	0x20
 2769 019b 0A       		.uleb128 0xa
 2770 019c 21050000 		.4byte	.LASF40
 2771 01a0 10       		.byte	0x10
 2772 01a1 0A       		.uleb128 0xa
 2773 01a2 85000000 		.4byte	.LASF41
 2774 01a6 08       		.byte	0x8
 2775 01a7 0A       		.uleb128 0xa
 2776 01a8 6C030000 		.4byte	.LASF42
 2777 01ac 04       		.byte	0x4
 2778 01ad 0A       		.uleb128 0xa
ARM GAS  C:\Users\leoja\AppData\Local\Temp\cciPvcJP.s 			page 68


 2779 01ae 71030000 		.4byte	.LASF43
 2780 01b2 02       		.byte	0x2
 2781 01b3 0A       		.uleb128 0xa
 2782 01b4 8B030000 		.4byte	.LASF44
 2783 01b8 01       		.byte	0x1
 2784 01b9 00       		.byte	0
 2785 01ba 02       		.uleb128 0x2
 2786 01bb 1C040000 		.4byte	.LASF45
 2787 01bf 06       		.byte	0x6
 2788 01c0 26       		.byte	0x26
 2789 01c1 AD000000 		.4byte	0xad
 2790 01c5 02       		.uleb128 0x2
 2791 01c6 95030000 		.4byte	.LASF46
 2792 01ca 06       		.byte	0x6
 2793 01cb 27       		.byte	0x27
 2794 01cc A2000000 		.4byte	0xa2
 2795 01d0 02       		.uleb128 0x2
 2796 01d1 48000000 		.4byte	.LASF47
 2797 01d5 06       		.byte	0x6
 2798 01d6 28       		.byte	0x28
 2799 01d7 C3000000 		.4byte	0xc3
 2800 01db 02       		.uleb128 0x2
 2801 01dc F8010000 		.4byte	.LASF48
 2802 01e0 06       		.byte	0x6
 2803 01e1 29       		.byte	0x29
 2804 01e2 B8000000 		.4byte	0xb8
 2805 01e6 02       		.uleb128 0x2
 2806 01e7 68010000 		.4byte	.LASF49
 2807 01eb 06       		.byte	0x6
 2808 01ec 2A       		.byte	0x2a
 2809 01ed CE000000 		.4byte	0xce
 2810 01f1 08       		.uleb128 0x8
 2811 01f2 01       		.byte	0x1
 2812 01f3 42000000 		.4byte	0x42
 2813 01f7 07       		.byte	0x7
 2814 01f8 1F       		.byte	0x1f
 2815 01f9 0A020000 		.4byte	0x20a
 2816 01fd 0A       		.uleb128 0xa
 2817 01fe F9060000 		.4byte	.LASF50
 2818 0202 00       		.byte	0
 2819 0203 0A       		.uleb128 0xa
 2820 0204 0F000000 		.4byte	.LASF51
 2821 0208 01       		.byte	0x1
 2822 0209 00       		.byte	0
 2823 020a 02       		.uleb128 0x2
 2824 020b 4A030000 		.4byte	.LASF52
 2825 020f 07       		.byte	0x7
 2826 0210 22       		.byte	0x22
 2827 0211 F1010000 		.4byte	0x1f1
 2828 0215 0B       		.uleb128 0xb
 2829 0216 14       		.byte	0x14
 2830 0217 07       		.byte	0x7
 2831 0218 24       		.byte	0x24
 2832 0219 70020000 		.4byte	0x270
 2833 021d 0C       		.uleb128 0xc
 2834 021e 7000     		.ascii	"p\000"
 2835 0220 07       		.byte	0x7
ARM GAS  C:\Users\leoja\AppData\Local\Temp\cciPvcJP.s 			page 69


 2836 0221 26       		.byte	0x26
 2837 0222 10010000 		.4byte	0x110
 2838 0226 00       		.byte	0
 2839 0227 0D       		.uleb128 0xd
 2840 0228 40030000 		.4byte	.LASF53
 2841 022c 07       		.byte	0x7
 2842 022d 27       		.byte	0x27
 2843 022e 0A020000 		.4byte	0x20a
 2844 0232 04       		.byte	0x4
 2845 0233 0D       		.uleb128 0xd
 2846 0234 81020000 		.4byte	.LASF54
 2847 0238 07       		.byte	0x7
 2848 0239 28       		.byte	0x28
 2849 023a DB010000 		.4byte	0x1db
 2850 023e 06       		.byte	0x6
 2851 023f 0D       		.uleb128 0xd
 2852 0240 7D040000 		.4byte	.LASF55
 2853 0244 07       		.byte	0x7
 2854 0245 29       		.byte	0x29
 2855 0246 DB010000 		.4byte	0x1db
 2856 024a 08       		.byte	0x8
 2857 024b 0D       		.uleb128 0xd
 2858 024c 05040000 		.4byte	.LASF56
 2859 0250 07       		.byte	0x7
 2860 0251 2A       		.byte	0x2a
 2861 0252 D0010000 		.4byte	0x1d0
 2862 0256 0A       		.byte	0xa
 2863 0257 0D       		.uleb128 0xd
 2864 0258 C7040000 		.4byte	.LASF57
 2865 025c 07       		.byte	0x7
 2866 025d 2B       		.byte	0x2b
 2867 025e D0010000 		.4byte	0x1d0
 2868 0262 0C       		.byte	0xc
 2869 0263 0D       		.uleb128 0xd
 2870 0264 2B040000 		.4byte	.LASF58
 2871 0268 07       		.byte	0x7
 2872 0269 2C       		.byte	0x2c
 2873 026a 70020000 		.4byte	0x270
 2874 026e 10       		.byte	0x10
 2875 026f 00       		.byte	0
 2876 0270 07       		.uleb128 0x7
 2877 0271 04       		.byte	0x4
 2878 0272 BA010000 		.4byte	0x1ba
 2879 0276 02       		.uleb128 0x2
 2880 0277 D0040000 		.4byte	.LASF59
 2881 027b 07       		.byte	0x7
 2882 027c 2D       		.byte	0x2d
 2883 027d 15020000 		.4byte	0x215
 2884 0281 02       		.uleb128 0x2
 2885 0282 D2030000 		.4byte	.LASF60
 2886 0286 07       		.byte	0x7
 2887 0287 66       		.byte	0x66
 2888 0288 8C020000 		.4byte	0x28c
 2889 028c 0E       		.uleb128 0xe
 2890 028d DE060000 		.4byte	.LASF70
 2891 0291 20       		.byte	0x20
 2892 0292 07       		.byte	0x7
ARM GAS  C:\Users\leoja\AppData\Local\Temp\cciPvcJP.s 			page 70


 2893 0293 F7       		.byte	0xf7
 2894 0294 06030000 		.4byte	0x306
 2895 0298 0D       		.uleb128 0xd
 2896 0299 43060000 		.4byte	.LASF61
 2897 029d 07       		.byte	0x7
 2898 029e F9       		.byte	0xf9
 2899 029f BA010000 		.4byte	0x1ba
 2900 02a3 00       		.byte	0
 2901 02a4 0D       		.uleb128 0xd
 2902 02a5 33000000 		.4byte	.LASF62
 2903 02a9 07       		.byte	0x7
 2904 02aa FA       		.byte	0xfa
 2905 02ab BA010000 		.4byte	0x1ba
 2906 02af 01       		.byte	0x1
 2907 02b0 0D       		.uleb128 0xd
 2908 02b1 A7000000 		.4byte	.LASF63
 2909 02b5 07       		.byte	0x7
 2910 02b6 FB       		.byte	0xfb
 2911 02b7 AB040000 		.4byte	0x4ab
 2912 02bb 04       		.byte	0x4
 2913 02bc 0D       		.uleb128 0xd
 2914 02bd ED060000 		.4byte	.LASF64
 2915 02c1 07       		.byte	0x7
 2916 02c2 FC       		.byte	0xfc
 2917 02c3 F4030000 		.4byte	0x3f4
 2918 02c7 08       		.byte	0x8
 2919 02c8 0D       		.uleb128 0xd
 2920 02c9 6F060000 		.4byte	.LASF65
 2921 02cd 07       		.byte	0x7
 2922 02ce FD       		.byte	0xfd
 2923 02cf F4030000 		.4byte	0x3f4
 2924 02d3 10       		.byte	0x10
 2925 02d4 0D       		.uleb128 0xd
 2926 02d5 5A050000 		.4byte	.LASF66
 2927 02d9 07       		.byte	0x7
 2928 02da FE       		.byte	0xfe
 2929 02db BA010000 		.4byte	0x1ba
 2930 02df 18       		.byte	0x18
 2931 02e0 0C       		.uleb128 0xc
 2932 02e1 696400   		.ascii	"id\000"
 2933 02e4 07       		.byte	0x7
 2934 02e5 FF       		.byte	0xff
 2935 02e6 BA010000 		.4byte	0x1ba
 2936 02ea 19       		.byte	0x19
 2937 02eb 0F       		.uleb128 0xf
 2938 02ec 7B010000 		.4byte	.LASF67
 2939 02f0 07       		.byte	0x7
 2940 02f1 0001     		.2byte	0x100
 2941 02f3 BA010000 		.4byte	0x1ba
 2942 02f7 1A       		.byte	0x1a
 2943 02f8 0F       		.uleb128 0xf
 2944 02f9 67030000 		.4byte	.LASF68
 2945 02fd 07       		.byte	0x7
 2946 02fe 0101     		.2byte	0x101
 2947 0300 08010000 		.4byte	0x108
 2948 0304 1C       		.byte	0x1c
 2949 0305 00       		.byte	0
ARM GAS  C:\Users\leoja\AppData\Local\Temp\cciPvcJP.s 			page 71


 2950 0306 02       		.uleb128 0x2
 2951 0307 AD040000 		.4byte	.LASF69
 2952 030b 07       		.byte	0x7
 2953 030c 67       		.byte	0x67
 2954 030d 11030000 		.4byte	0x311
 2955 0311 10       		.uleb128 0x10
 2956 0312 7C000000 		.4byte	.LASF71
 2957 0316 44       		.byte	0x44
 2958 0317 07       		.byte	0x7
 2959 0318 4101     		.2byte	0x141
 2960 031a B4030000 		.4byte	0x3b4
 2961 031e 0F       		.uleb128 0xf
 2962 031f F1010000 		.4byte	.LASF72
 2963 0323 07       		.byte	0x7
 2964 0324 4301     		.2byte	0x143
 2965 0326 BA010000 		.4byte	0x1ba
 2966 032a 00       		.byte	0
 2967 032b 0F       		.uleb128 0xf
 2968 032c 3F010000 		.4byte	.LASF73
 2969 0330 07       		.byte	0x7
 2970 0331 4401     		.2byte	0x144
 2971 0333 A5040000 		.4byte	0x4a5
 2972 0337 04       		.byte	0x4
 2973 0338 0F       		.uleb128 0xf
 2974 0339 43060000 		.4byte	.LASF61
 2975 033d 07       		.byte	0x7
 2976 033e 4501     		.2byte	0x145
 2977 0340 BA010000 		.4byte	0x1ba
 2978 0344 08       		.byte	0x8
 2979 0345 11       		.uleb128 0x11
 2980 0346 666300   		.ascii	"fc\000"
 2981 0349 07       		.byte	0x7
 2982 034a 4601     		.2byte	0x146
 2983 034c B4030000 		.4byte	0x3b4
 2984 0350 0C       		.byte	0xc
 2985 0351 11       		.uleb128 0x11
 2986 0352 626300   		.ascii	"bc\000"
 2987 0355 07       		.byte	0x7
 2988 0356 4701     		.2byte	0x147
 2989 0358 B4030000 		.4byte	0x3b4
 2990 035c 10       		.byte	0x10
 2991 035d 11       		.uleb128 0x11
 2992 035e 787300   		.ascii	"xs\000"
 2993 0361 07       		.byte	0x7
 2994 0362 4801     		.2byte	0x148
 2995 0364 DB010000 		.4byte	0x1db
 2996 0368 14       		.byte	0x14
 2997 0369 11       		.uleb128 0x11
 2998 036a 797300   		.ascii	"ys\000"
 2999 036d 07       		.byte	0x7
 3000 036e 4901     		.2byte	0x149
 3001 0370 DB010000 		.4byte	0x1db
 3002 0374 16       		.byte	0x16
 3003 0375 11       		.uleb128 0x11
 3004 0376 786500   		.ascii	"xe\000"
 3005 0379 07       		.byte	0x7
 3006 037a 4A01     		.2byte	0x14a
ARM GAS  C:\Users\leoja\AppData\Local\Temp\cciPvcJP.s 			page 72


 3007 037c DB010000 		.4byte	0x1db
 3008 0380 18       		.byte	0x18
 3009 0381 11       		.uleb128 0x11
 3010 0382 796500   		.ascii	"ye\000"
 3011 0385 07       		.byte	0x7
 3012 0386 4B01     		.2byte	0x14b
 3013 0388 DB010000 		.4byte	0x1db
 3014 038c 1A       		.byte	0x1a
 3015 038d 0F       		.uleb128 0xf
 3016 038e 3D060000 		.4byte	.LASF74
 3017 0392 07       		.byte	0x7
 3018 0393 4C01     		.2byte	0x14c
 3019 0395 BA010000 		.4byte	0x1ba
 3020 0399 1C       		.byte	0x1c
 3021 039a 0F       		.uleb128 0xf
 3022 039b 52010000 		.4byte	.LASF75
 3023 039f 07       		.byte	0x7
 3024 03a0 4D01     		.2byte	0x14d
 3025 03a2 3B050000 		.4byte	0x53b
 3026 03a6 20       		.byte	0x20
 3027 03a7 11       		.uleb128 0x11
 3028 03a8 636200   		.ascii	"cb\000"
 3029 03ab 07       		.byte	0x7
 3030 03ac 4E01     		.2byte	0x14e
 3031 03ae 58050000 		.4byte	0x558
 3032 03b2 40       		.byte	0x40
 3033 03b3 00       		.byte	0
 3034 03b4 02       		.uleb128 0x2
 3035 03b5 3F000000 		.4byte	.LASF76
 3036 03b9 07       		.byte	0x7
 3037 03ba 6A       		.byte	0x6a
 3038 03bb E6010000 		.4byte	0x1e6
 3039 03bf 0B       		.uleb128 0xb
 3040 03c0 08       		.byte	0x8
 3041 03c1 07       		.byte	0x7
 3042 03c2 A7       		.byte	0xa7
 3043 03c3 F4030000 		.4byte	0x3f4
 3044 03c7 0C       		.uleb128 0xc
 3045 03c8 787300   		.ascii	"xs\000"
 3046 03cb 07       		.byte	0x7
 3047 03cc A9       		.byte	0xa9
 3048 03cd DB010000 		.4byte	0x1db
 3049 03d1 00       		.byte	0
 3050 03d2 0C       		.uleb128 0xc
 3051 03d3 797300   		.ascii	"ys\000"
 3052 03d6 07       		.byte	0x7
 3053 03d7 AA       		.byte	0xaa
 3054 03d8 DB010000 		.4byte	0x1db
 3055 03dc 02       		.byte	0x2
 3056 03dd 0C       		.uleb128 0xc
 3057 03de 786500   		.ascii	"xe\000"
 3058 03e1 07       		.byte	0x7
 3059 03e2 AB       		.byte	0xab
 3060 03e3 DB010000 		.4byte	0x1db
 3061 03e7 04       		.byte	0x4
 3062 03e8 0C       		.uleb128 0xc
 3063 03e9 796500   		.ascii	"ye\000"
ARM GAS  C:\Users\leoja\AppData\Local\Temp\cciPvcJP.s 			page 73


 3064 03ec 07       		.byte	0x7
 3065 03ed AC       		.byte	0xac
 3066 03ee DB010000 		.4byte	0x1db
 3067 03f2 06       		.byte	0x6
 3068 03f3 00       		.byte	0
 3069 03f4 02       		.uleb128 0x2
 3070 03f5 54030000 		.4byte	.LASF77
 3071 03f9 07       		.byte	0x7
 3072 03fa AD       		.byte	0xad
 3073 03fb BF030000 		.4byte	0x3bf
 3074 03ff 07       		.uleb128 0x7
 3075 0400 04       		.byte	0x4
 3076 0401 05040000 		.4byte	0x405
 3077 0405 12       		.uleb128 0x12
 3078 0406 76020000 		.4byte	0x276
 3079 040a 0B       		.uleb128 0xb
 3080 040b 08       		.byte	0x8
 3081 040c 07       		.byte	0x7
 3082 040d D6       		.byte	0xd6
 3083 040e 4E040000 		.4byte	0x44e
 3084 0412 0D       		.uleb128 0xd
 3085 0413 5A050000 		.4byte	.LASF66
 3086 0417 07       		.byte	0x7
 3087 0418 D8       		.byte	0xd8
 3088 0419 BA010000 		.4byte	0x1ba
 3089 041d 00       		.byte	0
 3090 041e 0C       		.uleb128 0xc
 3091 041f 696400   		.ascii	"id\000"
 3092 0422 07       		.byte	0x7
 3093 0423 D9       		.byte	0xd9
 3094 0424 BA010000 		.4byte	0x1ba
 3095 0428 01       		.byte	0x1
 3096 0429 0D       		.uleb128 0xd
 3097 042a E1030000 		.4byte	.LASF78
 3098 042e 07       		.byte	0x7
 3099 042f DA       		.byte	0xda
 3100 0430 BA010000 		.4byte	0x1ba
 3101 0434 02       		.byte	0x2
 3102 0435 0D       		.uleb128 0xd
 3103 0436 7B010000 		.4byte	.LASF67
 3104 043a 07       		.byte	0x7
 3105 043b DB       		.byte	0xdb
 3106 043c BA010000 		.4byte	0x1ba
 3107 0440 03       		.byte	0x3
 3108 0441 0C       		.uleb128 0xc
 3109 0442 73726300 		.ascii	"src\000"
 3110 0446 07       		.byte	0x7
 3111 0447 DC       		.byte	0xdc
 3112 0448 08010000 		.4byte	0x108
 3113 044c 04       		.byte	0x4
 3114 044d 00       		.byte	0
 3115 044e 02       		.uleb128 0x2
 3116 044f 5C030000 		.4byte	.LASF79
 3117 0453 07       		.byte	0x7
 3118 0454 DD       		.byte	0xdd
 3119 0455 0A040000 		.4byte	0x40a
 3120 0459 0B       		.uleb128 0xb
ARM GAS  C:\Users\leoja\AppData\Local\Temp\cciPvcJP.s 			page 74


 3121 045a 06       		.byte	0x6
 3122 045b 07       		.byte	0x7
 3123 045c E8       		.byte	0xe8
 3124 045d 84040000 		.4byte	0x484
 3125 0461 0D       		.uleb128 0xd
 3126 0462 43060000 		.4byte	.LASF61
 3127 0466 07       		.byte	0x7
 3128 0467 EA       		.byte	0xea
 3129 0468 BA010000 		.4byte	0x1ba
 3130 046c 00       		.byte	0
 3131 046d 0C       		.uleb128 0xc
 3132 046e 787000   		.ascii	"xp\000"
 3133 0471 07       		.byte	0x7
 3134 0472 EB       		.byte	0xeb
 3135 0473 DB010000 		.4byte	0x1db
 3136 0477 02       		.byte	0x2
 3137 0478 0C       		.uleb128 0xc
 3138 0479 797000   		.ascii	"yp\000"
 3139 047c 07       		.byte	0x7
 3140 047d EC       		.byte	0xec
 3141 047e DB010000 		.4byte	0x1db
 3142 0482 04       		.byte	0x4
 3143 0483 00       		.byte	0
 3144 0484 02       		.uleb128 0x2
 3145 0485 75060000 		.4byte	.LASF80
 3146 0489 07       		.byte	0x7
 3147 048a ED       		.byte	0xed
 3148 048b 59040000 		.4byte	0x459
 3149 048f 13       		.uleb128 0x13
 3150 0490 9F040000 		.4byte	0x49f
 3151 0494 14       		.uleb128 0x14
 3152 0495 9F040000 		.4byte	0x49f
 3153 0499 14       		.uleb128 0x14
 3154 049a A5040000 		.4byte	0x4a5
 3155 049e 00       		.byte	0
 3156 049f 07       		.uleb128 0x7
 3157 04a0 04       		.byte	0x4
 3158 04a1 06030000 		.4byte	0x306
 3159 04a5 07       		.uleb128 0x7
 3160 04a6 04       		.byte	0x4
 3161 04a7 81020000 		.4byte	0x281
 3162 04ab 07       		.uleb128 0x7
 3163 04ac 04       		.byte	0x4
 3164 04ad 8F040000 		.4byte	0x48f
 3165 04b1 15       		.uleb128 0x15
 3166 04b2 20       		.byte	0x20
 3167 04b3 07       		.byte	0x7
 3168 04b4 3201     		.2byte	0x132
 3169 04b6 3B050000 		.4byte	0x53b
 3170 04ba 11       		.uleb128 0x11
 3171 04bb 73747200 		.ascii	"str\000"
 3172 04bf 07       		.byte	0x7
 3173 04c0 3401     		.2byte	0x134
 3174 04c2 0A010000 		.4byte	0x10a
 3175 04c6 00       		.byte	0
 3176 04c7 0F       		.uleb128 0xf
 3177 04c8 E8040000 		.4byte	.LASF81
ARM GAS  C:\Users\leoja\AppData\Local\Temp\cciPvcJP.s 			page 75


 3178 04cc 07       		.byte	0x7
 3179 04cd 3501     		.2byte	0x135
 3180 04cf FF030000 		.4byte	0x3ff
 3181 04d3 04       		.byte	0x4
 3182 04d4 0F       		.uleb128 0xf
 3183 04d5 78050000 		.4byte	.LASF82
 3184 04d9 07       		.byte	0x7
 3185 04da 3601     		.2byte	0x136
 3186 04dc C5010000 		.4byte	0x1c5
 3187 04e0 08       		.byte	0x8
 3188 04e1 0F       		.uleb128 0xf
 3189 04e2 14030000 		.4byte	.LASF83
 3190 04e6 07       		.byte	0x7
 3191 04e7 3701     		.2byte	0x137
 3192 04e9 C5010000 		.4byte	0x1c5
 3193 04ed 09       		.byte	0x9
 3194 04ee 0F       		.uleb128 0xf
 3195 04ef E7060000 		.4byte	.LASF84
 3196 04f3 07       		.byte	0x7
 3197 04f4 3801     		.2byte	0x138
 3198 04f6 BA010000 		.4byte	0x1ba
 3199 04fa 0A       		.byte	0xa
 3200 04fb 11       		.uleb128 0x11
 3201 04fc 666300   		.ascii	"fc\000"
 3202 04ff 07       		.byte	0x7
 3203 0500 3901     		.2byte	0x139
 3204 0502 B4030000 		.4byte	0x3b4
 3205 0506 0C       		.byte	0xc
 3206 0507 11       		.uleb128 0x11
 3207 0508 626300   		.ascii	"bc\000"
 3208 050b 07       		.byte	0x7
 3209 050c 3A01     		.2byte	0x13a
 3210 050e B4030000 		.4byte	0x3b4
 3211 0512 10       		.byte	0x10
 3212 0513 11       		.uleb128 0x11
 3213 0514 69666300 		.ascii	"ifc\000"
 3214 0518 07       		.byte	0x7
 3215 0519 3B01     		.2byte	0x13b
 3216 051b B4030000 		.4byte	0x3b4
 3217 051f 14       		.byte	0x14
 3218 0520 11       		.uleb128 0x11
 3219 0521 69626300 		.ascii	"ibc\000"
 3220 0525 07       		.byte	0x7
 3221 0526 3C01     		.2byte	0x13c
 3222 0528 B4030000 		.4byte	0x3b4
 3223 052c 18       		.byte	0x18
 3224 052d 0F       		.uleb128 0xf
 3225 052e FE030000 		.4byte	.LASF85
 3226 0532 07       		.byte	0x7
 3227 0533 3D01     		.2byte	0x13d
 3228 0535 BA010000 		.4byte	0x1ba
 3229 0539 1C       		.byte	0x1c
 3230 053a 00       		.byte	0
 3231 053b 05       		.uleb128 0x5
 3232 053c 64040000 		.4byte	.LASF86
 3233 0540 07       		.byte	0x7
 3234 0541 3E01     		.2byte	0x13e
ARM GAS  C:\Users\leoja\AppData\Local\Temp\cciPvcJP.s 			page 76


 3235 0543 B1040000 		.4byte	0x4b1
 3236 0547 13       		.uleb128 0x13
 3237 0548 52050000 		.4byte	0x552
 3238 054c 14       		.uleb128 0x14
 3239 054d 52050000 		.4byte	0x552
 3240 0551 00       		.byte	0
 3241 0552 07       		.uleb128 0x7
 3242 0553 04       		.byte	0x4
 3243 0554 4E040000 		.4byte	0x44e
 3244 0558 07       		.uleb128 0x7
 3245 0559 04       		.byte	0x4
 3246 055a 47050000 		.4byte	0x547
 3247 055e 15       		.uleb128 0x15
 3248 055f 08       		.byte	0x8
 3249 0560 07       		.byte	0x7
 3250 0561 2002     		.2byte	0x220
 3251 0563 82050000 		.4byte	0x582
 3252 0567 0F       		.uleb128 0xf
 3253 0568 84030000 		.4byte	.LASF87
 3254 056c 07       		.byte	0x7
 3255 056d 2202     		.2byte	0x222
 3256 056f 08010000 		.4byte	0x108
 3257 0573 00       		.byte	0
 3258 0574 0F       		.uleb128 0xf
 3259 0575 43060000 		.4byte	.LASF61
 3260 0579 07       		.byte	0x7
 3261 057a 2302     		.2byte	0x223
 3262 057c BA010000 		.4byte	0x1ba
 3263 0580 04       		.byte	0x4
 3264 0581 00       		.byte	0
 3265 0582 05       		.uleb128 0x5
 3266 0583 6D040000 		.4byte	.LASF88
 3267 0587 07       		.byte	0x7
 3268 0588 2402     		.2byte	0x224
 3269 058a 5E050000 		.4byte	0x55e
 3270 058e 15       		.uleb128 0x15
 3271 058f 14       		.byte	0x14
 3272 0590 07       		.byte	0x7
 3273 0591 3C02     		.2byte	0x23c
 3274 0593 00060000 		.4byte	0x600
 3275 0597 0F       		.uleb128 0xf
 3276 0598 77040000 		.4byte	.LASF89
 3277 059c 07       		.byte	0x7
 3278 059d 3E02     		.2byte	0x23e
 3279 059f DB010000 		.4byte	0x1db
 3280 05a3 00       		.byte	0
 3281 05a4 0F       		.uleb128 0xf
 3282 05a5 0A020000 		.4byte	.LASF90
 3283 05a9 07       		.byte	0x7
 3284 05aa 3F02     		.2byte	0x23f
 3285 05ac DB010000 		.4byte	0x1db
 3286 05b0 02       		.byte	0x2
 3287 05b1 0F       		.uleb128 0xf
 3288 05b2 8E050000 		.4byte	.LASF91
 3289 05b6 07       		.byte	0x7
 3290 05b7 4002     		.2byte	0x240
 3291 05b9 DB010000 		.4byte	0x1db
ARM GAS  C:\Users\leoja\AppData\Local\Temp\cciPvcJP.s 			page 77


 3292 05bd 04       		.byte	0x4
 3293 05be 0F       		.uleb128 0xf
 3294 05bf 0C030000 		.4byte	.LASF92
 3295 05c3 07       		.byte	0x7
 3296 05c4 4102     		.2byte	0x241
 3297 05c6 DB010000 		.4byte	0x1db
 3298 05ca 06       		.byte	0x6
 3299 05cb 0F       		.uleb128 0xf
 3300 05cc 6F010000 		.4byte	.LASF93
 3301 05d0 07       		.byte	0x7
 3302 05d1 4202     		.2byte	0x242
 3303 05d3 DB010000 		.4byte	0x1db
 3304 05d7 08       		.byte	0x8
 3305 05d8 0F       		.uleb128 0xf
 3306 05d9 6E000000 		.4byte	.LASF94
 3307 05dd 07       		.byte	0x7
 3308 05de 4302     		.2byte	0x243
 3309 05e0 DB010000 		.4byte	0x1db
 3310 05e4 0A       		.byte	0xa
 3311 05e5 0F       		.uleb128 0xf
 3312 05e6 FF010000 		.4byte	.LASF95
 3313 05ea 07       		.byte	0x7
 3314 05eb 4402     		.2byte	0x244
 3315 05ed B4030000 		.4byte	0x3b4
 3316 05f1 0C       		.byte	0xc
 3317 05f2 0F       		.uleb128 0xf
 3318 05f3 8D010000 		.4byte	.LASF96
 3319 05f7 07       		.byte	0x7
 3320 05f8 4502     		.2byte	0x245
 3321 05fa B4030000 		.4byte	0x3b4
 3322 05fe 10       		.byte	0x10
 3323 05ff 00       		.byte	0
 3324 0600 15       		.uleb128 0x15
 3325 0601 78       		.byte	0x78
 3326 0602 07       		.byte	0x7
 3327 0603 3302     		.2byte	0x233
 3328 0605 DA060000 		.4byte	0x6da
 3329 0609 0F       		.uleb128 0xf
 3330 060a DC030000 		.4byte	.LASF97
 3331 060e 07       		.byte	0x7
 3332 060f 3502     		.2byte	0x235
 3333 0611 EF060000 		.4byte	0x6ef
 3334 0615 00       		.byte	0
 3335 0616 0F       		.uleb128 0xf
 3336 0617 9B030000 		.4byte	.LASF98
 3337 061b 07       		.byte	0x7
 3338 061c 3602     		.2byte	0x236
 3339 061e DB010000 		.4byte	0x1db
 3340 0622 04       		.byte	0x4
 3341 0623 0F       		.uleb128 0xf
 3342 0624 AE000000 		.4byte	.LASF99
 3343 0628 07       		.byte	0x7
 3344 0629 3702     		.2byte	0x237
 3345 062b DB010000 		.4byte	0x1db
 3346 062f 06       		.byte	0x6
 3347 0630 0F       		.uleb128 0xf
 3348 0631 7E030000 		.4byte	.LASF100
ARM GAS  C:\Users\leoja\AppData\Local\Temp\cciPvcJP.s 			page 78


 3349 0635 07       		.byte	0x7
 3350 0636 3802     		.2byte	0x238
 3351 0638 84040000 		.4byte	0x484
 3352 063c 08       		.byte	0x8
 3353 063d 0F       		.uleb128 0xf
 3354 063e 46010000 		.4byte	.LASF101
 3355 0642 07       		.byte	0x7
 3356 0643 3902     		.2byte	0x239
 3357 0645 9F040000 		.4byte	0x49f
 3358 0649 10       		.byte	0x10
 3359 064a 0F       		.uleb128 0xf
 3360 064b E3010000 		.4byte	.LASF102
 3361 064f 07       		.byte	0x7
 3362 0650 3A02     		.2byte	0x23a
 3363 0652 9F040000 		.4byte	0x49f
 3364 0656 14       		.byte	0x14
 3365 0657 0F       		.uleb128 0xf
 3366 0658 81010000 		.4byte	.LASF103
 3367 065c 07       		.byte	0x7
 3368 065d 3B02     		.2byte	0x23b
 3369 065f 9F040000 		.4byte	0x49f
 3370 0663 18       		.byte	0x18
 3371 0664 0F       		.uleb128 0xf
 3372 0665 74000000 		.4byte	.LASF104
 3373 0669 07       		.byte	0x7
 3374 066a 4602     		.2byte	0x246
 3375 066c 8E050000 		.4byte	0x58e
 3376 0670 1C       		.byte	0x1c
 3377 0671 0F       		.uleb128 0xf
 3378 0672 E8040000 		.4byte	.LASF81
 3379 0676 07       		.byte	0x7
 3380 0677 4702     		.2byte	0x247
 3381 0679 76020000 		.4byte	0x276
 3382 067d 30       		.byte	0x30
 3383 067e 0F       		.uleb128 0xf
 3384 067f 16070000 		.4byte	.LASF105
 3385 0683 07       		.byte	0x7
 3386 0684 4802     		.2byte	0x248
 3387 0686 C5010000 		.4byte	0x1c5
 3388 068a 44       		.byte	0x44
 3389 068b 0F       		.uleb128 0xf
 3390 068c 5C000000 		.4byte	.LASF106
 3391 0690 07       		.byte	0x7
 3392 0691 4902     		.2byte	0x249
 3393 0693 C5010000 		.4byte	0x1c5
 3394 0697 45       		.byte	0x45
 3395 0698 0F       		.uleb128 0xf
 3396 0699 FF010000 		.4byte	.LASF95
 3397 069d 07       		.byte	0x7
 3398 069e 4A02     		.2byte	0x24a
 3399 06a0 B4030000 		.4byte	0x3b4
 3400 06a4 48       		.byte	0x48
 3401 06a5 0F       		.uleb128 0xf
 3402 06a6 8D010000 		.4byte	.LASF96
 3403 06aa 07       		.byte	0x7
 3404 06ab 4B02     		.2byte	0x24b
 3405 06ad B4030000 		.4byte	0x3b4
ARM GAS  C:\Users\leoja\AppData\Local\Temp\cciPvcJP.s 			page 79


 3406 06b1 4C       		.byte	0x4c
 3407 06b2 0F       		.uleb128 0xf
 3408 06b3 25000000 		.4byte	.LASF107
 3409 06b7 07       		.byte	0x7
 3410 06b8 4C02     		.2byte	0x24c
 3411 06ba B4030000 		.4byte	0x3b4
 3412 06be 50       		.byte	0x50
 3413 06bf 0F       		.uleb128 0xf
 3414 06c0 43060000 		.4byte	.LASF61
 3415 06c4 07       		.byte	0x7
 3416 06c5 4D02     		.2byte	0x24d
 3417 06c7 BA010000 		.4byte	0x1ba
 3418 06cb 54       		.byte	0x54
 3419 06cc 0F       		.uleb128 0xf
 3420 06cd 84030000 		.4byte	.LASF87
 3421 06d1 07       		.byte	0x7
 3422 06d2 4E02     		.2byte	0x24e
 3423 06d4 F5060000 		.4byte	0x6f5
 3424 06d8 58       		.byte	0x58
 3425 06d9 00       		.byte	0
 3426 06da 13       		.uleb128 0x13
 3427 06db EF060000 		.4byte	0x6ef
 3428 06df 14       		.uleb128 0x14
 3429 06e0 DB010000 		.4byte	0x1db
 3430 06e4 14       		.uleb128 0x14
 3431 06e5 DB010000 		.4byte	0x1db
 3432 06e9 14       		.uleb128 0x14
 3433 06ea B4030000 		.4byte	0x3b4
 3434 06ee 00       		.byte	0
 3435 06ef 07       		.uleb128 0x7
 3436 06f0 04       		.byte	0x4
 3437 06f1 DA060000 		.4byte	0x6da
 3438 06f5 16       		.uleb128 0x16
 3439 06f6 82050000 		.4byte	0x582
 3440 06fa 05070000 		.4byte	0x705
 3441 06fe 17       		.uleb128 0x17
 3442 06ff 01010000 		.4byte	0x101
 3443 0703 03       		.byte	0x3
 3444 0704 00       		.byte	0
 3445 0705 05       		.uleb128 0x5
 3446 0706 68060000 		.4byte	.LASF108
 3447 070a 07       		.byte	0x7
 3448 070b 4F02     		.2byte	0x24f
 3449 070d 00060000 		.4byte	0x600
 3450 0711 18       		.uleb128 0x18
 3451 0712 C8010000 		.4byte	.LASF109
 3452 0716 01       		.byte	0x1
 3453 0717 0A       		.byte	0xa
 3454 0718 00000000 		.4byte	.LFB35
 3455 071c 70000000 		.4byte	.LFE35-.LFB35
 3456 0720 01       		.uleb128 0x1
 3457 0721 9C       		.byte	0x9c
 3458 0722 01080000 		.4byte	0x801
 3459 0726 19       		.uleb128 0x19
 3460 0727 08000000 		.4byte	.LVL0
 3461 072b EB190000 		.4byte	0x19eb
 3462 072f 3D070000 		.4byte	0x73d
ARM GAS  C:\Users\leoja\AppData\Local\Temp\cciPvcJP.s 			page 80


 3463 0733 1A       		.uleb128 0x1a
 3464 0734 01       		.uleb128 0x1
 3465 0735 50       		.byte	0x50
 3466 0736 05       		.uleb128 0x5
 3467 0737 0C       		.byte	0xc
 3468 0738 FFFFFF00 		.4byte	0xffffff
 3469 073c 00       		.byte	0
 3470 073d 19       		.uleb128 0x19
 3471 073e 1E000000 		.4byte	.LVL1
 3472 0742 F7190000 		.4byte	0x19f7
 3473 0746 68070000 		.4byte	0x768
 3474 074a 1A       		.uleb128 0x1a
 3475 074b 01       		.uleb128 0x1
 3476 074c 50       		.byte	0x50
 3477 074d 01       		.uleb128 0x1
 3478 074e 30       		.byte	0x30
 3479 074f 1A       		.uleb128 0x1a
 3480 0750 01       		.uleb128 0x1
 3481 0751 51       		.byte	0x51
 3482 0752 01       		.uleb128 0x1
 3483 0753 30       		.byte	0x30
 3484 0754 1A       		.uleb128 0x1a
 3485 0755 01       		.uleb128 0x1
 3486 0756 52       		.byte	0x52
 3487 0757 01       		.uleb128 0x1
 3488 0758 3A       		.byte	0x3a
 3489 0759 1A       		.uleb128 0x1a
 3490 075a 01       		.uleb128 0x1
 3491 075b 53       		.byte	0x53
 3492 075c 01       		.uleb128 0x1
 3493 075d 3A       		.byte	0x3a
 3494 075e 1A       		.uleb128 0x1a
 3495 075f 02       		.uleb128 0x2
 3496 0760 7D       		.byte	0x7d
 3497 0761 00       		.sleb128 0
 3498 0762 04       		.uleb128 0x4
 3499 0763 08       		.byte	0x8
 3500 0764 FF       		.byte	0xff
 3501 0765 40       		.byte	0x40
 3502 0766 24       		.byte	0x24
 3503 0767 00       		.byte	0
 3504 0768 19       		.uleb128 0x19
 3505 0769 32000000 		.4byte	.LVL2
 3506 076d F7190000 		.4byte	0x19f7
 3507 0771 93070000 		.4byte	0x793
 3508 0775 1A       		.uleb128 0x1a
 3509 0776 01       		.uleb128 0x1
 3510 0777 50       		.byte	0x50
 3511 0778 01       		.uleb128 0x1
 3512 0779 30       		.byte	0x30
 3513 077a 1A       		.uleb128 0x1a
 3514 077b 01       		.uleb128 0x1
 3515 077c 51       		.byte	0x51
 3516 077d 02       		.uleb128 0x2
 3517 077e 75       		.byte	0x75
 3518 077f 00       		.sleb128 0
 3519 0780 1A       		.uleb128 0x1a
ARM GAS  C:\Users\leoja\AppData\Local\Temp\cciPvcJP.s 			page 81


 3520 0781 01       		.uleb128 0x1
 3521 0782 52       		.byte	0x52
 3522 0783 01       		.uleb128 0x1
 3523 0784 3A       		.byte	0x3a
 3524 0785 1A       		.uleb128 0x1a
 3525 0786 01       		.uleb128 0x1
 3526 0787 53       		.byte	0x53
 3527 0788 02       		.uleb128 0x2
 3528 0789 77       		.byte	0x77
 3529 078a 00       		.sleb128 0
 3530 078b 1A       		.uleb128 0x1a
 3531 078c 02       		.uleb128 0x2
 3532 078d 7D       		.byte	0x7d
 3533 078e 00       		.sleb128 0
 3534 078f 02       		.uleb128 0x2
 3535 0790 08       		.byte	0x8
 3536 0791 FF       		.byte	0xff
 3537 0792 00       		.byte	0
 3538 0793 19       		.uleb128 0x19
 3539 0794 4C000000 		.4byte	.LVL3
 3540 0798 F7190000 		.4byte	0x19f7
 3541 079c BF070000 		.4byte	0x7bf
 3542 07a0 1A       		.uleb128 0x1a
 3543 07a1 01       		.uleb128 0x1
 3544 07a2 50       		.byte	0x50
 3545 07a3 02       		.uleb128 0x2
 3546 07a4 74       		.byte	0x74
 3547 07a5 00       		.sleb128 0
 3548 07a6 1A       		.uleb128 0x1a
 3549 07a7 01       		.uleb128 0x1
 3550 07a8 51       		.byte	0x51
 3551 07a9 01       		.uleb128 0x1
 3552 07aa 30       		.byte	0x30
 3553 07ab 1A       		.uleb128 0x1a
 3554 07ac 01       		.uleb128 0x1
 3555 07ad 52       		.byte	0x52
 3556 07ae 02       		.uleb128 0x2
 3557 07af 76       		.byte	0x76
 3558 07b0 00       		.sleb128 0
 3559 07b1 1A       		.uleb128 0x1a
 3560 07b2 01       		.uleb128 0x1
 3561 07b3 53       		.byte	0x53
 3562 07b4 01       		.uleb128 0x1
 3563 07b5 3A       		.byte	0x3a
 3564 07b6 1A       		.uleb128 0x1a
 3565 07b7 02       		.uleb128 0x2
 3566 07b8 7D       		.byte	0x7d
 3567 07b9 00       		.sleb128 0
 3568 07ba 03       		.uleb128 0x3
 3569 07bb 0A       		.byte	0xa
 3570 07bc 00FF     		.2byte	0xff00
 3571 07be 00       		.byte	0
 3572 07bf 19       		.uleb128 0x19
 3573 07c0 5C000000 		.4byte	.LVL4
 3574 07c4 F7190000 		.4byte	0x19f7
 3575 07c8 EF070000 		.4byte	0x7ef
 3576 07cc 1A       		.uleb128 0x1a
ARM GAS  C:\Users\leoja\AppData\Local\Temp\cciPvcJP.s 			page 82


 3577 07cd 01       		.uleb128 0x1
 3578 07ce 50       		.byte	0x50
 3579 07cf 02       		.uleb128 0x2
 3580 07d0 74       		.byte	0x74
 3581 07d1 00       		.sleb128 0
 3582 07d2 1A       		.uleb128 0x1a
 3583 07d3 01       		.uleb128 0x1
 3584 07d4 51       		.byte	0x51
 3585 07d5 02       		.uleb128 0x2
 3586 07d6 75       		.byte	0x75
 3587 07d7 00       		.sleb128 0
 3588 07d8 1A       		.uleb128 0x1a
 3589 07d9 01       		.uleb128 0x1
 3590 07da 52       		.byte	0x52
 3591 07db 02       		.uleb128 0x2
 3592 07dc 76       		.byte	0x76
 3593 07dd 00       		.sleb128 0
 3594 07de 1A       		.uleb128 0x1a
 3595 07df 01       		.uleb128 0x1
 3596 07e0 53       		.byte	0x53
 3597 07e1 02       		.uleb128 0x2
 3598 07e2 77       		.byte	0x77
 3599 07e3 00       		.sleb128 0
 3600 07e4 1A       		.uleb128 0x1a
 3601 07e5 02       		.uleb128 0x2
 3602 07e6 7D       		.byte	0x7d
 3603 07e7 00       		.sleb128 0
 3604 07e8 05       		.uleb128 0x5
 3605 07e9 0C       		.byte	0xc
 3606 07ea 00FFFF00 		.4byte	0xffff00
 3607 07ee 00       		.byte	0
 3608 07ef 1B       		.uleb128 0x1b
 3609 07f0 64000000 		.4byte	.LVL5
 3610 07f4 031A0000 		.4byte	0x1a03
 3611 07f8 1A       		.uleb128 0x1a
 3612 07f9 01       		.uleb128 0x1
 3613 07fa 50       		.byte	0x50
 3614 07fb 03       		.uleb128 0x3
 3615 07fc 0A       		.byte	0xa
 3616 07fd 2C01     		.2byte	0x12c
 3617 07ff 00       		.byte	0
 3618 0800 00       		.byte	0
 3619 0801 18       		.uleb128 0x18
 3620 0802 08050000 		.4byte	.LASF110
 3621 0806 01       		.byte	0x1
 3622 0807 24       		.byte	0x24
 3623 0808 00000000 		.4byte	.LFB36
 3624 080c 7C000000 		.4byte	.LFE36-.LFB36
 3625 0810 01       		.uleb128 0x1
 3626 0811 9C       		.byte	0x9c
 3627 0812 38090000 		.4byte	0x938
 3628 0816 19       		.uleb128 0x19
 3629 0817 08000000 		.4byte	.LVL6
 3630 081b EB190000 		.4byte	0x19eb
 3631 081f 29080000 		.4byte	0x829
 3632 0823 1A       		.uleb128 0x1a
 3633 0824 01       		.uleb128 0x1
ARM GAS  C:\Users\leoja\AppData\Local\Temp\cciPvcJP.s 			page 83


 3634 0825 50       		.byte	0x50
 3635 0826 01       		.uleb128 0x1
 3636 0827 30       		.byte	0x30
 3637 0828 00       		.byte	0
 3638 0829 19       		.uleb128 0x19
 3639 082a 12000000 		.4byte	.LVL7
 3640 082e 0E1A0000 		.4byte	0x1a0e
 3641 0832 4A080000 		.4byte	0x84a
 3642 0836 1A       		.uleb128 0x1a
 3643 0837 01       		.uleb128 0x1
 3644 0838 50       		.byte	0x50
 3645 0839 01       		.uleb128 0x1
 3646 083a 3A       		.byte	0x3a
 3647 083b 1A       		.uleb128 0x1a
 3648 083c 01       		.uleb128 0x1
 3649 083d 51       		.byte	0x51
 3650 083e 01       		.uleb128 0x1
 3651 083f 3A       		.byte	0x3a
 3652 0840 1A       		.uleb128 0x1a
 3653 0841 01       		.uleb128 0x1
 3654 0842 52       		.byte	0x52
 3655 0843 05       		.uleb128 0x5
 3656 0844 03       		.byte	0x3
 3657 0845 00000000 		.4byte	.LC0
 3658 0849 00       		.byte	0
 3659 084a 19       		.uleb128 0x19
 3660 084b 1C000000 		.4byte	.LVL8
 3661 084f 0E1A0000 		.4byte	0x1a0e
 3662 0853 6C080000 		.4byte	0x86c
 3663 0857 1A       		.uleb128 0x1a
 3664 0858 01       		.uleb128 0x1
 3665 0859 50       		.byte	0x50
 3666 085a 02       		.uleb128 0x2
 3667 085b 08       		.byte	0x8
 3668 085c FA       		.byte	0xfa
 3669 085d 1A       		.uleb128 0x1a
 3670 085e 01       		.uleb128 0x1
 3671 085f 51       		.byte	0x51
 3672 0860 01       		.uleb128 0x1
 3673 0861 3A       		.byte	0x3a
 3674 0862 1A       		.uleb128 0x1a
 3675 0863 01       		.uleb128 0x1
 3676 0864 52       		.byte	0x52
 3677 0865 05       		.uleb128 0x5
 3678 0866 03       		.byte	0x3
 3679 0867 0A000000 		.4byte	.LC2
 3680 086b 00       		.byte	0
 3681 086c 19       		.uleb128 0x19
 3682 086d 26000000 		.4byte	.LVL9
 3683 0871 0E1A0000 		.4byte	0x1a0e
 3684 0875 8E080000 		.4byte	0x88e
 3685 0879 1A       		.uleb128 0x1a
 3686 087a 01       		.uleb128 0x1
 3687 087b 50       		.byte	0x50
 3688 087c 01       		.uleb128 0x1
 3689 087d 3A       		.byte	0x3a
 3690 087e 1A       		.uleb128 0x1a
ARM GAS  C:\Users\leoja\AppData\Local\Temp\cciPvcJP.s 			page 84


 3691 087f 01       		.uleb128 0x1
 3692 0880 51       		.byte	0x51
 3693 0881 02       		.uleb128 0x2
 3694 0882 08       		.byte	0x8
 3695 0883 4B       		.byte	0x4b
 3696 0884 1A       		.uleb128 0x1a
 3697 0885 01       		.uleb128 0x1
 3698 0886 52       		.byte	0x52
 3699 0887 05       		.uleb128 0x5
 3700 0888 03       		.byte	0x3
 3701 0889 16000000 		.4byte	.LC4
 3702 088d 00       		.byte	0
 3703 088e 19       		.uleb128 0x19
 3704 088f 30000000 		.4byte	.LVL10
 3705 0893 0E1A0000 		.4byte	0x1a0e
 3706 0897 B1080000 		.4byte	0x8b1
 3707 089b 1A       		.uleb128 0x1a
 3708 089c 01       		.uleb128 0x1
 3709 089d 50       		.byte	0x50
 3710 089e 02       		.uleb128 0x2
 3711 089f 08       		.byte	0x8
 3712 08a0 FA       		.byte	0xfa
 3713 08a1 1A       		.uleb128 0x1a
 3714 08a2 01       		.uleb128 0x1
 3715 08a3 51       		.byte	0x51
 3716 08a4 02       		.uleb128 0x2
 3717 08a5 08       		.byte	0x8
 3718 08a6 4B       		.byte	0x4b
 3719 08a7 1A       		.uleb128 0x1a
 3720 08a8 01       		.uleb128 0x1
 3721 08a9 52       		.byte	0x52
 3722 08aa 05       		.uleb128 0x5
 3723 08ab 03       		.byte	0x3
 3724 08ac 1D000000 		.4byte	.LC6
 3725 08b0 00       		.byte	0
 3726 08b1 19       		.uleb128 0x19
 3727 08b2 3A000000 		.4byte	.LVL11
 3728 08b6 0E1A0000 		.4byte	0x1a0e
 3729 08ba D3080000 		.4byte	0x8d3
 3730 08be 1A       		.uleb128 0x1a
 3731 08bf 01       		.uleb128 0x1
 3732 08c0 50       		.byte	0x50
 3733 08c1 01       		.uleb128 0x1
 3734 08c2 3A       		.byte	0x3a
 3735 08c3 1A       		.uleb128 0x1a
 3736 08c4 01       		.uleb128 0x1
 3737 08c5 51       		.byte	0x51
 3738 08c6 02       		.uleb128 0x2
 3739 08c7 08       		.byte	0x8
 3740 08c8 8C       		.byte	0x8c
 3741 08c9 1A       		.uleb128 0x1a
 3742 08ca 01       		.uleb128 0x1
 3743 08cb 52       		.byte	0x52
 3744 08cc 05       		.uleb128 0x5
 3745 08cd 03       		.byte	0x3
 3746 08ce 23000000 		.4byte	.LC8
 3747 08d2 00       		.byte	0
ARM GAS  C:\Users\leoja\AppData\Local\Temp\cciPvcJP.s 			page 85


 3748 08d3 19       		.uleb128 0x19
 3749 08d4 44000000 		.4byte	.LVL12
 3750 08d8 0E1A0000 		.4byte	0x1a0e
 3751 08dc F6080000 		.4byte	0x8f6
 3752 08e0 1A       		.uleb128 0x1a
 3753 08e1 01       		.uleb128 0x1
 3754 08e2 50       		.byte	0x50
 3755 08e3 02       		.uleb128 0x2
 3756 08e4 08       		.byte	0x8
 3757 08e5 FA       		.byte	0xfa
 3758 08e6 1A       		.uleb128 0x1a
 3759 08e7 01       		.uleb128 0x1
 3760 08e8 51       		.byte	0x51
 3761 08e9 02       		.uleb128 0x2
 3762 08ea 08       		.byte	0x8
 3763 08eb 8C       		.byte	0x8c
 3764 08ec 1A       		.uleb128 0x1a
 3765 08ed 01       		.uleb128 0x1
 3766 08ee 52       		.byte	0x52
 3767 08ef 05       		.uleb128 0x5
 3768 08f0 03       		.byte	0x3
 3769 08f1 2A000000 		.4byte	.LC10
 3770 08f5 00       		.byte	0
 3771 08f6 19       		.uleb128 0x19
 3772 08f7 4E000000 		.4byte	.LVL13
 3773 08fb 0E1A0000 		.4byte	0x1a0e
 3774 08ff 18090000 		.4byte	0x918
 3775 0903 1A       		.uleb128 0x1a
 3776 0904 01       		.uleb128 0x1
 3777 0905 50       		.byte	0x50
 3778 0906 01       		.uleb128 0x1
 3779 0907 3A       		.byte	0x3a
 3780 0908 1A       		.uleb128 0x1a
 3781 0909 01       		.uleb128 0x1
 3782 090a 51       		.byte	0x51
 3783 090b 02       		.uleb128 0x2
 3784 090c 08       		.byte	0x8
 3785 090d CD       		.byte	0xcd
 3786 090e 1A       		.uleb128 0x1a
 3787 090f 01       		.uleb128 0x1
 3788 0910 52       		.byte	0x52
 3789 0911 05       		.uleb128 0x5
 3790 0912 03       		.byte	0x3
 3791 0913 33000000 		.4byte	.LC12
 3792 0917 00       		.byte	0
 3793 0918 1B       		.uleb128 0x1b
 3794 0919 58000000 		.4byte	.LVL14
 3795 091d 0E1A0000 		.4byte	0x1a0e
 3796 0921 1A       		.uleb128 0x1a
 3797 0922 01       		.uleb128 0x1
 3798 0923 50       		.byte	0x50
 3799 0924 02       		.uleb128 0x2
 3800 0925 08       		.byte	0x8
 3801 0926 FA       		.byte	0xfa
 3802 0927 1A       		.uleb128 0x1a
 3803 0928 01       		.uleb128 0x1
 3804 0929 51       		.byte	0x51
ARM GAS  C:\Users\leoja\AppData\Local\Temp\cciPvcJP.s 			page 86


 3805 092a 02       		.uleb128 0x2
 3806 092b 08       		.byte	0x8
 3807 092c CD       		.byte	0xcd
 3808 092d 1A       		.uleb128 0x1a
 3809 092e 01       		.uleb128 0x1
 3810 092f 52       		.byte	0x52
 3811 0930 05       		.uleb128 0x5
 3812 0931 03       		.byte	0x3
 3813 0932 3D000000 		.4byte	.LC14
 3814 0936 00       		.byte	0
 3815 0937 00       		.byte	0
 3816 0938 18       		.uleb128 0x18
 3817 0939 80050000 		.4byte	.LASF111
 3818 093d 01       		.byte	0x1
 3819 093e 2F       		.byte	0x2f
 3820 093f 00000000 		.4byte	.LFB37
 3821 0943 48000000 		.4byte	.LFE37-.LFB37
 3822 0947 01       		.uleb128 0x1
 3823 0948 9C       		.byte	0x9c
 3824 0949 E8090000 		.4byte	0x9e8
 3825 094d 19       		.uleb128 0x19
 3826 094e 08000000 		.4byte	.LVL15
 3827 0952 EB190000 		.4byte	0x19eb
 3828 0956 60090000 		.4byte	0x960
 3829 095a 1A       		.uleb128 0x1a
 3830 095b 01       		.uleb128 0x1
 3831 095c 50       		.byte	0x50
 3832 095d 01       		.uleb128 0x1
 3833 095e 30       		.byte	0x30
 3834 095f 00       		.byte	0
 3835 0960 19       		.uleb128 0x19
 3836 0961 12000000 		.4byte	.LVL16
 3837 0965 0E1A0000 		.4byte	0x1a0e
 3838 0969 82090000 		.4byte	0x982
 3839 096d 1A       		.uleb128 0x1a
 3840 096e 01       		.uleb128 0x1
 3841 096f 50       		.byte	0x50
 3842 0970 02       		.uleb128 0x2
 3843 0971 08       		.byte	0x8
 3844 0972 44       		.byte	0x44
 3845 0973 1A       		.uleb128 0x1a
 3846 0974 01       		.uleb128 0x1
 3847 0975 51       		.byte	0x51
 3848 0976 01       		.uleb128 0x1
 3849 0977 3A       		.byte	0x3a
 3850 0978 1A       		.uleb128 0x1a
 3851 0979 01       		.uleb128 0x1
 3852 097a 52       		.byte	0x52
 3853 097b 05       		.uleb128 0x5
 3854 097c 03       		.byte	0x3
 3855 097d 44000000 		.4byte	.LC16
 3856 0981 00       		.byte	0
 3857 0982 19       		.uleb128 0x19
 3858 0983 1E000000 		.4byte	.LVL17
 3859 0987 0E1A0000 		.4byte	0x1a0e
 3860 098b A5090000 		.4byte	0x9a5
 3861 098f 1A       		.uleb128 0x1a
ARM GAS  C:\Users\leoja\AppData\Local\Temp\cciPvcJP.s 			page 87


 3862 0990 01       		.uleb128 0x1
 3863 0991 50       		.byte	0x50
 3864 0992 03       		.uleb128 0x3
 3865 0993 0A       		.byte	0xa
 3866 0994 2901     		.2byte	0x129
 3867 0996 1A       		.uleb128 0x1a
 3868 0997 01       		.uleb128 0x1
 3869 0998 51       		.byte	0x51
 3870 0999 01       		.uleb128 0x1
 3871 099a 3A       		.byte	0x3a
 3872 099b 1A       		.uleb128 0x1a
 3873 099c 01       		.uleb128 0x1
 3874 099d 52       		.byte	0x52
 3875 099e 05       		.uleb128 0x5
 3876 099f 03       		.byte	0x3
 3877 09a0 4D000000 		.4byte	.LC18
 3878 09a4 00       		.byte	0
 3879 09a5 19       		.uleb128 0x19
 3880 09a6 28000000 		.4byte	.LVL18
 3881 09aa 0E1A0000 		.4byte	0x1a0e
 3882 09ae C7090000 		.4byte	0x9c7
 3883 09b2 1A       		.uleb128 0x1a
 3884 09b3 01       		.uleb128 0x1
 3885 09b4 50       		.byte	0x50
 3886 09b5 01       		.uleb128 0x1
 3887 09b6 35       		.byte	0x35
 3888 09b7 1A       		.uleb128 0x1a
 3889 09b8 01       		.uleb128 0x1
 3890 09b9 51       		.byte	0x51
 3891 09ba 02       		.uleb128 0x2
 3892 09bb 08       		.byte	0x8
 3893 09bc B4       		.byte	0xb4
 3894 09bd 1A       		.uleb128 0x1a
 3895 09be 01       		.uleb128 0x1
 3896 09bf 52       		.byte	0x52
 3897 09c0 05       		.uleb128 0x5
 3898 09c1 03       		.byte	0x3
 3899 09c2 16000000 		.4byte	.LC4
 3900 09c6 00       		.byte	0
 3901 09c7 1B       		.uleb128 0x1b
 3902 09c8 34000000 		.4byte	.LVL19
 3903 09cc 0E1A0000 		.4byte	0x1a0e
 3904 09d0 1A       		.uleb128 0x1a
 3905 09d1 01       		.uleb128 0x1
 3906 09d2 50       		.byte	0x50
 3907 09d3 03       		.uleb128 0x3
 3908 09d4 0A       		.byte	0xa
 3909 09d5 1301     		.2byte	0x113
 3910 09d7 1A       		.uleb128 0x1a
 3911 09d8 01       		.uleb128 0x1
 3912 09d9 51       		.byte	0x51
 3913 09da 02       		.uleb128 0x2
 3914 09db 08       		.byte	0x8
 3915 09dc B4       		.byte	0xb4
 3916 09dd 1A       		.uleb128 0x1a
 3917 09de 01       		.uleb128 0x1
 3918 09df 52       		.byte	0x52
ARM GAS  C:\Users\leoja\AppData\Local\Temp\cciPvcJP.s 			page 88


 3919 09e0 05       		.uleb128 0x5
 3920 09e1 03       		.byte	0x3
 3921 09e2 23000000 		.4byte	.LC8
 3922 09e6 00       		.byte	0
 3923 09e7 00       		.byte	0
 3924 09e8 1C       		.uleb128 0x1c
 3925 09e9 54060000 		.4byte	.LASF119
 3926 09ed 01       		.byte	0x1
 3927 09ee 85       		.byte	0x85
 3928 09ef 00000000 		.4byte	.LFB38
 3929 09f3 5C010000 		.4byte	.LFE38-.LFB38
 3930 09f7 01       		.uleb128 0x1
 3931 09f8 9C       		.byte	0x9c
 3932 09f9 910B0000 		.4byte	0xb91
 3933 09fd 1D       		.uleb128 0x1d
 3934 09fe 67030000 		.4byte	.LASF68
 3935 0a02 01       		.byte	0x1
 3936 0a03 85       		.byte	0x85
 3937 0a04 AD000000 		.4byte	0xad
 3938 0a08 00000000 		.4byte	.LLST0
 3939 0a0c 1E       		.uleb128 0x1e
 3940 0a0d 783100   		.ascii	"x1\000"
 3941 0a10 01       		.byte	0x1
 3942 0a11 85       		.byte	0x85
 3943 0a12 C3000000 		.4byte	0xc3
 3944 0a16 21000000 		.4byte	.LLST1
 3945 0a1a 1E       		.uleb128 0x1e
 3946 0a1b 793100   		.ascii	"y1\000"
 3947 0a1e 01       		.byte	0x1
 3948 0a1f 85       		.byte	0x85
 3949 0a20 C3000000 		.4byte	0xc3
 3950 0a24 42000000 		.4byte	.LLST2
 3951 0a28 1E       		.uleb128 0x1e
 3952 0a29 783200   		.ascii	"x2\000"
 3953 0a2c 01       		.byte	0x1
 3954 0a2d 85       		.byte	0x85
 3955 0a2e C3000000 		.4byte	0xc3
 3956 0a32 63000000 		.4byte	.LLST3
 3957 0a36 1E       		.uleb128 0x1e
 3958 0a37 793200   		.ascii	"y2\000"
 3959 0a3a 01       		.byte	0x1
 3960 0a3b 85       		.byte	0x85
 3961 0a3c C3000000 		.4byte	0xc3
 3962 0a40 84000000 		.4byte	.LLST4
 3963 0a44 1D       		.uleb128 0x1d
 3964 0a45 E8030000 		.4byte	.LASF112
 3965 0a49 01       		.byte	0x1
 3966 0a4a 85       		.byte	0x85
 3967 0a4b AD000000 		.4byte	0xad
 3968 0a4f B0000000 		.4byte	.LLST5
 3969 0a53 1F       		.uleb128 0x1f
 3970 0a54 5D060000 		.4byte	.LASF113
 3971 0a58 01       		.byte	0x1
 3972 0a59 86       		.byte	0x86
 3973 0a5a 94000000 		.4byte	0x94
 3974 0a5e F4000000 		.4byte	.LLST6
 3975 0a62 1F       		.uleb128 0x1f
ARM GAS  C:\Users\leoja\AppData\Local\Temp\cciPvcJP.s 			page 89


 3976 0a63 E2040000 		.4byte	.LASF114
 3977 0a67 01       		.byte	0x1
 3978 0a68 87       		.byte	0x87
 3979 0a69 94000000 		.4byte	0x94
 3980 0a6d 07010000 		.4byte	.LLST7
 3981 0a71 1F       		.uleb128 0x1f
 3982 0a72 3A030000 		.4byte	.LASF115
 3983 0a76 01       		.byte	0x1
 3984 0a77 87       		.byte	0x87
 3985 0a78 94000000 		.4byte	0x94
 3986 0a7c 30010000 		.4byte	.LLST8
 3987 0a80 1F       		.uleb128 0x1f
 3988 0a81 3B050000 		.4byte	.LASF116
 3989 0a85 01       		.byte	0x1
 3990 0a86 88       		.byte	0x88
 3991 0a87 94000000 		.4byte	0x94
 3992 0a8b 83010000 		.4byte	.LLST9
 3993 0a8f 1F       		.uleb128 0x1f
 3994 0a90 10020000 		.4byte	.LASF117
 3995 0a94 01       		.byte	0x1
 3996 0a95 98       		.byte	0x98
 3997 0a96 B4030000 		.4byte	0x3b4
 3998 0a9a BD010000 		.4byte	.LLST10
 3999 0a9e 20       		.uleb128 0x20
 4000 0a9f 94000000 		.4byte	.LBB2
 4001 0aa3 A2000000 		.4byte	.LBE2-.LBB2
 4002 0aa7 510B0000 		.4byte	0xb51
 4003 0aab 21       		.uleb128 0x21
 4004 0aac 08000000 		.4byte	.LASF118
 4005 0ab0 01       		.byte	0x1
 4006 0ab1 A5       		.byte	0xa5
 4007 0ab2 910B0000 		.4byte	0xb91
 4008 0ab6 02       		.uleb128 0x2
 4009 0ab7 91       		.byte	0x91
 4010 0ab8 64       		.sleb128 -28
 4011 0ab9 19       		.uleb128 0x19
 4012 0aba A0000000 		.4byte	.LVL39
 4013 0abe 1A1A0000 		.4byte	0x1a1a
 4014 0ac2 DC0A0000 		.4byte	0xadc
 4015 0ac6 1A       		.uleb128 0x1a
 4016 0ac7 01       		.uleb128 0x1
 4017 0ac8 50       		.byte	0x50
 4018 0ac9 02       		.uleb128 0x2
 4019 0aca 77       		.byte	0x77
 4020 0acb 00       		.sleb128 0
 4021 0acc 1A       		.uleb128 0x1a
 4022 0acd 01       		.uleb128 0x1
 4023 0ace 51       		.byte	0x51
 4024 0acf 05       		.uleb128 0x5
 4025 0ad0 03       		.byte	0x3
 4026 0ad1 5D000000 		.4byte	.LC26
 4027 0ad5 1A       		.uleb128 0x1a
 4028 0ad6 01       		.uleb128 0x1
 4029 0ad7 52       		.byte	0x52
 4030 0ad8 02       		.uleb128 0x2
 4031 0ad9 75       		.byte	0x75
 4032 0ada 00       		.sleb128 0
ARM GAS  C:\Users\leoja\AppData\Local\Temp\cciPvcJP.s 			page 90


 4033 0adb 00       		.byte	0
 4034 0adc 19       		.uleb128 0x19
 4035 0add EE000000 		.4byte	.LVL43
 4036 0ae1 F7190000 		.4byte	0x19f7
 4037 0ae5 090B0000 		.4byte	0xb09
 4038 0ae9 1A       		.uleb128 0x1a
 4039 0aea 01       		.uleb128 0x1
 4040 0aeb 50       		.byte	0x50
 4041 0aec 04       		.uleb128 0x4
 4042 0aed 7D       		.byte	0x7d
 4043 0aee 0C       		.sleb128 12
 4044 0aef 94       		.byte	0x94
 4045 0af0 02       		.byte	0x2
 4046 0af1 1A       		.uleb128 0x1a
 4047 0af2 01       		.uleb128 0x1
 4048 0af3 52       		.byte	0x52
 4049 0af4 04       		.uleb128 0x4
 4050 0af5 7D       		.byte	0x7d
 4051 0af6 10       		.sleb128 16
 4052 0af7 94       		.byte	0x94
 4053 0af8 02       		.byte	0x2
 4054 0af9 1A       		.uleb128 0x1a
 4055 0afa 01       		.uleb128 0x1
 4056 0afb 53       		.byte	0x53
 4057 0afc 04       		.uleb128 0x4
 4058 0afd 7D       		.byte	0x7d
 4059 0afe 14       		.sleb128 20
 4060 0aff 94       		.byte	0x94
 4061 0b00 02       		.byte	0x2
 4062 0b01 1A       		.uleb128 0x1a
 4063 0b02 02       		.uleb128 0x2
 4064 0b03 7D       		.byte	0x7d
 4065 0b04 00       		.sleb128 0
 4066 0b05 02       		.uleb128 0x2
 4067 0b06 75       		.byte	0x75
 4068 0b07 00       		.sleb128 0
 4069 0b08 00       		.byte	0
 4070 0b09 19       		.uleb128 0x19
 4071 0b0a 22010000 		.4byte	.LVL48
 4072 0b0e F7190000 		.4byte	0x19f7
 4073 0b12 360B0000 		.4byte	0xb36
 4074 0b16 1A       		.uleb128 0x1a
 4075 0b17 01       		.uleb128 0x1
 4076 0b18 50       		.byte	0x50
 4077 0b19 04       		.uleb128 0x4
 4078 0b1a 7D       		.byte	0x7d
 4079 0b1b 0C       		.sleb128 12
 4080 0b1c 94       		.byte	0x94
 4081 0b1d 02       		.byte	0x2
 4082 0b1e 1A       		.uleb128 0x1a
 4083 0b1f 01       		.uleb128 0x1
 4084 0b20 52       		.byte	0x52
 4085 0b21 04       		.uleb128 0x4
 4086 0b22 7D       		.byte	0x7d
 4087 0b23 10       		.sleb128 16
 4088 0b24 94       		.byte	0x94
 4089 0b25 02       		.byte	0x2
ARM GAS  C:\Users\leoja\AppData\Local\Temp\cciPvcJP.s 			page 91


 4090 0b26 1A       		.uleb128 0x1a
 4091 0b27 01       		.uleb128 0x1
 4092 0b28 53       		.byte	0x53
 4093 0b29 04       		.uleb128 0x4
 4094 0b2a 7D       		.byte	0x7d
 4095 0b2b 14       		.sleb128 20
 4096 0b2c 94       		.byte	0x94
 4097 0b2d 02       		.byte	0x2
 4098 0b2e 1A       		.uleb128 0x1a
 4099 0b2f 02       		.uleb128 0x2
 4100 0b30 7D       		.byte	0x7d
 4101 0b31 00       		.sleb128 0
 4102 0b32 02       		.uleb128 0x2
 4103 0b33 75       		.byte	0x75
 4104 0b34 00       		.sleb128 0
 4105 0b35 00       		.byte	0
 4106 0b36 1B       		.uleb128 0x1b
 4107 0b37 36010000 		.4byte	.LVL50
 4108 0b3b 251A0000 		.4byte	0x1a25
 4109 0b3f 1A       		.uleb128 0x1a
 4110 0b40 01       		.uleb128 0x1
 4111 0b41 50       		.byte	0x50
 4112 0b42 04       		.uleb128 0x4
 4113 0b43 91       		.byte	0x91
 4114 0b44 5C       		.sleb128 -36
 4115 0b45 94       		.byte	0x94
 4116 0b46 02       		.byte	0x2
 4117 0b47 1A       		.uleb128 0x1a
 4118 0b48 01       		.uleb128 0x1
 4119 0b49 51       		.byte	0x51
 4120 0b4a 04       		.uleb128 0x4
 4121 0b4b 91       		.byte	0x91
 4122 0b4c 58       		.sleb128 -40
 4123 0b4d 94       		.byte	0x94
 4124 0b4e 02       		.byte	0x2
 4125 0b4f 00       		.byte	0
 4126 0b50 00       		.byte	0
 4127 0b51 22       		.uleb128 0x22
 4128 0b52 54000000 		.4byte	.LVL33
 4129 0b56 311A0000 		.4byte	0x1a31
 4130 0b5a 19       		.uleb128 0x19
 4131 0b5b 86000000 		.4byte	.LVL36
 4132 0b5f F7190000 		.4byte	0x19f7
 4133 0b63 870B0000 		.4byte	0xb87
 4134 0b67 1A       		.uleb128 0x1a
 4135 0b68 01       		.uleb128 0x1
 4136 0b69 50       		.byte	0x50
 4137 0b6a 04       		.uleb128 0x4
 4138 0b6b 7D       		.byte	0x7d
 4139 0b6c 0C       		.sleb128 12
 4140 0b6d 94       		.byte	0x94
 4141 0b6e 02       		.byte	0x2
 4142 0b6f 1A       		.uleb128 0x1a
 4143 0b70 01       		.uleb128 0x1
 4144 0b71 52       		.byte	0x52
 4145 0b72 04       		.uleb128 0x4
 4146 0b73 7D       		.byte	0x7d
ARM GAS  C:\Users\leoja\AppData\Local\Temp\cciPvcJP.s 			page 92


 4147 0b74 10       		.sleb128 16
 4148 0b75 94       		.byte	0x94
 4149 0b76 02       		.byte	0x2
 4150 0b77 1A       		.uleb128 0x1a
 4151 0b78 01       		.uleb128 0x1
 4152 0b79 53       		.byte	0x53
 4153 0b7a 04       		.uleb128 0x4
 4154 0b7b 7D       		.byte	0x7d
 4155 0b7c 14       		.sleb128 20
 4156 0b7d 94       		.byte	0x94
 4157 0b7e 02       		.byte	0x2
 4158 0b7f 1A       		.uleb128 0x1a
 4159 0b80 02       		.uleb128 0x2
 4160 0b81 7D       		.byte	0x7d
 4161 0b82 00       		.sleb128 0
 4162 0b83 02       		.uleb128 0x2
 4163 0b84 75       		.byte	0x75
 4164 0b85 00       		.sleb128 0
 4165 0b86 00       		.byte	0
 4166 0b87 22       		.uleb128 0x22
 4167 0b88 3C010000 		.4byte	.LVL51
 4168 0b8c 311A0000 		.4byte	0x1a31
 4169 0b90 00       		.byte	0
 4170 0b91 16       		.uleb128 0x16
 4171 0b92 F3000000 		.4byte	0xf3
 4172 0b96 A10B0000 		.4byte	0xba1
 4173 0b9a 17       		.uleb128 0x17
 4174 0b9b 01010000 		.4byte	0x101
 4175 0b9f 03       		.byte	0x3
 4176 0ba0 00       		.byte	0
 4177 0ba1 1C       		.uleb128 0x1c
 4178 0ba2 28050000 		.4byte	.LASF120
 4179 0ba6 01       		.byte	0x1
 4180 0ba7 F0       		.byte	0xf0
 4181 0ba8 00000000 		.4byte	.LFB39
 4182 0bac 0C010000 		.4byte	.LFE39-.LFB39
 4183 0bb0 01       		.uleb128 0x1
 4184 0bb1 9C       		.byte	0x9c
 4185 0bb2 5C0D0000 		.4byte	0xd5c
 4186 0bb6 1D       		.uleb128 0x1d
 4187 0bb7 67030000 		.4byte	.LASF68
 4188 0bbb 01       		.byte	0x1
 4189 0bbc F0       		.byte	0xf0
 4190 0bbd AD000000 		.4byte	0xad
 4191 0bc1 ED010000 		.4byte	.LLST11
 4192 0bc5 1E       		.uleb128 0x1e
 4193 0bc6 783100   		.ascii	"x1\000"
 4194 0bc9 01       		.byte	0x1
 4195 0bca F0       		.byte	0xf0
 4196 0bcb C3000000 		.4byte	0xc3
 4197 0bcf 0E020000 		.4byte	.LLST12
 4198 0bd3 1E       		.uleb128 0x1e
 4199 0bd4 793100   		.ascii	"y1\000"
 4200 0bd7 01       		.byte	0x1
 4201 0bd8 F0       		.byte	0xf0
 4202 0bd9 C3000000 		.4byte	0xc3
 4203 0bdd 2F020000 		.4byte	.LLST13
ARM GAS  C:\Users\leoja\AppData\Local\Temp\cciPvcJP.s 			page 93


 4204 0be1 1E       		.uleb128 0x1e
 4205 0be2 783200   		.ascii	"x2\000"
 4206 0be5 01       		.byte	0x1
 4207 0be6 F0       		.byte	0xf0
 4208 0be7 C3000000 		.4byte	0xc3
 4209 0beb 50020000 		.4byte	.LLST14
 4210 0bef 1E       		.uleb128 0x1e
 4211 0bf0 793200   		.ascii	"y2\000"
 4212 0bf3 01       		.byte	0x1
 4213 0bf4 F0       		.byte	0xf0
 4214 0bf5 C3000000 		.4byte	0xc3
 4215 0bf9 71020000 		.4byte	.LLST15
 4216 0bfd 1D       		.uleb128 0x1d
 4217 0bfe E8030000 		.4byte	.LASF112
 4218 0c02 01       		.byte	0x1
 4219 0c03 F0       		.byte	0xf0
 4220 0c04 AD000000 		.4byte	0xad
 4221 0c08 9D020000 		.4byte	.LLST16
 4222 0c0c 1F       		.uleb128 0x1f
 4223 0c0d E2040000 		.4byte	.LASF114
 4224 0c11 01       		.byte	0x1
 4225 0c12 F1       		.byte	0xf1
 4226 0c13 94000000 		.4byte	0x94
 4227 0c17 E1020000 		.4byte	.LLST17
 4228 0c1b 1F       		.uleb128 0x1f
 4229 0c1c 3A030000 		.4byte	.LASF115
 4230 0c20 01       		.byte	0x1
 4231 0c21 F1       		.byte	0xf1
 4232 0c22 94000000 		.4byte	0x94
 4233 0c26 00030000 		.4byte	.LLST18
 4234 0c2a 1F       		.uleb128 0x1f
 4235 0c2b 3B050000 		.4byte	.LASF116
 4236 0c2f 01       		.byte	0x1
 4237 0c30 F2       		.byte	0xf2
 4238 0c31 94000000 		.4byte	0x94
 4239 0c35 1F030000 		.4byte	.LLST19
 4240 0c39 23       		.uleb128 0x23
 4241 0c3a 5D060000 		.4byte	.LASF113
 4242 0c3e 01       		.byte	0x1
 4243 0c3f F3       		.byte	0xf3
 4244 0c40 94000000 		.4byte	0x94
 4245 0c44 03       		.byte	0x3
 4246 0c45 1F       		.uleb128 0x1f
 4247 0c46 10020000 		.4byte	.LASF117
 4248 0c4a 01       		.byte	0x1
 4249 0c4b FC       		.byte	0xfc
 4250 0c4c B4030000 		.4byte	0x3b4
 4251 0c50 6A030000 		.4byte	.LLST20
 4252 0c54 24       		.uleb128 0x24
 4253 0c55 08000000 		.4byte	.LASF118
 4254 0c59 01       		.byte	0x1
 4255 0c5a 1301     		.2byte	0x113
 4256 0c5c 910B0000 		.4byte	0xb91
 4257 0c60 02       		.uleb128 0x2
 4258 0c61 91       		.byte	0x91
 4259 0c62 64       		.sleb128 -28
 4260 0c63 22       		.uleb128 0x22
ARM GAS  C:\Users\leoja\AppData\Local\Temp\cciPvcJP.s 			page 94


 4261 0c64 4C000000 		.4byte	.LVL65
 4262 0c68 311A0000 		.4byte	0x1a31
 4263 0c6c 19       		.uleb128 0x19
 4264 0c6d 86000000 		.4byte	.LVL67
 4265 0c71 F7190000 		.4byte	0x19f7
 4266 0c75 9A0C0000 		.4byte	0xc9a
 4267 0c79 1A       		.uleb128 0x1a
 4268 0c7a 01       		.uleb128 0x1
 4269 0c7b 50       		.byte	0x50
 4270 0c7c 02       		.uleb128 0x2
 4271 0c7d 75       		.byte	0x75
 4272 0c7e 00       		.sleb128 0
 4273 0c7f 1A       		.uleb128 0x1a
 4274 0c80 01       		.uleb128 0x1
 4275 0c81 51       		.byte	0x51
 4276 0c82 02       		.uleb128 0x2
 4277 0c83 76       		.byte	0x76
 4278 0c84 00       		.sleb128 0
 4279 0c85 1A       		.uleb128 0x1a
 4280 0c86 01       		.uleb128 0x1
 4281 0c87 52       		.byte	0x52
 4282 0c88 02       		.uleb128 0x2
 4283 0c89 77       		.byte	0x77
 4284 0c8a 00       		.sleb128 0
 4285 0c8b 1A       		.uleb128 0x1a
 4286 0c8c 01       		.uleb128 0x1
 4287 0c8d 53       		.byte	0x53
 4288 0c8e 04       		.uleb128 0x4
 4289 0c8f 91       		.byte	0x91
 4290 0c90 54       		.sleb128 -44
 4291 0c91 94       		.byte	0x94
 4292 0c92 02       		.byte	0x2
 4293 0c93 1A       		.uleb128 0x1a
 4294 0c94 02       		.uleb128 0x2
 4295 0c95 7D       		.byte	0x7d
 4296 0c96 00       		.sleb128 0
 4297 0c97 01       		.uleb128 0x1
 4298 0c98 30       		.byte	0x30
 4299 0c99 00       		.byte	0
 4300 0c9a 19       		.uleb128 0x19
 4301 0c9b 94000000 		.4byte	.LVL68
 4302 0c9f F7190000 		.4byte	0x19f7
 4303 0ca3 C90C0000 		.4byte	0xcc9
 4304 0ca7 1A       		.uleb128 0x1a
 4305 0ca8 01       		.uleb128 0x1
 4306 0ca9 50       		.byte	0x50
 4307 0caa 02       		.uleb128 0x2
 4308 0cab 75       		.byte	0x75
 4309 0cac 00       		.sleb128 0
 4310 0cad 1A       		.uleb128 0x1a
 4311 0cae 01       		.uleb128 0x1
 4312 0caf 51       		.byte	0x51
 4313 0cb0 02       		.uleb128 0x2
 4314 0cb1 76       		.byte	0x76
 4315 0cb2 00       		.sleb128 0
 4316 0cb3 1A       		.uleb128 0x1a
 4317 0cb4 01       		.uleb128 0x1
ARM GAS  C:\Users\leoja\AppData\Local\Temp\cciPvcJP.s 			page 95


 4318 0cb5 52       		.byte	0x52
 4319 0cb6 02       		.uleb128 0x2
 4320 0cb7 77       		.byte	0x77
 4321 0cb8 00       		.sleb128 0
 4322 0cb9 1A       		.uleb128 0x1a
 4323 0cba 01       		.uleb128 0x1
 4324 0cbb 53       		.byte	0x53
 4325 0cbc 04       		.uleb128 0x4
 4326 0cbd 91       		.byte	0x91
 4327 0cbe 54       		.sleb128 -44
 4328 0cbf 94       		.byte	0x94
 4329 0cc0 02       		.byte	0x2
 4330 0cc1 1A       		.uleb128 0x1a
 4331 0cc2 02       		.uleb128 0x2
 4332 0cc3 7D       		.byte	0x7d
 4333 0cc4 00       		.sleb128 0
 4334 0cc5 02       		.uleb128 0x2
 4335 0cc6 74       		.byte	0x74
 4336 0cc7 00       		.sleb128 0
 4337 0cc8 00       		.byte	0
 4338 0cc9 19       		.uleb128 0x19
 4339 0cca C8000000 		.4byte	.LVL71
 4340 0cce F7190000 		.4byte	0x19f7
 4341 0cd2 FE0C0000 		.4byte	0xcfe
 4342 0cd6 1A       		.uleb128 0x1a
 4343 0cd7 01       		.uleb128 0x1
 4344 0cd8 50       		.byte	0x50
 4345 0cd9 04       		.uleb128 0x4
 4346 0cda 7D       		.byte	0x7d
 4347 0cdb 0C       		.sleb128 12
 4348 0cdc 94       		.byte	0x94
 4349 0cdd 02       		.byte	0x2
 4350 0cde 1A       		.uleb128 0x1a
 4351 0cdf 01       		.uleb128 0x1
 4352 0ce0 51       		.byte	0x51
 4353 0ce1 04       		.uleb128 0x4
 4354 0ce2 7D       		.byte	0x7d
 4355 0ce3 10       		.sleb128 16
 4356 0ce4 94       		.byte	0x94
 4357 0ce5 02       		.byte	0x2
 4358 0ce6 1A       		.uleb128 0x1a
 4359 0ce7 01       		.uleb128 0x1
 4360 0ce8 52       		.byte	0x52
 4361 0ce9 04       		.uleb128 0x4
 4362 0cea 7D       		.byte	0x7d
 4363 0ceb 14       		.sleb128 20
 4364 0cec 94       		.byte	0x94
 4365 0ced 02       		.byte	0x2
 4366 0cee 1A       		.uleb128 0x1a
 4367 0cef 01       		.uleb128 0x1
 4368 0cf0 53       		.byte	0x53
 4369 0cf1 04       		.uleb128 0x4
 4370 0cf2 7D       		.byte	0x7d
 4371 0cf3 18       		.sleb128 24
 4372 0cf4 94       		.byte	0x94
 4373 0cf5 02       		.byte	0x2
 4374 0cf6 1A       		.uleb128 0x1a
ARM GAS  C:\Users\leoja\AppData\Local\Temp\cciPvcJP.s 			page 96


 4375 0cf7 02       		.uleb128 0x2
 4376 0cf8 7D       		.byte	0x7d
 4377 0cf9 00       		.sleb128 0
 4378 0cfa 02       		.uleb128 0x2
 4379 0cfb 74       		.byte	0x74
 4380 0cfc 00       		.sleb128 0
 4381 0cfd 00       		.byte	0
 4382 0cfe 19       		.uleb128 0x19
 4383 0cff D4000000 		.4byte	.LVL72
 4384 0d03 1A1A0000 		.4byte	0x1a1a
 4385 0d07 220D0000 		.4byte	0xd22
 4386 0d0b 1A       		.uleb128 0x1a
 4387 0d0c 01       		.uleb128 0x1
 4388 0d0d 50       		.byte	0x50
 4389 0d0e 02       		.uleb128 0x2
 4390 0d0f 91       		.byte	0x91
 4391 0d10 64       		.sleb128 -28
 4392 0d11 1A       		.uleb128 0x1a
 4393 0d12 01       		.uleb128 0x1
 4394 0d13 51       		.byte	0x51
 4395 0d14 05       		.uleb128 0x5
 4396 0d15 03       		.byte	0x3
 4397 0d16 60000000 		.4byte	.LC31
 4398 0d1a 1A       		.uleb128 0x1a
 4399 0d1b 01       		.uleb128 0x1
 4400 0d1c 52       		.byte	0x52
 4401 0d1d 03       		.uleb128 0x3
 4402 0d1e 91       		.byte	0x91
 4403 0d1f 40       		.sleb128 -64
 4404 0d20 06       		.byte	0x6
 4405 0d21 00       		.byte	0
 4406 0d22 19       		.uleb128 0x19
 4407 0d23 EA000000 		.4byte	.LVL73
 4408 0d27 251A0000 		.4byte	0x1a25
 4409 0d2b 520D0000 		.4byte	0xd52
 4410 0d2f 1A       		.uleb128 0x1a
 4411 0d30 01       		.uleb128 0x1
 4412 0d31 50       		.byte	0x50
 4413 0d32 04       		.uleb128 0x4
 4414 0d33 7D       		.byte	0x7d
 4415 0d34 20       		.sleb128 32
 4416 0d35 94       		.byte	0x94
 4417 0d36 02       		.byte	0x2
 4418 0d37 1A       		.uleb128 0x1a
 4419 0d38 01       		.uleb128 0x1
 4420 0d39 51       		.byte	0x51
 4421 0d3a 04       		.uleb128 0x4
 4422 0d3b 7D       		.byte	0x7d
 4423 0d3c 24       		.sleb128 36
 4424 0d3d 94       		.byte	0x94
 4425 0d3e 02       		.byte	0x2
 4426 0d3f 1A       		.uleb128 0x1a
 4427 0d40 01       		.uleb128 0x1
 4428 0d41 52       		.byte	0x52
 4429 0d42 02       		.uleb128 0x2
 4430 0d43 91       		.byte	0x91
 4431 0d44 64       		.sleb128 -28
ARM GAS  C:\Users\leoja\AppData\Local\Temp\cciPvcJP.s 			page 97


 4432 0d45 1A       		.uleb128 0x1a
 4433 0d46 01       		.uleb128 0x1
 4434 0d47 53       		.byte	0x53
 4435 0d48 01       		.uleb128 0x1
 4436 0d49 30       		.byte	0x30
 4437 0d4a 1A       		.uleb128 0x1a
 4438 0d4b 02       		.uleb128 0x2
 4439 0d4c 7D       		.byte	0x7d
 4440 0d4d 00       		.sleb128 0
 4441 0d4e 02       		.uleb128 0x2
 4442 0d4f 74       		.byte	0x74
 4443 0d50 00       		.sleb128 0
 4444 0d51 00       		.byte	0
 4445 0d52 22       		.uleb128 0x22
 4446 0d53 F0000000 		.4byte	.LVL74
 4447 0d57 311A0000 		.4byte	0x1a31
 4448 0d5b 00       		.byte	0
 4449 0d5c 25       		.uleb128 0x25
 4450 0d5d CA020000 		.4byte	.LASF121
 4451 0d61 01       		.byte	0x1
 4452 0d62 8E01     		.2byte	0x18e
 4453 0d64 00000000 		.4byte	.LFB40
 4454 0d68 60030000 		.4byte	.LFE40-.LFB40
 4455 0d6c 01       		.uleb128 0x1
 4456 0d6d 9C       		.byte	0x9c
 4457 0d6e 78100000 		.4byte	0x1078
 4458 0d72 26       		.uleb128 0x26
 4459 0d73 43060000 		.4byte	.LASF61
 4460 0d77 01       		.byte	0x1
 4461 0d78 8E01     		.2byte	0x18e
 4462 0d7a AD000000 		.4byte	0xad
 4463 0d7e 8C030000 		.4byte	.LLST21
 4464 0d82 27       		.uleb128 0x27
 4465 0d83 783100   		.ascii	"x1\000"
 4466 0d86 01       		.byte	0x1
 4467 0d87 8E01     		.2byte	0x18e
 4468 0d89 C3000000 		.4byte	0xc3
 4469 0d8d AD030000 		.4byte	.LLST22
 4470 0d91 27       		.uleb128 0x27
 4471 0d92 793100   		.ascii	"y1\000"
 4472 0d95 01       		.byte	0x1
 4473 0d96 8E01     		.2byte	0x18e
 4474 0d98 C3000000 		.4byte	0xc3
 4475 0d9c CE030000 		.4byte	.LLST23
 4476 0da0 27       		.uleb128 0x27
 4477 0da1 783200   		.ascii	"x2\000"
 4478 0da4 01       		.byte	0x1
 4479 0da5 8E01     		.2byte	0x18e
 4480 0da7 C3000000 		.4byte	0xc3
 4481 0dab EF030000 		.4byte	.LLST24
 4482 0daf 27       		.uleb128 0x27
 4483 0db0 793200   		.ascii	"y2\000"
 4484 0db3 01       		.byte	0x1
 4485 0db4 8E01     		.2byte	0x18e
 4486 0db6 C3000000 		.4byte	0xc3
 4487 0dba 10040000 		.4byte	.LLST25
 4488 0dbe 26       		.uleb128 0x26
ARM GAS  C:\Users\leoja\AppData\Local\Temp\cciPvcJP.s 			page 98


 4489 0dbf E8030000 		.4byte	.LASF112
 4490 0dc3 01       		.byte	0x1
 4491 0dc4 8E01     		.2byte	0x18e
 4492 0dc6 AD000000 		.4byte	0xad
 4493 0dca 3C040000 		.4byte	.LLST26
 4494 0dce 28       		.uleb128 0x28
 4495 0dcf E2040000 		.4byte	.LASF114
 4496 0dd3 01       		.byte	0x1
 4497 0dd4 8F01     		.2byte	0x18f
 4498 0dd6 94000000 		.4byte	0x94
 4499 0dda 74040000 		.4byte	.LLST27
 4500 0dde 28       		.uleb128 0x28
 4501 0ddf 3A030000 		.4byte	.LASF115
 4502 0de3 01       		.byte	0x1
 4503 0de4 8F01     		.2byte	0x18f
 4504 0de6 94000000 		.4byte	0x94
 4505 0dea 93040000 		.4byte	.LLST28
 4506 0dee 28       		.uleb128 0x28
 4507 0def 3B050000 		.4byte	.LASF116
 4508 0df3 01       		.byte	0x1
 4509 0df4 9001     		.2byte	0x190
 4510 0df6 94000000 		.4byte	0x94
 4511 0dfa B2040000 		.4byte	.LLST29
 4512 0dfe 29       		.uleb128 0x29
 4513 0dff 5D060000 		.4byte	.LASF113
 4514 0e03 01       		.byte	0x1
 4515 0e04 9101     		.2byte	0x191
 4516 0e06 94000000 		.4byte	0x94
 4517 0e0a 0A       		.byte	0xa
 4518 0e0b 28       		.uleb128 0x28
 4519 0e0c 10020000 		.4byte	.LASF117
 4520 0e10 01       		.byte	0x1
 4521 0e11 9901     		.2byte	0x199
 4522 0e13 B4030000 		.4byte	0x3b4
 4523 0e17 FD040000 		.4byte	.LLST30
 4524 0e1b 20       		.uleb128 0x20
 4525 0e1c 54000000 		.4byte	.LBB3
 4526 0e20 58020000 		.4byte	.LBE3-.LBB3
 4527 0e24 24100000 		.4byte	0x1024
 4528 0e28 28       		.uleb128 0x28
 4529 0e29 F3060000 		.4byte	.LASF122
 4530 0e2d 01       		.byte	0x1
 4531 0e2e 9D01     		.2byte	0x19d
 4532 0e30 D9000000 		.4byte	0xd9
 4533 0e34 60050000 		.4byte	.LLST31
 4534 0e38 19       		.uleb128 0x19
 4535 0e39 9C000000 		.4byte	.LVL92
 4536 0e3d F7190000 		.4byte	0x19f7
 4537 0e41 650E0000 		.4byte	0xe65
 4538 0e45 1A       		.uleb128 0x1a
 4539 0e46 01       		.uleb128 0x1
 4540 0e47 50       		.byte	0x50
 4541 0e48 04       		.uleb128 0x4
 4542 0e49 7D       		.byte	0x7d
 4543 0e4a 0C       		.sleb128 12
 4544 0e4b 94       		.byte	0x94
 4545 0e4c 02       		.byte	0x2
ARM GAS  C:\Users\leoja\AppData\Local\Temp\cciPvcJP.s 			page 99


 4546 0e4d 1A       		.uleb128 0x1a
 4547 0e4e 01       		.uleb128 0x1
 4548 0e4f 51       		.byte	0x51
 4549 0e50 04       		.uleb128 0x4
 4550 0e51 7D       		.byte	0x7d
 4551 0e52 10       		.sleb128 16
 4552 0e53 94       		.byte	0x94
 4553 0e54 02       		.byte	0x2
 4554 0e55 1A       		.uleb128 0x1a
 4555 0e56 01       		.uleb128 0x1
 4556 0e57 52       		.byte	0x52
 4557 0e58 04       		.uleb128 0x4
 4558 0e59 7D       		.byte	0x7d
 4559 0e5a 14       		.sleb128 20
 4560 0e5b 94       		.byte	0x94
 4561 0e5c 02       		.byte	0x2
 4562 0e5d 1A       		.uleb128 0x1a
 4563 0e5e 02       		.uleb128 0x2
 4564 0e5f 7D       		.byte	0x7d
 4565 0e60 00       		.sleb128 0
 4566 0e61 02       		.uleb128 0x2
 4567 0e62 74       		.byte	0x74
 4568 0e63 00       		.sleb128 0
 4569 0e64 00       		.byte	0
 4570 0e65 19       		.uleb128 0x19
 4571 0e66 CE000000 		.4byte	.LVL94
 4572 0e6a F7190000 		.4byte	0x19f7
 4573 0e6e 920E0000 		.4byte	0xe92
 4574 0e72 1A       		.uleb128 0x1a
 4575 0e73 01       		.uleb128 0x1
 4576 0e74 50       		.byte	0x50
 4577 0e75 04       		.uleb128 0x4
 4578 0e76 7D       		.byte	0x7d
 4579 0e77 0C       		.sleb128 12
 4580 0e78 94       		.byte	0x94
 4581 0e79 02       		.byte	0x2
 4582 0e7a 1A       		.uleb128 0x1a
 4583 0e7b 01       		.uleb128 0x1
 4584 0e7c 51       		.byte	0x51
 4585 0e7d 04       		.uleb128 0x4
 4586 0e7e 7D       		.byte	0x7d
 4587 0e7f 10       		.sleb128 16
 4588 0e80 94       		.byte	0x94
 4589 0e81 02       		.byte	0x2
 4590 0e82 1A       		.uleb128 0x1a
 4591 0e83 01       		.uleb128 0x1
 4592 0e84 52       		.byte	0x52
 4593 0e85 04       		.uleb128 0x4
 4594 0e86 7D       		.byte	0x7d
 4595 0e87 14       		.sleb128 20
 4596 0e88 94       		.byte	0x94
 4597 0e89 02       		.byte	0x2
 4598 0e8a 1A       		.uleb128 0x1a
 4599 0e8b 02       		.uleb128 0x2
 4600 0e8c 7D       		.byte	0x7d
 4601 0e8d 00       		.sleb128 0
 4602 0e8e 02       		.uleb128 0x2
ARM GAS  C:\Users\leoja\AppData\Local\Temp\cciPvcJP.s 			page 100


 4603 0e8f 74       		.byte	0x74
 4604 0e90 00       		.sleb128 0
 4605 0e91 00       		.byte	0
 4606 0e92 19       		.uleb128 0x19
 4607 0e93 02010000 		.4byte	.LVL96
 4608 0e97 F7190000 		.4byte	0x19f7
 4609 0e9b BF0E0000 		.4byte	0xebf
 4610 0e9f 1A       		.uleb128 0x1a
 4611 0ea0 01       		.uleb128 0x1
 4612 0ea1 50       		.byte	0x50
 4613 0ea2 04       		.uleb128 0x4
 4614 0ea3 7D       		.byte	0x7d
 4615 0ea4 0C       		.sleb128 12
 4616 0ea5 94       		.byte	0x94
 4617 0ea6 02       		.byte	0x2
 4618 0ea7 1A       		.uleb128 0x1a
 4619 0ea8 01       		.uleb128 0x1
 4620 0ea9 51       		.byte	0x51
 4621 0eaa 04       		.uleb128 0x4
 4622 0eab 7D       		.byte	0x7d
 4623 0eac 10       		.sleb128 16
 4624 0ead 94       		.byte	0x94
 4625 0eae 02       		.byte	0x2
 4626 0eaf 1A       		.uleb128 0x1a
 4627 0eb0 01       		.uleb128 0x1
 4628 0eb1 52       		.byte	0x52
 4629 0eb2 04       		.uleb128 0x4
 4630 0eb3 7D       		.byte	0x7d
 4631 0eb4 14       		.sleb128 20
 4632 0eb5 94       		.byte	0x94
 4633 0eb6 02       		.byte	0x2
 4634 0eb7 1A       		.uleb128 0x1a
 4635 0eb8 02       		.uleb128 0x2
 4636 0eb9 7D       		.byte	0x7d
 4637 0eba 00       		.sleb128 0
 4638 0ebb 02       		.uleb128 0x2
 4639 0ebc 74       		.byte	0x74
 4640 0ebd 00       		.sleb128 0
 4641 0ebe 00       		.byte	0
 4642 0ebf 19       		.uleb128 0x19
 4643 0ec0 38010000 		.4byte	.LVL99
 4644 0ec4 F7190000 		.4byte	0x19f7
 4645 0ec8 EC0E0000 		.4byte	0xeec
 4646 0ecc 1A       		.uleb128 0x1a
 4647 0ecd 01       		.uleb128 0x1
 4648 0ece 50       		.byte	0x50
 4649 0ecf 04       		.uleb128 0x4
 4650 0ed0 7D       		.byte	0x7d
 4651 0ed1 0C       		.sleb128 12
 4652 0ed2 94       		.byte	0x94
 4653 0ed3 02       		.byte	0x2
 4654 0ed4 1A       		.uleb128 0x1a
 4655 0ed5 01       		.uleb128 0x1
 4656 0ed6 51       		.byte	0x51
 4657 0ed7 04       		.uleb128 0x4
 4658 0ed8 7D       		.byte	0x7d
 4659 0ed9 10       		.sleb128 16
ARM GAS  C:\Users\leoja\AppData\Local\Temp\cciPvcJP.s 			page 101


 4660 0eda 94       		.byte	0x94
 4661 0edb 02       		.byte	0x2
 4662 0edc 1A       		.uleb128 0x1a
 4663 0edd 01       		.uleb128 0x1
 4664 0ede 52       		.byte	0x52
 4665 0edf 04       		.uleb128 0x4
 4666 0ee0 7D       		.byte	0x7d
 4667 0ee1 14       		.sleb128 20
 4668 0ee2 94       		.byte	0x94
 4669 0ee3 02       		.byte	0x2
 4670 0ee4 1A       		.uleb128 0x1a
 4671 0ee5 02       		.uleb128 0x2
 4672 0ee6 7D       		.byte	0x7d
 4673 0ee7 00       		.sleb128 0
 4674 0ee8 02       		.uleb128 0x2
 4675 0ee9 74       		.byte	0x74
 4676 0eea 00       		.sleb128 0
 4677 0eeb 00       		.byte	0
 4678 0eec 19       		.uleb128 0x19
 4679 0eed 6C010000 		.4byte	.LVL101
 4680 0ef1 F7190000 		.4byte	0x19f7
 4681 0ef5 190F0000 		.4byte	0xf19
 4682 0ef9 1A       		.uleb128 0x1a
 4683 0efa 01       		.uleb128 0x1
 4684 0efb 50       		.byte	0x50
 4685 0efc 04       		.uleb128 0x4
 4686 0efd 7D       		.byte	0x7d
 4687 0efe 0C       		.sleb128 12
 4688 0eff 94       		.byte	0x94
 4689 0f00 02       		.byte	0x2
 4690 0f01 1A       		.uleb128 0x1a
 4691 0f02 01       		.uleb128 0x1
 4692 0f03 51       		.byte	0x51
 4693 0f04 04       		.uleb128 0x4
 4694 0f05 7D       		.byte	0x7d
 4695 0f06 10       		.sleb128 16
 4696 0f07 94       		.byte	0x94
 4697 0f08 02       		.byte	0x2
 4698 0f09 1A       		.uleb128 0x1a
 4699 0f0a 01       		.uleb128 0x1
 4700 0f0b 52       		.byte	0x52
 4701 0f0c 04       		.uleb128 0x4
 4702 0f0d 7D       		.byte	0x7d
 4703 0f0e 14       		.sleb128 20
 4704 0f0f 94       		.byte	0x94
 4705 0f10 02       		.byte	0x2
 4706 0f11 1A       		.uleb128 0x1a
 4707 0f12 02       		.uleb128 0x2
 4708 0f13 7D       		.byte	0x7d
 4709 0f14 00       		.sleb128 0
 4710 0f15 02       		.uleb128 0x2
 4711 0f16 74       		.byte	0x74
 4712 0f17 00       		.sleb128 0
 4713 0f18 00       		.byte	0
 4714 0f19 19       		.uleb128 0x19
 4715 0f1a A0010000 		.4byte	.LVL103
 4716 0f1e F7190000 		.4byte	0x19f7
ARM GAS  C:\Users\leoja\AppData\Local\Temp\cciPvcJP.s 			page 102


 4717 0f22 460F0000 		.4byte	0xf46
 4718 0f26 1A       		.uleb128 0x1a
 4719 0f27 01       		.uleb128 0x1
 4720 0f28 50       		.byte	0x50
 4721 0f29 04       		.uleb128 0x4
 4722 0f2a 7D       		.byte	0x7d
 4723 0f2b 0C       		.sleb128 12
 4724 0f2c 94       		.byte	0x94
 4725 0f2d 02       		.byte	0x2
 4726 0f2e 1A       		.uleb128 0x1a
 4727 0f2f 01       		.uleb128 0x1
 4728 0f30 51       		.byte	0x51
 4729 0f31 04       		.uleb128 0x4
 4730 0f32 7D       		.byte	0x7d
 4731 0f33 10       		.sleb128 16
 4732 0f34 94       		.byte	0x94
 4733 0f35 02       		.byte	0x2
 4734 0f36 1A       		.uleb128 0x1a
 4735 0f37 01       		.uleb128 0x1
 4736 0f38 52       		.byte	0x52
 4737 0f39 04       		.uleb128 0x4
 4738 0f3a 7D       		.byte	0x7d
 4739 0f3b 14       		.sleb128 20
 4740 0f3c 94       		.byte	0x94
 4741 0f3d 02       		.byte	0x2
 4742 0f3e 1A       		.uleb128 0x1a
 4743 0f3f 02       		.uleb128 0x2
 4744 0f40 7D       		.byte	0x7d
 4745 0f41 00       		.sleb128 0
 4746 0f42 02       		.uleb128 0x2
 4747 0f43 74       		.byte	0x74
 4748 0f44 00       		.sleb128 0
 4749 0f45 00       		.byte	0
 4750 0f46 19       		.uleb128 0x19
 4751 0f47 D0010000 		.4byte	.LVL105
 4752 0f4b F7190000 		.4byte	0x19f7
 4753 0f4f 730F0000 		.4byte	0xf73
 4754 0f53 1A       		.uleb128 0x1a
 4755 0f54 01       		.uleb128 0x1
 4756 0f55 50       		.byte	0x50
 4757 0f56 04       		.uleb128 0x4
 4758 0f57 7D       		.byte	0x7d
 4759 0f58 0C       		.sleb128 12
 4760 0f59 94       		.byte	0x94
 4761 0f5a 02       		.byte	0x2
 4762 0f5b 1A       		.uleb128 0x1a
 4763 0f5c 01       		.uleb128 0x1
 4764 0f5d 51       		.byte	0x51
 4765 0f5e 04       		.uleb128 0x4
 4766 0f5f 7D       		.byte	0x7d
 4767 0f60 10       		.sleb128 16
 4768 0f61 94       		.byte	0x94
 4769 0f62 02       		.byte	0x2
 4770 0f63 1A       		.uleb128 0x1a
 4771 0f64 01       		.uleb128 0x1
 4772 0f65 52       		.byte	0x52
 4773 0f66 04       		.uleb128 0x4
ARM GAS  C:\Users\leoja\AppData\Local\Temp\cciPvcJP.s 			page 103


 4774 0f67 7D       		.byte	0x7d
 4775 0f68 14       		.sleb128 20
 4776 0f69 94       		.byte	0x94
 4777 0f6a 02       		.byte	0x2
 4778 0f6b 1A       		.uleb128 0x1a
 4779 0f6c 02       		.uleb128 0x2
 4780 0f6d 7D       		.byte	0x7d
 4781 0f6e 00       		.sleb128 0
 4782 0f6f 02       		.uleb128 0x2
 4783 0f70 74       		.byte	0x74
 4784 0f71 00       		.sleb128 0
 4785 0f72 00       		.byte	0
 4786 0f73 19       		.uleb128 0x19
 4787 0f74 02020000 		.4byte	.LVL107
 4788 0f78 F7190000 		.4byte	0x19f7
 4789 0f7c A00F0000 		.4byte	0xfa0
 4790 0f80 1A       		.uleb128 0x1a
 4791 0f81 01       		.uleb128 0x1
 4792 0f82 50       		.byte	0x50
 4793 0f83 04       		.uleb128 0x4
 4794 0f84 7D       		.byte	0x7d
 4795 0f85 0C       		.sleb128 12
 4796 0f86 94       		.byte	0x94
 4797 0f87 02       		.byte	0x2
 4798 0f88 1A       		.uleb128 0x1a
 4799 0f89 01       		.uleb128 0x1
 4800 0f8a 51       		.byte	0x51
 4801 0f8b 04       		.uleb128 0x4
 4802 0f8c 7D       		.byte	0x7d
 4803 0f8d 10       		.sleb128 16
 4804 0f8e 94       		.byte	0x94
 4805 0f8f 02       		.byte	0x2
 4806 0f90 1A       		.uleb128 0x1a
 4807 0f91 01       		.uleb128 0x1
 4808 0f92 52       		.byte	0x52
 4809 0f93 04       		.uleb128 0x4
 4810 0f94 7D       		.byte	0x7d
 4811 0f95 14       		.sleb128 20
 4812 0f96 94       		.byte	0x94
 4813 0f97 02       		.byte	0x2
 4814 0f98 1A       		.uleb128 0x1a
 4815 0f99 02       		.uleb128 0x2
 4816 0f9a 7D       		.byte	0x7d
 4817 0f9b 00       		.sleb128 0
 4818 0f9c 02       		.uleb128 0x2
 4819 0f9d 74       		.byte	0x74
 4820 0f9e 00       		.sleb128 0
 4821 0f9f 00       		.byte	0
 4822 0fa0 19       		.uleb128 0x19
 4823 0fa1 36020000 		.4byte	.LVL109
 4824 0fa5 F7190000 		.4byte	0x19f7
 4825 0fa9 CD0F0000 		.4byte	0xfcd
 4826 0fad 1A       		.uleb128 0x1a
 4827 0fae 01       		.uleb128 0x1
 4828 0faf 50       		.byte	0x50
 4829 0fb0 04       		.uleb128 0x4
 4830 0fb1 7D       		.byte	0x7d
ARM GAS  C:\Users\leoja\AppData\Local\Temp\cciPvcJP.s 			page 104


 4831 0fb2 0C       		.sleb128 12
 4832 0fb3 94       		.byte	0x94
 4833 0fb4 02       		.byte	0x2
 4834 0fb5 1A       		.uleb128 0x1a
 4835 0fb6 01       		.uleb128 0x1
 4836 0fb7 51       		.byte	0x51
 4837 0fb8 04       		.uleb128 0x4
 4838 0fb9 7D       		.byte	0x7d
 4839 0fba 10       		.sleb128 16
 4840 0fbb 94       		.byte	0x94
 4841 0fbc 02       		.byte	0x2
 4842 0fbd 1A       		.uleb128 0x1a
 4843 0fbe 01       		.uleb128 0x1
 4844 0fbf 52       		.byte	0x52
 4845 0fc0 04       		.uleb128 0x4
 4846 0fc1 7D       		.byte	0x7d
 4847 0fc2 14       		.sleb128 20
 4848 0fc3 94       		.byte	0x94
 4849 0fc4 02       		.byte	0x2
 4850 0fc5 1A       		.uleb128 0x1a
 4851 0fc6 02       		.uleb128 0x2
 4852 0fc7 7D       		.byte	0x7d
 4853 0fc8 00       		.sleb128 0
 4854 0fc9 02       		.uleb128 0x2
 4855 0fca 74       		.byte	0x74
 4856 0fcb 00       		.sleb128 0
 4857 0fcc 00       		.byte	0
 4858 0fcd 19       		.uleb128 0x19
 4859 0fce 6A020000 		.4byte	.LVL111
 4860 0fd2 F7190000 		.4byte	0x19f7
 4861 0fd6 FA0F0000 		.4byte	0xffa
 4862 0fda 1A       		.uleb128 0x1a
 4863 0fdb 01       		.uleb128 0x1
 4864 0fdc 50       		.byte	0x50
 4865 0fdd 04       		.uleb128 0x4
 4866 0fde 7D       		.byte	0x7d
 4867 0fdf 0C       		.sleb128 12
 4868 0fe0 94       		.byte	0x94
 4869 0fe1 02       		.byte	0x2
 4870 0fe2 1A       		.uleb128 0x1a
 4871 0fe3 01       		.uleb128 0x1
 4872 0fe4 51       		.byte	0x51
 4873 0fe5 04       		.uleb128 0x4
 4874 0fe6 7D       		.byte	0x7d
 4875 0fe7 10       		.sleb128 16
 4876 0fe8 94       		.byte	0x94
 4877 0fe9 02       		.byte	0x2
 4878 0fea 1A       		.uleb128 0x1a
 4879 0feb 01       		.uleb128 0x1
 4880 0fec 52       		.byte	0x52
 4881 0fed 04       		.uleb128 0x4
 4882 0fee 7D       		.byte	0x7d
 4883 0fef 14       		.sleb128 20
 4884 0ff0 94       		.byte	0x94
 4885 0ff1 02       		.byte	0x2
 4886 0ff2 1A       		.uleb128 0x1a
 4887 0ff3 02       		.uleb128 0x2
ARM GAS  C:\Users\leoja\AppData\Local\Temp\cciPvcJP.s 			page 105


 4888 0ff4 7D       		.byte	0x7d
 4889 0ff5 00       		.sleb128 0
 4890 0ff6 02       		.uleb128 0x2
 4891 0ff7 74       		.byte	0x74
 4892 0ff8 00       		.sleb128 0
 4893 0ff9 00       		.byte	0
 4894 0ffa 1B       		.uleb128 0x1b
 4895 0ffb 9E020000 		.4byte	.LVL113
 4896 0fff F7190000 		.4byte	0x19f7
 4897 1003 1A       		.uleb128 0x1a
 4898 1004 01       		.uleb128 0x1
 4899 1005 50       		.byte	0x50
 4900 1006 04       		.uleb128 0x4
 4901 1007 7D       		.byte	0x7d
 4902 1008 0C       		.sleb128 12
 4903 1009 94       		.byte	0x94
 4904 100a 02       		.byte	0x2
 4905 100b 1A       		.uleb128 0x1a
 4906 100c 01       		.uleb128 0x1
 4907 100d 51       		.byte	0x51
 4908 100e 04       		.uleb128 0x4
 4909 100f 7D       		.byte	0x7d
 4910 1010 10       		.sleb128 16
 4911 1011 94       		.byte	0x94
 4912 1012 02       		.byte	0x2
 4913 1013 1A       		.uleb128 0x1a
 4914 1014 01       		.uleb128 0x1
 4915 1015 52       		.byte	0x52
 4916 1016 04       		.uleb128 0x4
 4917 1017 7D       		.byte	0x7d
 4918 1018 14       		.sleb128 20
 4919 1019 94       		.byte	0x94
 4920 101a 02       		.byte	0x2
 4921 101b 1A       		.uleb128 0x1a
 4922 101c 02       		.uleb128 0x2
 4923 101d 7D       		.byte	0x7d
 4924 101e 00       		.sleb128 0
 4925 101f 02       		.uleb128 0x2
 4926 1020 74       		.byte	0x74
 4927 1021 00       		.sleb128 0
 4928 1022 00       		.byte	0
 4929 1023 00       		.byte	0
 4930 1024 22       		.uleb128 0x22
 4931 1025 48000000 		.4byte	.LVL88
 4932 1029 311A0000 		.4byte	0x1a31
 4933 102d 19       		.uleb128 0x19
 4934 102e D0020000 		.4byte	.LVL115
 4935 1032 F7190000 		.4byte	0x19f7
 4936 1036 5A100000 		.4byte	0x105a
 4937 103a 1A       		.uleb128 0x1a
 4938 103b 01       		.uleb128 0x1
 4939 103c 50       		.byte	0x50
 4940 103d 04       		.uleb128 0x4
 4941 103e 7D       		.byte	0x7d
 4942 103f 0C       		.sleb128 12
 4943 1040 94       		.byte	0x94
 4944 1041 02       		.byte	0x2
ARM GAS  C:\Users\leoja\AppData\Local\Temp\cciPvcJP.s 			page 106


 4945 1042 1A       		.uleb128 0x1a
 4946 1043 01       		.uleb128 0x1
 4947 1044 51       		.byte	0x51
 4948 1045 04       		.uleb128 0x4
 4949 1046 7D       		.byte	0x7d
 4950 1047 10       		.sleb128 16
 4951 1048 94       		.byte	0x94
 4952 1049 02       		.byte	0x2
 4953 104a 1A       		.uleb128 0x1a
 4954 104b 01       		.uleb128 0x1
 4955 104c 52       		.byte	0x52
 4956 104d 04       		.uleb128 0x4
 4957 104e 7D       		.byte	0x7d
 4958 104f 14       		.sleb128 20
 4959 1050 94       		.byte	0x94
 4960 1051 02       		.byte	0x2
 4961 1052 1A       		.uleb128 0x1a
 4962 1053 02       		.uleb128 0x2
 4963 1054 7D       		.byte	0x7d
 4964 1055 00       		.sleb128 0
 4965 1056 02       		.uleb128 0x2
 4966 1057 77       		.byte	0x77
 4967 1058 00       		.sleb128 0
 4968 1059 00       		.byte	0
 4969 105a 19       		.uleb128 0x19
 4970 105b 08030000 		.4byte	.LVL117
 4971 105f 251A0000 		.4byte	0x1a25
 4972 1063 6E100000 		.4byte	0x106e
 4973 1067 1A       		.uleb128 0x1a
 4974 1068 01       		.uleb128 0x1
 4975 1069 50       		.byte	0x50
 4976 106a 02       		.uleb128 0x2
 4977 106b 76       		.byte	0x76
 4978 106c 00       		.sleb128 0
 4979 106d 00       		.byte	0
 4980 106e 22       		.uleb128 0x22
 4981 106f 0E030000 		.4byte	.LVL118
 4982 1073 311A0000 		.4byte	0x1a31
 4983 1077 00       		.byte	0
 4984 1078 2A       		.uleb128 0x2a
 4985 1079 A6020000 		.4byte	.LASF123
 4986 107d 01       		.byte	0x1
 4987 107e 4D02     		.2byte	0x24d
 4988 1080 00000000 		.4byte	.LFB41
 4989 1084 24010000 		.4byte	.LFE41-.LFB41
 4990 1088 01       		.uleb128 0x1
 4991 1089 9C       		.byte	0x9c
 4992 108a DF110000 		.4byte	0x11df
 4993 108e 26       		.uleb128 0x26
 4994 108f 67030000 		.4byte	.LASF68
 4995 1093 01       		.byte	0x1
 4996 1094 4D02     		.2byte	0x24d
 4997 1096 CE000000 		.4byte	0xce
 4998 109a 78050000 		.4byte	.LLST32
 4999 109e 27       		.uleb128 0x27
 5000 109f 783100   		.ascii	"x1\000"
 5001 10a2 01       		.byte	0x1
ARM GAS  C:\Users\leoja\AppData\Local\Temp\cciPvcJP.s 			page 107


 5002 10a3 4D02     		.2byte	0x24d
 5003 10a5 C3000000 		.4byte	0xc3
 5004 10a9 E0050000 		.4byte	.LLST33
 5005 10ad 27       		.uleb128 0x27
 5006 10ae 793100   		.ascii	"y1\000"
 5007 10b1 01       		.byte	0x1
 5008 10b2 4D02     		.2byte	0x24d
 5009 10b4 C3000000 		.4byte	0xc3
 5010 10b8 01060000 		.4byte	.LLST34
 5011 10bc 27       		.uleb128 0x27
 5012 10bd 783200   		.ascii	"x2\000"
 5013 10c0 01       		.byte	0x1
 5014 10c1 4D02     		.2byte	0x24d
 5015 10c3 C3000000 		.4byte	0xc3
 5016 10c7 22060000 		.4byte	.LLST35
 5017 10cb 27       		.uleb128 0x27
 5018 10cc 793200   		.ascii	"y2\000"
 5019 10cf 01       		.byte	0x1
 5020 10d0 4D02     		.2byte	0x24d
 5021 10d2 C3000000 		.4byte	0xc3
 5022 10d6 43060000 		.4byte	.LLST36
 5023 10da 26       		.uleb128 0x26
 5024 10db E8030000 		.4byte	.LASF112
 5025 10df 01       		.byte	0x1
 5026 10e0 4D02     		.2byte	0x24d
 5027 10e2 AD000000 		.4byte	0xad
 5028 10e6 6F060000 		.4byte	.LLST37
 5029 10ea 28       		.uleb128 0x28
 5030 10eb E2040000 		.4byte	.LASF114
 5031 10ef 01       		.byte	0x1
 5032 10f0 4E02     		.2byte	0x24e
 5033 10f2 94000000 		.4byte	0x94
 5034 10f6 B3060000 		.4byte	.LLST38
 5035 10fa 28       		.uleb128 0x28
 5036 10fb 3A030000 		.4byte	.LASF115
 5037 10ff 01       		.byte	0x1
 5038 1100 4E02     		.2byte	0x24e
 5039 1102 94000000 		.4byte	0x94
 5040 1106 D2060000 		.4byte	.LLST39
 5041 110a 28       		.uleb128 0x28
 5042 110b 3B050000 		.4byte	.LASF116
 5043 110f 01       		.byte	0x1
 5044 1110 4F02     		.2byte	0x24f
 5045 1112 94000000 		.4byte	0x94
 5046 1116 F1060000 		.4byte	.LLST40
 5047 111a 29       		.uleb128 0x29
 5048 111b 5D060000 		.4byte	.LASF113
 5049 111f 01       		.byte	0x1
 5050 1120 5002     		.2byte	0x250
 5051 1122 94000000 		.4byte	0x94
 5052 1126 06       		.byte	0x6
 5053 1127 28       		.uleb128 0x28
 5054 1128 10020000 		.4byte	.LASF117
 5055 112c 01       		.byte	0x1
 5056 112d 5E02     		.2byte	0x25e
 5057 112f B4030000 		.4byte	0x3b4
 5058 1133 3C070000 		.4byte	.LLST41
ARM GAS  C:\Users\leoja\AppData\Local\Temp\cciPvcJP.s 			page 108


 5059 1137 24       		.uleb128 0x24
 5060 1138 08000000 		.4byte	.LASF118
 5061 113c 01       		.byte	0x1
 5062 113d 6D02     		.2byte	0x26d
 5063 113f DF110000 		.4byte	0x11df
 5064 1143 02       		.uleb128 0x2
 5065 1144 91       		.byte	0x91
 5066 1145 60       		.sleb128 -32
 5067 1146 22       		.uleb128 0x22
 5068 1147 4A000000 		.4byte	.LVL132
 5069 114b 311A0000 		.4byte	0x1a31
 5070 114f 19       		.uleb128 0x19
 5071 1150 A0000000 		.4byte	.LVL139
 5072 1154 F7190000 		.4byte	0x19f7
 5073 1158 82110000 		.4byte	0x1182
 5074 115c 1A       		.uleb128 0x1a
 5075 115d 01       		.uleb128 0x1
 5076 115e 50       		.byte	0x50
 5077 115f 02       		.uleb128 0x2
 5078 1160 76       		.byte	0x76
 5079 1161 00       		.sleb128 0
 5080 1162 1A       		.uleb128 0x1a
 5081 1163 01       		.uleb128 0x1
 5082 1164 51       		.byte	0x51
 5083 1165 04       		.uleb128 0x4
 5084 1166 7D       		.byte	0x7d
 5085 1167 0C       		.sleb128 12
 5086 1168 94       		.byte	0x94
 5087 1169 02       		.byte	0x2
 5088 116a 1A       		.uleb128 0x1a
 5089 116b 01       		.uleb128 0x1
 5090 116c 52       		.byte	0x52
 5091 116d 04       		.uleb128 0x4
 5092 116e 7D       		.byte	0x7d
 5093 116f 10       		.sleb128 16
 5094 1170 94       		.byte	0x94
 5095 1171 02       		.byte	0x2
 5096 1172 1A       		.uleb128 0x1a
 5097 1173 01       		.uleb128 0x1
 5098 1174 53       		.byte	0x53
 5099 1175 04       		.uleb128 0x4
 5100 1176 7D       		.byte	0x7d
 5101 1177 14       		.sleb128 20
 5102 1178 94       		.byte	0x94
 5103 1179 02       		.byte	0x2
 5104 117a 1A       		.uleb128 0x1a
 5105 117b 02       		.uleb128 0x2
 5106 117c 7D       		.byte	0x7d
 5107 117d 00       		.sleb128 0
 5108 117e 02       		.uleb128 0x2
 5109 117f 74       		.byte	0x74
 5110 1180 00       		.sleb128 0
 5111 1181 00       		.byte	0
 5112 1182 19       		.uleb128 0x19
 5113 1183 AE000000 		.4byte	.LVL140
 5114 1187 1A1A0000 		.4byte	0x1a1a
 5115 118b A5110000 		.4byte	0x11a5
ARM GAS  C:\Users\leoja\AppData\Local\Temp\cciPvcJP.s 			page 109


 5116 118f 1A       		.uleb128 0x1a
 5117 1190 01       		.uleb128 0x1
 5118 1191 50       		.byte	0x50
 5119 1192 02       		.uleb128 0x2
 5120 1193 76       		.byte	0x76
 5121 1194 00       		.sleb128 0
 5122 1195 1A       		.uleb128 0x1a
 5123 1196 01       		.uleb128 0x1
 5124 1197 51       		.byte	0x51
 5125 1198 05       		.uleb128 0x5
 5126 1199 03       		.byte	0x3
 5127 119a 06010000 		.4byte	.LC69
 5128 119e 1A       		.uleb128 0x1a
 5129 119f 01       		.uleb128 0x1
 5130 11a0 52       		.byte	0x52
 5131 11a1 02       		.uleb128 0x2
 5132 11a2 75       		.byte	0x75
 5133 11a3 00       		.sleb128 0
 5134 11a4 00       		.byte	0
 5135 11a5 19       		.uleb128 0x19
 5136 11a6 EC000000 		.4byte	.LVL141
 5137 11aa 251A0000 		.4byte	0x1a25
 5138 11ae D5110000 		.4byte	0x11d5
 5139 11b2 1A       		.uleb128 0x1a
 5140 11b3 01       		.uleb128 0x1
 5141 11b4 50       		.byte	0x50
 5142 11b5 04       		.uleb128 0x4
 5143 11b6 7D       		.byte	0x7d
 5144 11b7 18       		.sleb128 24
 5145 11b8 94       		.byte	0x94
 5146 11b9 02       		.byte	0x2
 5147 11ba 1A       		.uleb128 0x1a
 5148 11bb 01       		.uleb128 0x1
 5149 11bc 51       		.byte	0x51
 5150 11bd 04       		.uleb128 0x4
 5151 11be 7D       		.byte	0x7d
 5152 11bf 1C       		.sleb128 28
 5153 11c0 94       		.byte	0x94
 5154 11c1 02       		.byte	0x2
 5155 11c2 1A       		.uleb128 0x1a
 5156 11c3 01       		.uleb128 0x1
 5157 11c4 52       		.byte	0x52
 5158 11c5 02       		.uleb128 0x2
 5159 11c6 76       		.byte	0x76
 5160 11c7 00       		.sleb128 0
 5161 11c8 1A       		.uleb128 0x1a
 5162 11c9 01       		.uleb128 0x1
 5163 11ca 53       		.byte	0x53
 5164 11cb 01       		.uleb128 0x1
 5165 11cc 30       		.byte	0x30
 5166 11cd 1A       		.uleb128 0x1a
 5167 11ce 02       		.uleb128 0x2
 5168 11cf 7D       		.byte	0x7d
 5169 11d0 00       		.sleb128 0
 5170 11d1 02       		.uleb128 0x2
 5171 11d2 74       		.byte	0x74
 5172 11d3 00       		.sleb128 0
ARM GAS  C:\Users\leoja\AppData\Local\Temp\cciPvcJP.s 			page 110


 5173 11d4 00       		.byte	0
 5174 11d5 22       		.uleb128 0x22
 5175 11d6 F2000000 		.4byte	.LVL142
 5176 11da 311A0000 		.4byte	0x1a31
 5177 11de 00       		.byte	0
 5178 11df 16       		.uleb128 0x16
 5179 11e0 F3000000 		.4byte	0xf3
 5180 11e4 EF110000 		.4byte	0x11ef
 5181 11e8 17       		.uleb128 0x17
 5182 11e9 01010000 		.4byte	0x101
 5183 11ed 06       		.byte	0x6
 5184 11ee 00       		.byte	0
 5185 11ef 25       		.uleb128 0x25
 5186 11f0 08070000 		.4byte	.LASF124
 5187 11f4 01       		.byte	0x1
 5188 11f5 B702     		.2byte	0x2b7
 5189 11f7 00000000 		.4byte	.LFB44
 5190 11fb C0000000 		.4byte	.LFE44-.LFB44
 5191 11ff 01       		.uleb128 0x1
 5192 1200 9C       		.byte	0x9c
 5193 1201 6F130000 		.4byte	0x136f
 5194 1205 26       		.uleb128 0x26
 5195 1206 67030000 		.4byte	.LASF68
 5196 120a 01       		.byte	0x1
 5197 120b B702     		.2byte	0x2b7
 5198 120d C3000000 		.4byte	0xc3
 5199 1211 4F070000 		.4byte	.LLST42
 5200 1215 27       		.uleb128 0x27
 5201 1216 783100   		.ascii	"x1\000"
 5202 1219 01       		.byte	0x1
 5203 121a B702     		.2byte	0x2b7
 5204 121c C3000000 		.4byte	0xc3
 5205 1220 70070000 		.4byte	.LLST43
 5206 1224 27       		.uleb128 0x27
 5207 1225 793100   		.ascii	"y1\000"
 5208 1228 01       		.byte	0x1
 5209 1229 B702     		.2byte	0x2b7
 5210 122b C3000000 		.4byte	0xc3
 5211 122f 91070000 		.4byte	.LLST44
 5212 1233 27       		.uleb128 0x27
 5213 1234 783200   		.ascii	"x2\000"
 5214 1237 01       		.byte	0x1
 5215 1238 B702     		.2byte	0x2b7
 5216 123a C3000000 		.4byte	0xc3
 5217 123e B2070000 		.4byte	.LLST45
 5218 1242 27       		.uleb128 0x27
 5219 1243 793200   		.ascii	"y2\000"
 5220 1246 01       		.byte	0x1
 5221 1247 B702     		.2byte	0x2b7
 5222 1249 C3000000 		.4byte	0xc3
 5223 124d D3070000 		.4byte	.LLST46
 5224 1251 26       		.uleb128 0x26
 5225 1252 E8030000 		.4byte	.LASF112
 5226 1256 01       		.byte	0x1
 5227 1257 B702     		.2byte	0x2b7
 5228 1259 AD000000 		.4byte	0xad
 5229 125d FF070000 		.4byte	.LLST47
ARM GAS  C:\Users\leoja\AppData\Local\Temp\cciPvcJP.s 			page 111


 5230 1261 28       		.uleb128 0x28
 5231 1262 E2040000 		.4byte	.LASF114
 5232 1266 01       		.byte	0x1
 5233 1267 B802     		.2byte	0x2b8
 5234 1269 94000000 		.4byte	0x94
 5235 126d 37080000 		.4byte	.LLST48
 5236 1271 28       		.uleb128 0x28
 5237 1272 3A030000 		.4byte	.LASF115
 5238 1276 01       		.byte	0x1
 5239 1277 B802     		.2byte	0x2b8
 5240 1279 94000000 		.4byte	0x94
 5241 127d 56080000 		.4byte	.LLST49
 5242 1281 28       		.uleb128 0x28
 5243 1282 3B050000 		.4byte	.LASF116
 5244 1286 01       		.byte	0x1
 5245 1287 B902     		.2byte	0x2b9
 5246 1289 94000000 		.4byte	0x94
 5247 128d 75080000 		.4byte	.LLST50
 5248 1291 28       		.uleb128 0x28
 5249 1292 5D060000 		.4byte	.LASF113
 5250 1296 01       		.byte	0x1
 5251 1297 BA02     		.2byte	0x2ba
 5252 1299 94000000 		.4byte	0x94
 5253 129d AF080000 		.4byte	.LLST51
 5254 12a1 2B       		.uleb128 0x2b
 5255 12a2 00000000 		.4byte	.Ldebug_ranges0+0
 5256 12a6 EF120000 		.4byte	0x12ef
 5257 12aa 24       		.uleb128 0x24
 5258 12ab 08000000 		.4byte	.LASF118
 5259 12af 01       		.byte	0x1
 5260 12b0 C902     		.2byte	0x2c9
 5261 12b2 6F130000 		.4byte	0x136f
 5262 12b6 02       		.uleb128 0x2
 5263 12b7 91       		.byte	0x91
 5264 12b8 60       		.sleb128 -32
 5265 12b9 19       		.uleb128 0x19
 5266 12ba 70000000 		.4byte	.LVL159
 5267 12be F7190000 		.4byte	0x19f7
 5268 12c2 CE120000 		.4byte	0x12ce
 5269 12c6 1A       		.uleb128 0x1a
 5270 12c7 02       		.uleb128 0x2
 5271 12c8 7D       		.byte	0x7d
 5272 12c9 00       		.sleb128 0
 5273 12ca 02       		.uleb128 0x2
 5274 12cb 75       		.byte	0x75
 5275 12cc 00       		.sleb128 0
 5276 12cd 00       		.byte	0
 5277 12ce 1B       		.uleb128 0x1b
 5278 12cf 7A000000 		.4byte	.LVL160
 5279 12d3 1A1A0000 		.4byte	0x1a1a
 5280 12d7 1A       		.uleb128 0x1a
 5281 12d8 01       		.uleb128 0x1
 5282 12d9 50       		.byte	0x50
 5283 12da 02       		.uleb128 0x2
 5284 12db 76       		.byte	0x76
 5285 12dc 00       		.sleb128 0
 5286 12dd 1A       		.uleb128 0x1a
ARM GAS  C:\Users\leoja\AppData\Local\Temp\cciPvcJP.s 			page 112


 5287 12de 01       		.uleb128 0x1
 5288 12df 51       		.byte	0x51
 5289 12e0 05       		.uleb128 0x5
 5290 12e1 03       		.byte	0x3
 5291 12e2 5D000000 		.4byte	.LC26
 5292 12e6 1A       		.uleb128 0x1a
 5293 12e7 01       		.uleb128 0x1
 5294 12e8 52       		.byte	0x52
 5295 12e9 03       		.uleb128 0x3
 5296 12ea 91       		.byte	0x91
 5297 12eb 54       		.sleb128 -44
 5298 12ec 06       		.byte	0x6
 5299 12ed 00       		.byte	0
 5300 12ee 00       		.byte	0
 5301 12ef 20       		.uleb128 0x20
 5302 12f0 84000000 		.4byte	.LBB6
 5303 12f4 24000000 		.4byte	.LBE6-.LBB6
 5304 12f8 5C130000 		.4byte	0x135c
 5305 12fc 24       		.uleb128 0x24
 5306 12fd 08000000 		.4byte	.LASF118
 5307 1301 01       		.byte	0x1
 5308 1302 D102     		.2byte	0x2d1
 5309 1304 910B0000 		.4byte	0xb91
 5310 1308 02       		.uleb128 0x2
 5311 1309 91       		.byte	0x91
 5312 130a 60       		.sleb128 -32
 5313 130b 22       		.uleb128 0x22
 5314 130c 8A000000 		.4byte	.LVL161
 5315 1310 F7190000 		.4byte	0x19f7
 5316 1314 19       		.uleb128 0x19
 5317 1315 94000000 		.4byte	.LVL162
 5318 1319 1A1A0000 		.4byte	0x1a1a
 5319 131d 38130000 		.4byte	0x1338
 5320 1321 1A       		.uleb128 0x1a
 5321 1322 01       		.uleb128 0x1
 5322 1323 50       		.byte	0x50
 5323 1324 02       		.uleb128 0x2
 5324 1325 76       		.byte	0x76
 5325 1326 00       		.sleb128 0
 5326 1327 1A       		.uleb128 0x1a
 5327 1328 01       		.uleb128 0x1
 5328 1329 51       		.byte	0x51
 5329 132a 05       		.uleb128 0x5
 5330 132b 03       		.byte	0x3
 5331 132c 5D000000 		.4byte	.LC26
 5332 1330 1A       		.uleb128 0x1a
 5333 1331 01       		.uleb128 0x1
 5334 1332 52       		.byte	0x52
 5335 1333 03       		.uleb128 0x3
 5336 1334 91       		.byte	0x91
 5337 1335 54       		.sleb128 -44
 5338 1336 06       		.byte	0x6
 5339 1337 00       		.byte	0
 5340 1338 1B       		.uleb128 0x1b
 5341 1339 A8000000 		.4byte	.LVL163
 5342 133d 251A0000 		.4byte	0x1a25
 5343 1341 1A       		.uleb128 0x1a
ARM GAS  C:\Users\leoja\AppData\Local\Temp\cciPvcJP.s 			page 113


 5344 1342 01       		.uleb128 0x1
 5345 1343 50       		.byte	0x50
 5346 1344 02       		.uleb128 0x2
 5347 1345 74       		.byte	0x74
 5348 1346 00       		.sleb128 0
 5349 1347 1A       		.uleb128 0x1a
 5350 1348 01       		.uleb128 0x1
 5351 1349 51       		.byte	0x51
 5352 134a 02       		.uleb128 0x2
 5353 134b 77       		.byte	0x77
 5354 134c 00       		.sleb128 0
 5355 134d 1A       		.uleb128 0x1a
 5356 134e 01       		.uleb128 0x1
 5357 134f 52       		.byte	0x52
 5358 1350 02       		.uleb128 0x2
 5359 1351 76       		.byte	0x76
 5360 1352 00       		.sleb128 0
 5361 1353 1A       		.uleb128 0x1a
 5362 1354 02       		.uleb128 0x2
 5363 1355 7D       		.byte	0x7d
 5364 1356 00       		.sleb128 0
 5365 1357 02       		.uleb128 0x2
 5366 1358 75       		.byte	0x75
 5367 1359 00       		.sleb128 0
 5368 135a 00       		.byte	0
 5369 135b 00       		.byte	0
 5370 135c 22       		.uleb128 0x22
 5371 135d 4A000000 		.4byte	.LVL158
 5372 1361 311A0000 		.4byte	0x1a31
 5373 1365 22       		.uleb128 0x22
 5374 1366 AE000000 		.4byte	.LVL164
 5375 136a 311A0000 		.4byte	0x1a31
 5376 136e 00       		.byte	0
 5377 136f 16       		.uleb128 0x16
 5378 1370 F3000000 		.4byte	0xf3
 5379 1374 7F130000 		.4byte	0x137f
 5380 1378 17       		.uleb128 0x17
 5381 1379 01010000 		.4byte	0x101
 5382 137d 04       		.byte	0x4
 5383 137e 00       		.byte	0
 5384 137f 2C       		.uleb128 0x2c
 5385 1380 B7040000 		.4byte	.LASF149
 5386 1384 01       		.byte	0x1
 5387 1385 B102     		.2byte	0x2b1
 5388 1387 01       		.byte	0x1
 5389 1388 D1130000 		.4byte	0x13d1
 5390 138c 2D       		.uleb128 0x2d
 5391 138d 67030000 		.4byte	.LASF68
 5392 1391 01       		.byte	0x1
 5393 1392 B102     		.2byte	0x2b1
 5394 1394 C3000000 		.4byte	0xc3
 5395 1398 2E       		.uleb128 0x2e
 5396 1399 783100   		.ascii	"x1\000"
 5397 139c 01       		.byte	0x1
 5398 139d B102     		.2byte	0x2b1
 5399 139f C3000000 		.4byte	0xc3
 5400 13a3 2E       		.uleb128 0x2e
ARM GAS  C:\Users\leoja\AppData\Local\Temp\cciPvcJP.s 			page 114


 5401 13a4 793100   		.ascii	"y1\000"
 5402 13a7 01       		.byte	0x1
 5403 13a8 B102     		.2byte	0x2b1
 5404 13aa C3000000 		.4byte	0xc3
 5405 13ae 2E       		.uleb128 0x2e
 5406 13af 783200   		.ascii	"x2\000"
 5407 13b2 01       		.byte	0x1
 5408 13b3 B102     		.2byte	0x2b1
 5409 13b5 C3000000 		.4byte	0xc3
 5410 13b9 2E       		.uleb128 0x2e
 5411 13ba 793200   		.ascii	"y2\000"
 5412 13bd 01       		.byte	0x1
 5413 13be B102     		.2byte	0x2b1
 5414 13c0 C3000000 		.4byte	0xc3
 5415 13c4 2D       		.uleb128 0x2d
 5416 13c5 E8030000 		.4byte	.LASF112
 5417 13c9 01       		.byte	0x1
 5418 13ca B102     		.2byte	0x2b1
 5419 13cc AD000000 		.4byte	0xad
 5420 13d0 00       		.byte	0
 5421 13d1 2F       		.uleb128 0x2f
 5422 13d2 7F130000 		.4byte	0x137f
 5423 13d6 00000000 		.4byte	.LFB43
 5424 13da 14000000 		.4byte	.LFE43-.LFB43
 5425 13de 01       		.uleb128 0x1
 5426 13df 9C       		.byte	0x9c
 5427 13e0 33140000 		.4byte	0x1433
 5428 13e4 30       		.uleb128 0x30
 5429 13e5 8C130000 		.4byte	0x138c
 5430 13e9 F7080000 		.4byte	.LLST52
 5431 13ed 30       		.uleb128 0x30
 5432 13ee 98130000 		.4byte	0x1398
 5433 13f2 18090000 		.4byte	.LLST53
 5434 13f6 30       		.uleb128 0x30
 5435 13f7 A3130000 		.4byte	0x13a3
 5436 13fb 39090000 		.4byte	.LLST54
 5437 13ff 30       		.uleb128 0x30
 5438 1400 AE130000 		.4byte	0x13ae
 5439 1404 5A090000 		.4byte	.LLST55
 5440 1408 30       		.uleb128 0x30
 5441 1409 B9130000 		.4byte	0x13b9
 5442 140d 7B090000 		.4byte	.LLST56
 5443 1411 30       		.uleb128 0x30
 5444 1412 C4130000 		.4byte	0x13c4
 5445 1416 A7090000 		.4byte	.LLST57
 5446 141a 1B       		.uleb128 0x1b
 5447 141b 12000000 		.4byte	.LVL170
 5448 141f EF110000 		.4byte	0x11ef
 5449 1423 1A       		.uleb128 0x1a
 5450 1424 02       		.uleb128 0x2
 5451 1425 7D       		.byte	0x7d
 5452 1426 00       		.sleb128 0
 5453 1427 02       		.uleb128 0x2
 5454 1428 74       		.byte	0x74
 5455 1429 00       		.sleb128 0
 5456 142a 1A       		.uleb128 0x1a
 5457 142b 02       		.uleb128 0x2
ARM GAS  C:\Users\leoja\AppData\Local\Temp\cciPvcJP.s 			page 115


 5458 142c 7D       		.byte	0x7d
 5459 142d 04       		.sleb128 4
 5460 142e 02       		.uleb128 0x2
 5461 142f 75       		.byte	0x75
 5462 1430 00       		.sleb128 0
 5463 1431 00       		.byte	0
 5464 1432 00       		.byte	0
 5465 1433 25       		.uleb128 0x25
 5466 1434 ED030000 		.4byte	.LASF125
 5467 1438 01       		.byte	0x1
 5468 1439 DA02     		.2byte	0x2da
 5469 143b 00000000 		.4byte	.LFB45
 5470 143f C4000000 		.4byte	.LFE45-.LFB45
 5471 1443 01       		.uleb128 0x1
 5472 1444 9C       		.byte	0x9c
 5473 1445 82150000 		.4byte	0x1582
 5474 1449 26       		.uleb128 0x26
 5475 144a 67030000 		.4byte	.LASF68
 5476 144e 01       		.byte	0x1
 5477 144f DA02     		.2byte	0x2da
 5478 1451 C3000000 		.4byte	0xc3
 5479 1455 EB090000 		.4byte	.LLST58
 5480 1459 27       		.uleb128 0x27
 5481 145a 783100   		.ascii	"x1\000"
 5482 145d 01       		.byte	0x1
 5483 145e DA02     		.2byte	0x2da
 5484 1460 C3000000 		.4byte	0xc3
 5485 1464 0C0A0000 		.4byte	.LLST59
 5486 1468 27       		.uleb128 0x27
 5487 1469 793100   		.ascii	"y1\000"
 5488 146c 01       		.byte	0x1
 5489 146d DA02     		.2byte	0x2da
 5490 146f C3000000 		.4byte	0xc3
 5491 1473 2D0A0000 		.4byte	.LLST60
 5492 1477 27       		.uleb128 0x27
 5493 1478 783200   		.ascii	"x2\000"
 5494 147b 01       		.byte	0x1
 5495 147c DA02     		.2byte	0x2da
 5496 147e C3000000 		.4byte	0xc3
 5497 1482 4E0A0000 		.4byte	.LLST61
 5498 1486 27       		.uleb128 0x27
 5499 1487 793200   		.ascii	"y2\000"
 5500 148a 01       		.byte	0x1
 5501 148b DA02     		.2byte	0x2da
 5502 148d C3000000 		.4byte	0xc3
 5503 1491 6F0A0000 		.4byte	.LLST62
 5504 1495 26       		.uleb128 0x26
 5505 1496 E8030000 		.4byte	.LASF112
 5506 149a 01       		.byte	0x1
 5507 149b DA02     		.2byte	0x2da
 5508 149d AD000000 		.4byte	0xad
 5509 14a1 9B0A0000 		.4byte	.LLST63
 5510 14a5 28       		.uleb128 0x28
 5511 14a6 E2040000 		.4byte	.LASF114
 5512 14aa 01       		.byte	0x1
 5513 14ab DB02     		.2byte	0x2db
 5514 14ad 94000000 		.4byte	0x94
ARM GAS  C:\Users\leoja\AppData\Local\Temp\cciPvcJP.s 			page 116


 5515 14b1 D30A0000 		.4byte	.LLST64
 5516 14b5 28       		.uleb128 0x28
 5517 14b6 3A030000 		.4byte	.LASF115
 5518 14ba 01       		.byte	0x1
 5519 14bb DB02     		.2byte	0x2db
 5520 14bd 94000000 		.4byte	0x94
 5521 14c1 F20A0000 		.4byte	.LLST65
 5522 14c5 28       		.uleb128 0x28
 5523 14c6 3B050000 		.4byte	.LASF116
 5524 14ca 01       		.byte	0x1
 5525 14cb DC02     		.2byte	0x2dc
 5526 14cd 94000000 		.4byte	0x94
 5527 14d1 110B0000 		.4byte	.LLST66
 5528 14d5 29       		.uleb128 0x29
 5529 14d6 5D060000 		.4byte	.LASF113
 5530 14da 01       		.byte	0x1
 5531 14db DD02     		.2byte	0x2dd
 5532 14dd 94000000 		.4byte	0x94
 5533 14e1 06       		.byte	0x6
 5534 14e2 24       		.uleb128 0x24
 5535 14e3 08000000 		.4byte	.LASF118
 5536 14e7 01       		.byte	0x1
 5537 14e8 E702     		.2byte	0x2e7
 5538 14ea DF110000 		.4byte	0x11df
 5539 14ee 02       		.uleb128 0x2
 5540 14ef 91       		.byte	0x91
 5541 14f0 60       		.sleb128 -32
 5542 14f1 22       		.uleb128 0x22
 5543 14f2 44000000 		.4byte	.LVL183
 5544 14f6 311A0000 		.4byte	0x1a31
 5545 14fa 19       		.uleb128 0x19
 5546 14fb 5C000000 		.4byte	.LVL184
 5547 14ff F7190000 		.4byte	0x19f7
 5548 1503 24150000 		.4byte	0x1524
 5549 1507 1A       		.uleb128 0x1a
 5550 1508 01       		.uleb128 0x1
 5551 1509 50       		.byte	0x50
 5552 150a 04       		.uleb128 0x4
 5553 150b 7D       		.byte	0x7d
 5554 150c 0C       		.sleb128 12
 5555 150d 94       		.byte	0x94
 5556 150e 02       		.byte	0x2
 5557 150f 1A       		.uleb128 0x1a
 5558 1510 01       		.uleb128 0x1
 5559 1511 52       		.byte	0x52
 5560 1512 02       		.uleb128 0x2
 5561 1513 75       		.byte	0x75
 5562 1514 00       		.sleb128 0
 5563 1515 1A       		.uleb128 0x1a
 5564 1516 01       		.uleb128 0x1
 5565 1517 53       		.byte	0x53
 5566 1518 02       		.uleb128 0x2
 5567 1519 76       		.byte	0x76
 5568 151a 00       		.sleb128 0
 5569 151b 1A       		.uleb128 0x1a
 5570 151c 02       		.uleb128 0x2
 5571 151d 7D       		.byte	0x7d
ARM GAS  C:\Users\leoja\AppData\Local\Temp\cciPvcJP.s 			page 117


 5572 151e 00       		.sleb128 0
 5573 151f 03       		.uleb128 0x3
 5574 1520 0A       		.byte	0xa
 5575 1521 00FF     		.2byte	0xff00
 5576 1523 00       		.byte	0
 5577 1524 19       		.uleb128 0x19
 5578 1525 66000000 		.4byte	.LVL185
 5579 1529 1A1A0000 		.4byte	0x1a1a
 5580 152d 47150000 		.4byte	0x1547
 5581 1531 1A       		.uleb128 0x1a
 5582 1532 01       		.uleb128 0x1
 5583 1533 50       		.byte	0x50
 5584 1534 02       		.uleb128 0x2
 5585 1535 74       		.byte	0x74
 5586 1536 00       		.sleb128 0
 5587 1537 1A       		.uleb128 0x1a
 5588 1538 01       		.uleb128 0x1
 5589 1539 51       		.byte	0x51
 5590 153a 05       		.uleb128 0x5
 5591 153b 03       		.byte	0x3
 5592 153c 5D000000 		.4byte	.LC26
 5593 1540 1A       		.uleb128 0x1a
 5594 1541 01       		.uleb128 0x1
 5595 1542 52       		.byte	0x52
 5596 1543 02       		.uleb128 0x2
 5597 1544 77       		.byte	0x77
 5598 1545 00       		.sleb128 0
 5599 1546 00       		.byte	0
 5600 1547 19       		.uleb128 0x19
 5601 1548 A8000000 		.4byte	.LVL186
 5602 154c 251A0000 		.4byte	0x1a25
 5603 1550 78150000 		.4byte	0x1578
 5604 1554 1A       		.uleb128 0x1a
 5605 1555 01       		.uleb128 0x1
 5606 1556 50       		.byte	0x50
 5607 1557 04       		.uleb128 0x4
 5608 1558 7D       		.byte	0x7d
 5609 1559 10       		.sleb128 16
 5610 155a 94       		.byte	0x94
 5611 155b 02       		.byte	0x2
 5612 155c 1A       		.uleb128 0x1a
 5613 155d 01       		.uleb128 0x1
 5614 155e 51       		.byte	0x51
 5615 155f 04       		.uleb128 0x4
 5616 1560 7D       		.byte	0x7d
 5617 1561 14       		.sleb128 20
 5618 1562 94       		.byte	0x94
 5619 1563 02       		.byte	0x2
 5620 1564 1A       		.uleb128 0x1a
 5621 1565 01       		.uleb128 0x1
 5622 1566 52       		.byte	0x52
 5623 1567 02       		.uleb128 0x2
 5624 1568 74       		.byte	0x74
 5625 1569 00       		.sleb128 0
 5626 156a 1A       		.uleb128 0x1a
 5627 156b 01       		.uleb128 0x1
 5628 156c 53       		.byte	0x53
ARM GAS  C:\Users\leoja\AppData\Local\Temp\cciPvcJP.s 			page 118


 5629 156d 01       		.uleb128 0x1
 5630 156e 30       		.byte	0x30
 5631 156f 1A       		.uleb128 0x1a
 5632 1570 02       		.uleb128 0x2
 5633 1571 7D       		.byte	0x7d
 5634 1572 00       		.sleb128 0
 5635 1573 03       		.uleb128 0x3
 5636 1574 0A       		.byte	0xa
 5637 1575 00FF     		.2byte	0xff00
 5638 1577 00       		.byte	0
 5639 1578 22       		.uleb128 0x22
 5640 1579 AE000000 		.4byte	.LVL187
 5641 157d 311A0000 		.4byte	0x1a31
 5642 1581 00       		.byte	0
 5643 1582 25       		.uleb128 0x25
 5644 1583 6B020000 		.4byte	.LASF126
 5645 1587 01       		.byte	0x1
 5646 1588 FC02     		.2byte	0x2fc
 5647 158a 00000000 		.4byte	.LFB46
 5648 158e 24020000 		.4byte	.LFE46-.LFB46
 5649 1592 01       		.uleb128 0x1
 5650 1593 9C       		.byte	0x9c
 5651 1594 E1170000 		.4byte	0x17e1
 5652 1598 26       		.uleb128 0x26
 5653 1599 B1020000 		.4byte	.LASF127
 5654 159d 01       		.byte	0x1
 5655 159e FC02     		.2byte	0x2fc
 5656 15a0 AD000000 		.4byte	0xad
 5657 15a4 5C0B0000 		.4byte	.LLST67
 5658 15a8 27       		.uleb128 0x27
 5659 15a9 783100   		.ascii	"x1\000"
 5660 15ac 01       		.byte	0x1
 5661 15ad FC02     		.2byte	0x2fc
 5662 15af C3000000 		.4byte	0xc3
 5663 15b3 7D0B0000 		.4byte	.LLST68
 5664 15b7 27       		.uleb128 0x27
 5665 15b8 793100   		.ascii	"y1\000"
 5666 15bb 01       		.byte	0x1
 5667 15bc FC02     		.2byte	0x2fc
 5668 15be C3000000 		.4byte	0xc3
 5669 15c2 9E0B0000 		.4byte	.LLST69
 5670 15c6 27       		.uleb128 0x27
 5671 15c7 783200   		.ascii	"x2\000"
 5672 15ca 01       		.byte	0x1
 5673 15cb FC02     		.2byte	0x2fc
 5674 15cd C3000000 		.4byte	0xc3
 5675 15d1 BF0B0000 		.4byte	.LLST70
 5676 15d5 27       		.uleb128 0x27
 5677 15d6 793200   		.ascii	"y2\000"
 5678 15d9 01       		.byte	0x1
 5679 15da FC02     		.2byte	0x2fc
 5680 15dc C3000000 		.4byte	0xc3
 5681 15e0 E00B0000 		.4byte	.LLST71
 5682 15e4 26       		.uleb128 0x26
 5683 15e5 E8030000 		.4byte	.LASF112
 5684 15e9 01       		.byte	0x1
 5685 15ea FC02     		.2byte	0x2fc
ARM GAS  C:\Users\leoja\AppData\Local\Temp\cciPvcJP.s 			page 119


 5686 15ec AD000000 		.4byte	0xad
 5687 15f0 0C0C0000 		.4byte	.LLST72
 5688 15f4 28       		.uleb128 0x28
 5689 15f5 E2040000 		.4byte	.LASF114
 5690 15f9 01       		.byte	0x1
 5691 15fa FD02     		.2byte	0x2fd
 5692 15fc 94000000 		.4byte	0x94
 5693 1600 500C0000 		.4byte	.LLST73
 5694 1604 28       		.uleb128 0x28
 5695 1605 3A030000 		.4byte	.LASF115
 5696 1609 01       		.byte	0x1
 5697 160a FD02     		.2byte	0x2fd
 5698 160c 94000000 		.4byte	0x94
 5699 1610 870C0000 		.4byte	.LLST74
 5700 1614 28       		.uleb128 0x28
 5701 1615 3B050000 		.4byte	.LASF116
 5702 1619 01       		.byte	0x1
 5703 161a FE02     		.2byte	0x2fe
 5704 161c 94000000 		.4byte	0x94
 5705 1620 BB0C0000 		.4byte	.LLST75
 5706 1624 29       		.uleb128 0x29
 5707 1625 5D060000 		.4byte	.LASF113
 5708 1629 01       		.byte	0x1
 5709 162a FF02     		.2byte	0x2ff
 5710 162c 94000000 		.4byte	0x94
 5711 1630 0A       		.byte	0xa
 5712 1631 28       		.uleb128 0x28
 5713 1632 10020000 		.4byte	.LASF117
 5714 1636 01       		.byte	0x1
 5715 1637 0703     		.2byte	0x307
 5716 1639 B4030000 		.4byte	0x3b4
 5717 163d 060D0000 		.4byte	.LLST76
 5718 1641 22       		.uleb128 0x22
 5719 1642 48000000 		.4byte	.LVL200
 5720 1646 311A0000 		.4byte	0x1a31
 5721 164a 19       		.uleb128 0x19
 5722 164b 98000000 		.4byte	.LVL204
 5723 164f F7190000 		.4byte	0x19f7
 5724 1653 7F160000 		.4byte	0x167f
 5725 1657 1A       		.uleb128 0x1a
 5726 1658 01       		.uleb128 0x1
 5727 1659 50       		.byte	0x50
 5728 165a 04       		.uleb128 0x4
 5729 165b 7D       		.byte	0x7d
 5730 165c 08       		.sleb128 8
 5731 165d 94       		.byte	0x94
 5732 165e 02       		.byte	0x2
 5733 165f 1A       		.uleb128 0x1a
 5734 1660 01       		.uleb128 0x1
 5735 1661 51       		.byte	0x51
 5736 1662 04       		.uleb128 0x4
 5737 1663 7D       		.byte	0x7d
 5738 1664 0C       		.sleb128 12
 5739 1665 94       		.byte	0x94
 5740 1666 02       		.byte	0x2
 5741 1667 1A       		.uleb128 0x1a
 5742 1668 01       		.uleb128 0x1
ARM GAS  C:\Users\leoja\AppData\Local\Temp\cciPvcJP.s 			page 120


 5743 1669 52       		.byte	0x52
 5744 166a 04       		.uleb128 0x4
 5745 166b 7D       		.byte	0x7d
 5746 166c 10       		.sleb128 16
 5747 166d 94       		.byte	0x94
 5748 166e 02       		.byte	0x2
 5749 166f 1A       		.uleb128 0x1a
 5750 1670 01       		.uleb128 0x1
 5751 1671 53       		.byte	0x53
 5752 1672 04       		.uleb128 0x4
 5753 1673 7D       		.byte	0x7d
 5754 1674 14       		.sleb128 20
 5755 1675 94       		.byte	0x94
 5756 1676 02       		.byte	0x2
 5757 1677 1A       		.uleb128 0x1a
 5758 1678 02       		.uleb128 0x2
 5759 1679 7D       		.byte	0x7d
 5760 167a 00       		.sleb128 0
 5761 167b 02       		.uleb128 0x2
 5762 167c 77       		.byte	0x77
 5763 167d 00       		.sleb128 0
 5764 167e 00       		.byte	0
 5765 167f 19       		.uleb128 0x19
 5766 1680 CE000000 		.4byte	.LVL206
 5767 1684 F7190000 		.4byte	0x19f7
 5768 1688 B4160000 		.4byte	0x16b4
 5769 168c 1A       		.uleb128 0x1a
 5770 168d 01       		.uleb128 0x1
 5771 168e 50       		.byte	0x50
 5772 168f 04       		.uleb128 0x4
 5773 1690 7D       		.byte	0x7d
 5774 1691 08       		.sleb128 8
 5775 1692 94       		.byte	0x94
 5776 1693 02       		.byte	0x2
 5777 1694 1A       		.uleb128 0x1a
 5778 1695 01       		.uleb128 0x1
 5779 1696 51       		.byte	0x51
 5780 1697 04       		.uleb128 0x4
 5781 1698 7D       		.byte	0x7d
 5782 1699 0C       		.sleb128 12
 5783 169a 94       		.byte	0x94
 5784 169b 02       		.byte	0x2
 5785 169c 1A       		.uleb128 0x1a
 5786 169d 01       		.uleb128 0x1
 5787 169e 52       		.byte	0x52
 5788 169f 04       		.uleb128 0x4
 5789 16a0 7D       		.byte	0x7d
 5790 16a1 10       		.sleb128 16
 5791 16a2 94       		.byte	0x94
 5792 16a3 02       		.byte	0x2
 5793 16a4 1A       		.uleb128 0x1a
 5794 16a5 01       		.uleb128 0x1
 5795 16a6 53       		.byte	0x53
 5796 16a7 04       		.uleb128 0x4
 5797 16a8 7D       		.byte	0x7d
 5798 16a9 14       		.sleb128 20
 5799 16aa 94       		.byte	0x94
ARM GAS  C:\Users\leoja\AppData\Local\Temp\cciPvcJP.s 			page 121


 5800 16ab 02       		.byte	0x2
 5801 16ac 1A       		.uleb128 0x1a
 5802 16ad 02       		.uleb128 0x2
 5803 16ae 7D       		.byte	0x7d
 5804 16af 00       		.sleb128 0
 5805 16b0 02       		.uleb128 0x2
 5806 16b1 77       		.byte	0x77
 5807 16b2 00       		.sleb128 0
 5808 16b3 00       		.byte	0
 5809 16b4 19       		.uleb128 0x19
 5810 16b5 04010000 		.4byte	.LVL208
 5811 16b9 F7190000 		.4byte	0x19f7
 5812 16bd E9160000 		.4byte	0x16e9
 5813 16c1 1A       		.uleb128 0x1a
 5814 16c2 01       		.uleb128 0x1
 5815 16c3 50       		.byte	0x50
 5816 16c4 04       		.uleb128 0x4
 5817 16c5 7D       		.byte	0x7d
 5818 16c6 08       		.sleb128 8
 5819 16c7 94       		.byte	0x94
 5820 16c8 02       		.byte	0x2
 5821 16c9 1A       		.uleb128 0x1a
 5822 16ca 01       		.uleb128 0x1
 5823 16cb 51       		.byte	0x51
 5824 16cc 04       		.uleb128 0x4
 5825 16cd 7D       		.byte	0x7d
 5826 16ce 0C       		.sleb128 12
 5827 16cf 94       		.byte	0x94
 5828 16d0 02       		.byte	0x2
 5829 16d1 1A       		.uleb128 0x1a
 5830 16d2 01       		.uleb128 0x1
 5831 16d3 52       		.byte	0x52
 5832 16d4 04       		.uleb128 0x4
 5833 16d5 7D       		.byte	0x7d
 5834 16d6 10       		.sleb128 16
 5835 16d7 94       		.byte	0x94
 5836 16d8 02       		.byte	0x2
 5837 16d9 1A       		.uleb128 0x1a
 5838 16da 01       		.uleb128 0x1
 5839 16db 53       		.byte	0x53
 5840 16dc 04       		.uleb128 0x4
 5841 16dd 7D       		.byte	0x7d
 5842 16de 14       		.sleb128 20
 5843 16df 94       		.byte	0x94
 5844 16e0 02       		.byte	0x2
 5845 16e1 1A       		.uleb128 0x1a
 5846 16e2 02       		.uleb128 0x2
 5847 16e3 7D       		.byte	0x7d
 5848 16e4 00       		.sleb128 0
 5849 16e5 02       		.uleb128 0x2
 5850 16e6 77       		.byte	0x77
 5851 16e7 00       		.sleb128 0
 5852 16e8 00       		.byte	0
 5853 16e9 19       		.uleb128 0x19
 5854 16ea 3A010000 		.4byte	.LVL210
 5855 16ee F7190000 		.4byte	0x19f7
 5856 16f2 1E170000 		.4byte	0x171e
ARM GAS  C:\Users\leoja\AppData\Local\Temp\cciPvcJP.s 			page 122


 5857 16f6 1A       		.uleb128 0x1a
 5858 16f7 01       		.uleb128 0x1
 5859 16f8 50       		.byte	0x50
 5860 16f9 04       		.uleb128 0x4
 5861 16fa 7D       		.byte	0x7d
 5862 16fb 08       		.sleb128 8
 5863 16fc 94       		.byte	0x94
 5864 16fd 02       		.byte	0x2
 5865 16fe 1A       		.uleb128 0x1a
 5866 16ff 01       		.uleb128 0x1
 5867 1700 51       		.byte	0x51
 5868 1701 04       		.uleb128 0x4
 5869 1702 7D       		.byte	0x7d
 5870 1703 0C       		.sleb128 12
 5871 1704 94       		.byte	0x94
 5872 1705 02       		.byte	0x2
 5873 1706 1A       		.uleb128 0x1a
 5874 1707 01       		.uleb128 0x1
 5875 1708 52       		.byte	0x52
 5876 1709 04       		.uleb128 0x4
 5877 170a 7D       		.byte	0x7d
 5878 170b 10       		.sleb128 16
 5879 170c 94       		.byte	0x94
 5880 170d 02       		.byte	0x2
 5881 170e 1A       		.uleb128 0x1a
 5882 170f 01       		.uleb128 0x1
 5883 1710 53       		.byte	0x53
 5884 1711 04       		.uleb128 0x4
 5885 1712 7D       		.byte	0x7d
 5886 1713 14       		.sleb128 20
 5887 1714 94       		.byte	0x94
 5888 1715 02       		.byte	0x2
 5889 1716 1A       		.uleb128 0x1a
 5890 1717 02       		.uleb128 0x2
 5891 1718 7D       		.byte	0x7d
 5892 1719 00       		.sleb128 0
 5893 171a 02       		.uleb128 0x2
 5894 171b 77       		.byte	0x77
 5895 171c 00       		.sleb128 0
 5896 171d 00       		.byte	0
 5897 171e 19       		.uleb128 0x19
 5898 171f 70010000 		.4byte	.LVL212
 5899 1723 F7190000 		.4byte	0x19f7
 5900 1727 53170000 		.4byte	0x1753
 5901 172b 1A       		.uleb128 0x1a
 5902 172c 01       		.uleb128 0x1
 5903 172d 50       		.byte	0x50
 5904 172e 04       		.uleb128 0x4
 5905 172f 7D       		.byte	0x7d
 5906 1730 08       		.sleb128 8
 5907 1731 94       		.byte	0x94
 5908 1732 02       		.byte	0x2
 5909 1733 1A       		.uleb128 0x1a
 5910 1734 01       		.uleb128 0x1
 5911 1735 51       		.byte	0x51
 5912 1736 04       		.uleb128 0x4
 5913 1737 7D       		.byte	0x7d
ARM GAS  C:\Users\leoja\AppData\Local\Temp\cciPvcJP.s 			page 123


 5914 1738 0C       		.sleb128 12
 5915 1739 94       		.byte	0x94
 5916 173a 02       		.byte	0x2
 5917 173b 1A       		.uleb128 0x1a
 5918 173c 01       		.uleb128 0x1
 5919 173d 52       		.byte	0x52
 5920 173e 04       		.uleb128 0x4
 5921 173f 7D       		.byte	0x7d
 5922 1740 10       		.sleb128 16
 5923 1741 94       		.byte	0x94
 5924 1742 02       		.byte	0x2
 5925 1743 1A       		.uleb128 0x1a
 5926 1744 01       		.uleb128 0x1
 5927 1745 53       		.byte	0x53
 5928 1746 04       		.uleb128 0x4
 5929 1747 7D       		.byte	0x7d
 5930 1748 14       		.sleb128 20
 5931 1749 94       		.byte	0x94
 5932 174a 02       		.byte	0x2
 5933 174b 1A       		.uleb128 0x1a
 5934 174c 02       		.uleb128 0x2
 5935 174d 7D       		.byte	0x7d
 5936 174e 00       		.sleb128 0
 5937 174f 02       		.uleb128 0x2
 5938 1750 77       		.byte	0x77
 5939 1751 00       		.sleb128 0
 5940 1752 00       		.byte	0
 5941 1753 19       		.uleb128 0x19
 5942 1754 A6010000 		.4byte	.LVL214
 5943 1758 F7190000 		.4byte	0x19f7
 5944 175c 88170000 		.4byte	0x1788
 5945 1760 1A       		.uleb128 0x1a
 5946 1761 01       		.uleb128 0x1
 5947 1762 50       		.byte	0x50
 5948 1763 04       		.uleb128 0x4
 5949 1764 7D       		.byte	0x7d
 5950 1765 08       		.sleb128 8
 5951 1766 94       		.byte	0x94
 5952 1767 02       		.byte	0x2
 5953 1768 1A       		.uleb128 0x1a
 5954 1769 01       		.uleb128 0x1
 5955 176a 51       		.byte	0x51
 5956 176b 04       		.uleb128 0x4
 5957 176c 7D       		.byte	0x7d
 5958 176d 0C       		.sleb128 12
 5959 176e 94       		.byte	0x94
 5960 176f 02       		.byte	0x2
 5961 1770 1A       		.uleb128 0x1a
 5962 1771 01       		.uleb128 0x1
 5963 1772 52       		.byte	0x52
 5964 1773 04       		.uleb128 0x4
 5965 1774 7D       		.byte	0x7d
 5966 1775 10       		.sleb128 16
 5967 1776 94       		.byte	0x94
 5968 1777 02       		.byte	0x2
 5969 1778 1A       		.uleb128 0x1a
 5970 1779 01       		.uleb128 0x1
ARM GAS  C:\Users\leoja\AppData\Local\Temp\cciPvcJP.s 			page 124


 5971 177a 53       		.byte	0x53
 5972 177b 04       		.uleb128 0x4
 5973 177c 7D       		.byte	0x7d
 5974 177d 14       		.sleb128 20
 5975 177e 94       		.byte	0x94
 5976 177f 02       		.byte	0x2
 5977 1780 1A       		.uleb128 0x1a
 5978 1781 02       		.uleb128 0x2
 5979 1782 7D       		.byte	0x7d
 5980 1783 00       		.sleb128 0
 5981 1784 02       		.uleb128 0x2
 5982 1785 77       		.byte	0x77
 5983 1786 00       		.sleb128 0
 5984 1787 00       		.byte	0
 5985 1788 19       		.uleb128 0x19
 5986 1789 DC010000 		.4byte	.LVL216
 5987 178d F7190000 		.4byte	0x19f7
 5988 1791 BD170000 		.4byte	0x17bd
 5989 1795 1A       		.uleb128 0x1a
 5990 1796 01       		.uleb128 0x1
 5991 1797 50       		.byte	0x50
 5992 1798 04       		.uleb128 0x4
 5993 1799 7D       		.byte	0x7d
 5994 179a 08       		.sleb128 8
 5995 179b 94       		.byte	0x94
 5996 179c 02       		.byte	0x2
 5997 179d 1A       		.uleb128 0x1a
 5998 179e 01       		.uleb128 0x1
 5999 179f 51       		.byte	0x51
 6000 17a0 04       		.uleb128 0x4
 6001 17a1 7D       		.byte	0x7d
 6002 17a2 0C       		.sleb128 12
 6003 17a3 94       		.byte	0x94
 6004 17a4 02       		.byte	0x2
 6005 17a5 1A       		.uleb128 0x1a
 6006 17a6 01       		.uleb128 0x1
 6007 17a7 52       		.byte	0x52
 6008 17a8 04       		.uleb128 0x4
 6009 17a9 7D       		.byte	0x7d
 6010 17aa 10       		.sleb128 16
 6011 17ab 94       		.byte	0x94
 6012 17ac 02       		.byte	0x2
 6013 17ad 1A       		.uleb128 0x1a
 6014 17ae 01       		.uleb128 0x1
 6015 17af 53       		.byte	0x53
 6016 17b0 04       		.uleb128 0x4
 6017 17b1 7D       		.byte	0x7d
 6018 17b2 14       		.sleb128 20
 6019 17b3 94       		.byte	0x94
 6020 17b4 02       		.byte	0x2
 6021 17b5 1A       		.uleb128 0x1a
 6022 17b6 02       		.uleb128 0x2
 6023 17b7 7D       		.byte	0x7d
 6024 17b8 00       		.sleb128 0
 6025 17b9 02       		.uleb128 0x2
 6026 17ba 77       		.byte	0x77
 6027 17bb 00       		.sleb128 0
ARM GAS  C:\Users\leoja\AppData\Local\Temp\cciPvcJP.s 			page 125


 6028 17bc 00       		.byte	0
 6029 17bd 19       		.uleb128 0x19
 6030 17be F0010000 		.4byte	.LVL218
 6031 17c2 251A0000 		.4byte	0x1a25
 6032 17c6 D7170000 		.4byte	0x17d7
 6033 17ca 1A       		.uleb128 0x1a
 6034 17cb 01       		.uleb128 0x1
 6035 17cc 50       		.byte	0x50
 6036 17cd 02       		.uleb128 0x2
 6037 17ce 75       		.byte	0x75
 6038 17cf 00       		.sleb128 0
 6039 17d0 1A       		.uleb128 0x1a
 6040 17d1 01       		.uleb128 0x1
 6041 17d2 51       		.byte	0x51
 6042 17d3 02       		.uleb128 0x2
 6043 17d4 76       		.byte	0x76
 6044 17d5 00       		.sleb128 0
 6045 17d6 00       		.byte	0
 6046 17d7 22       		.uleb128 0x22
 6047 17d8 F6010000 		.4byte	.LVL219
 6048 17dc 311A0000 		.4byte	0x1a31
 6049 17e0 00       		.byte	0
 6050 17e1 25       		.uleb128 0x25
 6051 17e2 49060000 		.4byte	.LASF128
 6052 17e6 01       		.byte	0x1
 6053 17e7 4E03     		.2byte	0x34e
 6054 17e9 00000000 		.4byte	.LFB47
 6055 17ed 8C000000 		.4byte	.LFE47-.LFB47
 6056 17f1 01       		.uleb128 0x1
 6057 17f2 9C       		.byte	0x9c
 6058 17f3 3D190000 		.4byte	0x193d
 6059 17f7 26       		.uleb128 0x26
 6060 17f8 67030000 		.4byte	.LASF68
 6061 17fc 01       		.byte	0x1
 6062 17fd 4E03     		.2byte	0x34e
 6063 17ff C3000000 		.4byte	0xc3
 6064 1803 2B0D0000 		.4byte	.LLST77
 6065 1807 27       		.uleb128 0x27
 6066 1808 783100   		.ascii	"x1\000"
 6067 180b 01       		.byte	0x1
 6068 180c 4E03     		.2byte	0x34e
 6069 180e C3000000 		.4byte	0xc3
 6070 1812 4C0D0000 		.4byte	.LLST78
 6071 1816 27       		.uleb128 0x27
 6072 1817 793100   		.ascii	"y1\000"
 6073 181a 01       		.byte	0x1
 6074 181b 4E03     		.2byte	0x34e
 6075 181d C3000000 		.4byte	0xc3
 6076 1821 6D0D0000 		.4byte	.LLST79
 6077 1825 27       		.uleb128 0x27
 6078 1826 783200   		.ascii	"x2\000"
 6079 1829 01       		.byte	0x1
 6080 182a 4E03     		.2byte	0x34e
 6081 182c C3000000 		.4byte	0xc3
 6082 1830 8E0D0000 		.4byte	.LLST80
 6083 1834 27       		.uleb128 0x27
 6084 1835 793200   		.ascii	"y2\000"
ARM GAS  C:\Users\leoja\AppData\Local\Temp\cciPvcJP.s 			page 126


 6085 1838 01       		.byte	0x1
 6086 1839 4E03     		.2byte	0x34e
 6087 183b C3000000 		.4byte	0xc3
 6088 183f AF0D0000 		.4byte	.LLST81
 6089 1843 26       		.uleb128 0x26
 6090 1844 E8030000 		.4byte	.LASF112
 6091 1848 01       		.byte	0x1
 6092 1849 4E03     		.2byte	0x34e
 6093 184b AD000000 		.4byte	0xad
 6094 184f DB0D0000 		.4byte	.LLST82
 6095 1853 28       		.uleb128 0x28
 6096 1854 E2040000 		.4byte	.LASF114
 6097 1858 01       		.byte	0x1
 6098 1859 4F03     		.2byte	0x34f
 6099 185b 94000000 		.4byte	0x94
 6100 185f 130E0000 		.4byte	.LLST83
 6101 1863 28       		.uleb128 0x28
 6102 1864 3A030000 		.4byte	.LASF115
 6103 1868 01       		.byte	0x1
 6104 1869 4F03     		.2byte	0x34f
 6105 186b 94000000 		.4byte	0x94
 6106 186f 320E0000 		.4byte	.LLST84
 6107 1873 28       		.uleb128 0x28
 6108 1874 3B050000 		.4byte	.LASF116
 6109 1878 01       		.byte	0x1
 6110 1879 5003     		.2byte	0x350
 6111 187b 94000000 		.4byte	0x94
 6112 187f 510E0000 		.4byte	.LLST85
 6113 1883 29       		.uleb128 0x29
 6114 1884 5D060000 		.4byte	.LASF113
 6115 1888 01       		.byte	0x1
 6116 1889 5103     		.2byte	0x351
 6117 188b 94000000 		.4byte	0x94
 6118 188f 0A       		.byte	0xa
 6119 1890 31       		.uleb128 0x31
 6120 1891 10020000 		.4byte	.LASF117
 6121 1895 01       		.byte	0x1
 6122 1896 5A03     		.2byte	0x35a
 6123 1898 B4030000 		.4byte	0x3b4
 6124 189c 2FFFAD00 		.4byte	0xadff2f
 6125 18a0 24       		.uleb128 0x24
 6126 18a1 08000000 		.4byte	.LASF118
 6127 18a5 01       		.byte	0x1
 6128 18a6 5C03     		.2byte	0x35c
 6129 18a8 3D190000 		.4byte	0x193d
 6130 18ac 02       		.uleb128 0x2
 6131 18ad 91       		.byte	0x91
 6132 18ae 5C       		.sleb128 -36
 6133 18af 22       		.uleb128 0x22
 6134 18b0 40000000 		.4byte	.LVL232
 6135 18b4 311A0000 		.4byte	0x1a31
 6136 18b8 19       		.uleb128 0x19
 6137 18b9 4A000000 		.4byte	.LVL233
 6138 18bd 1A1A0000 		.4byte	0x1a1a
 6139 18c1 DC180000 		.4byte	0x18dc
 6140 18c5 1A       		.uleb128 0x1a
 6141 18c6 01       		.uleb128 0x1
ARM GAS  C:\Users\leoja\AppData\Local\Temp\cciPvcJP.s 			page 127


 6142 18c7 50       		.byte	0x50
 6143 18c8 02       		.uleb128 0x2
 6144 18c9 91       		.byte	0x91
 6145 18ca 5C       		.sleb128 -36
 6146 18cb 1A       		.uleb128 0x1a
 6147 18cc 01       		.uleb128 0x1
 6148 18cd 51       		.byte	0x51
 6149 18ce 05       		.uleb128 0x5
 6150 18cf 03       		.byte	0x3
 6151 18d0 5D000000 		.4byte	.LC26
 6152 18d4 1A       		.uleb128 0x1a
 6153 18d5 01       		.uleb128 0x1
 6154 18d6 52       		.byte	0x52
 6155 18d7 03       		.uleb128 0x3
 6156 18d8 91       		.byte	0x91
 6157 18d9 54       		.sleb128 -44
 6158 18da 06       		.byte	0x6
 6159 18db 00       		.byte	0
 6160 18dc 19       		.uleb128 0x19
 6161 18dd 5A000000 		.4byte	.LVL234
 6162 18e1 F7190000 		.4byte	0x19f7
 6163 18e5 03190000 		.4byte	0x1903
 6164 18e9 1A       		.uleb128 0x1a
 6165 18ea 01       		.uleb128 0x1
 6166 18eb 50       		.byte	0x50
 6167 18ec 02       		.uleb128 0x2
 6168 18ed 74       		.byte	0x74
 6169 18ee 00       		.sleb128 0
 6170 18ef 1A       		.uleb128 0x1a
 6171 18f0 01       		.uleb128 0x1
 6172 18f1 51       		.byte	0x51
 6173 18f2 02       		.uleb128 0x2
 6174 18f3 75       		.byte	0x75
 6175 18f4 00       		.sleb128 0
 6176 18f5 1A       		.uleb128 0x1a
 6177 18f6 01       		.uleb128 0x1
 6178 18f7 53       		.byte	0x53
 6179 18f8 02       		.uleb128 0x2
 6180 18f9 76       		.byte	0x76
 6181 18fa 00       		.sleb128 0
 6182 18fb 1A       		.uleb128 0x1a
 6183 18fc 02       		.uleb128 0x2
 6184 18fd 7D       		.byte	0x7d
 6185 18fe 00       		.sleb128 0
 6186 18ff 02       		.uleb128 0x2
 6187 1900 77       		.byte	0x77
 6188 1901 00       		.sleb128 0
 6189 1902 00       		.byte	0
 6190 1903 19       		.uleb128 0x19
 6191 1904 70000000 		.4byte	.LVL235
 6192 1908 251A0000 		.4byte	0x1a25
 6193 190c 33190000 		.4byte	0x1933
 6194 1910 1A       		.uleb128 0x1a
 6195 1911 01       		.uleb128 0x1
 6196 1912 50       		.byte	0x50
 6197 1913 04       		.uleb128 0x4
 6198 1914 7D       		.byte	0x7d
ARM GAS  C:\Users\leoja\AppData\Local\Temp\cciPvcJP.s 			page 128


 6199 1915 0C       		.sleb128 12
 6200 1916 94       		.byte	0x94
 6201 1917 02       		.byte	0x2
 6202 1918 1A       		.uleb128 0x1a
 6203 1919 01       		.uleb128 0x1
 6204 191a 51       		.byte	0x51
 6205 191b 04       		.uleb128 0x4
 6206 191c 7D       		.byte	0x7d
 6207 191d 10       		.sleb128 16
 6208 191e 94       		.byte	0x94
 6209 191f 02       		.byte	0x2
 6210 1920 1A       		.uleb128 0x1a
 6211 1921 01       		.uleb128 0x1
 6212 1922 52       		.byte	0x52
 6213 1923 02       		.uleb128 0x2
 6214 1924 91       		.byte	0x91
 6215 1925 5C       		.sleb128 -36
 6216 1926 1A       		.uleb128 0x1a
 6217 1927 01       		.uleb128 0x1
 6218 1928 53       		.byte	0x53
 6219 1929 01       		.uleb128 0x1
 6220 192a 30       		.byte	0x30
 6221 192b 1A       		.uleb128 0x1a
 6222 192c 02       		.uleb128 0x2
 6223 192d 7D       		.byte	0x7d
 6224 192e 00       		.sleb128 0
 6225 192f 02       		.uleb128 0x2
 6226 1930 77       		.byte	0x77
 6227 1931 00       		.sleb128 0
 6228 1932 00       		.byte	0
 6229 1933 22       		.uleb128 0x22
 6230 1934 76000000 		.4byte	.LVL236
 6231 1938 311A0000 		.4byte	0x1a31
 6232 193c 00       		.byte	0
 6233 193d 16       		.uleb128 0x16
 6234 193e F3000000 		.4byte	0xf3
 6235 1942 4D190000 		.4byte	0x194d
 6236 1946 17       		.uleb128 0x17
 6237 1947 01010000 		.4byte	0x101
 6238 194b 09       		.byte	0x9
 6239 194c 00       		.byte	0
 6240 194d 32       		.uleb128 0x32
 6241 194e A6010000 		.4byte	.LASF129
 6242 1952 07       		.byte	0x7
 6243 1953 51       		.byte	0x51
 6244 1954 05040000 		.4byte	0x405
 6245 1958 32       		.uleb128 0x32
 6246 1959 16050000 		.4byte	.LASF130
 6247 195d 07       		.byte	0x7
 6248 195e 60       		.byte	0x60
 6249 195f 05040000 		.4byte	0x405
 6250 1963 33       		.uleb128 0x33
 6251 1964 5C040000 		.4byte	.LASF131
 6252 1968 08       		.byte	0x8
 6253 1969 33       		.byte	0x33
 6254 196a 05070000 		.4byte	0x705
 6255 196e 05       		.uleb128 0x5
ARM GAS  C:\Users\leoja\AppData\Local\Temp\cciPvcJP.s 			page 129


 6256 196f 03       		.byte	0x3
 6257 1970 00000000 		.4byte	gui1963
 6258 1974 33       		.uleb128 0x33
 6259 1975 5C020000 		.4byte	.LASF132
 6260 1979 09       		.byte	0x9
 6261 197a 0F       		.byte	0xf
 6262 197b B4030000 		.4byte	0x3b4
 6263 197f 05       		.uleb128 0x5
 6264 1980 03       		.byte	0x3
 6265 1981 00000000 		.4byte	last_SOC_color
 6266 1985 33       		.uleb128 0x33
 6267 1986 AF030000 		.4byte	.LASF133
 6268 198a 09       		.byte	0x9
 6269 198b 10       		.byte	0x10
 6270 198c B4030000 		.4byte	0x3b4
 6271 1990 05       		.uleb128 0x5
 6272 1991 03       		.byte	0x3
 6273 1992 00000000 		.4byte	last_max_pack_temp_color
 6274 1996 33       		.uleb128 0x33
 6275 1997 93040000 		.4byte	.LASF134
 6276 199b 09       		.byte	0x9
 6277 199c 11       		.byte	0x11
 6278 199d B4030000 		.4byte	0x3b4
 6279 19a1 05       		.uleb128 0x5
 6280 19a2 03       		.byte	0x3
 6281 19a3 00000000 		.4byte	last_state_color
 6282 19a7 33       		.uleb128 0x33
 6283 19a8 49050000 		.4byte	.LASF135
 6284 19ac 09       		.byte	0x9
 6285 19ad 12       		.byte	0x12
 6286 19ae B4030000 		.4byte	0x3b4
 6287 19b2 05       		.uleb128 0x5
 6288 19b3 03       		.byte	0x3
 6289 19b4 00000000 		.4byte	last_glv_v_color
 6290 19b8 33       		.uleb128 0x33
 6291 19b9 2A060000 		.4byte	.LASF136
 6292 19bd 09       		.byte	0x9
 6293 19be 13       		.byte	0x13
 6294 19bf B4030000 		.4byte	0x3b4
 6295 19c3 05       		.uleb128 0x5
 6296 19c4 03       		.byte	0x3
 6297 19c5 00000000 		.4byte	last_mc_temp_color
 6298 19c9 33       		.uleb128 0x33
 6299 19ca D5020000 		.4byte	.LASF137
 6300 19ce 09       		.byte	0x9
 6301 19cf 14       		.byte	0x14
 6302 19d0 B4030000 		.4byte	0x3b4
 6303 19d4 05       		.uleb128 0x5
 6304 19d5 03       		.byte	0x3
 6305 19d6 00000000 		.4byte	last_motor_temp_color
 6306 19da 33       		.uleb128 0x33
 6307 19db 16020000 		.4byte	.LASF138
 6308 19df 09       		.byte	0x9
 6309 19e0 15       		.byte	0x15
 6310 19e1 B4030000 		.4byte	0x3b4
 6311 19e5 05       		.uleb128 0x5
 6312 19e6 03       		.byte	0x3
ARM GAS  C:\Users\leoja\AppData\Local\Temp\cciPvcJP.s 			page 130


 6313 19e7 00000000 		.4byte	last_shutdown_color
 6314 19eb 34       		.uleb128 0x34
 6315 19ec 4E020000 		.4byte	.LASF139
 6316 19f0 4E020000 		.4byte	.LASF139
 6317 19f4 07       		.byte	0x7
 6318 19f5 EC02     		.2byte	0x2ec
 6319 19f7 34       		.uleb128 0x34
 6320 19f8 D3000000 		.4byte	.LASF140
 6321 19fc D3000000 		.4byte	.LASF140
 6322 1a00 07       		.byte	0x7
 6323 1a01 ED02     		.2byte	0x2ed
 6324 1a03 35       		.uleb128 0x35
 6325 1a04 00000000 		.4byte	.LASF141
 6326 1a08 00000000 		.4byte	.LASF141
 6327 1a0c 0A       		.byte	0xa
 6328 1a0d EC       		.byte	0xec
 6329 1a0e 34       		.uleb128 0x34
 6330 1a0f 32040000 		.4byte	.LASF142
 6331 1a13 32040000 		.4byte	.LASF142
 6332 1a17 07       		.byte	0x7
 6333 1a18 F702     		.2byte	0x2f7
 6334 1a1a 35       		.uleb128 0x35
 6335 1a1b 4B040000 		.4byte	.LASF143
 6336 1a1f 4B040000 		.4byte	.LASF143
 6337 1a23 0B       		.byte	0xb
 6338 1a24 E7       		.byte	0xe7
 6339 1a25 34       		.uleb128 0x34
 6340 1a26 2A020000 		.4byte	.LASF144
 6341 1a2a 2A020000 		.4byte	.LASF144
 6342 1a2e 07       		.byte	0x7
 6343 1a2f F802     		.2byte	0x2f8
 6344 1a31 34       		.uleb128 0x34
 6345 1a32 BA060000 		.4byte	.LASF145
 6346 1a36 BA060000 		.4byte	.LASF145
 6347 1a3a 07       		.byte	0x7
 6348 1a3b EB02     		.2byte	0x2eb
 6349 1a3d 00       		.byte	0
 6350              		.section	.debug_abbrev,"",%progbits
 6351              	.Ldebug_abbrev0:
 6352 0000 01       		.uleb128 0x1
 6353 0001 11       		.uleb128 0x11
 6354 0002 01       		.byte	0x1
 6355 0003 25       		.uleb128 0x25
 6356 0004 0E       		.uleb128 0xe
 6357 0005 13       		.uleb128 0x13
 6358 0006 0B       		.uleb128 0xb
 6359 0007 03       		.uleb128 0x3
 6360 0008 0E       		.uleb128 0xe
 6361 0009 1B       		.uleb128 0x1b
 6362 000a 0E       		.uleb128 0xe
 6363 000b 55       		.uleb128 0x55
 6364 000c 17       		.uleb128 0x17
 6365 000d 11       		.uleb128 0x11
 6366 000e 01       		.uleb128 0x1
 6367 000f 10       		.uleb128 0x10
 6368 0010 17       		.uleb128 0x17
 6369 0011 00       		.byte	0
ARM GAS  C:\Users\leoja\AppData\Local\Temp\cciPvcJP.s 			page 131


 6370 0012 00       		.byte	0
 6371 0013 02       		.uleb128 0x2
 6372 0014 16       		.uleb128 0x16
 6373 0015 00       		.byte	0
 6374 0016 03       		.uleb128 0x3
 6375 0017 0E       		.uleb128 0xe
 6376 0018 3A       		.uleb128 0x3a
 6377 0019 0B       		.uleb128 0xb
 6378 001a 3B       		.uleb128 0x3b
 6379 001b 0B       		.uleb128 0xb
 6380 001c 49       		.uleb128 0x49
 6381 001d 13       		.uleb128 0x13
 6382 001e 00       		.byte	0
 6383 001f 00       		.byte	0
 6384 0020 03       		.uleb128 0x3
 6385 0021 24       		.uleb128 0x24
 6386 0022 00       		.byte	0
 6387 0023 0B       		.uleb128 0xb
 6388 0024 0B       		.uleb128 0xb
 6389 0025 3E       		.uleb128 0x3e
 6390 0026 0B       		.uleb128 0xb
 6391 0027 03       		.uleb128 0x3
 6392 0028 0E       		.uleb128 0xe
 6393 0029 00       		.byte	0
 6394 002a 00       		.byte	0
 6395 002b 04       		.uleb128 0x4
 6396 002c 24       		.uleb128 0x24
 6397 002d 00       		.byte	0
 6398 002e 0B       		.uleb128 0xb
 6399 002f 0B       		.uleb128 0xb
 6400 0030 3E       		.uleb128 0x3e
 6401 0031 0B       		.uleb128 0xb
 6402 0032 03       		.uleb128 0x3
 6403 0033 08       		.uleb128 0x8
 6404 0034 00       		.byte	0
 6405 0035 00       		.byte	0
 6406 0036 05       		.uleb128 0x5
 6407 0037 16       		.uleb128 0x16
 6408 0038 00       		.byte	0
 6409 0039 03       		.uleb128 0x3
 6410 003a 0E       		.uleb128 0xe
 6411 003b 3A       		.uleb128 0x3a
 6412 003c 0B       		.uleb128 0xb
 6413 003d 3B       		.uleb128 0x3b
 6414 003e 05       		.uleb128 0x5
 6415 003f 49       		.uleb128 0x49
 6416 0040 13       		.uleb128 0x13
 6417 0041 00       		.byte	0
 6418 0042 00       		.byte	0
 6419 0043 06       		.uleb128 0x6
 6420 0044 0F       		.uleb128 0xf
 6421 0045 00       		.byte	0
 6422 0046 0B       		.uleb128 0xb
 6423 0047 0B       		.uleb128 0xb
 6424 0048 00       		.byte	0
 6425 0049 00       		.byte	0
 6426 004a 07       		.uleb128 0x7
ARM GAS  C:\Users\leoja\AppData\Local\Temp\cciPvcJP.s 			page 132


 6427 004b 0F       		.uleb128 0xf
 6428 004c 00       		.byte	0
 6429 004d 0B       		.uleb128 0xb
 6430 004e 0B       		.uleb128 0xb
 6431 004f 49       		.uleb128 0x49
 6432 0050 13       		.uleb128 0x13
 6433 0051 00       		.byte	0
 6434 0052 00       		.byte	0
 6435 0053 08       		.uleb128 0x8
 6436 0054 04       		.uleb128 0x4
 6437 0055 01       		.byte	0x1
 6438 0056 0B       		.uleb128 0xb
 6439 0057 0B       		.uleb128 0xb
 6440 0058 49       		.uleb128 0x49
 6441 0059 13       		.uleb128 0x13
 6442 005a 3A       		.uleb128 0x3a
 6443 005b 0B       		.uleb128 0xb
 6444 005c 3B       		.uleb128 0x3b
 6445 005d 0B       		.uleb128 0xb
 6446 005e 01       		.uleb128 0x1
 6447 005f 13       		.uleb128 0x13
 6448 0060 00       		.byte	0
 6449 0061 00       		.byte	0
 6450 0062 09       		.uleb128 0x9
 6451 0063 28       		.uleb128 0x28
 6452 0064 00       		.byte	0
 6453 0065 03       		.uleb128 0x3
 6454 0066 08       		.uleb128 0x8
 6455 0067 1C       		.uleb128 0x1c
 6456 0068 0B       		.uleb128 0xb
 6457 0069 00       		.byte	0
 6458 006a 00       		.byte	0
 6459 006b 0A       		.uleb128 0xa
 6460 006c 28       		.uleb128 0x28
 6461 006d 00       		.byte	0
 6462 006e 03       		.uleb128 0x3
 6463 006f 0E       		.uleb128 0xe
 6464 0070 1C       		.uleb128 0x1c
 6465 0071 0B       		.uleb128 0xb
 6466 0072 00       		.byte	0
 6467 0073 00       		.byte	0
 6468 0074 0B       		.uleb128 0xb
 6469 0075 13       		.uleb128 0x13
 6470 0076 01       		.byte	0x1
 6471 0077 0B       		.uleb128 0xb
 6472 0078 0B       		.uleb128 0xb
 6473 0079 3A       		.uleb128 0x3a
 6474 007a 0B       		.uleb128 0xb
 6475 007b 3B       		.uleb128 0x3b
 6476 007c 0B       		.uleb128 0xb
 6477 007d 01       		.uleb128 0x1
 6478 007e 13       		.uleb128 0x13
 6479 007f 00       		.byte	0
 6480 0080 00       		.byte	0
 6481 0081 0C       		.uleb128 0xc
 6482 0082 0D       		.uleb128 0xd
 6483 0083 00       		.byte	0
ARM GAS  C:\Users\leoja\AppData\Local\Temp\cciPvcJP.s 			page 133


 6484 0084 03       		.uleb128 0x3
 6485 0085 08       		.uleb128 0x8
 6486 0086 3A       		.uleb128 0x3a
 6487 0087 0B       		.uleb128 0xb
 6488 0088 3B       		.uleb128 0x3b
 6489 0089 0B       		.uleb128 0xb
 6490 008a 49       		.uleb128 0x49
 6491 008b 13       		.uleb128 0x13
 6492 008c 38       		.uleb128 0x38
 6493 008d 0B       		.uleb128 0xb
 6494 008e 00       		.byte	0
 6495 008f 00       		.byte	0
 6496 0090 0D       		.uleb128 0xd
 6497 0091 0D       		.uleb128 0xd
 6498 0092 00       		.byte	0
 6499 0093 03       		.uleb128 0x3
 6500 0094 0E       		.uleb128 0xe
 6501 0095 3A       		.uleb128 0x3a
 6502 0096 0B       		.uleb128 0xb
 6503 0097 3B       		.uleb128 0x3b
 6504 0098 0B       		.uleb128 0xb
 6505 0099 49       		.uleb128 0x49
 6506 009a 13       		.uleb128 0x13
 6507 009b 38       		.uleb128 0x38
 6508 009c 0B       		.uleb128 0xb
 6509 009d 00       		.byte	0
 6510 009e 00       		.byte	0
 6511 009f 0E       		.uleb128 0xe
 6512 00a0 13       		.uleb128 0x13
 6513 00a1 01       		.byte	0x1
 6514 00a2 03       		.uleb128 0x3
 6515 00a3 0E       		.uleb128 0xe
 6516 00a4 0B       		.uleb128 0xb
 6517 00a5 0B       		.uleb128 0xb
 6518 00a6 3A       		.uleb128 0x3a
 6519 00a7 0B       		.uleb128 0xb
 6520 00a8 3B       		.uleb128 0x3b
 6521 00a9 0B       		.uleb128 0xb
 6522 00aa 01       		.uleb128 0x1
 6523 00ab 13       		.uleb128 0x13
 6524 00ac 00       		.byte	0
 6525 00ad 00       		.byte	0
 6526 00ae 0F       		.uleb128 0xf
 6527 00af 0D       		.uleb128 0xd
 6528 00b0 00       		.byte	0
 6529 00b1 03       		.uleb128 0x3
 6530 00b2 0E       		.uleb128 0xe
 6531 00b3 3A       		.uleb128 0x3a
 6532 00b4 0B       		.uleb128 0xb
 6533 00b5 3B       		.uleb128 0x3b
 6534 00b6 05       		.uleb128 0x5
 6535 00b7 49       		.uleb128 0x49
 6536 00b8 13       		.uleb128 0x13
 6537 00b9 38       		.uleb128 0x38
 6538 00ba 0B       		.uleb128 0xb
 6539 00bb 00       		.byte	0
 6540 00bc 00       		.byte	0
ARM GAS  C:\Users\leoja\AppData\Local\Temp\cciPvcJP.s 			page 134


 6541 00bd 10       		.uleb128 0x10
 6542 00be 13       		.uleb128 0x13
 6543 00bf 01       		.byte	0x1
 6544 00c0 03       		.uleb128 0x3
 6545 00c1 0E       		.uleb128 0xe
 6546 00c2 0B       		.uleb128 0xb
 6547 00c3 0B       		.uleb128 0xb
 6548 00c4 3A       		.uleb128 0x3a
 6549 00c5 0B       		.uleb128 0xb
 6550 00c6 3B       		.uleb128 0x3b
 6551 00c7 05       		.uleb128 0x5
 6552 00c8 01       		.uleb128 0x1
 6553 00c9 13       		.uleb128 0x13
 6554 00ca 00       		.byte	0
 6555 00cb 00       		.byte	0
 6556 00cc 11       		.uleb128 0x11
 6557 00cd 0D       		.uleb128 0xd
 6558 00ce 00       		.byte	0
 6559 00cf 03       		.uleb128 0x3
 6560 00d0 08       		.uleb128 0x8
 6561 00d1 3A       		.uleb128 0x3a
 6562 00d2 0B       		.uleb128 0xb
 6563 00d3 3B       		.uleb128 0x3b
 6564 00d4 05       		.uleb128 0x5
 6565 00d5 49       		.uleb128 0x49
 6566 00d6 13       		.uleb128 0x13
 6567 00d7 38       		.uleb128 0x38
 6568 00d8 0B       		.uleb128 0xb
 6569 00d9 00       		.byte	0
 6570 00da 00       		.byte	0
 6571 00db 12       		.uleb128 0x12
 6572 00dc 26       		.uleb128 0x26
 6573 00dd 00       		.byte	0
 6574 00de 49       		.uleb128 0x49
 6575 00df 13       		.uleb128 0x13
 6576 00e0 00       		.byte	0
 6577 00e1 00       		.byte	0
 6578 00e2 13       		.uleb128 0x13
 6579 00e3 15       		.uleb128 0x15
 6580 00e4 01       		.byte	0x1
 6581 00e5 27       		.uleb128 0x27
 6582 00e6 19       		.uleb128 0x19
 6583 00e7 01       		.uleb128 0x1
 6584 00e8 13       		.uleb128 0x13
 6585 00e9 00       		.byte	0
 6586 00ea 00       		.byte	0
 6587 00eb 14       		.uleb128 0x14
 6588 00ec 05       		.uleb128 0x5
 6589 00ed 00       		.byte	0
 6590 00ee 49       		.uleb128 0x49
 6591 00ef 13       		.uleb128 0x13
 6592 00f0 00       		.byte	0
 6593 00f1 00       		.byte	0
 6594 00f2 15       		.uleb128 0x15
 6595 00f3 13       		.uleb128 0x13
 6596 00f4 01       		.byte	0x1
 6597 00f5 0B       		.uleb128 0xb
ARM GAS  C:\Users\leoja\AppData\Local\Temp\cciPvcJP.s 			page 135


 6598 00f6 0B       		.uleb128 0xb
 6599 00f7 3A       		.uleb128 0x3a
 6600 00f8 0B       		.uleb128 0xb
 6601 00f9 3B       		.uleb128 0x3b
 6602 00fa 05       		.uleb128 0x5
 6603 00fb 01       		.uleb128 0x1
 6604 00fc 13       		.uleb128 0x13
 6605 00fd 00       		.byte	0
 6606 00fe 00       		.byte	0
 6607 00ff 16       		.uleb128 0x16
 6608 0100 01       		.uleb128 0x1
 6609 0101 01       		.byte	0x1
 6610 0102 49       		.uleb128 0x49
 6611 0103 13       		.uleb128 0x13
 6612 0104 01       		.uleb128 0x1
 6613 0105 13       		.uleb128 0x13
 6614 0106 00       		.byte	0
 6615 0107 00       		.byte	0
 6616 0108 17       		.uleb128 0x17
 6617 0109 21       		.uleb128 0x21
 6618 010a 00       		.byte	0
 6619 010b 49       		.uleb128 0x49
 6620 010c 13       		.uleb128 0x13
 6621 010d 2F       		.uleb128 0x2f
 6622 010e 0B       		.uleb128 0xb
 6623 010f 00       		.byte	0
 6624 0110 00       		.byte	0
 6625 0111 18       		.uleb128 0x18
 6626 0112 2E       		.uleb128 0x2e
 6627 0113 01       		.byte	0x1
 6628 0114 3F       		.uleb128 0x3f
 6629 0115 19       		.uleb128 0x19
 6630 0116 03       		.uleb128 0x3
 6631 0117 0E       		.uleb128 0xe
 6632 0118 3A       		.uleb128 0x3a
 6633 0119 0B       		.uleb128 0xb
 6634 011a 3B       		.uleb128 0x3b
 6635 011b 0B       		.uleb128 0xb
 6636 011c 11       		.uleb128 0x11
 6637 011d 01       		.uleb128 0x1
 6638 011e 12       		.uleb128 0x12
 6639 011f 06       		.uleb128 0x6
 6640 0120 40       		.uleb128 0x40
 6641 0121 18       		.uleb128 0x18
 6642 0122 9742     		.uleb128 0x2117
 6643 0124 19       		.uleb128 0x19
 6644 0125 01       		.uleb128 0x1
 6645 0126 13       		.uleb128 0x13
 6646 0127 00       		.byte	0
 6647 0128 00       		.byte	0
 6648 0129 19       		.uleb128 0x19
 6649 012a 898201   		.uleb128 0x4109
 6650 012d 01       		.byte	0x1
 6651 012e 11       		.uleb128 0x11
 6652 012f 01       		.uleb128 0x1
 6653 0130 31       		.uleb128 0x31
 6654 0131 13       		.uleb128 0x13
ARM GAS  C:\Users\leoja\AppData\Local\Temp\cciPvcJP.s 			page 136


 6655 0132 01       		.uleb128 0x1
 6656 0133 13       		.uleb128 0x13
 6657 0134 00       		.byte	0
 6658 0135 00       		.byte	0
 6659 0136 1A       		.uleb128 0x1a
 6660 0137 8A8201   		.uleb128 0x410a
 6661 013a 00       		.byte	0
 6662 013b 02       		.uleb128 0x2
 6663 013c 18       		.uleb128 0x18
 6664 013d 9142     		.uleb128 0x2111
 6665 013f 18       		.uleb128 0x18
 6666 0140 00       		.byte	0
 6667 0141 00       		.byte	0
 6668 0142 1B       		.uleb128 0x1b
 6669 0143 898201   		.uleb128 0x4109
 6670 0146 01       		.byte	0x1
 6671 0147 11       		.uleb128 0x11
 6672 0148 01       		.uleb128 0x1
 6673 0149 31       		.uleb128 0x31
 6674 014a 13       		.uleb128 0x13
 6675 014b 00       		.byte	0
 6676 014c 00       		.byte	0
 6677 014d 1C       		.uleb128 0x1c
 6678 014e 2E       		.uleb128 0x2e
 6679 014f 01       		.byte	0x1
 6680 0150 3F       		.uleb128 0x3f
 6681 0151 19       		.uleb128 0x19
 6682 0152 03       		.uleb128 0x3
 6683 0153 0E       		.uleb128 0xe
 6684 0154 3A       		.uleb128 0x3a
 6685 0155 0B       		.uleb128 0xb
 6686 0156 3B       		.uleb128 0x3b
 6687 0157 0B       		.uleb128 0xb
 6688 0158 27       		.uleb128 0x27
 6689 0159 19       		.uleb128 0x19
 6690 015a 11       		.uleb128 0x11
 6691 015b 01       		.uleb128 0x1
 6692 015c 12       		.uleb128 0x12
 6693 015d 06       		.uleb128 0x6
 6694 015e 40       		.uleb128 0x40
 6695 015f 18       		.uleb128 0x18
 6696 0160 9742     		.uleb128 0x2117
 6697 0162 19       		.uleb128 0x19
 6698 0163 01       		.uleb128 0x1
 6699 0164 13       		.uleb128 0x13
 6700 0165 00       		.byte	0
 6701 0166 00       		.byte	0
 6702 0167 1D       		.uleb128 0x1d
 6703 0168 05       		.uleb128 0x5
 6704 0169 00       		.byte	0
 6705 016a 03       		.uleb128 0x3
 6706 016b 0E       		.uleb128 0xe
 6707 016c 3A       		.uleb128 0x3a
 6708 016d 0B       		.uleb128 0xb
 6709 016e 3B       		.uleb128 0x3b
 6710 016f 0B       		.uleb128 0xb
 6711 0170 49       		.uleb128 0x49
ARM GAS  C:\Users\leoja\AppData\Local\Temp\cciPvcJP.s 			page 137


 6712 0171 13       		.uleb128 0x13
 6713 0172 02       		.uleb128 0x2
 6714 0173 17       		.uleb128 0x17
 6715 0174 00       		.byte	0
 6716 0175 00       		.byte	0
 6717 0176 1E       		.uleb128 0x1e
 6718 0177 05       		.uleb128 0x5
 6719 0178 00       		.byte	0
 6720 0179 03       		.uleb128 0x3
 6721 017a 08       		.uleb128 0x8
 6722 017b 3A       		.uleb128 0x3a
 6723 017c 0B       		.uleb128 0xb
 6724 017d 3B       		.uleb128 0x3b
 6725 017e 0B       		.uleb128 0xb
 6726 017f 49       		.uleb128 0x49
 6727 0180 13       		.uleb128 0x13
 6728 0181 02       		.uleb128 0x2
 6729 0182 17       		.uleb128 0x17
 6730 0183 00       		.byte	0
 6731 0184 00       		.byte	0
 6732 0185 1F       		.uleb128 0x1f
 6733 0186 34       		.uleb128 0x34
 6734 0187 00       		.byte	0
 6735 0188 03       		.uleb128 0x3
 6736 0189 0E       		.uleb128 0xe
 6737 018a 3A       		.uleb128 0x3a
 6738 018b 0B       		.uleb128 0xb
 6739 018c 3B       		.uleb128 0x3b
 6740 018d 0B       		.uleb128 0xb
 6741 018e 49       		.uleb128 0x49
 6742 018f 13       		.uleb128 0x13
 6743 0190 02       		.uleb128 0x2
 6744 0191 17       		.uleb128 0x17
 6745 0192 00       		.byte	0
 6746 0193 00       		.byte	0
 6747 0194 20       		.uleb128 0x20
 6748 0195 0B       		.uleb128 0xb
 6749 0196 01       		.byte	0x1
 6750 0197 11       		.uleb128 0x11
 6751 0198 01       		.uleb128 0x1
 6752 0199 12       		.uleb128 0x12
 6753 019a 06       		.uleb128 0x6
 6754 019b 01       		.uleb128 0x1
 6755 019c 13       		.uleb128 0x13
 6756 019d 00       		.byte	0
 6757 019e 00       		.byte	0
 6758 019f 21       		.uleb128 0x21
 6759 01a0 34       		.uleb128 0x34
 6760 01a1 00       		.byte	0
 6761 01a2 03       		.uleb128 0x3
 6762 01a3 0E       		.uleb128 0xe
 6763 01a4 3A       		.uleb128 0x3a
 6764 01a5 0B       		.uleb128 0xb
 6765 01a6 3B       		.uleb128 0x3b
 6766 01a7 0B       		.uleb128 0xb
 6767 01a8 49       		.uleb128 0x49
 6768 01a9 13       		.uleb128 0x13
ARM GAS  C:\Users\leoja\AppData\Local\Temp\cciPvcJP.s 			page 138


 6769 01aa 02       		.uleb128 0x2
 6770 01ab 18       		.uleb128 0x18
 6771 01ac 00       		.byte	0
 6772 01ad 00       		.byte	0
 6773 01ae 22       		.uleb128 0x22
 6774 01af 898201   		.uleb128 0x4109
 6775 01b2 00       		.byte	0
 6776 01b3 11       		.uleb128 0x11
 6777 01b4 01       		.uleb128 0x1
 6778 01b5 31       		.uleb128 0x31
 6779 01b6 13       		.uleb128 0x13
 6780 01b7 00       		.byte	0
 6781 01b8 00       		.byte	0
 6782 01b9 23       		.uleb128 0x23
 6783 01ba 34       		.uleb128 0x34
 6784 01bb 00       		.byte	0
 6785 01bc 03       		.uleb128 0x3
 6786 01bd 0E       		.uleb128 0xe
 6787 01be 3A       		.uleb128 0x3a
 6788 01bf 0B       		.uleb128 0xb
 6789 01c0 3B       		.uleb128 0x3b
 6790 01c1 0B       		.uleb128 0xb
 6791 01c2 49       		.uleb128 0x49
 6792 01c3 13       		.uleb128 0x13
 6793 01c4 1C       		.uleb128 0x1c
 6794 01c5 0B       		.uleb128 0xb
 6795 01c6 00       		.byte	0
 6796 01c7 00       		.byte	0
 6797 01c8 24       		.uleb128 0x24
 6798 01c9 34       		.uleb128 0x34
 6799 01ca 00       		.byte	0
 6800 01cb 03       		.uleb128 0x3
 6801 01cc 0E       		.uleb128 0xe
 6802 01cd 3A       		.uleb128 0x3a
 6803 01ce 0B       		.uleb128 0xb
 6804 01cf 3B       		.uleb128 0x3b
 6805 01d0 05       		.uleb128 0x5
 6806 01d1 49       		.uleb128 0x49
 6807 01d2 13       		.uleb128 0x13
 6808 01d3 02       		.uleb128 0x2
 6809 01d4 18       		.uleb128 0x18
 6810 01d5 00       		.byte	0
 6811 01d6 00       		.byte	0
 6812 01d7 25       		.uleb128 0x25
 6813 01d8 2E       		.uleb128 0x2e
 6814 01d9 01       		.byte	0x1
 6815 01da 3F       		.uleb128 0x3f
 6816 01db 19       		.uleb128 0x19
 6817 01dc 03       		.uleb128 0x3
 6818 01dd 0E       		.uleb128 0xe
 6819 01de 3A       		.uleb128 0x3a
 6820 01df 0B       		.uleb128 0xb
 6821 01e0 3B       		.uleb128 0x3b
 6822 01e1 05       		.uleb128 0x5
 6823 01e2 27       		.uleb128 0x27
 6824 01e3 19       		.uleb128 0x19
 6825 01e4 11       		.uleb128 0x11
ARM GAS  C:\Users\leoja\AppData\Local\Temp\cciPvcJP.s 			page 139


 6826 01e5 01       		.uleb128 0x1
 6827 01e6 12       		.uleb128 0x12
 6828 01e7 06       		.uleb128 0x6
 6829 01e8 40       		.uleb128 0x40
 6830 01e9 18       		.uleb128 0x18
 6831 01ea 9742     		.uleb128 0x2117
 6832 01ec 19       		.uleb128 0x19
 6833 01ed 01       		.uleb128 0x1
 6834 01ee 13       		.uleb128 0x13
 6835 01ef 00       		.byte	0
 6836 01f0 00       		.byte	0
 6837 01f1 26       		.uleb128 0x26
 6838 01f2 05       		.uleb128 0x5
 6839 01f3 00       		.byte	0
 6840 01f4 03       		.uleb128 0x3
 6841 01f5 0E       		.uleb128 0xe
 6842 01f6 3A       		.uleb128 0x3a
 6843 01f7 0B       		.uleb128 0xb
 6844 01f8 3B       		.uleb128 0x3b
 6845 01f9 05       		.uleb128 0x5
 6846 01fa 49       		.uleb128 0x49
 6847 01fb 13       		.uleb128 0x13
 6848 01fc 02       		.uleb128 0x2
 6849 01fd 17       		.uleb128 0x17
 6850 01fe 00       		.byte	0
 6851 01ff 00       		.byte	0
 6852 0200 27       		.uleb128 0x27
 6853 0201 05       		.uleb128 0x5
 6854 0202 00       		.byte	0
 6855 0203 03       		.uleb128 0x3
 6856 0204 08       		.uleb128 0x8
 6857 0205 3A       		.uleb128 0x3a
 6858 0206 0B       		.uleb128 0xb
 6859 0207 3B       		.uleb128 0x3b
 6860 0208 05       		.uleb128 0x5
 6861 0209 49       		.uleb128 0x49
 6862 020a 13       		.uleb128 0x13
 6863 020b 02       		.uleb128 0x2
 6864 020c 17       		.uleb128 0x17
 6865 020d 00       		.byte	0
 6866 020e 00       		.byte	0
 6867 020f 28       		.uleb128 0x28
 6868 0210 34       		.uleb128 0x34
 6869 0211 00       		.byte	0
 6870 0212 03       		.uleb128 0x3
 6871 0213 0E       		.uleb128 0xe
 6872 0214 3A       		.uleb128 0x3a
 6873 0215 0B       		.uleb128 0xb
 6874 0216 3B       		.uleb128 0x3b
 6875 0217 05       		.uleb128 0x5
 6876 0218 49       		.uleb128 0x49
 6877 0219 13       		.uleb128 0x13
 6878 021a 02       		.uleb128 0x2
 6879 021b 17       		.uleb128 0x17
 6880 021c 00       		.byte	0
 6881 021d 00       		.byte	0
 6882 021e 29       		.uleb128 0x29
ARM GAS  C:\Users\leoja\AppData\Local\Temp\cciPvcJP.s 			page 140


 6883 021f 34       		.uleb128 0x34
 6884 0220 00       		.byte	0
 6885 0221 03       		.uleb128 0x3
 6886 0222 0E       		.uleb128 0xe
 6887 0223 3A       		.uleb128 0x3a
 6888 0224 0B       		.uleb128 0xb
 6889 0225 3B       		.uleb128 0x3b
 6890 0226 05       		.uleb128 0x5
 6891 0227 49       		.uleb128 0x49
 6892 0228 13       		.uleb128 0x13
 6893 0229 1C       		.uleb128 0x1c
 6894 022a 0B       		.uleb128 0xb
 6895 022b 00       		.byte	0
 6896 022c 00       		.byte	0
 6897 022d 2A       		.uleb128 0x2a
 6898 022e 2E       		.uleb128 0x2e
 6899 022f 01       		.byte	0x1
 6900 0230 3F       		.uleb128 0x3f
 6901 0231 19       		.uleb128 0x19
 6902 0232 03       		.uleb128 0x3
 6903 0233 0E       		.uleb128 0xe
 6904 0234 3A       		.uleb128 0x3a
 6905 0235 0B       		.uleb128 0xb
 6906 0236 3B       		.uleb128 0x3b
 6907 0237 05       		.uleb128 0x5
 6908 0238 27       		.uleb128 0x27
 6909 0239 19       		.uleb128 0x19
 6910 023a 11       		.uleb128 0x11
 6911 023b 01       		.uleb128 0x1
 6912 023c 12       		.uleb128 0x12
 6913 023d 06       		.uleb128 0x6
 6914 023e 40       		.uleb128 0x40
 6915 023f 18       		.uleb128 0x18
 6916 0240 9642     		.uleb128 0x2116
 6917 0242 19       		.uleb128 0x19
 6918 0243 01       		.uleb128 0x1
 6919 0244 13       		.uleb128 0x13
 6920 0245 00       		.byte	0
 6921 0246 00       		.byte	0
 6922 0247 2B       		.uleb128 0x2b
 6923 0248 0B       		.uleb128 0xb
 6924 0249 01       		.byte	0x1
 6925 024a 55       		.uleb128 0x55
 6926 024b 17       		.uleb128 0x17
 6927 024c 01       		.uleb128 0x1
 6928 024d 13       		.uleb128 0x13
 6929 024e 00       		.byte	0
 6930 024f 00       		.byte	0
 6931 0250 2C       		.uleb128 0x2c
 6932 0251 2E       		.uleb128 0x2e
 6933 0252 01       		.byte	0x1
 6934 0253 3F       		.uleb128 0x3f
 6935 0254 19       		.uleb128 0x19
 6936 0255 03       		.uleb128 0x3
 6937 0256 0E       		.uleb128 0xe
 6938 0257 3A       		.uleb128 0x3a
 6939 0258 0B       		.uleb128 0xb
ARM GAS  C:\Users\leoja\AppData\Local\Temp\cciPvcJP.s 			page 141


 6940 0259 3B       		.uleb128 0x3b
 6941 025a 05       		.uleb128 0x5
 6942 025b 27       		.uleb128 0x27
 6943 025c 19       		.uleb128 0x19
 6944 025d 20       		.uleb128 0x20
 6945 025e 0B       		.uleb128 0xb
 6946 025f 01       		.uleb128 0x1
 6947 0260 13       		.uleb128 0x13
 6948 0261 00       		.byte	0
 6949 0262 00       		.byte	0
 6950 0263 2D       		.uleb128 0x2d
 6951 0264 05       		.uleb128 0x5
 6952 0265 00       		.byte	0
 6953 0266 03       		.uleb128 0x3
 6954 0267 0E       		.uleb128 0xe
 6955 0268 3A       		.uleb128 0x3a
 6956 0269 0B       		.uleb128 0xb
 6957 026a 3B       		.uleb128 0x3b
 6958 026b 05       		.uleb128 0x5
 6959 026c 49       		.uleb128 0x49
 6960 026d 13       		.uleb128 0x13
 6961 026e 00       		.byte	0
 6962 026f 00       		.byte	0
 6963 0270 2E       		.uleb128 0x2e
 6964 0271 05       		.uleb128 0x5
 6965 0272 00       		.byte	0
 6966 0273 03       		.uleb128 0x3
 6967 0274 08       		.uleb128 0x8
 6968 0275 3A       		.uleb128 0x3a
 6969 0276 0B       		.uleb128 0xb
 6970 0277 3B       		.uleb128 0x3b
 6971 0278 05       		.uleb128 0x5
 6972 0279 49       		.uleb128 0x49
 6973 027a 13       		.uleb128 0x13
 6974 027b 00       		.byte	0
 6975 027c 00       		.byte	0
 6976 027d 2F       		.uleb128 0x2f
 6977 027e 2E       		.uleb128 0x2e
 6978 027f 01       		.byte	0x1
 6979 0280 31       		.uleb128 0x31
 6980 0281 13       		.uleb128 0x13
 6981 0282 11       		.uleb128 0x11
 6982 0283 01       		.uleb128 0x1
 6983 0284 12       		.uleb128 0x12
 6984 0285 06       		.uleb128 0x6
 6985 0286 40       		.uleb128 0x40
 6986 0287 18       		.uleb128 0x18
 6987 0288 9742     		.uleb128 0x2117
 6988 028a 19       		.uleb128 0x19
 6989 028b 01       		.uleb128 0x1
 6990 028c 13       		.uleb128 0x13
 6991 028d 00       		.byte	0
 6992 028e 00       		.byte	0
 6993 028f 30       		.uleb128 0x30
 6994 0290 05       		.uleb128 0x5
 6995 0291 00       		.byte	0
 6996 0292 31       		.uleb128 0x31
ARM GAS  C:\Users\leoja\AppData\Local\Temp\cciPvcJP.s 			page 142


 6997 0293 13       		.uleb128 0x13
 6998 0294 02       		.uleb128 0x2
 6999 0295 17       		.uleb128 0x17
 7000 0296 00       		.byte	0
 7001 0297 00       		.byte	0
 7002 0298 31       		.uleb128 0x31
 7003 0299 34       		.uleb128 0x34
 7004 029a 00       		.byte	0
 7005 029b 03       		.uleb128 0x3
 7006 029c 0E       		.uleb128 0xe
 7007 029d 3A       		.uleb128 0x3a
 7008 029e 0B       		.uleb128 0xb
 7009 029f 3B       		.uleb128 0x3b
 7010 02a0 05       		.uleb128 0x5
 7011 02a1 49       		.uleb128 0x49
 7012 02a2 13       		.uleb128 0x13
 7013 02a3 1C       		.uleb128 0x1c
 7014 02a4 06       		.uleb128 0x6
 7015 02a5 00       		.byte	0
 7016 02a6 00       		.byte	0
 7017 02a7 32       		.uleb128 0x32
 7018 02a8 34       		.uleb128 0x34
 7019 02a9 00       		.byte	0
 7020 02aa 03       		.uleb128 0x3
 7021 02ab 0E       		.uleb128 0xe
 7022 02ac 3A       		.uleb128 0x3a
 7023 02ad 0B       		.uleb128 0xb
 7024 02ae 3B       		.uleb128 0x3b
 7025 02af 0B       		.uleb128 0xb
 7026 02b0 49       		.uleb128 0x49
 7027 02b1 13       		.uleb128 0x13
 7028 02b2 3F       		.uleb128 0x3f
 7029 02b3 19       		.uleb128 0x19
 7030 02b4 3C       		.uleb128 0x3c
 7031 02b5 19       		.uleb128 0x19
 7032 02b6 00       		.byte	0
 7033 02b7 00       		.byte	0
 7034 02b8 33       		.uleb128 0x33
 7035 02b9 34       		.uleb128 0x34
 7036 02ba 00       		.byte	0
 7037 02bb 03       		.uleb128 0x3
 7038 02bc 0E       		.uleb128 0xe
 7039 02bd 3A       		.uleb128 0x3a
 7040 02be 0B       		.uleb128 0xb
 7041 02bf 3B       		.uleb128 0x3b
 7042 02c0 0B       		.uleb128 0xb
 7043 02c1 49       		.uleb128 0x49
 7044 02c2 13       		.uleb128 0x13
 7045 02c3 3F       		.uleb128 0x3f
 7046 02c4 19       		.uleb128 0x19
 7047 02c5 02       		.uleb128 0x2
 7048 02c6 18       		.uleb128 0x18
 7049 02c7 00       		.byte	0
 7050 02c8 00       		.byte	0
 7051 02c9 34       		.uleb128 0x34
 7052 02ca 2E       		.uleb128 0x2e
 7053 02cb 00       		.byte	0
ARM GAS  C:\Users\leoja\AppData\Local\Temp\cciPvcJP.s 			page 143


 7054 02cc 3F       		.uleb128 0x3f
 7055 02cd 19       		.uleb128 0x19
 7056 02ce 3C       		.uleb128 0x3c
 7057 02cf 19       		.uleb128 0x19
 7058 02d0 6E       		.uleb128 0x6e
 7059 02d1 0E       		.uleb128 0xe
 7060 02d2 03       		.uleb128 0x3
 7061 02d3 0E       		.uleb128 0xe
 7062 02d4 3A       		.uleb128 0x3a
 7063 02d5 0B       		.uleb128 0xb
 7064 02d6 3B       		.uleb128 0x3b
 7065 02d7 05       		.uleb128 0x5
 7066 02d8 00       		.byte	0
 7067 02d9 00       		.byte	0
 7068 02da 35       		.uleb128 0x35
 7069 02db 2E       		.uleb128 0x2e
 7070 02dc 00       		.byte	0
 7071 02dd 3F       		.uleb128 0x3f
 7072 02de 19       		.uleb128 0x19
 7073 02df 3C       		.uleb128 0x3c
 7074 02e0 19       		.uleb128 0x19
 7075 02e1 6E       		.uleb128 0x6e
 7076 02e2 0E       		.uleb128 0xe
 7077 02e3 03       		.uleb128 0x3
 7078 02e4 0E       		.uleb128 0xe
 7079 02e5 3A       		.uleb128 0x3a
 7080 02e6 0B       		.uleb128 0xb
 7081 02e7 3B       		.uleb128 0x3b
 7082 02e8 0B       		.uleb128 0xb
 7083 02e9 00       		.byte	0
 7084 02ea 00       		.byte	0
 7085 02eb 00       		.byte	0
 7086              		.section	.debug_loc,"",%progbits
 7087              	.Ldebug_loc0:
 7088              	.LLST0:
 7089 0000 00000000 		.4byte	.LVL20
 7090 0004 30000000 		.4byte	.LVL30
 7091 0008 0100     		.2byte	0x1
 7092 000a 50       		.byte	0x50
 7093 000b 30000000 		.4byte	.LVL30
 7094 000f 5C010000 		.4byte	.LFE38
 7095 0013 0400     		.2byte	0x4
 7096 0015 F3       		.byte	0xf3
 7097 0016 01       		.uleb128 0x1
 7098 0017 50       		.byte	0x50
 7099 0018 9F       		.byte	0x9f
 7100 0019 00000000 		.4byte	0
 7101 001d 00000000 		.4byte	0
 7102              	.LLST1:
 7103 0021 00000000 		.4byte	.LVL20
 7104 0025 12000000 		.4byte	.LVL24
 7105 0029 0100     		.2byte	0x1
 7106 002b 51       		.byte	0x51
 7107 002c 12000000 		.4byte	.LVL24
 7108 0030 5C010000 		.4byte	.LFE38
 7109 0034 0400     		.2byte	0x4
 7110 0036 F3       		.byte	0xf3
ARM GAS  C:\Users\leoja\AppData\Local\Temp\cciPvcJP.s 			page 144


 7111 0037 01       		.uleb128 0x1
 7112 0038 51       		.byte	0x51
 7113 0039 9F       		.byte	0x9f
 7114 003a 00000000 		.4byte	0
 7115 003e 00000000 		.4byte	0
 7116              	.LLST2:
 7117 0042 00000000 		.4byte	.LVL20
 7118 0046 1E000000 		.4byte	.LVL27
 7119 004a 0100     		.2byte	0x1
 7120 004c 52       		.byte	0x52
 7121 004d 1E000000 		.4byte	.LVL27
 7122 0051 5C010000 		.4byte	.LFE38
 7123 0055 0400     		.2byte	0x4
 7124 0057 F3       		.byte	0xf3
 7125 0058 01       		.uleb128 0x1
 7126 0059 52       		.byte	0x52
 7127 005a 9F       		.byte	0x9f
 7128 005b 00000000 		.4byte	0
 7129 005f 00000000 		.4byte	0
 7130              	.LLST3:
 7131 0063 00000000 		.4byte	.LVL20
 7132 0067 08000000 		.4byte	.LVL21
 7133 006b 0100     		.2byte	0x1
 7134 006d 53       		.byte	0x53
 7135 006e 08000000 		.4byte	.LVL21
 7136 0072 5C010000 		.4byte	.LFE38
 7137 0076 0400     		.2byte	0x4
 7138 0078 F3       		.byte	0xf3
 7139 0079 01       		.uleb128 0x1
 7140 007a 53       		.byte	0x53
 7141 007b 9F       		.byte	0x9f
 7142 007c 00000000 		.4byte	0
 7143 0080 00000000 		.4byte	0
 7144              	.LLST4:
 7145 0084 00000000 		.4byte	.LVL20
 7146 0088 08000000 		.4byte	.LVL21
 7147 008c 0200     		.2byte	0x2
 7148 008e 91       		.byte	0x91
 7149 008f 00       		.sleb128 0
 7150 0090 08000000 		.4byte	.LVL21
 7151 0094 0A000000 		.4byte	.LVL22
 7152 0098 0200     		.2byte	0x2
 7153 009a 73       		.byte	0x73
 7154 009b 00       		.sleb128 0
 7155 009c 0A000000 		.4byte	.LVL22
 7156 00a0 5C010000 		.4byte	.LFE38
 7157 00a4 0200     		.2byte	0x2
 7158 00a6 91       		.byte	0x91
 7159 00a7 00       		.sleb128 0
 7160 00a8 00000000 		.4byte	0
 7161 00ac 00000000 		.4byte	0
 7162              	.LLST5:
 7163 00b0 00000000 		.4byte	.LVL20
 7164 00b4 08000000 		.4byte	.LVL21
 7165 00b8 0200     		.2byte	0x2
 7166 00ba 91       		.byte	0x91
 7167 00bb 04       		.sleb128 4
ARM GAS  C:\Users\leoja\AppData\Local\Temp\cciPvcJP.s 			page 145


 7168 00bc 08000000 		.4byte	.LVL21
 7169 00c0 0A000000 		.4byte	.LVL22
 7170 00c4 0200     		.2byte	0x2
 7171 00c6 73       		.byte	0x73
 7172 00c7 04       		.sleb128 4
 7173 00c8 0A000000 		.4byte	.LVL22
 7174 00cc 10000000 		.4byte	.LVL23
 7175 00d0 0200     		.2byte	0x2
 7176 00d2 91       		.byte	0x91
 7177 00d3 04       		.sleb128 4
 7178 00d4 10000000 		.4byte	.LVL23
 7179 00d8 14000000 		.4byte	.LVL25
 7180 00dc 0200     		.2byte	0x2
 7181 00de 73       		.byte	0x73
 7182 00df 00       		.sleb128 0
 7183 00e0 14000000 		.4byte	.LVL25
 7184 00e4 5C010000 		.4byte	.LFE38
 7185 00e8 0200     		.2byte	0x2
 7186 00ea 91       		.byte	0x91
 7187 00eb 04       		.sleb128 4
 7188 00ec 00000000 		.4byte	0
 7189 00f0 00000000 		.4byte	0
 7190              	.LLST6:
 7191 00f4 2C000000 		.4byte	.LVL28
 7192 00f8 53000000 		.4byte	.LVL33-1
 7193 00fc 0100     		.2byte	0x1
 7194 00fe 52       		.byte	0x52
 7195 00ff 00000000 		.4byte	0
 7196 0103 00000000 		.4byte	0
 7197              	.LLST7:
 7198 0107 3A000000 		.4byte	.LVL31
 7199 010b 64000000 		.4byte	.LVL35
 7200 010f 0100     		.2byte	0x1
 7201 0111 56       		.byte	0x56
 7202 0112 94000000 		.4byte	.LVL37
 7203 0116 CC000000 		.4byte	.LVL41
 7204 011a 0100     		.2byte	0x1
 7205 011c 56       		.byte	0x56
 7206 011d F4000000 		.4byte	.LVL44
 7207 0121 FE000000 		.4byte	.LVL45
 7208 0125 0100     		.2byte	0x1
 7209 0127 56       		.byte	0x56
 7210 0128 00000000 		.4byte	0
 7211 012c 00000000 		.4byte	0
 7212              	.LLST8:
 7213 0130 4A000000 		.4byte	.LVL32
 7214 0134 96000000 		.4byte	.LVL38
 7215 0138 0100     		.2byte	0x1
 7216 013a 57       		.byte	0x57
 7217 013b 96000000 		.4byte	.LVL38
 7218 013f E8000000 		.4byte	.LVL42
 7219 0143 1600     		.2byte	0x16
 7220 0145 91       		.byte	0x91
 7221 0146 04       		.sleb128 4
 7222 0147 94       		.byte	0x94
 7223 0148 01       		.byte	0x1
 7224 0149 08       		.byte	0x8
ARM GAS  C:\Users\leoja\AppData\Local\Temp\cciPvcJP.s 			page 146


 7225 014a FF       		.byte	0xff
 7226 014b 1A       		.byte	0x1a
 7227 014c 09       		.byte	0x9
 7228 014d EF       		.byte	0xef
 7229 014e 1E       		.byte	0x1e
 7230 014f 74       		.byte	0x74
 7231 0150 00       		.sleb128 0
 7232 0151 91       		.byte	0x91
 7233 0152 54       		.sleb128 -44
 7234 0153 06       		.byte	0x6
 7235 0154 22       		.byte	0x22
 7236 0155 31       		.byte	0x31
 7237 0156 26       		.byte	0x26
 7238 0157 22       		.byte	0x22
 7239 0158 35       		.byte	0x35
 7240 0159 1C       		.byte	0x1c
 7241 015a 9F       		.byte	0x9f
 7242 015b F4000000 		.4byte	.LVL44
 7243 015f 1C010000 		.4byte	.LVL47
 7244 0163 1600     		.2byte	0x16
 7245 0165 91       		.byte	0x91
 7246 0166 04       		.sleb128 4
 7247 0167 94       		.byte	0x94
 7248 0168 01       		.byte	0x1
 7249 0169 08       		.byte	0x8
 7250 016a FF       		.byte	0xff
 7251 016b 1A       		.byte	0x1a
 7252 016c 09       		.byte	0x9
 7253 016d EF       		.byte	0xef
 7254 016e 1E       		.byte	0x1e
 7255 016f 74       		.byte	0x74
 7256 0170 00       		.sleb128 0
 7257 0171 91       		.byte	0x91
 7258 0172 54       		.sleb128 -44
 7259 0173 06       		.byte	0x6
 7260 0174 22       		.byte	0x22
 7261 0175 31       		.byte	0x31
 7262 0176 26       		.byte	0x26
 7263 0177 22       		.byte	0x22
 7264 0178 35       		.byte	0x35
 7265 0179 1C       		.byte	0x1c
 7266 017a 9F       		.byte	0x9f
 7267 017b 00000000 		.4byte	0
 7268 017f 00000000 		.4byte	0
 7269              	.LLST9:
 7270 0183 1C000000 		.4byte	.LVL26
 7271 0187 2E000000 		.4byte	.LVL29
 7272 018b 0100     		.2byte	0x1
 7273 018d 53       		.byte	0x53
 7274 018e 2E000000 		.4byte	.LVL29
 7275 0192 53000000 		.4byte	.LVL33-1
 7276 0196 0700     		.2byte	0x7
 7277 0198 71       		.byte	0x71
 7278 0199 00       		.sleb128 0
 7279 019a 44       		.byte	0x44
 7280 019b 1E       		.byte	0x1e
 7281 019c 23       		.byte	0x23
ARM GAS  C:\Users\leoja\AppData\Local\Temp\cciPvcJP.s 			page 147


 7282 019d 0C       		.uleb128 0xc
 7283 019e 9F       		.byte	0x9f
 7284 019f 53000000 		.4byte	.LVL33-1
 7285 01a3 5C010000 		.4byte	.LFE38
 7286 01a7 0C00     		.2byte	0xc
 7287 01a9 91       		.byte	0x91
 7288 01aa 04       		.sleb128 4
 7289 01ab 94       		.byte	0x94
 7290 01ac 01       		.byte	0x1
 7291 01ad 08       		.byte	0x8
 7292 01ae FF       		.byte	0xff
 7293 01af 1A       		.byte	0x1a
 7294 01b0 44       		.byte	0x44
 7295 01b1 1E       		.byte	0x1e
 7296 01b2 23       		.byte	0x23
 7297 01b3 0C       		.uleb128 0xc
 7298 01b4 9F       		.byte	0x9f
 7299 01b5 00000000 		.4byte	0
 7300 01b9 00000000 		.4byte	0
 7301              	.LLST10:
 7302 01bd 60000000 		.4byte	.LVL34
 7303 01c1 94000000 		.4byte	.LVL37
 7304 01c5 0400     		.2byte	0x4
 7305 01c7 0A       		.byte	0xa
 7306 01c8 00FF     		.2byte	0xff00
 7307 01ca 9F       		.byte	0x9f
 7308 01cb C2000000 		.4byte	.LVL40
 7309 01cf F4000000 		.4byte	.LVL44
 7310 01d3 0100     		.2byte	0x1
 7311 01d5 55       		.byte	0x55
 7312 01d6 00010000 		.4byte	.LVL46
 7313 01da 2A010000 		.4byte	.LVL49
 7314 01de 0500     		.2byte	0x5
 7315 01e0 08       		.byte	0x8
 7316 01e1 FF       		.byte	0xff
 7317 01e2 40       		.byte	0x40
 7318 01e3 24       		.byte	0x24
 7319 01e4 9F       		.byte	0x9f
 7320 01e5 00000000 		.4byte	0
 7321 01e9 00000000 		.4byte	0
 7322              	.LLST11:
 7323 01ed 00000000 		.4byte	.LVL52
 7324 01f1 24000000 		.4byte	.LVL61
 7325 01f5 0100     		.2byte	0x1
 7326 01f7 50       		.byte	0x50
 7327 01f8 24000000 		.4byte	.LVL61
 7328 01fc 0C010000 		.4byte	.LFE39
 7329 0200 0400     		.2byte	0x4
 7330 0202 F3       		.byte	0xf3
 7331 0203 01       		.uleb128 0x1
 7332 0204 50       		.byte	0x50
 7333 0205 9F       		.byte	0x9f
 7334 0206 00000000 		.4byte	0
 7335 020a 00000000 		.4byte	0
 7336              	.LLST12:
 7337 020e 00000000 		.4byte	.LVL52
 7338 0212 18000000 		.4byte	.LVL58
ARM GAS  C:\Users\leoja\AppData\Local\Temp\cciPvcJP.s 			page 148


 7339 0216 0100     		.2byte	0x1
 7340 0218 51       		.byte	0x51
 7341 0219 18000000 		.4byte	.LVL58
 7342 021d 0C010000 		.4byte	.LFE39
 7343 0221 0400     		.2byte	0x4
 7344 0223 F3       		.byte	0xf3
 7345 0224 01       		.uleb128 0x1
 7346 0225 51       		.byte	0x51
 7347 0226 9F       		.byte	0x9f
 7348 0227 00000000 		.4byte	0
 7349 022b 00000000 		.4byte	0
 7350              	.LLST13:
 7351 022f 00000000 		.4byte	.LVL52
 7352 0233 12000000 		.4byte	.LVL56
 7353 0237 0100     		.2byte	0x1
 7354 0239 52       		.byte	0x52
 7355 023a 12000000 		.4byte	.LVL56
 7356 023e 0C010000 		.4byte	.LFE39
 7357 0242 0400     		.2byte	0x4
 7358 0244 F3       		.byte	0xf3
 7359 0245 01       		.uleb128 0x1
 7360 0246 52       		.byte	0x52
 7361 0247 9F       		.byte	0x9f
 7362 0248 00000000 		.4byte	0
 7363 024c 00000000 		.4byte	0
 7364              	.LLST14:
 7365 0250 00000000 		.4byte	.LVL52
 7366 0254 08000000 		.4byte	.LVL53
 7367 0258 0100     		.2byte	0x1
 7368 025a 53       		.byte	0x53
 7369 025b 08000000 		.4byte	.LVL53
 7370 025f 0C010000 		.4byte	.LFE39
 7371 0263 0400     		.2byte	0x4
 7372 0265 F3       		.byte	0xf3
 7373 0266 01       		.uleb128 0x1
 7374 0267 53       		.byte	0x53
 7375 0268 9F       		.byte	0x9f
 7376 0269 00000000 		.4byte	0
 7377 026d 00000000 		.4byte	0
 7378              	.LLST15:
 7379 0271 00000000 		.4byte	.LVL52
 7380 0275 08000000 		.4byte	.LVL53
 7381 0279 0200     		.2byte	0x2
 7382 027b 91       		.byte	0x91
 7383 027c 00       		.sleb128 0
 7384 027d 08000000 		.4byte	.LVL53
 7385 0281 0A000000 		.4byte	.LVL54
 7386 0285 0200     		.2byte	0x2
 7387 0287 73       		.byte	0x73
 7388 0288 00       		.sleb128 0
 7389 0289 0A000000 		.4byte	.LVL54
 7390 028d 0C010000 		.4byte	.LFE39
 7391 0291 0200     		.2byte	0x2
 7392 0293 91       		.byte	0x91
 7393 0294 00       		.sleb128 0
 7394 0295 00000000 		.4byte	0
 7395 0299 00000000 		.4byte	0
ARM GAS  C:\Users\leoja\AppData\Local\Temp\cciPvcJP.s 			page 149


 7396              	.LLST16:
 7397 029d 00000000 		.4byte	.LVL52
 7398 02a1 08000000 		.4byte	.LVL53
 7399 02a5 0200     		.2byte	0x2
 7400 02a7 91       		.byte	0x91
 7401 02a8 04       		.sleb128 4
 7402 02a9 08000000 		.4byte	.LVL53
 7403 02ad 0A000000 		.4byte	.LVL54
 7404 02b1 0200     		.2byte	0x2
 7405 02b3 73       		.byte	0x73
 7406 02b4 04       		.sleb128 4
 7407 02b5 0A000000 		.4byte	.LVL54
 7408 02b9 10000000 		.4byte	.LVL55
 7409 02bd 0200     		.2byte	0x2
 7410 02bf 91       		.byte	0x91
 7411 02c0 04       		.sleb128 4
 7412 02c1 10000000 		.4byte	.LVL55
 7413 02c5 14000000 		.4byte	.LVL57
 7414 02c9 0200     		.2byte	0x2
 7415 02cb 73       		.byte	0x73
 7416 02cc 00       		.sleb128 0
 7417 02cd 14000000 		.4byte	.LVL57
 7418 02d1 0C010000 		.4byte	.LFE39
 7419 02d5 0200     		.2byte	0x2
 7420 02d7 91       		.byte	0x91
 7421 02d8 04       		.sleb128 4
 7422 02d9 00000000 		.4byte	0
 7423 02dd 00000000 		.4byte	0
 7424              	.LLST17:
 7425 02e1 30000000 		.4byte	.LVL62
 7426 02e5 32000000 		.4byte	.LVL63
 7427 02e9 0100     		.2byte	0x1
 7428 02eb 53       		.byte	0x53
 7429 02ec 32000000 		.4byte	.LVL63
 7430 02f0 0C010000 		.4byte	.LFE39
 7431 02f4 0200     		.2byte	0x2
 7432 02f6 91       		.byte	0x91
 7433 02f7 58       		.sleb128 -40
 7434 02f8 00000000 		.4byte	0
 7435 02fc 00000000 		.4byte	0
 7436              	.LLST18:
 7437 0300 42000000 		.4byte	.LVL64
 7438 0304 4B000000 		.4byte	.LVL65-1
 7439 0308 0100     		.2byte	0x1
 7440 030a 53       		.byte	0x53
 7441 030b 4B000000 		.4byte	.LVL65-1
 7442 030f 0C010000 		.4byte	.LFE39
 7443 0313 0200     		.2byte	0x2
 7444 0315 91       		.byte	0x91
 7445 0316 5C       		.sleb128 -36
 7446 0317 00000000 		.4byte	0
 7447 031b 00000000 		.4byte	0
 7448              	.LLST19:
 7449 031f 12000000 		.4byte	.LVL56
 7450 0323 1C000000 		.4byte	.LVL59
 7451 0327 0700     		.2byte	0x7
 7452 0329 72       		.byte	0x72
ARM GAS  C:\Users\leoja\AppData\Local\Temp\cciPvcJP.s 			page 150


 7453 032a 00       		.sleb128 0
 7454 032b 44       		.byte	0x44
 7455 032c 1E       		.byte	0x1e
 7456 032d 23       		.byte	0x23
 7457 032e 0C       		.uleb128 0xc
 7458 032f 9F       		.byte	0x9f
 7459 0330 1C000000 		.4byte	.LVL59
 7460 0334 1E000000 		.4byte	.LVL60
 7461 0338 0100     		.2byte	0x1
 7462 033a 53       		.byte	0x53
 7463 033b 1E000000 		.4byte	.LVL60
 7464 033f 4B000000 		.4byte	.LVL65-1
 7465 0343 0700     		.2byte	0x7
 7466 0345 72       		.byte	0x72
 7467 0346 00       		.sleb128 0
 7468 0347 44       		.byte	0x44
 7469 0348 1E       		.byte	0x1e
 7470 0349 23       		.byte	0x23
 7471 034a 0C       		.uleb128 0xc
 7472 034b 9F       		.byte	0x9f
 7473 034c 4B000000 		.4byte	.LVL65-1
 7474 0350 0C010000 		.4byte	.LFE39
 7475 0354 0C00     		.2byte	0xc
 7476 0356 91       		.byte	0x91
 7477 0357 04       		.sleb128 4
 7478 0358 94       		.byte	0x94
 7479 0359 01       		.byte	0x1
 7480 035a 08       		.byte	0x8
 7481 035b FF       		.byte	0xff
 7482 035c 1A       		.byte	0x1a
 7483 035d 44       		.byte	0x44
 7484 035e 1E       		.byte	0x1e
 7485 035f 23       		.byte	0x23
 7486 0360 0C       		.uleb128 0xc
 7487 0361 9F       		.byte	0x9f
 7488 0362 00000000 		.4byte	0
 7489 0366 00000000 		.4byte	0
 7490              	.LLST20:
 7491 036a 5A000000 		.4byte	.LVL66
 7492 036e 96000000 		.4byte	.LVL69
 7493 0372 0500     		.2byte	0x5
 7494 0374 08       		.byte	0x8
 7495 0375 FF       		.byte	0xff
 7496 0376 40       		.byte	0x40
 7497 0377 24       		.byte	0x24
 7498 0378 9F       		.byte	0x9f
 7499 0379 A2000000 		.4byte	.LVL70
 7500 037d F2000000 		.4byte	.LVL75
 7501 0381 0100     		.2byte	0x1
 7502 0383 54       		.byte	0x54
 7503 0384 00000000 		.4byte	0
 7504 0388 00000000 		.4byte	0
 7505              	.LLST21:
 7506 038c 00000000 		.4byte	.LVL76
 7507 0390 24000000 		.4byte	.LVL84
 7508 0394 0100     		.2byte	0x1
 7509 0396 50       		.byte	0x50
ARM GAS  C:\Users\leoja\AppData\Local\Temp\cciPvcJP.s 			page 151


 7510 0397 24000000 		.4byte	.LVL84
 7511 039b 60030000 		.4byte	.LFE40
 7512 039f 0400     		.2byte	0x4
 7513 03a1 F3       		.byte	0xf3
 7514 03a2 01       		.uleb128 0x1
 7515 03a3 50       		.byte	0x50
 7516 03a4 9F       		.byte	0x9f
 7517 03a5 00000000 		.4byte	0
 7518 03a9 00000000 		.4byte	0
 7519              	.LLST22:
 7520 03ad 00000000 		.4byte	.LVL76
 7521 03b1 16000000 		.4byte	.LVL81
 7522 03b5 0100     		.2byte	0x1
 7523 03b7 51       		.byte	0x51
 7524 03b8 16000000 		.4byte	.LVL81
 7525 03bc 60030000 		.4byte	.LFE40
 7526 03c0 0400     		.2byte	0x4
 7527 03c2 F3       		.byte	0xf3
 7528 03c3 01       		.uleb128 0x1
 7529 03c4 51       		.byte	0x51
 7530 03c5 9F       		.byte	0x9f
 7531 03c6 00000000 		.4byte	0
 7532 03ca 00000000 		.4byte	0
 7533              	.LLST23:
 7534 03ce 00000000 		.4byte	.LVL76
 7535 03d2 10000000 		.4byte	.LVL79
 7536 03d6 0100     		.2byte	0x1
 7537 03d8 52       		.byte	0x52
 7538 03d9 10000000 		.4byte	.LVL79
 7539 03dd 60030000 		.4byte	.LFE40
 7540 03e1 0400     		.2byte	0x4
 7541 03e3 F3       		.byte	0xf3
 7542 03e4 01       		.uleb128 0x1
 7543 03e5 52       		.byte	0x52
 7544 03e6 9F       		.byte	0x9f
 7545 03e7 00000000 		.4byte	0
 7546 03eb 00000000 		.4byte	0
 7547              	.LLST24:
 7548 03ef 00000000 		.4byte	.LVL76
 7549 03f3 08000000 		.4byte	.LVL77
 7550 03f7 0100     		.2byte	0x1
 7551 03f9 53       		.byte	0x53
 7552 03fa 08000000 		.4byte	.LVL77
 7553 03fe 60030000 		.4byte	.LFE40
 7554 0402 0400     		.2byte	0x4
 7555 0404 F3       		.byte	0xf3
 7556 0405 01       		.uleb128 0x1
 7557 0406 53       		.byte	0x53
 7558 0407 9F       		.byte	0x9f
 7559 0408 00000000 		.4byte	0
 7560 040c 00000000 		.4byte	0
 7561              	.LLST25:
 7562 0410 00000000 		.4byte	.LVL76
 7563 0414 08000000 		.4byte	.LVL77
 7564 0418 0200     		.2byte	0x2
 7565 041a 91       		.byte	0x91
 7566 041b 00       		.sleb128 0
ARM GAS  C:\Users\leoja\AppData\Local\Temp\cciPvcJP.s 			page 152


 7567 041c 08000000 		.4byte	.LVL77
 7568 0420 0C000000 		.4byte	.LVL78
 7569 0424 0200     		.2byte	0x2
 7570 0426 73       		.byte	0x73
 7571 0427 00       		.sleb128 0
 7572 0428 0C000000 		.4byte	.LVL78
 7573 042c 60030000 		.4byte	.LFE40
 7574 0430 0200     		.2byte	0x2
 7575 0432 91       		.byte	0x91
 7576 0433 00       		.sleb128 0
 7577 0434 00000000 		.4byte	0
 7578 0438 00000000 		.4byte	0
 7579              	.LLST26:
 7580 043c 00000000 		.4byte	.LVL76
 7581 0440 08000000 		.4byte	.LVL77
 7582 0444 0200     		.2byte	0x2
 7583 0446 91       		.byte	0x91
 7584 0447 04       		.sleb128 4
 7585 0448 08000000 		.4byte	.LVL77
 7586 044c 0C000000 		.4byte	.LVL78
 7587 0450 0200     		.2byte	0x2
 7588 0452 73       		.byte	0x73
 7589 0453 04       		.sleb128 4
 7590 0454 0C000000 		.4byte	.LVL78
 7591 0458 12000000 		.4byte	.LVL80
 7592 045c 0200     		.2byte	0x2
 7593 045e 73       		.byte	0x73
 7594 045f 00       		.sleb128 0
 7595 0460 12000000 		.4byte	.LVL80
 7596 0464 60030000 		.4byte	.LFE40
 7597 0468 0200     		.2byte	0x2
 7598 046a 91       		.byte	0x91
 7599 046b 04       		.sleb128 4
 7600 046c 00000000 		.4byte	0
 7601 0470 00000000 		.4byte	0
 7602              	.LLST27:
 7603 0474 2E000000 		.4byte	.LVL85
 7604 0478 32000000 		.4byte	.LVL86
 7605 047c 0100     		.2byte	0x1
 7606 047e 53       		.byte	0x53
 7607 047f 32000000 		.4byte	.LVL86
 7608 0483 60030000 		.4byte	.LFE40
 7609 0487 0200     		.2byte	0x2
 7610 0489 91       		.byte	0x91
 7611 048a 60       		.sleb128 -32
 7612 048b 00000000 		.4byte	0
 7613 048f 00000000 		.4byte	0
 7614              	.LLST28:
 7615 0493 3E000000 		.4byte	.LVL87
 7616 0497 47000000 		.4byte	.LVL88-1
 7617 049b 0100     		.2byte	0x1
 7618 049d 53       		.byte	0x53
 7619 049e 47000000 		.4byte	.LVL88-1
 7620 04a2 60030000 		.4byte	.LFE40
 7621 04a6 0200     		.2byte	0x2
 7622 04a8 91       		.byte	0x91
 7623 04a9 64       		.sleb128 -28
ARM GAS  C:\Users\leoja\AppData\Local\Temp\cciPvcJP.s 			page 153


 7624 04aa 00000000 		.4byte	0
 7625 04ae 00000000 		.4byte	0
 7626              	.LLST29:
 7627 04b2 10000000 		.4byte	.LVL79
 7628 04b6 1C000000 		.4byte	.LVL82
 7629 04ba 0700     		.2byte	0x7
 7630 04bc 72       		.byte	0x72
 7631 04bd 00       		.sleb128 0
 7632 04be 44       		.byte	0x44
 7633 04bf 1E       		.byte	0x1e
 7634 04c0 23       		.byte	0x23
 7635 04c1 0C       		.uleb128 0xc
 7636 04c2 9F       		.byte	0x9f
 7637 04c3 1C000000 		.4byte	.LVL82
 7638 04c7 1E000000 		.4byte	.LVL83
 7639 04cb 0100     		.2byte	0x1
 7640 04cd 53       		.byte	0x53
 7641 04ce 1E000000 		.4byte	.LVL83
 7642 04d2 47000000 		.4byte	.LVL88-1
 7643 04d6 0700     		.2byte	0x7
 7644 04d8 72       		.byte	0x72
 7645 04d9 00       		.sleb128 0
 7646 04da 44       		.byte	0x44
 7647 04db 1E       		.byte	0x1e
 7648 04dc 23       		.byte	0x23
 7649 04dd 0C       		.uleb128 0xc
 7650 04de 9F       		.byte	0x9f
 7651 04df 47000000 		.4byte	.LVL88-1
 7652 04e3 60030000 		.4byte	.LFE40
 7653 04e7 0C00     		.2byte	0xc
 7654 04e9 91       		.byte	0x91
 7655 04ea 04       		.sleb128 4
 7656 04eb 94       		.byte	0x94
 7657 04ec 01       		.byte	0x1
 7658 04ed 08       		.byte	0x8
 7659 04ee FF       		.byte	0xff
 7660 04ef 1A       		.byte	0x1a
 7661 04f0 44       		.byte	0x44
 7662 04f1 1E       		.byte	0x1e
 7663 04f2 23       		.byte	0x23
 7664 04f3 0C       		.uleb128 0xc
 7665 04f4 9F       		.byte	0x9f
 7666 04f5 00000000 		.4byte	0
 7667 04f9 00000000 		.4byte	0
 7668              	.LLST30:
 7669 04fd 7A000000 		.4byte	.LVL91
 7670 0501 A8000000 		.4byte	.LVL93
 7671 0505 0600     		.2byte	0x6
 7672 0507 0C       		.byte	0xc
 7673 0508 00FFFF00 		.4byte	0xffff00
 7674 050c 9F       		.byte	0x9f
 7675 050d A8000000 		.4byte	.LVL93
 7676 0511 0E010000 		.4byte	.LVL97
 7677 0515 0500     		.2byte	0x5
 7678 0517 08       		.byte	0x8
 7679 0518 FF       		.byte	0xff
 7680 0519 40       		.byte	0x40
ARM GAS  C:\Users\leoja\AppData\Local\Temp\cciPvcJP.s 			page 154


 7681 051a 24       		.byte	0x24
 7682 051b 9F       		.byte	0x9f
 7683 051c 12010000 		.4byte	.LVL98
 7684 0520 AE010000 		.4byte	.LVL104
 7685 0524 0500     		.2byte	0x5
 7686 0526 08       		.byte	0x8
 7687 0527 FF       		.byte	0xff
 7688 0528 40       		.byte	0x40
 7689 0529 24       		.byte	0x24
 7690 052a 9F       		.byte	0x9f
 7691 052b AE010000 		.4byte	.LVL104
 7692 052f DC010000 		.4byte	.LVL106
 7693 0533 0600     		.2byte	0x6
 7694 0535 0C       		.byte	0xc
 7695 0536 00FFFF00 		.4byte	0xffff00
 7696 053a 9F       		.byte	0x9f
 7697 053b DC010000 		.4byte	.LVL106
 7698 053f AC020000 		.4byte	.LVL114
 7699 0543 0500     		.2byte	0x5
 7700 0545 08       		.byte	0x8
 7701 0546 FF       		.byte	0xff
 7702 0547 40       		.byte	0x40
 7703 0548 24       		.byte	0x24
 7704 0549 9F       		.byte	0x9f
 7705 054a AC020000 		.4byte	.LVL114
 7706 054e 02030000 		.4byte	.LVL116
 7707 0552 0400     		.2byte	0x4
 7708 0554 0A       		.byte	0xa
 7709 0555 00FF     		.2byte	0xff00
 7710 0557 9F       		.byte	0x9f
 7711 0558 00000000 		.4byte	0
 7712 055c 00000000 		.4byte	0
 7713              	.LLST31:
 7714 0560 52000000 		.4byte	.LVL89
 7715 0564 62000000 		.4byte	.LVL90
 7716 0568 0600     		.2byte	0x6
 7717 056a 76       		.byte	0x76
 7718 056b 00       		.sleb128 0
 7719 056c 08       		.byte	0x8
 7720 056d 7F       		.byte	0x7f
 7721 056e 1A       		.byte	0x1a
 7722 056f 9F       		.byte	0x9f
 7723 0570 00000000 		.4byte	0
 7724 0574 00000000 		.4byte	0
 7725              	.LLST32:
 7726 0578 00000000 		.4byte	.LVL119
 7727 057c 24000000 		.4byte	.LVL128
 7728 0580 0100     		.2byte	0x1
 7729 0582 50       		.byte	0x50
 7730 0583 24000000 		.4byte	.LVL128
 7731 0587 52000000 		.4byte	.LVL133
 7732 058b 0100     		.2byte	0x1
 7733 058d 54       		.byte	0x54
 7734 058e 52000000 		.4byte	.LVL133
 7735 0592 55000000 		.4byte	.LVL134-1
 7736 0596 0100     		.2byte	0x1
 7737 0598 50       		.byte	0x50
ARM GAS  C:\Users\leoja\AppData\Local\Temp\cciPvcJP.s 			page 155


 7738 0599 55000000 		.4byte	.LVL134-1
 7739 059d 56000000 		.4byte	.LVL134
 7740 05a1 0700     		.2byte	0x7
 7741 05a3 74       		.byte	0x74
 7742 05a4 00       		.sleb128 0
 7743 05a5 0A       		.byte	0xa
 7744 05a6 5B03     		.2byte	0x35b
 7745 05a8 1E       		.byte	0x1e
 7746 05a9 9F       		.byte	0x9f
 7747 05aa 56000000 		.4byte	.LVL134
 7748 05ae 5A000000 		.4byte	.LVL135
 7749 05b2 0100     		.2byte	0x1
 7750 05b4 50       		.byte	0x50
 7751 05b5 5A000000 		.4byte	.LVL135
 7752 05b9 5C000000 		.4byte	.LVL136
 7753 05bd 0300     		.2byte	0x3
 7754 05bf 70       		.byte	0x70
 7755 05c0 6E       		.sleb128 -18
 7756 05c1 9F       		.byte	0x9f
 7757 05c2 5C000000 		.4byte	.LVL136
 7758 05c6 98000000 		.4byte	.LVL138
 7759 05ca 0100     		.2byte	0x1
 7760 05cc 50       		.byte	0x50
 7761 05cd 98000000 		.4byte	.LVL138
 7762 05d1 F4000000 		.4byte	.LVL144
 7763 05d5 0100     		.2byte	0x1
 7764 05d7 55       		.byte	0x55
 7765 05d8 00000000 		.4byte	0
 7766 05dc 00000000 		.4byte	0
 7767              	.LLST33:
 7768 05e0 00000000 		.4byte	.LVL119
 7769 05e4 18000000 		.4byte	.LVL125
 7770 05e8 0100     		.2byte	0x1
 7771 05ea 51       		.byte	0x51
 7772 05eb 18000000 		.4byte	.LVL125
 7773 05ef 24010000 		.4byte	.LFE41
 7774 05f3 0400     		.2byte	0x4
 7775 05f5 F3       		.byte	0xf3
 7776 05f6 01       		.uleb128 0x1
 7777 05f7 51       		.byte	0x51
 7778 05f8 9F       		.byte	0x9f
 7779 05f9 00000000 		.4byte	0
 7780 05fd 00000000 		.4byte	0
 7781              	.LLST34:
 7782 0601 00000000 		.4byte	.LVL119
 7783 0605 12000000 		.4byte	.LVL123
 7784 0609 0100     		.2byte	0x1
 7785 060b 52       		.byte	0x52
 7786 060c 12000000 		.4byte	.LVL123
 7787 0610 24010000 		.4byte	.LFE41
 7788 0614 0400     		.2byte	0x4
 7789 0616 F3       		.byte	0xf3
 7790 0617 01       		.uleb128 0x1
 7791 0618 52       		.byte	0x52
 7792 0619 9F       		.byte	0x9f
 7793 061a 00000000 		.4byte	0
 7794 061e 00000000 		.4byte	0
ARM GAS  C:\Users\leoja\AppData\Local\Temp\cciPvcJP.s 			page 156


 7795              	.LLST35:
 7796 0622 00000000 		.4byte	.LVL119
 7797 0626 08000000 		.4byte	.LVL120
 7798 062a 0100     		.2byte	0x1
 7799 062c 53       		.byte	0x53
 7800 062d 08000000 		.4byte	.LVL120
 7801 0631 24010000 		.4byte	.LFE41
 7802 0635 0400     		.2byte	0x4
 7803 0637 F3       		.byte	0xf3
 7804 0638 01       		.uleb128 0x1
 7805 0639 53       		.byte	0x53
 7806 063a 9F       		.byte	0x9f
 7807 063b 00000000 		.4byte	0
 7808 063f 00000000 		.4byte	0
 7809              	.LLST36:
 7810 0643 00000000 		.4byte	.LVL119
 7811 0647 08000000 		.4byte	.LVL120
 7812 064b 0200     		.2byte	0x2
 7813 064d 91       		.byte	0x91
 7814 064e 00       		.sleb128 0
 7815 064f 08000000 		.4byte	.LVL120
 7816 0653 0A000000 		.4byte	.LVL121
 7817 0657 0200     		.2byte	0x2
 7818 0659 73       		.byte	0x73
 7819 065a 00       		.sleb128 0
 7820 065b 0A000000 		.4byte	.LVL121
 7821 065f 24010000 		.4byte	.LFE41
 7822 0663 0200     		.2byte	0x2
 7823 0665 91       		.byte	0x91
 7824 0666 00       		.sleb128 0
 7825 0667 00000000 		.4byte	0
 7826 066b 00000000 		.4byte	0
 7827              	.LLST37:
 7828 066f 00000000 		.4byte	.LVL119
 7829 0673 08000000 		.4byte	.LVL120
 7830 0677 0200     		.2byte	0x2
 7831 0679 91       		.byte	0x91
 7832 067a 04       		.sleb128 4
 7833 067b 08000000 		.4byte	.LVL120
 7834 067f 0A000000 		.4byte	.LVL121
 7835 0683 0200     		.2byte	0x2
 7836 0685 73       		.byte	0x73
 7837 0686 04       		.sleb128 4
 7838 0687 0A000000 		.4byte	.LVL121
 7839 068b 10000000 		.4byte	.LVL122
 7840 068f 0200     		.2byte	0x2
 7841 0691 91       		.byte	0x91
 7842 0692 04       		.sleb128 4
 7843 0693 10000000 		.4byte	.LVL122
 7844 0697 14000000 		.4byte	.LVL124
 7845 069b 0200     		.2byte	0x2
 7846 069d 73       		.byte	0x73
 7847 069e 00       		.sleb128 0
 7848 069f 14000000 		.4byte	.LVL124
 7849 06a3 24010000 		.4byte	.LFE41
 7850 06a7 0200     		.2byte	0x2
 7851 06a9 91       		.byte	0x91
ARM GAS  C:\Users\leoja\AppData\Local\Temp\cciPvcJP.s 			page 157


 7852 06aa 04       		.sleb128 4
 7853 06ab 00000000 		.4byte	0
 7854 06af 00000000 		.4byte	0
 7855              	.LLST38:
 7856 06b3 2E000000 		.4byte	.LVL129
 7857 06b7 30000000 		.4byte	.LVL130
 7858 06bb 0100     		.2byte	0x1
 7859 06bd 53       		.byte	0x53
 7860 06be 30000000 		.4byte	.LVL130
 7861 06c2 24010000 		.4byte	.LFE41
 7862 06c6 0200     		.2byte	0x2
 7863 06c8 91       		.byte	0x91
 7864 06c9 58       		.sleb128 -40
 7865 06ca 00000000 		.4byte	0
 7866 06ce 00000000 		.4byte	0
 7867              	.LLST39:
 7868 06d2 40000000 		.4byte	.LVL131
 7869 06d6 49000000 		.4byte	.LVL132-1
 7870 06da 0100     		.2byte	0x1
 7871 06dc 53       		.byte	0x53
 7872 06dd 49000000 		.4byte	.LVL132-1
 7873 06e1 24010000 		.4byte	.LFE41
 7874 06e5 0200     		.2byte	0x2
 7875 06e7 91       		.byte	0x91
 7876 06e8 5C       		.sleb128 -36
 7877 06e9 00000000 		.4byte	0
 7878 06ed 00000000 		.4byte	0
 7879              	.LLST40:
 7880 06f1 12000000 		.4byte	.LVL123
 7881 06f5 1C000000 		.4byte	.LVL126
 7882 06f9 0700     		.2byte	0x7
 7883 06fb 72       		.byte	0x72
 7884 06fc 00       		.sleb128 0
 7885 06fd 44       		.byte	0x44
 7886 06fe 1E       		.byte	0x1e
 7887 06ff 23       		.byte	0x23
 7888 0700 0C       		.uleb128 0xc
 7889 0701 9F       		.byte	0x9f
 7890 0702 1C000000 		.4byte	.LVL126
 7891 0706 1E000000 		.4byte	.LVL127
 7892 070a 0100     		.2byte	0x1
 7893 070c 53       		.byte	0x53
 7894 070d 1E000000 		.4byte	.LVL127
 7895 0711 49000000 		.4byte	.LVL132-1
 7896 0715 0700     		.2byte	0x7
 7897 0717 72       		.byte	0x72
 7898 0718 00       		.sleb128 0
 7899 0719 44       		.byte	0x44
 7900 071a 1E       		.byte	0x1e
 7901 071b 23       		.byte	0x23
 7902 071c 0C       		.uleb128 0xc
 7903 071d 9F       		.byte	0x9f
 7904 071e 49000000 		.4byte	.LVL132-1
 7905 0722 24010000 		.4byte	.LFE41
 7906 0726 0C00     		.2byte	0xc
 7907 0728 91       		.byte	0x91
 7908 0729 04       		.sleb128 4
ARM GAS  C:\Users\leoja\AppData\Local\Temp\cciPvcJP.s 			page 158


 7909 072a 94       		.byte	0x94
 7910 072b 01       		.byte	0x1
 7911 072c 08       		.byte	0x8
 7912 072d FF       		.byte	0xff
 7913 072e 1A       		.byte	0x1a
 7914 072f 44       		.byte	0x44
 7915 0730 1E       		.byte	0x1e
 7916 0731 23       		.byte	0x23
 7917 0732 0C       		.uleb128 0xc
 7918 0733 9F       		.byte	0x9f
 7919 0734 00000000 		.4byte	0
 7920 0738 00000000 		.4byte	0
 7921              	.LLST41:
 7922 073c 7E000000 		.4byte	.LVL137
 7923 0740 F4000000 		.4byte	.LVL143
 7924 0744 0100     		.2byte	0x1
 7925 0746 54       		.byte	0x54
 7926 0747 00000000 		.4byte	0
 7927 074b 00000000 		.4byte	0
 7928              	.LLST42:
 7929 074f 00000000 		.4byte	.LVL145
 7930 0753 2A000000 		.4byte	.LVL154
 7931 0757 0100     		.2byte	0x1
 7932 0759 50       		.byte	0x50
 7933 075a 2A000000 		.4byte	.LVL154
 7934 075e C0000000 		.4byte	.LFE44
 7935 0762 0400     		.2byte	0x4
 7936 0764 F3       		.byte	0xf3
 7937 0765 01       		.uleb128 0x1
 7938 0766 50       		.byte	0x50
 7939 0767 9F       		.byte	0x9f
 7940 0768 00000000 		.4byte	0
 7941 076c 00000000 		.4byte	0
 7942              	.LLST43:
 7943 0770 00000000 		.4byte	.LVL145
 7944 0774 14000000 		.4byte	.LVL149
 7945 0778 0100     		.2byte	0x1
 7946 077a 51       		.byte	0x51
 7947 077b 14000000 		.4byte	.LVL149
 7948 077f C0000000 		.4byte	.LFE44
 7949 0783 0400     		.2byte	0x4
 7950 0785 F3       		.byte	0xf3
 7951 0786 01       		.uleb128 0x1
 7952 0787 51       		.byte	0x51
 7953 0788 9F       		.byte	0x9f
 7954 0789 00000000 		.4byte	0
 7955 078d 00000000 		.4byte	0
 7956              	.LLST44:
 7957 0791 00000000 		.4byte	.LVL145
 7958 0795 06000000 		.4byte	.LVL146
 7959 0799 0100     		.2byte	0x1
 7960 079b 52       		.byte	0x52
 7961 079c 06000000 		.4byte	.LVL146
 7962 07a0 C0000000 		.4byte	.LFE44
 7963 07a4 0400     		.2byte	0x4
 7964 07a6 F3       		.byte	0xf3
 7965 07a7 01       		.uleb128 0x1
ARM GAS  C:\Users\leoja\AppData\Local\Temp\cciPvcJP.s 			page 159


 7966 07a8 52       		.byte	0x52
 7967 07a9 9F       		.byte	0x9f
 7968 07aa 00000000 		.4byte	0
 7969 07ae 00000000 		.4byte	0
 7970              	.LLST45:
 7971 07b2 00000000 		.4byte	.LVL145
 7972 07b6 0C000000 		.4byte	.LVL147
 7973 07ba 0100     		.2byte	0x1
 7974 07bc 53       		.byte	0x53
 7975 07bd 0C000000 		.4byte	.LVL147
 7976 07c1 C0000000 		.4byte	.LFE44
 7977 07c5 0400     		.2byte	0x4
 7978 07c7 F3       		.byte	0xf3
 7979 07c8 01       		.uleb128 0x1
 7980 07c9 53       		.byte	0x53
 7981 07ca 9F       		.byte	0x9f
 7982 07cb 00000000 		.4byte	0
 7983 07cf 00000000 		.4byte	0
 7984              	.LLST46:
 7985 07d3 00000000 		.4byte	.LVL145
 7986 07d7 0C000000 		.4byte	.LVL147
 7987 07db 0200     		.2byte	0x2
 7988 07dd 91       		.byte	0x91
 7989 07de 00       		.sleb128 0
 7990 07df 0C000000 		.4byte	.LVL147
 7991 07e3 10000000 		.4byte	.LVL148
 7992 07e7 0200     		.2byte	0x2
 7993 07e9 73       		.byte	0x73
 7994 07ea 00       		.sleb128 0
 7995 07eb 10000000 		.4byte	.LVL148
 7996 07ef C0000000 		.4byte	.LFE44
 7997 07f3 0200     		.2byte	0x2
 7998 07f5 91       		.byte	0x91
 7999 07f6 00       		.sleb128 0
 8000 07f7 00000000 		.4byte	0
 8001 07fb 00000000 		.4byte	0
 8002              	.LLST47:
 8003 07ff 00000000 		.4byte	.LVL145
 8004 0803 0C000000 		.4byte	.LVL147
 8005 0807 0200     		.2byte	0x2
 8006 0809 91       		.byte	0x91
 8007 080a 04       		.sleb128 4
 8008 080b 0C000000 		.4byte	.LVL147
 8009 080f 10000000 		.4byte	.LVL148
 8010 0813 0200     		.2byte	0x2
 8011 0815 73       		.byte	0x73
 8012 0816 04       		.sleb128 4
 8013 0817 10000000 		.4byte	.LVL148
 8014 081b 16000000 		.4byte	.LVL150
 8015 081f 0200     		.2byte	0x2
 8016 0821 73       		.byte	0x73
 8017 0822 00       		.sleb128 0
 8018 0823 16000000 		.4byte	.LVL150
 8019 0827 C0000000 		.4byte	.LFE44
 8020 082b 0200     		.2byte	0x2
 8021 082d 91       		.byte	0x91
 8022 082e 04       		.sleb128 4
ARM GAS  C:\Users\leoja\AppData\Local\Temp\cciPvcJP.s 			page 160


 8023 082f 00000000 		.4byte	0
 8024 0833 00000000 		.4byte	0
 8025              	.LLST48:
 8026 0837 36000000 		.4byte	.LVL155
 8027 083b 38000000 		.4byte	.LVL156
 8028 083f 0100     		.2byte	0x1
 8029 0841 53       		.byte	0x53
 8030 0842 38000000 		.4byte	.LVL156
 8031 0846 C0000000 		.4byte	.LFE44
 8032 084a 0200     		.2byte	0x2
 8033 084c 91       		.byte	0x91
 8034 084d 58       		.sleb128 -40
 8035 084e 00000000 		.4byte	0
 8036 0852 00000000 		.4byte	0
 8037              	.LLST49:
 8038 0856 40000000 		.4byte	.LVL157
 8039 085a 49000000 		.4byte	.LVL158-1
 8040 085e 0100     		.2byte	0x1
 8041 0860 53       		.byte	0x53
 8042 0861 49000000 		.4byte	.LVL158-1
 8043 0865 C0000000 		.4byte	.LFE44
 8044 0869 0200     		.2byte	0x2
 8045 086b 91       		.byte	0x91
 8046 086c 5C       		.sleb128 -36
 8047 086d 00000000 		.4byte	0
 8048 0871 00000000 		.4byte	0
 8049              	.LLST50:
 8050 0875 22000000 		.4byte	.LVL151
 8051 0879 24000000 		.4byte	.LVL152
 8052 087d 0100     		.2byte	0x1
 8053 087f 53       		.byte	0x53
 8054 0880 24000000 		.4byte	.LVL152
 8055 0884 49000000 		.4byte	.LVL158-1
 8056 0888 0700     		.2byte	0x7
 8057 088a 71       		.byte	0x71
 8058 088b 00       		.sleb128 0
 8059 088c 44       		.byte	0x44
 8060 088d 1E       		.byte	0x1e
 8061 088e 23       		.byte	0x23
 8062 088f 0C       		.uleb128 0xc
 8063 0890 9F       		.byte	0x9f
 8064 0891 49000000 		.4byte	.LVL158-1
 8065 0895 C0000000 		.4byte	.LFE44
 8066 0899 0C00     		.2byte	0xc
 8067 089b 91       		.byte	0x91
 8068 089c 04       		.sleb128 4
 8069 089d 94       		.byte	0x94
 8070 089e 01       		.byte	0x1
 8071 089f 08       		.byte	0x8
 8072 08a0 FF       		.byte	0xff
 8073 08a1 1A       		.byte	0x1a
 8074 08a2 44       		.byte	0x44
 8075 08a3 1E       		.byte	0x1e
 8076 08a4 23       		.byte	0x23
 8077 08a5 0C       		.uleb128 0xc
 8078 08a6 9F       		.byte	0x9f
 8079 08a7 00000000 		.4byte	0
ARM GAS  C:\Users\leoja\AppData\Local\Temp\cciPvcJP.s 			page 161


 8080 08ab 00000000 		.4byte	0
 8081              	.LLST51:
 8082 08af 22000000 		.4byte	.LVL151
 8083 08b3 26000000 		.4byte	.LVL153
 8084 08b7 0100     		.2byte	0x1
 8085 08b9 52       		.byte	0x52
 8086 08ba 26000000 		.4byte	.LVL153
 8087 08be 2A000000 		.4byte	.LVL154
 8088 08c2 1000     		.2byte	0x10
 8089 08c4 08       		.byte	0x8
 8090 08c5 63       		.byte	0x63
 8091 08c6 40       		.byte	0x40
 8092 08c7 4B       		.byte	0x4b
 8093 08c8 24       		.byte	0x24
 8094 08c9 22       		.byte	0x22
 8095 08ca 70       		.byte	0x70
 8096 08cb 00       		.sleb128 0
 8097 08cc 40       		.byte	0x40
 8098 08cd 4B       		.byte	0x4b
 8099 08ce 24       		.byte	0x24
 8100 08cf 22       		.byte	0x22
 8101 08d0 2D       		.byte	0x2d
 8102 08d1 23       		.byte	0x23
 8103 08d2 03       		.uleb128 0x3
 8104 08d3 9F       		.byte	0x9f
 8105 08d4 2A000000 		.4byte	.LVL154
 8106 08d8 C0000000 		.4byte	.LFE44
 8107 08dc 1100     		.2byte	0x11
 8108 08de 08       		.byte	0x8
 8109 08df 63       		.byte	0x63
 8110 08e0 40       		.byte	0x40
 8111 08e1 4B       		.byte	0x4b
 8112 08e2 24       		.byte	0x24
 8113 08e3 22       		.byte	0x22
 8114 08e4 91       		.byte	0x91
 8115 08e5 54       		.sleb128 -44
 8116 08e6 06       		.byte	0x6
 8117 08e7 40       		.byte	0x40
 8118 08e8 4B       		.byte	0x4b
 8119 08e9 24       		.byte	0x24
 8120 08ea 22       		.byte	0x22
 8121 08eb 2D       		.byte	0x2d
 8122 08ec 23       		.byte	0x23
 8123 08ed 03       		.uleb128 0x3
 8124 08ee 9F       		.byte	0x9f
 8125 08ef 00000000 		.4byte	0
 8126 08f3 00000000 		.4byte	0
 8127              	.LLST52:
 8128 08f7 00000000 		.4byte	.LVL165
 8129 08fb 11000000 		.4byte	.LVL170-1
 8130 08ff 0100     		.2byte	0x1
 8131 0901 50       		.byte	0x50
 8132 0902 11000000 		.4byte	.LVL170-1
 8133 0906 14000000 		.4byte	.LFE43
 8134 090a 0400     		.2byte	0x4
 8135 090c F3       		.byte	0xf3
 8136 090d 01       		.uleb128 0x1
ARM GAS  C:\Users\leoja\AppData\Local\Temp\cciPvcJP.s 			page 162


 8137 090e 50       		.byte	0x50
 8138 090f 9F       		.byte	0x9f
 8139 0910 00000000 		.4byte	0
 8140 0914 00000000 		.4byte	0
 8141              	.LLST53:
 8142 0918 00000000 		.4byte	.LVL165
 8143 091c 11000000 		.4byte	.LVL170-1
 8144 0920 0100     		.2byte	0x1
 8145 0922 51       		.byte	0x51
 8146 0923 11000000 		.4byte	.LVL170-1
 8147 0927 14000000 		.4byte	.LFE43
 8148 092b 0400     		.2byte	0x4
 8149 092d F3       		.byte	0xf3
 8150 092e 01       		.uleb128 0x1
 8151 092f 51       		.byte	0x51
 8152 0930 9F       		.byte	0x9f
 8153 0931 00000000 		.4byte	0
 8154 0935 00000000 		.4byte	0
 8155              	.LLST54:
 8156 0939 00000000 		.4byte	.LVL165
 8157 093d 11000000 		.4byte	.LVL170-1
 8158 0941 0100     		.2byte	0x1
 8159 0943 52       		.byte	0x52
 8160 0944 11000000 		.4byte	.LVL170-1
 8161 0948 14000000 		.4byte	.LFE43
 8162 094c 0400     		.2byte	0x4
 8163 094e F3       		.byte	0xf3
 8164 094f 01       		.uleb128 0x1
 8165 0950 52       		.byte	0x52
 8166 0951 9F       		.byte	0x9f
 8167 0952 00000000 		.4byte	0
 8168 0956 00000000 		.4byte	0
 8169              	.LLST55:
 8170 095a 00000000 		.4byte	.LVL165
 8171 095e 11000000 		.4byte	.LVL170-1
 8172 0962 0100     		.2byte	0x1
 8173 0964 53       		.byte	0x53
 8174 0965 11000000 		.4byte	.LVL170-1
 8175 0969 14000000 		.4byte	.LFE43
 8176 096d 0400     		.2byte	0x4
 8177 096f F3       		.byte	0xf3
 8178 0970 01       		.uleb128 0x1
 8179 0971 53       		.byte	0x53
 8180 0972 9F       		.byte	0x9f
 8181 0973 00000000 		.4byte	0
 8182 0977 00000000 		.4byte	0
 8183              	.LLST56:
 8184 097b 00000000 		.4byte	.LVL165
 8185 097f 04000000 		.4byte	.LVL166
 8186 0983 0200     		.2byte	0x2
 8187 0985 91       		.byte	0x91
 8188 0986 00       		.sleb128 0
 8189 0987 04000000 		.4byte	.LVL166
 8190 098b 0A000000 		.4byte	.LVL169
 8191 098f 0200     		.2byte	0x2
 8192 0991 74       		.byte	0x74
 8193 0992 00       		.sleb128 0
ARM GAS  C:\Users\leoja\AppData\Local\Temp\cciPvcJP.s 			page 163


 8194 0993 0A000000 		.4byte	.LVL169
 8195 0997 14000000 		.4byte	.LFE43
 8196 099b 0200     		.2byte	0x2
 8197 099d 91       		.byte	0x91
 8198 099e 00       		.sleb128 0
 8199 099f 00000000 		.4byte	0
 8200 09a3 00000000 		.4byte	0
 8201              	.LLST57:
 8202 09a7 00000000 		.4byte	.LVL165
 8203 09ab 04000000 		.4byte	.LVL166
 8204 09af 0200     		.2byte	0x2
 8205 09b1 91       		.byte	0x91
 8206 09b2 04       		.sleb128 4
 8207 09b3 04000000 		.4byte	.LVL166
 8208 09b7 06000000 		.4byte	.LVL167
 8209 09bb 0200     		.2byte	0x2
 8210 09bd 74       		.byte	0x74
 8211 09be 04       		.sleb128 4
 8212 09bf 06000000 		.4byte	.LVL167
 8213 09c3 08000000 		.4byte	.LVL168
 8214 09c7 0200     		.2byte	0x2
 8215 09c9 75       		.byte	0x75
 8216 09ca 00       		.sleb128 0
 8217 09cb 08000000 		.4byte	.LVL168
 8218 09cf 0A000000 		.4byte	.LVL169
 8219 09d3 0200     		.2byte	0x2
 8220 09d5 74       		.byte	0x74
 8221 09d6 04       		.sleb128 4
 8222 09d7 0A000000 		.4byte	.LVL169
 8223 09db 14000000 		.4byte	.LFE43
 8224 09df 0200     		.2byte	0x2
 8225 09e1 91       		.byte	0x91
 8226 09e2 04       		.sleb128 4
 8227 09e3 00000000 		.4byte	0
 8228 09e7 00000000 		.4byte	0
 8229              	.LLST58:
 8230 09eb 00000000 		.4byte	.LVL171
 8231 09ef 22000000 		.4byte	.LVL179
 8232 09f3 0100     		.2byte	0x1
 8233 09f5 50       		.byte	0x50
 8234 09f6 22000000 		.4byte	.LVL179
 8235 09fa C4000000 		.4byte	.LFE45
 8236 09fe 0400     		.2byte	0x4
 8237 0a00 F3       		.byte	0xf3
 8238 0a01 01       		.uleb128 0x1
 8239 0a02 50       		.byte	0x50
 8240 0a03 9F       		.byte	0x9f
 8241 0a04 00000000 		.4byte	0
 8242 0a08 00000000 		.4byte	0
 8243              	.LLST59:
 8244 0a0c 00000000 		.4byte	.LVL171
 8245 0a10 16000000 		.4byte	.LVL176
 8246 0a14 0100     		.2byte	0x1
 8247 0a16 51       		.byte	0x51
 8248 0a17 16000000 		.4byte	.LVL176
 8249 0a1b C4000000 		.4byte	.LFE45
 8250 0a1f 0400     		.2byte	0x4
ARM GAS  C:\Users\leoja\AppData\Local\Temp\cciPvcJP.s 			page 164


 8251 0a21 F3       		.byte	0xf3
 8252 0a22 01       		.uleb128 0x1
 8253 0a23 51       		.byte	0x51
 8254 0a24 9F       		.byte	0x9f
 8255 0a25 00000000 		.4byte	0
 8256 0a29 00000000 		.4byte	0
 8257              	.LLST60:
 8258 0a2d 00000000 		.4byte	.LVL171
 8259 0a31 10000000 		.4byte	.LVL174
 8260 0a35 0100     		.2byte	0x1
 8261 0a37 52       		.byte	0x52
 8262 0a38 10000000 		.4byte	.LVL174
 8263 0a3c C4000000 		.4byte	.LFE45
 8264 0a40 0400     		.2byte	0x4
 8265 0a42 F3       		.byte	0xf3
 8266 0a43 01       		.uleb128 0x1
 8267 0a44 52       		.byte	0x52
 8268 0a45 9F       		.byte	0x9f
 8269 0a46 00000000 		.4byte	0
 8270 0a4a 00000000 		.4byte	0
 8271              	.LLST61:
 8272 0a4e 00000000 		.4byte	.LVL171
 8273 0a52 08000000 		.4byte	.LVL172
 8274 0a56 0100     		.2byte	0x1
 8275 0a58 53       		.byte	0x53
 8276 0a59 08000000 		.4byte	.LVL172
 8277 0a5d C4000000 		.4byte	.LFE45
 8278 0a61 0400     		.2byte	0x4
 8279 0a63 F3       		.byte	0xf3
 8280 0a64 01       		.uleb128 0x1
 8281 0a65 53       		.byte	0x53
 8282 0a66 9F       		.byte	0x9f
 8283 0a67 00000000 		.4byte	0
 8284 0a6b 00000000 		.4byte	0
 8285              	.LLST62:
 8286 0a6f 00000000 		.4byte	.LVL171
 8287 0a73 08000000 		.4byte	.LVL172
 8288 0a77 0200     		.2byte	0x2
 8289 0a79 91       		.byte	0x91
 8290 0a7a 00       		.sleb128 0
 8291 0a7b 08000000 		.4byte	.LVL172
 8292 0a7f 0C000000 		.4byte	.LVL173
 8293 0a83 0200     		.2byte	0x2
 8294 0a85 73       		.byte	0x73
 8295 0a86 00       		.sleb128 0
 8296 0a87 0C000000 		.4byte	.LVL173
 8297 0a8b C4000000 		.4byte	.LFE45
 8298 0a8f 0200     		.2byte	0x2
 8299 0a91 91       		.byte	0x91
 8300 0a92 00       		.sleb128 0
 8301 0a93 00000000 		.4byte	0
 8302 0a97 00000000 		.4byte	0
 8303              	.LLST63:
 8304 0a9b 00000000 		.4byte	.LVL171
 8305 0a9f 08000000 		.4byte	.LVL172
 8306 0aa3 0200     		.2byte	0x2
 8307 0aa5 91       		.byte	0x91
ARM GAS  C:\Users\leoja\AppData\Local\Temp\cciPvcJP.s 			page 165


 8308 0aa6 04       		.sleb128 4
 8309 0aa7 08000000 		.4byte	.LVL172
 8310 0aab 0C000000 		.4byte	.LVL173
 8311 0aaf 0200     		.2byte	0x2
 8312 0ab1 73       		.byte	0x73
 8313 0ab2 04       		.sleb128 4
 8314 0ab3 0C000000 		.4byte	.LVL173
 8315 0ab7 12000000 		.4byte	.LVL175
 8316 0abb 0200     		.2byte	0x2
 8317 0abd 73       		.byte	0x73
 8318 0abe 00       		.sleb128 0
 8319 0abf 12000000 		.4byte	.LVL175
 8320 0ac3 C4000000 		.4byte	.LFE45
 8321 0ac7 0200     		.2byte	0x2
 8322 0ac9 91       		.byte	0x91
 8323 0aca 04       		.sleb128 4
 8324 0acb 00000000 		.4byte	0
 8325 0acf 00000000 		.4byte	0
 8326              	.LLST64:
 8327 0ad3 30000000 		.4byte	.LVL180
 8328 0ad7 32000000 		.4byte	.LVL181
 8329 0adb 0100     		.2byte	0x1
 8330 0add 53       		.byte	0x53
 8331 0ade 32000000 		.4byte	.LVL181
 8332 0ae2 C4000000 		.4byte	.LFE45
 8333 0ae6 0200     		.2byte	0x2
 8334 0ae8 91       		.byte	0x91
 8335 0ae9 58       		.sleb128 -40
 8336 0aea 00000000 		.4byte	0
 8337 0aee 00000000 		.4byte	0
 8338              	.LLST65:
 8339 0af2 3A000000 		.4byte	.LVL182
 8340 0af6 43000000 		.4byte	.LVL183-1
 8341 0afa 0100     		.2byte	0x1
 8342 0afc 53       		.byte	0x53
 8343 0afd 43000000 		.4byte	.LVL183-1
 8344 0b01 C4000000 		.4byte	.LFE45
 8345 0b05 0200     		.2byte	0x2
 8346 0b07 91       		.byte	0x91
 8347 0b08 5C       		.sleb128 -36
 8348 0b09 00000000 		.4byte	0
 8349 0b0d 00000000 		.4byte	0
 8350              	.LLST66:
 8351 0b11 10000000 		.4byte	.LVL174
 8352 0b15 1A000000 		.4byte	.LVL177
 8353 0b19 0700     		.2byte	0x7
 8354 0b1b 72       		.byte	0x72
 8355 0b1c 00       		.sleb128 0
 8356 0b1d 44       		.byte	0x44
 8357 0b1e 1E       		.byte	0x1e
 8358 0b1f 23       		.byte	0x23
 8359 0b20 0C       		.uleb128 0xc
 8360 0b21 9F       		.byte	0x9f
 8361 0b22 1A000000 		.4byte	.LVL177
 8362 0b26 1C000000 		.4byte	.LVL178
 8363 0b2a 0100     		.2byte	0x1
 8364 0b2c 53       		.byte	0x53
ARM GAS  C:\Users\leoja\AppData\Local\Temp\cciPvcJP.s 			page 166


 8365 0b2d 1C000000 		.4byte	.LVL178
 8366 0b31 43000000 		.4byte	.LVL183-1
 8367 0b35 0700     		.2byte	0x7
 8368 0b37 72       		.byte	0x72
 8369 0b38 00       		.sleb128 0
 8370 0b39 44       		.byte	0x44
 8371 0b3a 1E       		.byte	0x1e
 8372 0b3b 23       		.byte	0x23
 8373 0b3c 0C       		.uleb128 0xc
 8374 0b3d 9F       		.byte	0x9f
 8375 0b3e 43000000 		.4byte	.LVL183-1
 8376 0b42 C4000000 		.4byte	.LFE45
 8377 0b46 0C00     		.2byte	0xc
 8378 0b48 91       		.byte	0x91
 8379 0b49 04       		.sleb128 4
 8380 0b4a 94       		.byte	0x94
 8381 0b4b 01       		.byte	0x1
 8382 0b4c 08       		.byte	0x8
 8383 0b4d FF       		.byte	0xff
 8384 0b4e 1A       		.byte	0x1a
 8385 0b4f 44       		.byte	0x44
 8386 0b50 1E       		.byte	0x1e
 8387 0b51 23       		.byte	0x23
 8388 0b52 0C       		.uleb128 0xc
 8389 0b53 9F       		.byte	0x9f
 8390 0b54 00000000 		.4byte	0
 8391 0b58 00000000 		.4byte	0
 8392              	.LLST67:
 8393 0b5c 00000000 		.4byte	.LVL188
 8394 0b60 22000000 		.4byte	.LVL196
 8395 0b64 0100     		.2byte	0x1
 8396 0b66 50       		.byte	0x50
 8397 0b67 22000000 		.4byte	.LVL196
 8398 0b6b 24020000 		.4byte	.LFE46
 8399 0b6f 0400     		.2byte	0x4
 8400 0b71 F3       		.byte	0xf3
 8401 0b72 01       		.uleb128 0x1
 8402 0b73 50       		.byte	0x50
 8403 0b74 9F       		.byte	0x9f
 8404 0b75 00000000 		.4byte	0
 8405 0b79 00000000 		.4byte	0
 8406              	.LLST68:
 8407 0b7d 00000000 		.4byte	.LVL188
 8408 0b81 0A000000 		.4byte	.LVL189
 8409 0b85 0100     		.2byte	0x1
 8410 0b87 51       		.byte	0x51
 8411 0b88 0A000000 		.4byte	.LVL189
 8412 0b8c 24020000 		.4byte	.LFE46
 8413 0b90 0400     		.2byte	0x4
 8414 0b92 F3       		.byte	0xf3
 8415 0b93 01       		.uleb128 0x1
 8416 0b94 51       		.byte	0x51
 8417 0b95 9F       		.byte	0x9f
 8418 0b96 00000000 		.4byte	0
 8419 0b9a 00000000 		.4byte	0
 8420              	.LLST69:
 8421 0b9e 00000000 		.4byte	.LVL188
ARM GAS  C:\Users\leoja\AppData\Local\Temp\cciPvcJP.s 			page 167


 8422 0ba2 18000000 		.4byte	.LVL193
 8423 0ba6 0100     		.2byte	0x1
 8424 0ba8 52       		.byte	0x52
 8425 0ba9 18000000 		.4byte	.LVL193
 8426 0bad 24020000 		.4byte	.LFE46
 8427 0bb1 0400     		.2byte	0x4
 8428 0bb3 F3       		.byte	0xf3
 8429 0bb4 01       		.uleb128 0x1
 8430 0bb5 52       		.byte	0x52
 8431 0bb6 9F       		.byte	0x9f
 8432 0bb7 00000000 		.4byte	0
 8433 0bbb 00000000 		.4byte	0
 8434              	.LLST70:
 8435 0bbf 00000000 		.4byte	.LVL188
 8436 0bc3 0E000000 		.4byte	.LVL190
 8437 0bc7 0100     		.2byte	0x1
 8438 0bc9 53       		.byte	0x53
 8439 0bca 0E000000 		.4byte	.LVL190
 8440 0bce 24020000 		.4byte	.LFE46
 8441 0bd2 0400     		.2byte	0x4
 8442 0bd4 F3       		.byte	0xf3
 8443 0bd5 01       		.uleb128 0x1
 8444 0bd6 53       		.byte	0x53
 8445 0bd7 9F       		.byte	0x9f
 8446 0bd8 00000000 		.4byte	0
 8447 0bdc 00000000 		.4byte	0
 8448              	.LLST71:
 8449 0be0 00000000 		.4byte	.LVL188
 8450 0be4 0E000000 		.4byte	.LVL190
 8451 0be8 0200     		.2byte	0x2
 8452 0bea 91       		.byte	0x91
 8453 0beb 00       		.sleb128 0
 8454 0bec 0E000000 		.4byte	.LVL190
 8455 0bf0 10000000 		.4byte	.LVL191
 8456 0bf4 0200     		.2byte	0x2
 8457 0bf6 73       		.byte	0x73
 8458 0bf7 00       		.sleb128 0
 8459 0bf8 10000000 		.4byte	.LVL191
 8460 0bfc 24020000 		.4byte	.LFE46
 8461 0c00 0200     		.2byte	0x2
 8462 0c02 91       		.byte	0x91
 8463 0c03 00       		.sleb128 0
 8464 0c04 00000000 		.4byte	0
 8465 0c08 00000000 		.4byte	0
 8466              	.LLST72:
 8467 0c0c 00000000 		.4byte	.LVL188
 8468 0c10 0E000000 		.4byte	.LVL190
 8469 0c14 0200     		.2byte	0x2
 8470 0c16 91       		.byte	0x91
 8471 0c17 04       		.sleb128 4
 8472 0c18 0E000000 		.4byte	.LVL190
 8473 0c1c 10000000 		.4byte	.LVL191
 8474 0c20 0200     		.2byte	0x2
 8475 0c22 73       		.byte	0x73
 8476 0c23 04       		.sleb128 4
 8477 0c24 10000000 		.4byte	.LVL191
 8478 0c28 16000000 		.4byte	.LVL192
ARM GAS  C:\Users\leoja\AppData\Local\Temp\cciPvcJP.s 			page 168


 8479 0c2c 0200     		.2byte	0x2
 8480 0c2e 91       		.byte	0x91
 8481 0c2f 04       		.sleb128 4
 8482 0c30 16000000 		.4byte	.LVL192
 8483 0c34 26000000 		.4byte	.LVL197
 8484 0c38 0200     		.2byte	0x2
 8485 0c3a 73       		.byte	0x73
 8486 0c3b 00       		.sleb128 0
 8487 0c3c 26000000 		.4byte	.LVL197
 8488 0c40 24020000 		.4byte	.LFE46
 8489 0c44 0200     		.2byte	0x2
 8490 0c46 91       		.byte	0x91
 8491 0c47 04       		.sleb128 4
 8492 0c48 00000000 		.4byte	0
 8493 0c4c 00000000 		.4byte	0
 8494              	.LLST73:
 8495 0c50 2C000000 		.4byte	.LVL198
 8496 0c54 4E000000 		.4byte	.LVL202
 8497 0c58 0100     		.2byte	0x1
 8498 0c5a 55       		.byte	0x55
 8499 0c5b 4E000000 		.4byte	.LVL202
 8500 0c5f 24020000 		.4byte	.LFE46
 8501 0c63 1A00     		.2byte	0x1a
 8502 0c65 91       		.byte	0x91
 8503 0c66 58       		.sleb128 -40
 8504 0c67 06       		.byte	0x6
 8505 0c68 91       		.byte	0x91
 8506 0c69 60       		.sleb128 -32
 8507 0c6a 06       		.byte	0x6
 8508 0c6b 22       		.byte	0x22
 8509 0c6c 31       		.byte	0x31
 8510 0c6d 26       		.byte	0x26
 8511 0c6e 91       		.byte	0x91
 8512 0c6f 04       		.sleb128 4
 8513 0c70 94       		.byte	0x94
 8514 0c71 01       		.byte	0x1
 8515 0c72 08       		.byte	0x8
 8516 0c73 FF       		.byte	0xff
 8517 0c74 1A       		.byte	0x1a
 8518 0c75 44       		.byte	0x44
 8519 0c76 1E       		.byte	0x1e
 8520 0c77 23       		.byte	0x23
 8521 0c78 0C       		.uleb128 0xc
 8522 0c79 3A       		.byte	0x3a
 8523 0c7a 1E       		.byte	0x1e
 8524 0c7b 31       		.byte	0x31
 8525 0c7c 26       		.byte	0x26
 8526 0c7d 1C       		.byte	0x1c
 8527 0c7e 9F       		.byte	0x9f
 8528 0c7f 00000000 		.4byte	0
 8529 0c83 00000000 		.4byte	0
 8530              	.LLST74:
 8531 0c87 3E000000 		.4byte	.LVL199
 8532 0c8b 4C000000 		.4byte	.LVL201
 8533 0c8f 0100     		.2byte	0x1
 8534 0c91 56       		.byte	0x56
 8535 0c92 4C000000 		.4byte	.LVL201
ARM GAS  C:\Users\leoja\AppData\Local\Temp\cciPvcJP.s 			page 169


 8536 0c96 24020000 		.4byte	.LFE46
 8537 0c9a 1700     		.2byte	0x17
 8538 0c9c 91       		.byte	0x91
 8539 0c9d 04       		.sleb128 4
 8540 0c9e 94       		.byte	0x94
 8541 0c9f 01       		.byte	0x1
 8542 0ca0 08       		.byte	0x8
 8543 0ca1 FF       		.byte	0xff
 8544 0ca2 1A       		.byte	0x1a
 8545 0ca3 09       		.byte	0x9
 8546 0ca4 EF       		.byte	0xef
 8547 0ca5 1E       		.byte	0x1e
 8548 0ca6 91       		.byte	0x91
 8549 0ca7 5C       		.sleb128 -36
 8550 0ca8 06       		.byte	0x6
 8551 0ca9 91       		.byte	0x91
 8552 0caa 64       		.sleb128 -28
 8553 0cab 06       		.byte	0x6
 8554 0cac 22       		.byte	0x22
 8555 0cad 31       		.byte	0x31
 8556 0cae 26       		.byte	0x26
 8557 0caf 22       		.byte	0x22
 8558 0cb0 35       		.byte	0x35
 8559 0cb1 1C       		.byte	0x1c
 8560 0cb2 9F       		.byte	0x9f
 8561 0cb3 00000000 		.4byte	0
 8562 0cb7 00000000 		.4byte	0
 8563              	.LLST75:
 8564 0cbb 18000000 		.4byte	.LVL193
 8565 0cbf 1E000000 		.4byte	.LVL194
 8566 0cc3 0700     		.2byte	0x7
 8567 0cc5 72       		.byte	0x72
 8568 0cc6 00       		.sleb128 0
 8569 0cc7 44       		.byte	0x44
 8570 0cc8 1E       		.byte	0x1e
 8571 0cc9 23       		.byte	0x23
 8572 0cca 0C       		.uleb128 0xc
 8573 0ccb 9F       		.byte	0x9f
 8574 0ccc 1E000000 		.4byte	.LVL194
 8575 0cd0 20000000 		.4byte	.LVL195
 8576 0cd4 0100     		.2byte	0x1
 8577 0cd6 55       		.byte	0x55
 8578 0cd7 20000000 		.4byte	.LVL195
 8579 0cdb 47000000 		.4byte	.LVL200-1
 8580 0cdf 0700     		.2byte	0x7
 8581 0ce1 72       		.byte	0x72
 8582 0ce2 00       		.sleb128 0
 8583 0ce3 44       		.byte	0x44
 8584 0ce4 1E       		.byte	0x1e
 8585 0ce5 23       		.byte	0x23
 8586 0ce6 0C       		.uleb128 0xc
 8587 0ce7 9F       		.byte	0x9f
 8588 0ce8 47000000 		.4byte	.LVL200-1
 8589 0cec 24020000 		.4byte	.LFE46
 8590 0cf0 0C00     		.2byte	0xc
 8591 0cf2 91       		.byte	0x91
 8592 0cf3 04       		.sleb128 4
ARM GAS  C:\Users\leoja\AppData\Local\Temp\cciPvcJP.s 			page 170


 8593 0cf4 94       		.byte	0x94
 8594 0cf5 01       		.byte	0x1
 8595 0cf6 08       		.byte	0x8
 8596 0cf7 FF       		.byte	0xff
 8597 0cf8 1A       		.byte	0x1a
 8598 0cf9 44       		.byte	0x44
 8599 0cfa 1E       		.byte	0x1e
 8600 0cfb 23       		.byte	0x23
 8601 0cfc 0C       		.uleb128 0xc
 8602 0cfd 9F       		.byte	0x9f
 8603 0cfe 00000000 		.4byte	0
 8604 0d02 00000000 		.4byte	0
 8605              	.LLST76:
 8606 0d06 70000000 		.4byte	.LVL203
 8607 0d0a B4010000 		.4byte	.LVL215
 8608 0d0e 0500     		.2byte	0x5
 8609 0d10 08       		.byte	0x8
 8610 0d11 FF       		.byte	0xff
 8611 0d12 40       		.byte	0x40
 8612 0d13 24       		.byte	0x24
 8613 0d14 9F       		.byte	0x9f
 8614 0d15 B4010000 		.4byte	.LVL215
 8615 0d19 E8010000 		.4byte	.LVL217
 8616 0d1d 0400     		.2byte	0x4
 8617 0d1f 0A       		.byte	0xa
 8618 0d20 00FF     		.2byte	0xff00
 8619 0d22 9F       		.byte	0x9f
 8620 0d23 00000000 		.4byte	0
 8621 0d27 00000000 		.4byte	0
 8622              	.LLST77:
 8623 0d2b 00000000 		.4byte	.LVL220
 8624 0d2f 20000000 		.4byte	.LVL228
 8625 0d33 0100     		.2byte	0x1
 8626 0d35 50       		.byte	0x50
 8627 0d36 20000000 		.4byte	.LVL228
 8628 0d3a 8C000000 		.4byte	.LFE47
 8629 0d3e 0400     		.2byte	0x4
 8630 0d40 F3       		.byte	0xf3
 8631 0d41 01       		.uleb128 0x1
 8632 0d42 50       		.byte	0x50
 8633 0d43 9F       		.byte	0x9f
 8634 0d44 00000000 		.4byte	0
 8635 0d48 00000000 		.4byte	0
 8636              	.LLST78:
 8637 0d4c 00000000 		.4byte	.LVL220
 8638 0d50 16000000 		.4byte	.LVL225
 8639 0d54 0100     		.2byte	0x1
 8640 0d56 51       		.byte	0x51
 8641 0d57 16000000 		.4byte	.LVL225
 8642 0d5b 8C000000 		.4byte	.LFE47
 8643 0d5f 0400     		.2byte	0x4
 8644 0d61 F3       		.byte	0xf3
 8645 0d62 01       		.uleb128 0x1
 8646 0d63 51       		.byte	0x51
 8647 0d64 9F       		.byte	0x9f
 8648 0d65 00000000 		.4byte	0
 8649 0d69 00000000 		.4byte	0
ARM GAS  C:\Users\leoja\AppData\Local\Temp\cciPvcJP.s 			page 171


 8650              	.LLST79:
 8651 0d6d 00000000 		.4byte	.LVL220
 8652 0d71 10000000 		.4byte	.LVL223
 8653 0d75 0100     		.2byte	0x1
 8654 0d77 52       		.byte	0x52
 8655 0d78 10000000 		.4byte	.LVL223
 8656 0d7c 8C000000 		.4byte	.LFE47
 8657 0d80 0400     		.2byte	0x4
 8658 0d82 F3       		.byte	0xf3
 8659 0d83 01       		.uleb128 0x1
 8660 0d84 52       		.byte	0x52
 8661 0d85 9F       		.byte	0x9f
 8662 0d86 00000000 		.4byte	0
 8663 0d8a 00000000 		.4byte	0
 8664              	.LLST80:
 8665 0d8e 00000000 		.4byte	.LVL220
 8666 0d92 08000000 		.4byte	.LVL221
 8667 0d96 0100     		.2byte	0x1
 8668 0d98 53       		.byte	0x53
 8669 0d99 08000000 		.4byte	.LVL221
 8670 0d9d 8C000000 		.4byte	.LFE47
 8671 0da1 0400     		.2byte	0x4
 8672 0da3 F3       		.byte	0xf3
 8673 0da4 01       		.uleb128 0x1
 8674 0da5 53       		.byte	0x53
 8675 0da6 9F       		.byte	0x9f
 8676 0da7 00000000 		.4byte	0
 8677 0dab 00000000 		.4byte	0
 8678              	.LLST81:
 8679 0daf 00000000 		.4byte	.LVL220
 8680 0db3 08000000 		.4byte	.LVL221
 8681 0db7 0200     		.2byte	0x2
 8682 0db9 91       		.byte	0x91
 8683 0dba 00       		.sleb128 0
 8684 0dbb 08000000 		.4byte	.LVL221
 8685 0dbf 0C000000 		.4byte	.LVL222
 8686 0dc3 0200     		.2byte	0x2
 8687 0dc5 73       		.byte	0x73
 8688 0dc6 00       		.sleb128 0
 8689 0dc7 0C000000 		.4byte	.LVL222
 8690 0dcb 8C000000 		.4byte	.LFE47
 8691 0dcf 0200     		.2byte	0x2
 8692 0dd1 91       		.byte	0x91
 8693 0dd2 00       		.sleb128 0
 8694 0dd3 00000000 		.4byte	0
 8695 0dd7 00000000 		.4byte	0
 8696              	.LLST82:
 8697 0ddb 00000000 		.4byte	.LVL220
 8698 0ddf 08000000 		.4byte	.LVL221
 8699 0de3 0200     		.2byte	0x2
 8700 0de5 91       		.byte	0x91
 8701 0de6 04       		.sleb128 4
 8702 0de7 08000000 		.4byte	.LVL221
 8703 0deb 0C000000 		.4byte	.LVL222
 8704 0def 0200     		.2byte	0x2
 8705 0df1 73       		.byte	0x73
 8706 0df2 04       		.sleb128 4
ARM GAS  C:\Users\leoja\AppData\Local\Temp\cciPvcJP.s 			page 172


 8707 0df3 0C000000 		.4byte	.LVL222
 8708 0df7 12000000 		.4byte	.LVL224
 8709 0dfb 0200     		.2byte	0x2
 8710 0dfd 73       		.byte	0x73
 8711 0dfe 00       		.sleb128 0
 8712 0dff 12000000 		.4byte	.LVL224
 8713 0e03 8C000000 		.4byte	.LFE47
 8714 0e07 0200     		.2byte	0x2
 8715 0e09 91       		.byte	0x91
 8716 0e0a 04       		.sleb128 4
 8717 0e0b 00000000 		.4byte	0
 8718 0e0f 00000000 		.4byte	0
 8719              	.LLST83:
 8720 0e13 2C000000 		.4byte	.LVL229
 8721 0e17 2E000000 		.4byte	.LVL230
 8722 0e1b 0100     		.2byte	0x1
 8723 0e1d 53       		.byte	0x53
 8724 0e1e 2E000000 		.4byte	.LVL230
 8725 0e22 8C000000 		.4byte	.LFE47
 8726 0e26 0200     		.2byte	0x2
 8727 0e28 91       		.byte	0x91
 8728 0e29 4C       		.sleb128 -52
 8729 0e2a 00000000 		.4byte	0
 8730 0e2e 00000000 		.4byte	0
 8731              	.LLST84:
 8732 0e32 36000000 		.4byte	.LVL231
 8733 0e36 3F000000 		.4byte	.LVL232-1
 8734 0e3a 0100     		.2byte	0x1
 8735 0e3c 53       		.byte	0x53
 8736 0e3d 3F000000 		.4byte	.LVL232-1
 8737 0e41 8C000000 		.4byte	.LFE47
 8738 0e45 0200     		.2byte	0x2
 8739 0e47 91       		.byte	0x91
 8740 0e48 50       		.sleb128 -48
 8741 0e49 00000000 		.4byte	0
 8742 0e4d 00000000 		.4byte	0
 8743              	.LLST85:
 8744 0e51 10000000 		.4byte	.LVL223
 8745 0e55 1A000000 		.4byte	.LVL226
 8746 0e59 0700     		.2byte	0x7
 8747 0e5b 72       		.byte	0x72
 8748 0e5c 00       		.sleb128 0
 8749 0e5d 44       		.byte	0x44
 8750 0e5e 1E       		.byte	0x1e
 8751 0e5f 23       		.byte	0x23
 8752 0e60 0C       		.uleb128 0xc
 8753 0e61 9F       		.byte	0x9f
 8754 0e62 1A000000 		.4byte	.LVL226
 8755 0e66 1C000000 		.4byte	.LVL227
 8756 0e6a 0100     		.2byte	0x1
 8757 0e6c 53       		.byte	0x53
 8758 0e6d 1C000000 		.4byte	.LVL227
 8759 0e71 3F000000 		.4byte	.LVL232-1
 8760 0e75 0700     		.2byte	0x7
 8761 0e77 72       		.byte	0x72
 8762 0e78 00       		.sleb128 0
 8763 0e79 44       		.byte	0x44
ARM GAS  C:\Users\leoja\AppData\Local\Temp\cciPvcJP.s 			page 173


 8764 0e7a 1E       		.byte	0x1e
 8765 0e7b 23       		.byte	0x23
 8766 0e7c 0C       		.uleb128 0xc
 8767 0e7d 9F       		.byte	0x9f
 8768 0e7e 3F000000 		.4byte	.LVL232-1
 8769 0e82 8C000000 		.4byte	.LFE47
 8770 0e86 0C00     		.2byte	0xc
 8771 0e88 91       		.byte	0x91
 8772 0e89 04       		.sleb128 4
 8773 0e8a 94       		.byte	0x94
 8774 0e8b 01       		.byte	0x1
 8775 0e8c 08       		.byte	0x8
 8776 0e8d FF       		.byte	0xff
 8777 0e8e 1A       		.byte	0x1a
 8778 0e8f 44       		.byte	0x44
 8779 0e90 1E       		.byte	0x1e
 8780 0e91 23       		.byte	0x23
 8781 0e92 0C       		.uleb128 0xc
 8782 0e93 9F       		.byte	0x9f
 8783 0e94 00000000 		.4byte	0
 8784 0e98 00000000 		.4byte	0
 8785              		.section	.debug_aranges,"",%progbits
 8786 0000 74000000 		.4byte	0x74
 8787 0004 0200     		.2byte	0x2
 8788 0006 00000000 		.4byte	.Ldebug_info0
 8789 000a 04       		.byte	0x4
 8790 000b 00       		.byte	0
 8791 000c 0000     		.2byte	0
 8792 000e 0000     		.2byte	0
 8793 0010 00000000 		.4byte	.LFB35
 8794 0014 70000000 		.4byte	.LFE35-.LFB35
 8795 0018 00000000 		.4byte	.LFB36
 8796 001c 7C000000 		.4byte	.LFE36-.LFB36
 8797 0020 00000000 		.4byte	.LFB37
 8798 0024 48000000 		.4byte	.LFE37-.LFB37
 8799 0028 00000000 		.4byte	.LFB38
 8800 002c 5C010000 		.4byte	.LFE38-.LFB38
 8801 0030 00000000 		.4byte	.LFB39
 8802 0034 0C010000 		.4byte	.LFE39-.LFB39
 8803 0038 00000000 		.4byte	.LFB40
 8804 003c 60030000 		.4byte	.LFE40-.LFB40
 8805 0040 00000000 		.4byte	.LFB41
 8806 0044 24010000 		.4byte	.LFE41-.LFB41
 8807 0048 00000000 		.4byte	.LFB44
 8808 004c C0000000 		.4byte	.LFE44-.LFB44
 8809 0050 00000000 		.4byte	.LFB43
 8810 0054 14000000 		.4byte	.LFE43-.LFB43
 8811 0058 00000000 		.4byte	.LFB45
 8812 005c C4000000 		.4byte	.LFE45-.LFB45
 8813 0060 00000000 		.4byte	.LFB46
 8814 0064 24020000 		.4byte	.LFE46-.LFB46
 8815 0068 00000000 		.4byte	.LFB47
 8816 006c 8C000000 		.4byte	.LFE47-.LFB47
 8817 0070 00000000 		.4byte	0
 8818 0074 00000000 		.4byte	0
 8819              		.section	.debug_ranges,"",%progbits
 8820              	.Ldebug_ranges0:
ARM GAS  C:\Users\leoja\AppData\Local\Temp\cciPvcJP.s 			page 174


 8821 0000 64000000 		.4byte	.LBB4
 8822 0004 66000000 		.4byte	.LBE4
 8823 0008 6A000000 		.4byte	.LBB5
 8824 000c 84000000 		.4byte	.LBE5
 8825 0010 00000000 		.4byte	0
 8826 0014 00000000 		.4byte	0
 8827 0018 00000000 		.4byte	.LFB35
 8828 001c 70000000 		.4byte	.LFE35
 8829 0020 00000000 		.4byte	.LFB36
 8830 0024 7C000000 		.4byte	.LFE36
 8831 0028 00000000 		.4byte	.LFB37
 8832 002c 48000000 		.4byte	.LFE37
 8833 0030 00000000 		.4byte	.LFB38
 8834 0034 5C010000 		.4byte	.LFE38
 8835 0038 00000000 		.4byte	.LFB39
 8836 003c 0C010000 		.4byte	.LFE39
 8837 0040 00000000 		.4byte	.LFB40
 8838 0044 60030000 		.4byte	.LFE40
 8839 0048 00000000 		.4byte	.LFB41
 8840 004c 24010000 		.4byte	.LFE41
 8841 0050 00000000 		.4byte	.LFB44
 8842 0054 C0000000 		.4byte	.LFE44
 8843 0058 00000000 		.4byte	.LFB43
 8844 005c 14000000 		.4byte	.LFE43
 8845 0060 00000000 		.4byte	.LFB45
 8846 0064 C4000000 		.4byte	.LFE45
 8847 0068 00000000 		.4byte	.LFB46
 8848 006c 24020000 		.4byte	.LFE46
 8849 0070 00000000 		.4byte	.LFB47
 8850 0074 8C000000 		.4byte	.LFE47
 8851 0078 00000000 		.4byte	0
 8852 007c 00000000 		.4byte	0
 8853              		.section	.debug_line,"",%progbits
 8854              	.Ldebug_line0:
 8855 0000 5C040000 		.section	.debug_str,"MS",%progbits,1
 8855      02000F02 
 8855      00000201 
 8855      FB0E0D00 
 8855      01010101 
 8856              	.LASF141:
 8857 0000 43794465 		.ascii	"CyDelay\000"
 8857      6C617900 
 8858              	.LASF118:
 8859 0008 64617461 		.ascii	"data_s\000"
 8859      5F7300
 8860              	.LASF51:
 8861 000f 464F4E54 		.ascii	"FONT_TYPE_8BPP\000"
 8861      5F545950 
 8861      455F3842 
 8861      505000
 8862              	.LASF39:
 8863 001e 494D445F 		.ascii	"IMD_OK\000"
 8863      4F4B00
 8864              	.LASF107:
 8865 0025 6465736B 		.ascii	"desktop_color\000"
 8865      746F705F 
 8865      636F6C6F 
ARM GAS  C:\Users\leoja\AppData\Local\Temp\cciPvcJP.s 			page 175


 8865      7200
 8866              	.LASF62:
 8867 0033 746F7563 		.ascii	"touch_state\000"
 8867      685F7374 
 8867      61746500 
 8868              	.LASF76:
 8869 003f 55475F43 		.ascii	"UG_COLOR\000"
 8869      4F4C4F52 
 8869      00
 8870              	.LASF47:
 8871 0048 55475F55 		.ascii	"UG_U16\000"
 8871      313600
 8872              	.LASF13:
 8873 004f 756E7369 		.ascii	"unsigned int\000"
 8873      676E6564 
 8873      20696E74 
 8873      00
 8874              	.LASF106:
 8875 005c 63686172 		.ascii	"char_v_space\000"
 8875      5F765F73 
 8875      70616365 
 8875      00
 8876              	.LASF29:
 8877 0069 4E4F4E45 		.ascii	"NONE\000"
 8877      00
 8878              	.LASF94:
 8879 006e 795F656E 		.ascii	"y_end\000"
 8879      6400
 8880              	.LASF104:
 8881 0074 636F6E73 		.ascii	"console\000"
 8881      6F6C6500 
 8882              	.LASF71:
 8883 007c 535F5749 		.ascii	"S_WINDOW\000"
 8883      4E444F57 
 8883      00
 8884              	.LASF41:
 8885 0085 53687574 		.ascii	"Shutdown_Final\000"
 8885      646F776E 
 8885      5F46696E 
 8885      616C00
 8886              	.LASF34:
 8887 0094 53454E53 		.ascii	"SENSOR_DISCREPANCY\000"
 8887      4F525F44 
 8887      49534352 
 8887      4550414E 
 8887      435900
 8888              	.LASF63:
 8889 00a7 75706461 		.ascii	"update\000"
 8889      746500
 8890              	.LASF99:
 8891 00ae 795F6469 		.ascii	"y_dim\000"
 8891      6D00
 8892              	.LASF37:
 8893 00b4 554E4341 		.ascii	"UNCALIBRATED\000"
 8893      4C494252 
 8893      41544544 
 8893      00
ARM GAS  C:\Users\leoja\AppData\Local\Temp\cciPvcJP.s 			page 176


 8894              	.LASF35:
 8895 00c1 4252414B 		.ascii	"BRAKE_IMPLAUSIBLE\000"
 8895      455F494D 
 8895      504C4155 
 8895      5349424C 
 8895      4500
 8896              	.LASF140:
 8897 00d3 55475F46 		.ascii	"UG_FillFrame\000"
 8897      696C6C46 
 8897      72616D65 
 8897      00
 8898              	.LASF148:
 8899 00e0 433A5C55 		.ascii	"C:\\Users\\leoja\\Documents\\GitHub\\Dashboard-Firm"
 8899      73657273 
 8899      5C6C656F 
 8899      6A615C44 
 8899      6F63756D 
 8900 010e 77617265 		.ascii	"ware-FE10\\Dashboard-Firmware-FE9\\Dashboard.cydsn\000"
 8900      2D464531 
 8900      305C4461 
 8900      7368626F 
 8900      6172642D 
 8901              	.LASF73:
 8902 013f 6F626A6C 		.ascii	"objlst\000"
 8902      737400
 8903              	.LASF101:
 8904 0146 6E657874 		.ascii	"next_window\000"
 8904      5F77696E 
 8904      646F7700 
 8905              	.LASF75:
 8906 0152 7469746C 		.ascii	"title\000"
 8906      6500
 8907              	.LASF18:
 8908 0158 75696E74 		.ascii	"uint32_t\000"
 8908      33325F74 
 8908      00
 8909              	.LASF14:
 8910 0161 696E7438 		.ascii	"int8_t\000"
 8910      5F7400
 8911              	.LASF49:
 8912 0168 55475F55 		.ascii	"UG_U32\000"
 8912      333200
 8913              	.LASF93:
 8914 016f 785F656E 		.ascii	"x_end\000"
 8914      6400
 8915              	.LASF20:
 8916 0175 666C6F61 		.ascii	"float\000"
 8916      7400
 8917              	.LASF67:
 8918 017b 6576656E 		.ascii	"event\000"
 8918      7400
 8919              	.LASF103:
 8920 0181 6C617374 		.ascii	"last_window\000"
 8920      5F77696E 
 8920      646F7700 
 8921              	.LASF96:
 8922 018d 6261636B 		.ascii	"back_color\000"
ARM GAS  C:\Users\leoja\AppData\Local\Temp\cciPvcJP.s 			page 177


 8922      5F636F6C 
 8922      6F7200
 8923              	.LASF27:
 8924 0198 44524956 		.ascii	"DRIVE\000"
 8924      4500
 8925              	.LASF16:
 8926 019e 696E7431 		.ascii	"int16_t\000"
 8926      365F7400 
 8927              	.LASF129:
 8928 01a6 464F4E54 		.ascii	"FONT_12X16\000"
 8928      5F313258 
 8928      313600
 8929              	.LASF12:
 8930 01b1 6C6F6E67 		.ascii	"long long unsigned int\000"
 8930      206C6F6E 
 8930      6720756E 
 8930      7369676E 
 8930      65642069 
 8931              	.LASF109:
 8932 01c8 63616C69 		.ascii	"calibrateScreen\000"
 8932      62726174 
 8932      65536372 
 8932      65656E00 
 8933              	.LASF6:
 8934 01d8 5F5F7569 		.ascii	"__uint16_t\000"
 8934      6E743136 
 8934      5F7400
 8935              	.LASF102:
 8936 01e3 61637469 		.ascii	"active_window\000"
 8936      76655F77 
 8936      696E646F 
 8936      7700
 8937              	.LASF72:
 8938 01f1 6F626A63 		.ascii	"objcnt\000"
 8938      6E7400
 8939              	.LASF48:
 8940 01f8 55475F53 		.ascii	"UG_S16\000"
 8940      313600
 8941              	.LASF95:
 8942 01ff 666F7265 		.ascii	"fore_color\000"
 8942      5F636F6C 
 8942      6F7200
 8943              	.LASF90:
 8944 020a 795F706F 		.ascii	"y_pos\000"
 8944      7300
 8945              	.LASF117:
 8946 0210 636F6C6F 		.ascii	"color\000"
 8946      7200
 8947              	.LASF138:
 8948 0216 6C617374 		.ascii	"last_shutdown_color\000"
 8948      5F736875 
 8948      74646F77 
 8948      6E5F636F 
 8948      6C6F7200 
 8949              	.LASF144:
 8950 022a 55475F50 		.ascii	"UG_PutColorString\000"
 8950      7574436F 
ARM GAS  C:\Users\leoja\AppData\Local\Temp\cciPvcJP.s 			page 178


 8950      6C6F7253 
 8950      7472696E 
 8950      6700
 8951              	.LASF32:
 8952 023c 4252414B 		.ascii	"BRAKE_NOT_PRESSED\000"
 8952      455F4E4F 
 8952      545F5052 
 8952      45535345 
 8952      4400
 8953              	.LASF139:
 8954 024e 55475F46 		.ascii	"UG_FillScreen\000"
 8954      696C6C53 
 8954      63726565 
 8954      6E00
 8955              	.LASF132:
 8956 025c 6C617374 		.ascii	"last_SOC_color\000"
 8956      5F534F43 
 8956      5F636F6C 
 8956      6F7200
 8957              	.LASF126:
 8958 026b 64697370 		.ascii	"disp_shutdown_circuit\000"
 8958      5F736875 
 8958      74646F77 
 8958      6E5F6369 
 8958      72637569 
 8959              	.LASF54:
 8960 0281 63686172 		.ascii	"char_width\000"
 8960      5F776964 
 8960      746800
 8961              	.LASF33:
 8962 028c 48565F44 		.ascii	"HV_DISABLED_WHILE_DRIVING\000"
 8962      49534142 
 8962      4C45445F 
 8962      5748494C 
 8962      455F4452 
 8963              	.LASF123:
 8964 02a6 64697370 		.ascii	"disp_glv_v\000"
 8964      5F676C76 
 8964      5F7600
 8965              	.LASF127:
 8966 02b1 73687574 		.ascii	"shutdown_flags\000"
 8966      646F776E 
 8966      5F666C61 
 8966      677300
 8967              	.LASF38:
 8968 02c0 48415244 		.ascii	"HARD_BSPD\000"
 8968      5F425350 
 8968      4400
 8969              	.LASF121:
 8970 02ca 64697370 		.ascii	"disp_state\000"
 8970      5F737461 
 8970      746500
 8971              	.LASF137:
 8972 02d5 6C617374 		.ascii	"last_motor_temp_color\000"
 8972      5F6D6F74 
 8972      6F725F74 
 8972      656D705F 
ARM GAS  C:\Users\leoja\AppData\Local\Temp\cciPvcJP.s 			page 179


 8972      636F6C6F 
 8973              	.LASF36:
 8974 02eb 53485554 		.ascii	"SHUTDOWN_CIRCUIT_OPEN\000"
 8974      444F574E 
 8974      5F434952 
 8974      43554954 
 8974      5F4F5045 
 8975              	.LASF26:
 8976 0301 48565F45 		.ascii	"HV_ENABLED\000"
 8976      4E41424C 
 8976      454400
 8977              	.LASF92:
 8978 030c 795F7374 		.ascii	"y_start\000"
 8978      61727400 
 8979              	.LASF83:
 8980 0314 765F7370 		.ascii	"v_space\000"
 8980      61636500 
 8981              	.LASF22:
 8982 031c 63686172 		.ascii	"char\000"
 8982      00
 8983              	.LASF31:
 8984 0321 434F4E53 		.ascii	"CONSERVATIVE_TIMER_MAXED\000"
 8984      45525641 
 8984      54495645 
 8984      5F54494D 
 8984      45525F4D 
 8985              	.LASF115:
 8986 033a 79466F6E 		.ascii	"yFont\000"
 8986      7400
 8987              	.LASF53:
 8988 0340 666F6E74 		.ascii	"font_type\000"
 8988      5F747970 
 8988      6500
 8989              	.LASF52:
 8990 034a 464F4E54 		.ascii	"FONT_TYPE\000"
 8990      5F545950 
 8990      4500
 8991              	.LASF77:
 8992 0354 55475F41 		.ascii	"UG_AREA\000"
 8992      52454100 
 8993              	.LASF79:
 8994 035c 55475F4D 		.ascii	"UG_MESSAGE\000"
 8994      45535341 
 8994      474500
 8995              	.LASF68:
 8996 0367 64617461 		.ascii	"data\000"
 8996      00
 8997              	.LASF42:
 8998 036c 41495231 		.ascii	"AIR1\000"
 8998      00
 8999              	.LASF43:
 9000 0371 41495232 		.ascii	"AIR2\000"
 9000      00
 9001              	.LASF15:
 9002 0376 75696E74 		.ascii	"uint8_t\000"
 9002      385F7400 
 9003              	.LASF100:
ARM GAS  C:\Users\leoja\AppData\Local\Temp\cciPvcJP.s 			page 180


 9004 037e 746F7563 		.ascii	"touch\000"
 9004      6800
 9005              	.LASF87:
 9006 0384 64726976 		.ascii	"driver\000"
 9006      657200
 9007              	.LASF44:
 9008 038b 50726563 		.ascii	"Precharge\000"
 9008      68617267 
 9008      6500
 9009              	.LASF46:
 9010 0395 55475F53 		.ascii	"UG_S8\000"
 9010      3800
 9011              	.LASF98:
 9012 039b 785F6469 		.ascii	"x_dim\000"
 9012      6D00
 9013              	.LASF11:
 9014 03a1 6C6F6E67 		.ascii	"long long int\000"
 9014      206C6F6E 
 9014      6720696E 
 9014      7400
 9015              	.LASF133:
 9016 03af 6C617374 		.ascii	"last_max_pack_temp_color\000"
 9016      5F6D6178 
 9016      5F706163 
 9016      6B5F7465 
 9016      6D705F63 
 9017              	.LASF4:
 9018 03c8 5F5F696E 		.ascii	"__int16_t\000"
 9018      7431365F 
 9018      7400
 9019              	.LASF60:
 9020 03d2 55475F4F 		.ascii	"UG_OBJECT\000"
 9020      424A4543 
 9020      5400
 9021              	.LASF97:
 9022 03dc 70736574 		.ascii	"pset\000"
 9022      00
 9023              	.LASF78:
 9024 03e1 7375625F 		.ascii	"sub_id\000"
 9024      696400
 9025              	.LASF112:
 9026 03e8 73697A65 		.ascii	"size\000"
 9026      00
 9027              	.LASF125:
 9028 03ed 64697370 		.ascii	"disp_gen_voltage\000"
 9028      5F67656E 
 9028      5F766F6C 
 9028      74616765 
 9028      00
 9029              	.LASF85:
 9030 03fe 68656967 		.ascii	"height\000"
 9030      687400
 9031              	.LASF56:
 9032 0405 73746172 		.ascii	"start_char\000"
 9032      745F6368 
 9032      617200
 9033              	.LASF25:
ARM GAS  C:\Users\leoja\AppData\Local\Temp\cciPvcJP.s 			page 181


 9034 0410 50524543 		.ascii	"PRECHARGING\000"
 9034      48415247 
 9034      494E4700 
 9035              	.LASF45:
 9036 041c 55475F55 		.ascii	"UG_U8\000"
 9036      3800
 9037              	.LASF0:
 9038 0422 5F5F696E 		.ascii	"__int8_t\000"
 9038      74385F74 
 9038      00
 9039              	.LASF58:
 9040 042b 77696474 		.ascii	"widths\000"
 9040      687300
 9041              	.LASF142:
 9042 0432 55475F50 		.ascii	"UG_PutString\000"
 9042      75745374 
 9042      72696E67 
 9042      00
 9043              	.LASF23:
 9044 043f 6C6F6E67 		.ascii	"long double\000"
 9044      20646F75 
 9044      626C6500 
 9045              	.LASF143:
 9046 044b 73707269 		.ascii	"sprintf\000"
 9046      6E746600 
 9047              	.LASF17:
 9048 0453 75696E74 		.ascii	"uint16_t\000"
 9048      31365F74 
 9048      00
 9049              	.LASF131:
 9050 045c 67756931 		.ascii	"gui1963\000"
 9050      39363300 
 9051              	.LASF86:
 9052 0464 55475F54 		.ascii	"UG_TITLE\000"
 9052      49544C45 
 9052      00
 9053              	.LASF88:
 9054 046d 55475F44 		.ascii	"UG_DRIVER\000"
 9054      52495645 
 9054      5200
 9055              	.LASF89:
 9056 0477 785F706F 		.ascii	"x_pos\000"
 9056      7300
 9057              	.LASF55:
 9058 047d 63686172 		.ascii	"char_height\000"
 9058      5F686569 
 9058      67687400 
 9059              	.LASF5:
 9060 0489 73686F72 		.ascii	"short int\000"
 9060      7420696E 
 9060      7400
 9061              	.LASF134:
 9062 0493 6C617374 		.ascii	"last_state_color\000"
 9062      5F737461 
 9062      74655F63 
 9062      6F6C6F72 
 9062      00
ARM GAS  C:\Users\leoja\AppData\Local\Temp\cciPvcJP.s 			page 182


 9063              	.LASF8:
 9064 04a4 6C6F6E67 		.ascii	"long int\000"
 9064      20696E74 
 9064      00
 9065              	.LASF69:
 9066 04ad 55475F57 		.ascii	"UG_WINDOW\000"
 9066      494E444F 
 9066      5700
 9067              	.LASF149:
 9068 04b7 64697370 		.ascii	"disp_motor_temp\000"
 9068      5F6D6F74 
 9068      6F725F74 
 9068      656D7000 
 9069              	.LASF57:
 9070 04c7 656E645F 		.ascii	"end_char\000"
 9070      63686172 
 9070      00
 9071              	.LASF59:
 9072 04d0 55475F46 		.ascii	"UG_FONT\000"
 9072      4F4E5400 
 9073              	.LASF1:
 9074 04d8 5F5F7569 		.ascii	"__uint8_t\000"
 9074      6E74385F 
 9074      7400
 9075              	.LASF114:
 9076 04e2 78466F6E 		.ascii	"xFont\000"
 9076      7400
 9077              	.LASF81:
 9078 04e8 666F6E74 		.ascii	"font\000"
 9078      00
 9079              	.LASF24:
 9080 04ed 73697A65 		.ascii	"sizetype\000"
 9080      74797065 
 9080      00
 9081              	.LASF10:
 9082 04f6 6C6F6E67 		.ascii	"long unsigned int\000"
 9082      20756E73 
 9082      69676E65 
 9082      6420696E 
 9082      7400
 9083              	.LASF110:
 9084 0508 64656275 		.ascii	"debugTemplate\000"
 9084      6754656D 
 9084      706C6174 
 9084      6500
 9085              	.LASF130:
 9086 0516 464F4E54 		.ascii	"FONT_32X53\000"
 9086      5F333258 
 9086      353300
 9087              	.LASF40:
 9088 0521 424D535F 		.ascii	"BMS_OK\000"
 9088      4F4B00
 9089              	.LASF120:
 9090 0528 64697370 		.ascii	"disp_max_pack_temp\000"
 9090      5F6D6178 
 9090      5F706163 
 9090      6B5F7465 
ARM GAS  C:\Users\leoja\AppData\Local\Temp\cciPvcJP.s 			page 183


 9090      6D7000
 9091              	.LASF116:
 9092 053b 686F7269 		.ascii	"horizFontSize\000"
 9092      7A466F6E 
 9092      7453697A 
 9092      6500
 9093              	.LASF135:
 9094 0549 6C617374 		.ascii	"last_glv_v_color\000"
 9094      5F676C76 
 9094      5F765F63 
 9094      6F6C6F72 
 9094      00
 9095              	.LASF66:
 9096 055a 74797065 		.ascii	"type\000"
 9096      00
 9097              	.LASF3:
 9098 055f 756E7369 		.ascii	"unsigned char\000"
 9098      676E6564 
 9098      20636861 
 9098      7200
 9099              	.LASF9:
 9100 056d 5F5F7569 		.ascii	"__uint32_t\000"
 9100      6E743332 
 9100      5F7400
 9101              	.LASF82:
 9102 0578 685F7370 		.ascii	"h_space\000"
 9102      61636500 
 9103              	.LASF111:
 9104 0580 64726976 		.ascii	"driveTemplate\000"
 9104      6554656D 
 9104      706C6174 
 9104      6500
 9105              	.LASF91:
 9106 058e 785F7374 		.ascii	"x_start\000"
 9106      61727400 
 9107              	.LASF28:
 9108 0596 4641554C 		.ascii	"FAULT\000"
 9108      5400
 9109              	.LASF146:
 9110 059c 474E5520 		.ascii	"GNU C11 5.4.1 20160609 (release) [ARM/embedded-5-br"
 9110      43313120 
 9110      352E342E 
 9110      31203230 
 9110      31363036 
 9111 05cf 616E6368 		.ascii	"anch revision 237715] -mcpu=cortex-m0 -mthumb -g -O"
 9111      20726576 
 9111      6973696F 
 9111      6E203233 
 9111      37373135 
 9112 0602 73202D66 		.ascii	"s -ffunction-sections -ffat-lto-objects\000"
 9112      66756E63 
 9112      74696F6E 
 9112      2D736563 
 9112      74696F6E 
 9113              	.LASF136:
 9114 062a 6C617374 		.ascii	"last_mc_temp_color\000"
 9114      5F6D635F 
ARM GAS  C:\Users\leoja\AppData\Local\Temp\cciPvcJP.s 			page 184


 9114      74656D70 
 9114      5F636F6C 
 9114      6F7200
 9115              	.LASF74:
 9116 063d 7374796C 		.ascii	"style\000"
 9116      6500
 9117              	.LASF61:
 9118 0643 73746174 		.ascii	"state\000"
 9118      6500
 9119              	.LASF128:
 9120 0649 64697370 		.ascii	"disp_debug\000"
 9120      5F646562 
 9120      756700
 9121              	.LASF119:
 9122 0654 64697370 		.ascii	"disp_SOC\000"
 9122      5F534F43 
 9122      00
 9123              	.LASF113:
 9124 065d 73747269 		.ascii	"stringSize\000"
 9124      6E675369 
 9124      7A6500
 9125              	.LASF108:
 9126 0668 55475F47 		.ascii	"UG_GUI\000"
 9126      554900
 9127              	.LASF65:
 9128 066f 615F7265 		.ascii	"a_rel\000"
 9128      6C00
 9129              	.LASF80:
 9130 0675 55475F54 		.ascii	"UG_TOUCH\000"
 9130      4F554348 
 9130      00
 9131              	.LASF2:
 9132 067e 7369676E 		.ascii	"signed char\000"
 9132      65642063 
 9132      68617200 
 9133              	.LASF7:
 9134 068a 73686F72 		.ascii	"short unsigned int\000"
 9134      7420756E 
 9134      7369676E 
 9134      65642069 
 9134      6E7400
 9135              	.LASF147:
 9136 069d 66727563 		.ascii	"frucd_display.c\000"
 9136      645F6469 
 9136      73706C61 
 9136      792E6300 
 9137              	.LASF19:
 9138 06ad 75696E74 		.ascii	"uint8\000"
 9138      3800
 9139              	.LASF21:
 9140 06b3 646F7562 		.ascii	"double\000"
 9140      6C6500
 9141              	.LASF145:
 9142 06ba 55475F46 		.ascii	"UG_FontSelect\000"
 9142      6F6E7453 
 9142      656C6563 
 9142      7400
ARM GAS  C:\Users\leoja\AppData\Local\Temp\cciPvcJP.s 			page 185


 9143              	.LASF30:
 9144 06c8 44524956 		.ascii	"DRIVE_REQUEST_FROM_LV\000"
 9144      455F5245 
 9144      51554553 
 9144      545F4652 
 9144      4F4D5F4C 
 9145              	.LASF70:
 9146 06de 535F4F42 		.ascii	"S_OBJECT\000"
 9146      4A454354 
 9146      00
 9147              	.LASF84:
 9148 06e7 616C6967 		.ascii	"align\000"
 9148      6E00
 9149              	.LASF64:
 9150 06ed 615F6162 		.ascii	"a_abs\000"
 9150      7300
 9151              	.LASF122:
 9152 06f3 6661756C 		.ascii	"fault\000"
 9152      7400
 9153              	.LASF50:
 9154 06f9 464F4E54 		.ascii	"FONT_TYPE_1BPP\000"
 9154      5F545950 
 9154      455F3142 
 9154      505000
 9155              	.LASF124:
 9156 0708 64697370 		.ascii	"disp_gen_temp\000"
 9156      5F67656E 
 9156      5F74656D 
 9156      7000
 9157              	.LASF105:
 9158 0716 63686172 		.ascii	"char_h_space\000"
 9158      5F685F73 
 9158      70616365 
 9158      00
 9159              		.ident	"GCC: (GNU Tools for ARM Embedded Processors) 5.4.1 20160609 (release) [ARM/embedded-5-bran
