ARM GAS  C:\Users\leoja\AppData\Local\Temp\ccM6wJLr.s 			page 1


   1              		.syntax unified
   2              		.cpu cortex-m0
   3              		.fpu softvfp
   4              		.eabi_attribute 20, 1
   5              		.eabi_attribute 21, 1
   6              		.eabi_attribute 23, 3
   7              		.eabi_attribute 24, 1
   8              		.eabi_attribute 25, 1
   9              		.eabi_attribute 26, 1
  10              		.eabi_attribute 30, 4
  11              		.eabi_attribute 34, 0
  12              		.eabi_attribute 18, 4
  13              		.thumb
  14              		.syntax unified
  15              		.file	"frucd_display.c"
  16              		.text
  17              	.Ltext0:
  18              		.cfi_sections	.debug_frame
  19              		.section	.text.calibrateScreen,"ax",%progbits
  20              		.align	1
  21              		.global	calibrateScreen
  22              		.code	16
  23              		.thumb_func
  24              		.type	calibrateScreen, %function
  25              	calibrateScreen:
  26              	.LFB35:
  27              		.file 1 "frucd_display.c"
   1:frucd_display.c **** /* ========================================
   2:frucd_display.c ****  *
   3:frucd_display.c ****  * APIs for updating FRUCD Dashboard display
   4:frucd_display.c ****  *
   5:frucd_display.c ****  * ========================================
   6:frucd_display.c **** */
   7:frucd_display.c **** #include "frucd_display.h"
   8:frucd_display.c **** 
   9:frucd_display.c **** // Just a test function that displays elements at the supposed corners of the screen
  10:frucd_display.c **** void calibrateScreen() {
  28              		.loc 1 10 0
  29              		.cfi_startproc
  30              		@ args = 0, pretend = 0, frame = 0
  31              		@ frame_needed = 0, uses_anonymous_args = 0
  32 0000 F7B5     		push	{r0, r1, r2, r4, r5, r6, r7, lr}
  33              		.cfi_def_cfa_offset 32
  34              		.cfi_offset 0, -32
  35              		.cfi_offset 1, -28
  36              		.cfi_offset 2, -24
  37              		.cfi_offset 4, -20
  38              		.cfi_offset 5, -16
  39              		.cfi_offset 6, -12
  40              		.cfi_offset 7, -8
  41              		.cfi_offset 14, -4
  11:frucd_display.c ****     UG_FillScreen(C_WHITE);
  42              		.loc 1 11 0
  43 0002 1948     		ldr	r0, .L2
  44 0004 FFF7FEFF 		bl	UG_FillScreen
  45              	.LVL0:
  12:frucd_display.c ****     //libTFT_FillRectangle(0, 0, 10, 10, RED);
ARM GAS  C:\Users\leoja\AppData\Local\Temp\ccM6wJLr.s 			page 2


  13:frucd_display.c ****     UG_FillFrame(0, 0, 10, 10, C_RED);
  46              		.loc 1 13 0
  47 0008 FF23     		movs	r3, #255
  48 000a 1B04     		lsls	r3, r3, #16
  49 000c 0093     		str	r3, [sp]
  50 000e 0021     		movs	r1, #0
  51 0010 0A23     		movs	r3, #10
  52 0012 0800     		movs	r0, r1
  53 0014 1A00     		movs	r2, r3
  14:frucd_display.c ****     //libTFT_FillRectangle(0, 262, 10, 10, BLUE);
  15:frucd_display.c ****     UG_FillFrame(0, 262, 10, 272, C_BLUE);
  54              		.loc 1 15 0
  55 0016 8827     		movs	r7, #136
  56 0018 8325     		movs	r5, #131
  13:frucd_display.c ****     //libTFT_FillRectangle(0, 262, 10, 10, BLUE);
  57              		.loc 1 13 0
  58 001a FFF7FEFF 		bl	UG_FillFrame
  59              	.LVL1:
  60              		.loc 1 15 0
  61 001e FF23     		movs	r3, #255
  62 0020 7F00     		lsls	r7, r7, #1
  63 0022 6D00     		lsls	r5, r5, #1
  64 0024 2900     		movs	r1, r5
  65 0026 0093     		str	r3, [sp]
  66 0028 0A22     		movs	r2, #10
  67 002a 3B00     		movs	r3, r7
  68 002c 0020     		movs	r0, #0
  69 002e FFF7FEFF 		bl	UG_FillFrame
  70              	.LVL2:
  16:frucd_display.c ****     //libTFT_FillRectangle(470, 0, 10, 10, GREEN);
  17:frucd_display.c ****     UG_FillFrame(470, 0, 480, 10, C_GREEN);
  71              		.loc 1 17 0
  72 0032 F026     		movs	r6, #240
  73 0034 EB24     		movs	r4, #235
  74 0036 FF23     		movs	r3, #255
  75 0038 7600     		lsls	r6, r6, #1
  76 003a 6400     		lsls	r4, r4, #1
  77 003c 1B02     		lsls	r3, r3, #8
  78 003e 3200     		movs	r2, r6
  79 0040 0093     		str	r3, [sp]
  80 0042 2000     		movs	r0, r4
  81 0044 0A23     		movs	r3, #10
  82 0046 0021     		movs	r1, #0
  83 0048 FFF7FEFF 		bl	UG_FillFrame
  84              	.LVL3:
  18:frucd_display.c ****     //libTFT_FillRectangle(470, 262, 10, 10, YELLOW);
  19:frucd_display.c ****     UG_FillFrame(470, 262, 480, 272, C_YELLOW);
  85              		.loc 1 19 0
  86 004c 074B     		ldr	r3, .L2+4
  87 004e 3200     		movs	r2, r6
  88 0050 2900     		movs	r1, r5
  89 0052 0093     		str	r3, [sp]
  90 0054 2000     		movs	r0, r4
  91 0056 3B00     		movs	r3, r7
  92 0058 FFF7FEFF 		bl	UG_FillFrame
  93              	.LVL4:
  20:frucd_display.c ****     CyDelay(300);
ARM GAS  C:\Users\leoja\AppData\Local\Temp\ccM6wJLr.s 			page 3


  94              		.loc 1 20 0
  95 005c 9620     		movs	r0, #150
  96 005e 4000     		lsls	r0, r0, #1
  97 0060 FFF7FEFF 		bl	CyDelay
  98              	.LVL5:
  21:frucd_display.c **** }
  99              		.loc 1 21 0
 100              		@ sp needed
 101 0064 F7BD     		pop	{r0, r1, r2, r4, r5, r6, r7, pc}
 102              	.L3:
 103 0066 C046     		.align	2
 104              	.L2:
 105 0068 FFFFFF00 		.word	16777215
 106 006c 00FFFF00 		.word	16776960
 107              		.cfi_endproc
 108              	.LFE35:
 109              		.size	calibrateScreen, .-calibrateScreen
 110              		.section	.text.debugTemplate,"ax",%progbits
 111              		.align	1
 112              		.global	debugTemplate
 113              		.code	16
 114              		.thumb_func
 115              		.type	debugTemplate, %function
 116              	debugTemplate:
 117              	.LFB36:
  22:frucd_display.c **** 
  23:frucd_display.c **** // Initializes dashboard layout/label
  24:frucd_display.c **** /*
  25:frucd_display.c **** void initDashTemplate() {
  26:frucd_display.c ****     UG_FillScreen(C_BLACK);
  27:frucd_display.c ****     UG_PutString(68, 10, "PACK SOC");
  28:frucd_display.c ****     UG_PutString(297, 10, "MAX PACK T");
  29:frucd_display.c ****     UG_PutString(10, 195, "STATE:");
  30:frucd_display.c ****     UG_PutString(10, 240, "GLV V:");
  31:frucd_display.c ****     UG_PutString(339, 195, "MC T:");
  32:frucd_display.c ****     UG_PutString(300, 240, "MOTOR T:");
  33:frucd_display.c **** }
  34:frucd_display.c **** */
  35:frucd_display.c **** 
  36:frucd_display.c **** void debugTemplate(){
 118              		.loc 1 36 0
 119              		.cfi_startproc
 120              		@ args = 0, pretend = 0, frame = 0
 121              		@ frame_needed = 0, uses_anonymous_args = 0
 122 0000 10B5     		push	{r4, lr}
 123              		.cfi_def_cfa_offset 8
 124              		.cfi_offset 4, -8
 125              		.cfi_offset 14, -4
  37:frucd_display.c ****     UG_FillScreen(C_BLACK);
 126              		.loc 1 37 0
 127 0002 0020     		movs	r0, #0
 128 0004 FFF7FEFF 		bl	UG_FillScreen
 129              	.LVL6:
  38:frucd_display.c ****     UG_PutString(10, 10, "PACK SOC:");
 130              		.loc 1 38 0
 131 0008 0A21     		movs	r1, #10
 132 000a 144A     		ldr	r2, .L5
ARM GAS  C:\Users\leoja\AppData\Local\Temp\ccM6wJLr.s 			page 4


 133 000c 0800     		movs	r0, r1
 134 000e FFF7FEFF 		bl	UG_PutString
 135              	.LVL7:
  39:frucd_display.c ****     UG_PutString(250, 10, "MAX PACK T:");
 136              		.loc 1 39 0
 137 0012 134A     		ldr	r2, .L5+4
 138 0014 0A21     		movs	r1, #10
 139 0016 FA20     		movs	r0, #250
 140 0018 FFF7FEFF 		bl	UG_PutString
 141              	.LVL8:
  40:frucd_display.c ****     UG_PutString(10, 75, "STATE:");
 142              		.loc 1 40 0
 143 001c 114A     		ldr	r2, .L5+8
 144 001e 4B21     		movs	r1, #75
 145 0020 0A20     		movs	r0, #10
 146 0022 FFF7FEFF 		bl	UG_PutString
 147              	.LVL9:
  41:frucd_display.c ****     UG_PutString(250, 75, "MC T:");
 148              		.loc 1 41 0
 149 0026 104A     		ldr	r2, .L5+12
 150 0028 4B21     		movs	r1, #75
 151 002a FA20     		movs	r0, #250
 152 002c FFF7FEFF 		bl	UG_PutString
 153              	.LVL10:
  42:frucd_display.c ****     UG_PutString(10, 140, "GLV V:");
 154              		.loc 1 42 0
 155 0030 0E4A     		ldr	r2, .L5+16
 156 0032 8C21     		movs	r1, #140
 157 0034 0A20     		movs	r0, #10
 158 0036 FFF7FEFF 		bl	UG_PutString
 159              	.LVL11:
  43:frucd_display.c ****     UG_PutString(250, 140, "MOTOR T:");
 160              		.loc 1 43 0
 161 003a 0D4A     		ldr	r2, .L5+20
 162 003c 8C21     		movs	r1, #140
 163 003e FA20     		movs	r0, #250
 164 0040 FFF7FEFF 		bl	UG_PutString
 165              	.LVL12:
  44:frucd_display.c ****     UG_PutString(10, 205, "SHUTDOWN:");
 166              		.loc 1 44 0
 167 0044 0B4A     		ldr	r2, .L5+24
 168 0046 CD21     		movs	r1, #205
 169 0048 0A20     		movs	r0, #10
 170 004a FFF7FEFF 		bl	UG_PutString
 171              	.LVL13:
  45:frucd_display.c ****     UG_PutString(250, 205, "MC FAULT:");
 172              		.loc 1 45 0
 173 004e 0A4A     		ldr	r2, .L5+28
 174 0050 CD21     		movs	r1, #205
 175 0052 FA20     		movs	r0, #250
 176 0054 FFF7FEFF 		bl	UG_PutString
 177              	.LVL14:
  46:frucd_display.c **** }
 178              		.loc 1 46 0
 179              		@ sp needed
 180 0058 10BD     		pop	{r4, pc}
 181              	.L6:
ARM GAS  C:\Users\leoja\AppData\Local\Temp\ccM6wJLr.s 			page 5


 182 005a C046     		.align	2
 183              	.L5:
 184 005c 00000000 		.word	.LC0
 185 0060 0A000000 		.word	.LC2
 186 0064 16000000 		.word	.LC4
 187 0068 1D000000 		.word	.LC6
 188 006c 23000000 		.word	.LC8
 189 0070 2A000000 		.word	.LC10
 190 0074 33000000 		.word	.LC12
 191 0078 3D000000 		.word	.LC14
 192              		.cfi_endproc
 193              	.LFE36:
 194              		.size	debugTemplate, .-debugTemplate
 195              		.section	.text.driveTemplate,"ax",%progbits
 196              		.align	1
 197              		.global	driveTemplate
 198              		.code	16
 199              		.thumb_func
 200              		.type	driveTemplate, %function
 201              	driveTemplate:
 202              	.LFB37:
  47:frucd_display.c **** void driveTemplate(){
 203              		.loc 1 47 0
 204              		.cfi_startproc
 205              		@ args = 0, pretend = 0, frame = 0
 206              		@ frame_needed = 0, uses_anonymous_args = 0
 207 0000 10B5     		push	{r4, lr}
 208              		.cfi_def_cfa_offset 8
 209              		.cfi_offset 4, -8
 210              		.cfi_offset 14, -4
  48:frucd_display.c ****     UG_FillScreen(C_BLACK);
 211              		.loc 1 48 0
 212 0002 0020     		movs	r0, #0
 213 0004 FFF7FEFF 		bl	UG_FillScreen
 214              	.LVL15:
  49:frucd_display.c ****     UG_PutString(68, 10, "PACK SOC");
 215              		.loc 1 49 0
 216 0008 0B4A     		ldr	r2, .L8
 217 000a 0A21     		movs	r1, #10
 218 000c 4420     		movs	r0, #68
 219 000e FFF7FEFF 		bl	UG_PutString
 220              	.LVL16:
  50:frucd_display.c ****     UG_PutString(297, 10, "MAX PACK T");
 221              		.loc 1 50 0
 222 0012 2A20     		movs	r0, #42
 223 0014 094A     		ldr	r2, .L8+4
 224 0016 0A21     		movs	r1, #10
 225 0018 FF30     		adds	r0, r0, #255
 226 001a FFF7FEFF 		bl	UG_PutString
 227              	.LVL17:
  51:frucd_display.c ****     UG_PutString(5, 180, "STATE:");
 228              		.loc 1 51 0
 229 001e 084A     		ldr	r2, .L8+8
 230 0020 B421     		movs	r1, #180
 231 0022 0520     		movs	r0, #5
 232 0024 FFF7FEFF 		bl	UG_PutString
 233              	.LVL18:
ARM GAS  C:\Users\leoja\AppData\Local\Temp\ccM6wJLr.s 			page 6


  52:frucd_display.c ****     UG_PutString(275, 180, "GLV V:");
 234              		.loc 1 52 0
 235 0028 1420     		movs	r0, #20
 236 002a 064A     		ldr	r2, .L8+12
 237 002c B421     		movs	r1, #180
 238 002e FF30     		adds	r0, r0, #255
 239 0030 FFF7FEFF 		bl	UG_PutString
 240              	.LVL19:
  53:frucd_display.c ****     
  54:frucd_display.c **** }
 241              		.loc 1 54 0
 242              		@ sp needed
 243 0034 10BD     		pop	{r4, pc}
 244              	.L9:
 245 0036 C046     		.align	2
 246              	.L8:
 247 0038 47000000 		.word	.LC16
 248 003c 50000000 		.word	.LC18
 249 0040 16000000 		.word	.LC4
 250 0044 23000000 		.word	.LC8
 251              		.cfi_endproc
 252              	.LFE37:
 253              		.size	driveTemplate, .-driveTemplate
 254              		.section	.text.disp_SOC,"ax",%progbits
 255              		.align	1
 256              		.global	disp_SOC
 257              		.code	16
 258              		.thumb_func
 259              		.type	disp_SOC, %function
 260              	disp_SOC:
 261              	.LFB38:
  55:frucd_display.c **** /*
  56:frucd_display.c ****  * BEGIN: functions to show data on dash
  57:frucd_display.c ****  * - handle variety of digit counts
  58:frucd_display.c ****  * - color decision logic is in here
  59:frucd_display.c ****  */
  60:frucd_display.c **** 
  61:frucd_display.c **** 
  62:frucd_display.c **** 
  63:frucd_display.c **** /* Left in non-generalized functions for future reference*/
  64:frucd_display.c **** 
  65:frucd_display.c **** 
  66:frucd_display.c **** /*
  67:frucd_display.c **** void disp_SOC(uint8_t data) {
  68:frucd_display.c ****     UG_FontSelect(&FONT_32X53);
  69:frucd_display.c ****     UG_COLOR color;
  70:frucd_display.c ****     if (data == 100) {
  71:frucd_display.c ****         // handle 100% case
  72:frucd_display.c ****         color = C_GREEN;
  73:frucd_display.c ****         if (color != last_SOC_color) {
  74:frucd_display.c ****             // only draw rectangle if color changed
  75:frucd_display.c ****             UG_FillFrame(30, 35, 210, 170, color);
  76:frucd_display.c ****             last_SOC_color = color;
  77:frucd_display.c ****         }
  78:frucd_display.c ****         UG_PutColorString(55, 80, "100%", C_BLACK, C_GREEN);
  79:frucd_display.c ****     } else {
  80:frucd_display.c ****         // handle other cases
ARM GAS  C:\Users\leoja\AppData\Local\Temp\ccM6wJLr.s 			page 7


  81:frucd_display.c ****         char data_s[4];
  82:frucd_display.c ****         sprintf(data_s, "%d", data);
  83:frucd_display.c ****         if (data >= 10) {
  84:frucd_display.c ****             // handle 2 digit cases
  85:frucd_display.c ****             // choose color
  86:frucd_display.c ****             if (data > 75) {
  87:frucd_display.c ****                 color = C_GREEN;
  88:frucd_display.c ****             } else if (data > 50) {
  89:frucd_display.c ****                 color = C_YELLOW;
  90:frucd_display.c ****             } else if (data > 25) {
  91:frucd_display.c ****                 color = C_ORANGE;
  92:frucd_display.c ****             } else {
  93:frucd_display.c ****                 color = C_RED;
  94:frucd_display.c ****             }
  95:frucd_display.c ****             data_s[2] = '%';
  96:frucd_display.c ****             data_s[3] = '\0';
  97:frucd_display.c ****             if (color != last_SOC_color) {
  98:frucd_display.c ****                 // only draw rectangle if color changed
  99:frucd_display.c ****                 UG_FillFrame(30, 35, 210, 170, color);
 100:frucd_display.c ****                 last_SOC_color = color;
 101:frucd_display.c ****             }
 102:frucd_display.c ****             UG_PutColorString(70, 80, data_s, C_BLACK, color);
 103:frucd_display.c ****         } else {
 104:frucd_display.c ****             // handle 1 digit cases
 105:frucd_display.c ****             data_s[1] = '%';
 106:frucd_display.c ****             data_s[2] = '\0';
 107:frucd_display.c ****             color = C_RED;
 108:frucd_display.c ****             
 109:frucd_display.c ****             
 110:frucd_display.c ****             
 111:frucd_display.c ****             
 112:frucd_display.c ****             //why is this here?
 113:frucd_display.c ****             UG_FillFrame(30, 35, 210, 170, C_BLACK);
 114:frucd_display.c ****             
 115:frucd_display.c ****             
 116:frucd_display.c ****             
 117:frucd_display.c ****             
 118:frucd_display.c ****             
 119:frucd_display.c ****             
 120:frucd_display.c ****             
 121:frucd_display.c ****             UG_FillFrame(30, 35, 210, 170, color);
 122:frucd_display.c ****             UG_PutColorString(90, 80, data_s, C_BLACK, color);
 123:frucd_display.c ****         }   
 124:frucd_display.c ****     }
 125:frucd_display.c ****     UG_FontSelect(&FONT_12X16);
 126:frucd_display.c **** }
 127:frucd_display.c **** 
 128:frucd_display.c **** 
 129:frucd_display.c **** */
 130:frucd_display.c **** 
 131:frucd_display.c **** 
 132:frucd_display.c **** // size is big if 1, small if not
 133:frucd_display.c **** void disp_SOC(uint16_t data, uint16_t x1, uint16_t y1, uint16_t x2, uint16_t y2, uint8_t size) {
 262              		.loc 1 133 0
 263              		.cfi_startproc
 264              		@ args = 8, pretend = 0, frame = 24
 265              		@ frame_needed = 0, uses_anonymous_args = 0
ARM GAS  C:\Users\leoja\AppData\Local\Temp\ccM6wJLr.s 			page 8


 266              	.LVL20:
 267 0000 F0B5     		push	{r4, r5, r6, r7, lr}
 268              		.cfi_def_cfa_offset 20
 269              		.cfi_offset 4, -20
 270              		.cfi_offset 5, -16
 271              		.cfi_offset 6, -12
 272              		.cfi_offset 7, -8
 273              		.cfi_offset 14, -4
 274 0002 89B0     		sub	sp, sp, #36
 275              		.cfi_def_cfa_offset 56
 276              		.loc 1 133 0
 277 0004 0293     		str	r3, [sp, #8]
 278 0006 0EAB     		add	r3, sp, #56
 279              	.LVL21:
 280 0008 1B88     		ldrh	r3, [r3]
 281              	.LVL22:
 282 000a 1600     		movs	r6, r2
 283 000c 0393     		str	r3, [sp, #12]
 284 000e 0FAB     		add	r3, sp, #60
 285              	.LVL23:
 286 0010 1F78     		ldrb	r7, [r3]
 134:frucd_display.c ****     int stringSize;
 135:frucd_display.c ****     int xFont, yFont;
 136:frucd_display.c ****     int horizFontSize = 12 + 20*size;
 287              		.loc 1 136 0
 288 0012 1423     		movs	r3, #20
 289              	.LVL24:
 290 0014 7B43     		muls	r3, r7
 133:frucd_display.c ****     int stringSize;
 291              		.loc 1 133 0
 292 0016 0400     		movs	r4, r0
 293 0018 0D00     		movs	r5, r1
 294              		.loc 1 136 0
 295 001a 0C33     		adds	r3, r3, #12
 296              	.LVL25:
 137:frucd_display.c ****     if (data >= 100) {
 138:frucd_display.c ****         stringSize = 4;
 297              		.loc 1 138 0
 298 001c 0422     		movs	r2, #4
 299              	.LVL26:
 137:frucd_display.c ****     if (data >= 100) {
 300              		.loc 1 137 0
 301 001e 6328     		cmp	r0, #99
 302 0020 04D8     		bhi	.L11
 139:frucd_display.c ****     }else if (data >= 10){
 140:frucd_display.c ****         stringSize = 3;
 141:frucd_display.c ****     }else{
 142:frucd_display.c ****         stringSize = 2;
 303              		.loc 1 142 0
 304 0022 0532     		adds	r2, r2, #5
 305 0024 8242     		cmp	r2, r0
 306 0026 9241     		sbcs	r2, r2, r2
 307 0028 5242     		rsbs	r2, r2, #0
 308 002a 0232     		adds	r2, r2, #2
 309              	.L11:
 310              	.LVL27:
 143:frucd_display.c ****     }
ARM GAS  C:\Users\leoja\AppData\Local\Temp\ccM6wJLr.s 			page 9


 144:frucd_display.c ****     
 145:frucd_display.c ****     xFont = (x1 + x2)/2 - ((horizFontSize*stringSize)/2);
 311              		.loc 1 145 0
 312 002c 5343     		muls	r3, r2
 313              	.LVL28:
 314 002e 0299     		ldr	r1, [sp, #8]
 315              	.LVL29:
 316 0030 5B10     		asrs	r3, r3, #1
 317 0032 6918     		adds	r1, r5, r1
 318 0034 4910     		asrs	r1, r1, #1
 319 0036 CB1A     		subs	r3, r1, r3
 146:frucd_display.c ****     yFont = (y1 + y2)/2 - 5 - (size*17);    
 320              		.loc 1 146 0
 321 0038 1121     		movs	r1, #17
 145:frucd_display.c ****     yFont = (y1 + y2)/2 - 5 - (size*17);    
 322              		.loc 1 145 0
 323 003a 0493     		str	r3, [sp, #16]
 324              	.LVL30:
 325              		.loc 1 146 0
 326 003c 4942     		rsbs	r1, r1, #0
 327 003e 039B     		ldr	r3, [sp, #12]
 328              	.LVL31:
 329 0040 7943     		muls	r1, r7
 330 0042 F318     		adds	r3, r6, r3
 331 0044 5B10     		asrs	r3, r3, #1
 332 0046 053B     		subs	r3, r3, #5
 333 0048 5B18     		adds	r3, r3, r1
 334 004a 0593     		str	r3, [sp, #20]
 335              	.LVL32:
 147:frucd_display.c ****     if(size == 1){
 336              		.loc 1 147 0
 337 004c 012F     		cmp	r7, #1
 338 004e 02D1     		bne	.L12
 148:frucd_display.c ****         UG_FontSelect(&FONT_32X53);
 339              		.loc 1 148 0
 340 0050 1D48     		ldr	r0, .L23
 341              	.LVL33:
 342 0052 FFF7FEFF 		bl	UG_FontSelect
 343              	.LVL34:
 344              	.L12:
 149:frucd_display.c ****        
 150:frucd_display.c ****     }
 151:frucd_display.c ****         
 152:frucd_display.c ****     UG_COLOR color;
 153:frucd_display.c ****     
 154:frucd_display.c ****     char data_s[5];
 155:frucd_display.c ****     sprintf(data_s, "%d%%", data);
 345              		.loc 1 155 0
 346 0056 2200     		movs	r2, r4
 347 0058 1C49     		ldr	r1, .L23+4
 348 005a 06A8     		add	r0, sp, #24
 349 005c FFF7FEFF 		bl	sprintf
 350              	.LVL35:
 156:frucd_display.c ****     
 157:frucd_display.c ****     if (data >= 100) {
 351              		.loc 1 157 0
 352 0060 632C     		cmp	r4, #99
ARM GAS  C:\Users\leoja\AppData\Local\Temp\ccM6wJLr.s 			page 10


 353 0062 09D8     		bhi	.L19
 158:frucd_display.c ****         // handle 100% case
 159:frucd_display.c ****         color = C_GREEN;
 160:frucd_display.c ****     } else {
 161:frucd_display.c ****         if (data >= 10) {
 354              		.loc 1 161 0
 355 0064 092C     		cmp	r4, #9
 356 0066 0CD9     		bls	.L21
 162:frucd_display.c ****             // handle 2 digit cases
 163:frucd_display.c ****             // choose color
 164:frucd_display.c ****             if (data > 75) {
 357              		.loc 1 164 0
 358 0068 4B2C     		cmp	r4, #75
 359 006a 05D8     		bhi	.L19
 165:frucd_display.c ****                 color = C_GREEN;
 166:frucd_display.c ****             } else if (data > 50) {
 360              		.loc 1 166 0
 361 006c 322C     		cmp	r4, #50
 362 006e 06D8     		bhi	.L20
 167:frucd_display.c ****                 color = C_YELLOW;
 168:frucd_display.c ****             } else if (data > 25) {
 363              		.loc 1 168 0
 364 0070 192C     		cmp	r4, #25
 365 0072 06D9     		bls	.L21
 169:frucd_display.c ****                 color = C_ORANGE;
 366              		.loc 1 169 0
 367 0074 164C     		ldr	r4, .L23+8
 368 0076 06E0     		b	.L13
 369              	.L19:
 159:frucd_display.c ****     } else {
 370              		.loc 1 159 0
 371 0078 FF24     		movs	r4, #255
 372 007a 2402     		lsls	r4, r4, #8
 373 007c 03E0     		b	.L13
 374              	.L20:
 167:frucd_display.c ****                 color = C_YELLOW;
 375              		.loc 1 167 0
 376 007e 154C     		ldr	r4, .L23+12
 377 0080 01E0     		b	.L13
 378              	.L21:
 170:frucd_display.c ****             } else {
 171:frucd_display.c ****                 color = C_RED;
 379              		.loc 1 171 0
 380 0082 FF24     		movs	r4, #255
 381 0084 2404     		lsls	r4, r4, #16
 382              	.L13:
 383              	.LVL36:
 172:frucd_display.c ****             }
 173:frucd_display.c ****         } else {
 174:frucd_display.c ****             color = C_RED;
 175:frucd_display.c ****             
 176:frucd_display.c ****         }   
 177:frucd_display.c ****     }
 178:frucd_display.c ****     if (color != last_SOC_color) {
 384              		.loc 1 178 0
 385 0086 144F     		ldr	r7, .L23+16
 386              	.LVL37:
ARM GAS  C:\Users\leoja\AppData\Local\Temp\ccM6wJLr.s 			page 11


 387 0088 3B68     		ldr	r3, [r7]
 388 008a 9C42     		cmp	r4, r3
 389 008c 0BD0     		beq	.L14
 179:frucd_display.c ****     // only draw rectangle if color changed
 180:frucd_display.c ****         UG_FillFrame(x1, y1, x2, y2, color);
 390              		.loc 1 180 0
 391 008e 6B46     		mov	r3, sp
 392 0090 0C22     		movs	r2, #12
 393 0092 9B5E     		ldrsh	r3, [r3, r2]
 394 0094 6A46     		mov	r2, sp
 395 0096 28B2     		sxth	r0, r5
 396 0098 0821     		movs	r1, #8
 397 009a 525E     		ldrsh	r2, [r2, r1]
 398 009c 31B2     		sxth	r1, r6
 399 009e 0094     		str	r4, [sp]
 400 00a0 FFF7FEFF 		bl	UG_FillFrame
 401              	.LVL38:
 181:frucd_display.c ****         last_SOC_color = color;
 402              		.loc 1 181 0
 403 00a4 3C60     		str	r4, [r7]
 404              	.L14:
 182:frucd_display.c ****     }
 183:frucd_display.c ****     UG_PutColorString(xFont, yFont, data_s, C_BLACK, color);
 405              		.loc 1 183 0
 406 00a6 6B46     		mov	r3, sp
 407 00a8 1421     		movs	r1, #20
 408 00aa 595E     		ldrsh	r1, [r3, r1]
 409 00ac 6B46     		mov	r3, sp
 410 00ae 06AA     		add	r2, sp, #24
 411 00b0 1020     		movs	r0, #16
 412 00b2 185E     		ldrsh	r0, [r3, r0]
 413 00b4 0023     		movs	r3, #0
 414 00b6 0094     		str	r4, [sp]
 415 00b8 FFF7FEFF 		bl	UG_PutColorString
 416              	.LVL39:
 184:frucd_display.c ****     
 185:frucd_display.c ****     UG_FontSelect(&FONT_12X16);
 417              		.loc 1 185 0
 418 00bc 0748     		ldr	r0, .L23+20
 419 00be FFF7FEFF 		bl	UG_FontSelect
 420              	.LVL40:
 186:frucd_display.c **** }
 421              		.loc 1 186 0
 422 00c2 09B0     		add	sp, sp, #36
 423              		@ sp needed
 424              	.LVL41:
 425 00c4 F0BD     		pop	{r4, r5, r6, r7, pc}
 426              	.L24:
 427 00c6 C046     		.align	2
 428              	.L23:
 429 00c8 00000000 		.word	FONT_32X53
 430 00cc 5B000000 		.word	.LC23
 431 00d0 00A5FF00 		.word	16753920
 432 00d4 00FFFF00 		.word	16776960
 433 00d8 00000000 		.word	last_SOC_color
 434 00dc 00000000 		.word	FONT_12X16
 435              		.cfi_endproc
ARM GAS  C:\Users\leoja\AppData\Local\Temp\ccM6wJLr.s 			page 12


 436              	.LFE38:
 437              		.size	disp_SOC, .-disp_SOC
 438              		.section	.text.disp_max_pack_temp,"ax",%progbits
 439              		.align	1
 440              		.global	disp_max_pack_temp
 441              		.code	16
 442              		.thumb_func
 443              		.type	disp_max_pack_temp, %function
 444              	disp_max_pack_temp:
 445              	.LFB39:
 187:frucd_display.c **** 
 188:frucd_display.c **** /*
 189:frucd_display.c **** 
 190:frucd_display.c **** void disp_max_pack_temp(uint8_t data) {
 191:frucd_display.c ****     // choose color
 192:frucd_display.c ****     UG_COLOR color;
 193:frucd_display.c ****     if (data < 45) {
 194:frucd_display.c ****         color = C_GREEN;
 195:frucd_display.c ****     } else if (data < 50) {
 196:frucd_display.c ****         color = C_YELLOW;
 197:frucd_display.c ****     } else if (data < 55) {
 198:frucd_display.c ****         color = C_ORANGE;
 199:frucd_display.c ****     } else {
 200:frucd_display.c ****         color = C_RED;
 201:frucd_display.c **** 
 202:frucd_display.c ****         UG_FillFrame(270, 35, 450, 170, C_BLACK);
 203:frucd_display.c ****         UG_FillFrame(270, 35, 450, 170, color);
 204:frucd_display.c ****         
 205:frucd_display.c ****     }
 206:frucd_display.c ****     
 207:frucd_display.c ****     if (color != last_max_pack_temp_color) {
 208:frucd_display.c ****         // only draw rectangle if color changed
 209:frucd_display.c ****         UG_FillFrame(270, 35, 450, 170, color);
 210:frucd_display.c ****         last_max_pack_temp_color = color;
 211:frucd_display.c ****     }
 212:frucd_display.c ****     UG_FontSelect(&FONT_32X53);
 213:frucd_display.c ****     char data_s[4];
 214:frucd_display.c ****     sprintf(data_s, "%d", data);
 215:frucd_display.c ****     data_s[2] = 'C';
 216:frucd_display.c ****     data_s[3] = '\0';
 217:frucd_display.c ****     UG_PutColorString(310, 80, data_s, C_BLACK, color);
 218:frucd_display.c ****     UG_FontSelect(&FONT_12X16);
 219:frucd_display.c **** }
 220:frucd_display.c **** 
 221:frucd_display.c **** */
 222:frucd_display.c **** 
 223:frucd_display.c **** 
 224:frucd_display.c **** void disp_max_pack_temp(uint8_t data, uint16_t x1, uint16_t y1, uint16_t x2, uint16_t y2, uint8_t s
 446              		.loc 1 224 0
 447              		.cfi_startproc
 448              		@ args = 8, pretend = 0, frame = 40
 449              		@ frame_needed = 0, uses_anonymous_args = 0
 450              	.LVL42:
 451 0000 F0B5     		push	{r4, r5, r6, r7, lr}
 452              		.cfi_def_cfa_offset 20
 453              		.cfi_offset 4, -20
 454              		.cfi_offset 5, -16
ARM GAS  C:\Users\leoja\AppData\Local\Temp\ccM6wJLr.s 			page 13


 455              		.cfi_offset 6, -12
 456              		.cfi_offset 7, -8
 457              		.cfi_offset 14, -4
 458 0002 8DB0     		sub	sp, sp, #52
 459              		.cfi_def_cfa_offset 72
 460              		.loc 1 224 0
 461 0004 0593     		str	r3, [sp, #20]
 462 0006 12AB     		add	r3, sp, #72
 463              	.LVL43:
 464 0008 1B88     		ldrh	r3, [r3]
 465              	.LVL44:
 466 000a 0492     		str	r2, [sp, #16]
 467 000c 0693     		str	r3, [sp, #24]
 468 000e 13AB     		add	r3, sp, #76
 469              	.LVL45:
 470 0010 1A78     		ldrb	r2, [r3]
 471              	.LVL46:
 225:frucd_display.c ****     int xFont, yFont;
 226:frucd_display.c ****     int horizFontSize = 12 + 20*size;
 227:frucd_display.c ****     int stringSize;
 228:frucd_display.c ****     stringSize = 3;
 229:frucd_display.c ****     xFont = (x1 + x2)/2 - ((horizFontSize*stringSize)/2);
 472              		.loc 1 229 0
 473 0012 1423     		movs	r3, #20
 474              	.LVL47:
 224:frucd_display.c ****     int xFont, yFont;
 475              		.loc 1 224 0
 476 0014 0391     		str	r1, [sp, #12]
 477              		.loc 1 229 0
 478 0016 0321     		movs	r1, #3
 479              	.LVL48:
 480 0018 5343     		muls	r3, r2
 481 001a 0C33     		adds	r3, r3, #12
 482              	.LVL49:
 483 001c 4B43     		muls	r3, r1
 484              	.LVL50:
 224:frucd_display.c ****     int xFont, yFont;
 485              		.loc 1 224 0
 486 001e 0290     		str	r0, [sp, #8]
 487              		.loc 1 229 0
 488 0020 0399     		ldr	r1, [sp, #12]
 489 0022 0598     		ldr	r0, [sp, #20]
 490              	.LVL51:
 491 0024 5B10     		asrs	r3, r3, #1
 492 0026 0818     		adds	r0, r1, r0
 493 0028 4010     		asrs	r0, r0, #1
 494 002a C31A     		subs	r3, r0, r3
 230:frucd_display.c ****     yFont = (y1 + y2)/2 - 5 - (size*17);    
 495              		.loc 1 230 0
 496 002c 0699     		ldr	r1, [sp, #24]
 229:frucd_display.c ****     yFont = (y1 + y2)/2 - 5 - (size*17);    
 497              		.loc 1 229 0
 498 002e 0893     		str	r3, [sp, #32]
 499              	.LVL52:
 500              		.loc 1 230 0
 501 0030 049B     		ldr	r3, [sp, #16]
 502              	.LVL53:
ARM GAS  C:\Users\leoja\AppData\Local\Temp\ccM6wJLr.s 			page 14


 503 0032 5B18     		adds	r3, r3, r1
 504 0034 1121     		movs	r1, #17
 505 0036 4942     		rsbs	r1, r1, #0
 506 0038 5143     		muls	r1, r2
 507 003a 5B10     		asrs	r3, r3, #1
 508 003c 053B     		subs	r3, r3, #5
 509 003e 5B18     		adds	r3, r3, r1
 510 0040 0993     		str	r3, [sp, #36]
 511              	.LVL54:
 231:frucd_display.c ****     if(size == 1){
 512              		.loc 1 231 0
 513 0042 012A     		cmp	r2, #1
 514 0044 02D1     		bne	.L26
 232:frucd_display.c ****         UG_FontSelect(&FONT_32X53);
 515              		.loc 1 232 0
 516 0046 2B48     		ldr	r0, .L32
 517 0048 FFF7FEFF 		bl	UG_FontSelect
 518              	.LVL55:
 519              	.L26:
 233:frucd_display.c ****     }
 234:frucd_display.c ****     
 235:frucd_display.c ****     // choose color
 236:frucd_display.c ****     UG_COLOR color;
 237:frucd_display.c ****     if (data < 45) {
 520              		.loc 1 237 0
 521 004c 029B     		ldr	r3, [sp, #8]
 522 004e 2C2B     		cmp	r3, #44
 523 0050 21D9     		bls	.L29
 238:frucd_display.c ****         color = C_GREEN;
 239:frucd_display.c ****     } else if (data < 50) {
 524              		.loc 1 239 0
 525 0052 312B     		cmp	r3, #49
 526 0054 22D9     		bls	.L30
 240:frucd_display.c ****         color = C_YELLOW;
 241:frucd_display.c ****     } else if (data < 55) {
 527              		.loc 1 241 0
 528 0056 362B     		cmp	r3, #54
 529 0058 22D9     		bls	.L31
 530              	.LVL56:
 242:frucd_display.c ****         color = C_ORANGE;
 243:frucd_display.c ****     } else {
 244:frucd_display.c ****         color = C_RED; 
 245:frucd_display.c ****         
 246:frucd_display.c ****         UG_FillFrame(x1, y1, x2, y2, C_BLACK);
 531              		.loc 1 246 0
 532 005a 6B46     		mov	r3, sp
 533 005c 0C25     		movs	r5, #12
 534 005e 5D5F     		ldrsh	r5, [r3, r5]
 535 0060 6B46     		mov	r3, sp
 536 0062 1026     		movs	r6, #16
 537 0064 9E5F     		ldrsh	r6, [r3, r6]
 538 0066 6B46     		mov	r3, sp
 539 0068 1427     		movs	r7, #20
 540 006a DF5F     		ldrsh	r7, [r3, r7]
 541 006c 6B46     		mov	r3, sp
 247:frucd_display.c ****         UG_FillFrame(x1, y1, x2, y2, color);
 542              		.loc 1 247 0
ARM GAS  C:\Users\leoja\AppData\Local\Temp\ccM6wJLr.s 			page 15


 543 006e FF24     		movs	r4, #255
 246:frucd_display.c ****         UG_FillFrame(x1, y1, x2, y2, color);
 544              		.loc 1 246 0
 545 0070 1822     		movs	r2, #24
 546 0072 9B5E     		ldrsh	r3, [r3, r2]
 547 0074 0022     		movs	r2, #0
 548 0076 3100     		movs	r1, r6
 549 0078 0092     		str	r2, [sp]
 550 007a 2800     		movs	r0, r5
 551 007c 3A00     		movs	r2, r7
 552              		.loc 1 247 0
 553 007e 2404     		lsls	r4, r4, #16
 246:frucd_display.c ****         UG_FillFrame(x1, y1, x2, y2, color);
 554              		.loc 1 246 0
 555 0080 0793     		str	r3, [sp, #28]
 556 0082 FFF7FEFF 		bl	UG_FillFrame
 557              	.LVL57:
 558              		.loc 1 247 0
 559 0086 0094     		str	r4, [sp]
 560 0088 079B     		ldr	r3, [sp, #28]
 561 008a 3A00     		movs	r2, r7
 562 008c 3100     		movs	r1, r6
 563 008e 2800     		movs	r0, r5
 564 0090 FFF7FEFF 		bl	UG_FillFrame
 565              	.LVL58:
 566 0094 05E0     		b	.L27
 567              	.LVL59:
 568              	.L29:
 238:frucd_display.c ****     } else if (data < 50) {
 569              		.loc 1 238 0
 570 0096 FF24     		movs	r4, #255
 571 0098 2402     		lsls	r4, r4, #8
 572 009a 02E0     		b	.L27
 573              	.L30:
 240:frucd_display.c ****     } else if (data < 55) {
 574              		.loc 1 240 0
 575 009c 164C     		ldr	r4, .L32+4
 576 009e 00E0     		b	.L27
 577              	.L31:
 242:frucd_display.c ****     } else {
 578              		.loc 1 242 0
 579 00a0 164C     		ldr	r4, .L32+8
 580              	.L27:
 581              	.LVL60:
 248:frucd_display.c ****     
 249:frucd_display.c ****     }
 250:frucd_display.c **** 
 251:frucd_display.c ****    
 252:frucd_display.c ****     
 253:frucd_display.c ****    
 254:frucd_display.c ****     if (color != last_max_pack_temp_color) {
 582              		.loc 1 254 0
 583 00a2 174D     		ldr	r5, .L32+12
 584 00a4 2B68     		ldr	r3, [r5]
 585 00a6 9C42     		cmp	r4, r3
 586 00a8 0FD0     		beq	.L28
 255:frucd_display.c ****         UG_FillFrame(x1, y1, x2, y2, color);
ARM GAS  C:\Users\leoja\AppData\Local\Temp\ccM6wJLr.s 			page 16


 587              		.loc 1 255 0
 588 00aa 6B46     		mov	r3, sp
 589 00ac 1822     		movs	r2, #24
 590 00ae 9B5E     		ldrsh	r3, [r3, r2]
 591 00b0 6A46     		mov	r2, sp
 592 00b2 1421     		movs	r1, #20
 593 00b4 525E     		ldrsh	r2, [r2, r1]
 594 00b6 6946     		mov	r1, sp
 595 00b8 1020     		movs	r0, #16
 596 00ba 095E     		ldrsh	r1, [r1, r0]
 597 00bc 6846     		mov	r0, sp
 598 00be 0C26     		movs	r6, #12
 599 00c0 805F     		ldrsh	r0, [r0, r6]
 600 00c2 0094     		str	r4, [sp]
 601 00c4 FFF7FEFF 		bl	UG_FillFrame
 602              	.LVL61:
 256:frucd_display.c ****         last_max_pack_temp_color = color;
 603              		.loc 1 256 0
 604 00c8 2C60     		str	r4, [r5]
 605              	.L28:
 257:frucd_display.c ****     }
 258:frucd_display.c **** 
 259:frucd_display.c ****     char data_s[4];
 260:frucd_display.c ****     sprintf(data_s, "%d C", data);
 606              		.loc 1 260 0
 607 00ca 029A     		ldr	r2, [sp, #8]
 608 00cc 0D49     		ldr	r1, .L32+16
 609 00ce 0BA8     		add	r0, sp, #44
 610 00d0 FFF7FEFF 		bl	sprintf
 611              	.LVL62:
 261:frucd_display.c ****    // data_s[2] = 'C';
 262:frucd_display.c ****     //data_s[3] = '\0';
 263:frucd_display.c ****     UG_PutColorString(xFont, yFont, data_s, C_BLACK, color);
 612              		.loc 1 263 0
 613 00d4 6B46     		mov	r3, sp
 614 00d6 2421     		movs	r1, #36
 615 00d8 595E     		ldrsh	r1, [r3, r1]
 616 00da 6B46     		mov	r3, sp
 617 00dc 0BAA     		add	r2, sp, #44
 618 00de 2020     		movs	r0, #32
 619 00e0 185E     		ldrsh	r0, [r3, r0]
 620 00e2 0023     		movs	r3, #0
 621 00e4 0094     		str	r4, [sp]
 622 00e6 FFF7FEFF 		bl	UG_PutColorString
 623              	.LVL63:
 264:frucd_display.c ****     UG_FontSelect(&FONT_12X16);
 624              		.loc 1 264 0
 625 00ea 0748     		ldr	r0, .L32+20
 626 00ec FFF7FEFF 		bl	UG_FontSelect
 627              	.LVL64:
 265:frucd_display.c **** }
 628              		.loc 1 265 0
 629 00f0 0DB0     		add	sp, sp, #52
 630              		@ sp needed
 631              	.LVL65:
 632 00f2 F0BD     		pop	{r4, r5, r6, r7, pc}
 633              	.L33:
ARM GAS  C:\Users\leoja\AppData\Local\Temp\ccM6wJLr.s 			page 17


 634              		.align	2
 635              	.L32:
 636 00f4 00000000 		.word	FONT_32X53
 637 00f8 00FFFF00 		.word	16776960
 638 00fc 00A5FF00 		.word	16753920
 639 0100 00000000 		.word	last_max_pack_temp_color
 640 0104 60000000 		.word	.LC29
 641 0108 00000000 		.word	FONT_12X16
 642              		.cfi_endproc
 643              	.LFE39:
 644              		.size	disp_max_pack_temp, .-disp_max_pack_temp
 645              		.section	.text.disp_state,"ax",%progbits
 646              		.align	1
 647              		.global	disp_state
 648              		.code	16
 649              		.thumb_func
 650              		.type	disp_state, %function
 651              	disp_state:
 652              	.LFB40:
 266:frucd_display.c **** 
 267:frucd_display.c **** 
 268:frucd_display.c **** /*
 269:frucd_display.c **** 
 270:frucd_display.c **** void disp_state(uint8_t state) { // TODO
 271:frucd_display.c ****     UG_COLOR color;
 272:frucd_display.c ****     // check fault bit
 273:frucd_display.c ****     if (state & 0x80) {
 274:frucd_display.c ****         // *************** FAULTS ***************
 275:frucd_display.c ****         uint8 fault = state & 0x7f; // mask off fault bit
 276:frucd_display.c ****         switch(fault) {
 277:frucd_display.c ****             case NONE: // STARTUP (effectively)
 278:frucd_display.c ****                 // not obtainable via CAN
 279:frucd_display.c ****                 // would only show when hardcoded on startup
 280:frucd_display.c ****                 color = C_YELLOW;
 281:frucd_display.c ****                 if (color != last_state_color) {
 282:frucd_display.c ****                     // only draw rectangle if color changed
 283:frucd_display.c ****                     UG_FillFrame(95, 185, 240, 215, color);
 284:frucd_display.c ****                     last_state_color = color;
 285:frucd_display.c ****                 }
 286:frucd_display.c ****                 UG_PutColorString(100, 195, " STARTUP  ", C_BLACK, color);
 287:frucd_display.c ****                 break;
 288:frucd_display.c ****             case DRIVE_REQUEST_FROM_LV:
 289:frucd_display.c ****                 color = C_RED;
 290:frucd_display.c ****                 if (color != last_state_color) {
 291:frucd_display.c ****                     // only draw rectangle if color changed
 292:frucd_display.c ****                     UG_FillFrame(95, 185, 240, 215, color);
 293:frucd_display.c ****                     last_state_color = color;
 294:frucd_display.c ****                 }
 295:frucd_display.c ****                 UG_PutColorString(100, 195, "DRV FRM LV", C_BLACK, color);
 296:frucd_display.c ****                 break;
 297:frucd_display.c ****             case CONSERVATIVE_TIMER_MAXED:
 298:frucd_display.c ****                 color = C_RED;
 299:frucd_display.c ****                 if (color != last_state_color) {
 300:frucd_display.c ****                     // only draw rectangle if color changed
 301:frucd_display.c ****                     UG_FillFrame(95, 185, 240, 215, color);
 302:frucd_display.c ****                     last_state_color = color;
 303:frucd_display.c ****                 }
ARM GAS  C:\Users\leoja\AppData\Local\Temp\ccM6wJLr.s 			page 18


 304:frucd_display.c ****                 UG_PutColorString(100, 195, "PRE TM OUT", C_BLACK, color);
 305:frucd_display.c ****                 break;
 306:frucd_display.c ****             case BRAKE_NOT_PRESSED:
 307:frucd_display.c ****                 color = C_RED;
 308:frucd_display.c ****                 if (color != last_state_color) {
 309:frucd_display.c ****                     // only draw rectangle if color changed
 310:frucd_display.c ****                     UG_FillFrame(95, 185, 240, 215, color);
 311:frucd_display.c ****                     last_state_color = color;
 312:frucd_display.c ****                 }
 313:frucd_display.c ****                 UG_PutColorString(100, 195, "BR NOT PRS", C_BLACK, color);
 314:frucd_display.c ****                 break;
 315:frucd_display.c ****             case HV_DISABLED_WHILE_DRIVING:
 316:frucd_display.c ****                 color = C_RED;
 317:frucd_display.c ****                 if (color != last_state_color) {
 318:frucd_display.c ****                     // only draw rectangle if color changed
 319:frucd_display.c ****                     UG_FillFrame(95, 185, 240, 215, color);
 320:frucd_display.c ****                     last_state_color = color;
 321:frucd_display.c ****                 }
 322:frucd_display.c ****                 UG_PutColorString(100, 195, "HV OFF DRV", C_BLACK, color);
 323:frucd_display.c ****                 break;
 324:frucd_display.c ****             case SENSOR_DISCREPANCY:
 325:frucd_display.c ****                 color = C_RED;
 326:frucd_display.c ****                 if (color != last_state_color) {
 327:frucd_display.c ****                     // only draw rectangle if color changed
 328:frucd_display.c ****                     UG_FillFrame(95, 185, 240, 215, color);
 329:frucd_display.c ****                     last_state_color = color;
 330:frucd_display.c ****                 }
 331:frucd_display.c ****                 UG_PutColorString(100, 195, "SNSR DSCRP", C_BLACK, color);
 332:frucd_display.c ****                 break;
 333:frucd_display.c ****             case BRAKE_IMPLAUSIBLE:
 334:frucd_display.c ****                 color = C_YELLOW;
 335:frucd_display.c ****                 if (color != last_state_color) {
 336:frucd_display.c ****                     // only draw rectangle if color changed
 337:frucd_display.c ****                     UG_FillFrame(95, 185, 240, 215, color);
 338:frucd_display.c ****                     last_state_color = color;
 339:frucd_display.c ****                 }
 340:frucd_display.c ****                 UG_PutColorString(100, 195, "BSPD TRIPD", C_BLACK, color); //whitespace to clear
 341:frucd_display.c ****                 break;
 342:frucd_display.c ****             case ESTOP:
 343:frucd_display.c ****                 color = C_RED;
 344:frucd_display.c ****                 if (color != last_state_color) {
 345:frucd_display.c ****                     // only draw rectangle if color changed
 346:frucd_display.c ****                     UG_FillFrame(95, 185, 240, 215, color);
 347:frucd_display.c ****                     last_state_color = color;
 348:frucd_display.c ****                 }
 349:frucd_display.c ****                 UG_PutColorString(100, 195, "SHTDWN OPN", C_BLACK, color); //whitespace to clear
 350:frucd_display.c ****                 break;
 351:frucd_display.c ****         }
 352:frucd_display.c ****         
 353:frucd_display.c ****     } else {
 354:frucd_display.c ****         // *************** NO FAULTS ***************
 355:frucd_display.c ****         color = C_GREEN;
 356:frucd_display.c ****         if (color != last_state_color) {
 357:frucd_display.c ****             // only draw rectangle if color changed
 358:frucd_display.c ****             UG_FillFrame(95, 185, 240, 215, color);
 359:frucd_display.c ****             last_state_color = color;
 360:frucd_display.c ****         }
ARM GAS  C:\Users\leoja\AppData\Local\Temp\ccM6wJLr.s 			page 19


 361:frucd_display.c ****         switch(state) {
 362:frucd_display.c ****             case LV:
 363:frucd_display.c ****                 UG_PutColorString(100, 195, "    LV    ", C_BLACK, color);
 364:frucd_display.c ****                 break;
 365:frucd_display.c ****             case PRECHARGING:
 366:frucd_display.c ****                 UG_PutColorString(100, 195, "PRECHARGE ", C_BLACK, color);
 367:frucd_display.c ****                 break;
 368:frucd_display.c ****             case HV_ENABLED:
 369:frucd_display.c ****                 UG_PutColorString(100, 195, "HV ENABLED", C_BLACK, color);
 370:frucd_display.c ****                 break;
 371:frucd_display.c ****             case DRIVE:
 372:frucd_display.c ****                 UG_PutColorString(100, 195, "  DRIVE   ", C_BLACK, color);
 373:frucd_display.c ****                 break;
 374:frucd_display.c ****         }
 375:frucd_display.c ****     }
 376:frucd_display.c **** }
 377:frucd_display.c **** 
 378:frucd_display.c **** 
 379:frucd_display.c **** */
 380:frucd_display.c **** 
 381:frucd_display.c **** 
 382:frucd_display.c **** void disp_state(uint8_t state, uint16_t x1, uint16_t y1, uint16_t x2, uint16_t y2, uint8_t size) { 
 653              		.loc 1 382 0
 654              		.cfi_startproc
 655              		@ args = 8, pretend = 0, frame = 24
 656              		@ frame_needed = 0, uses_anonymous_args = 0
 657              	.LVL66:
 658 0000 F0B5     		push	{r4, r5, r6, r7, lr}
 659              		.cfi_def_cfa_offset 20
 660              		.cfi_offset 4, -20
 661              		.cfi_offset 5, -16
 662              		.cfi_offset 6, -12
 663              		.cfi_offset 7, -8
 664              		.cfi_offset 14, -4
 665 0002 89B0     		sub	sp, sp, #36
 666              		.cfi_def_cfa_offset 56
 667              		.loc 1 382 0
 668 0004 0593     		str	r3, [sp, #20]
 669 0006 0EAB     		add	r3, sp, #56
 670              	.LVL67:
 671 0008 1C88     		ldrh	r4, [r3]
 672 000a 0FAB     		add	r3, sp, #60
 673              	.LVL68:
 674 000c 0492     		str	r2, [sp, #16]
 675 000e 1A78     		ldrb	r2, [r3]
 676              	.LVL69:
 383:frucd_display.c ****     int xFont, yFont;
 384:frucd_display.c ****     int horizFontSize = 12 + 20*size;
 385:frucd_display.c ****     int stringSize;
 386:frucd_display.c ****     stringSize = 10;
 387:frucd_display.c ****     xFont = (x1 + x2)/2 - ((horizFontSize*stringSize)/2);
 677              		.loc 1 387 0
 678 0010 1423     		movs	r3, #20
 679              	.LVL70:
 382:frucd_display.c ****     int xFont, yFont;
 680              		.loc 1 382 0
 681 0012 0391     		str	r1, [sp, #12]
ARM GAS  C:\Users\leoja\AppData\Local\Temp\ccM6wJLr.s 			page 20


 682              		.loc 1 387 0
 683 0014 0A21     		movs	r1, #10
 684              	.LVL71:
 388:frucd_display.c ****     yFont = (y1 + y2)/2 - 5 - (size*17);    
 685              		.loc 1 388 0
 686 0016 1127     		movs	r7, #17
 387:frucd_display.c ****     yFont = (y1 + y2)/2 - 5 - (size*17);    
 687              		.loc 1 387 0
 688 0018 5343     		muls	r3, r2
 689 001a 0C33     		adds	r3, r3, #12
 690              	.LVL72:
 691 001c 4B43     		muls	r3, r1
 692              	.LVL73:
 382:frucd_display.c ****     int xFont, yFont;
 693              		.loc 1 382 0
 694 001e 0600     		movs	r6, r0
 387:frucd_display.c ****     yFont = (y1 + y2)/2 - 5 - (size*17);    
 695              		.loc 1 387 0
 696 0020 0399     		ldr	r1, [sp, #12]
 697 0022 0598     		ldr	r0, [sp, #20]
 698              	.LVL74:
 699 0024 5B10     		asrs	r3, r3, #1
 700 0026 0918     		adds	r1, r1, r0
 701 0028 4910     		asrs	r1, r1, #1
 702 002a CB1A     		subs	r3, r1, r3
 703 002c 0693     		str	r3, [sp, #24]
 704              	.LVL75:
 705              		.loc 1 388 0
 706 002e 7F42     		rsbs	r7, r7, #0
 707 0030 049B     		ldr	r3, [sp, #16]
 708              	.LVL76:
 709 0032 5743     		muls	r7, r2
 710 0034 1B19     		adds	r3, r3, r4
 711 0036 5B10     		asrs	r3, r3, #1
 712 0038 053B     		subs	r3, r3, #5
 713 003a DB19     		adds	r3, r3, r7
 714 003c 0793     		str	r3, [sp, #28]
 715              	.LVL77:
 389:frucd_display.c ****     if(size == 1){
 716              		.loc 1 389 0
 717 003e 012A     		cmp	r2, #1
 718 0040 02D1     		bne	.L35
 390:frucd_display.c ****         UG_FontSelect(&FONT_32X53);
 719              		.loc 1 390 0
 720 0042 C448     		ldr	r0, .L71
 721 0044 FFF7FEFF 		bl	UG_FontSelect
 722              	.LVL78:
 723              	.L35:
 391:frucd_display.c ****         
 392:frucd_display.c ****     }
 393:frucd_display.c ****     UG_COLOR color;
 394:frucd_display.c ****     // check fault bit
 395:frucd_display.c ****     if (state & 0x80) {
 724              		.loc 1 395 0
 725 0048 73B2     		sxtb	r3, r6
 726 004a C34D     		ldr	r5, .L71+4
 727 004c 002B     		cmp	r3, #0
ARM GAS  C:\Users\leoja\AppData\Local\Temp\ccM6wJLr.s 			page 21


 728 004e 00DB     		blt	.LCB642
 729 0050 4CE1     		b	.L36	@long jump
 730              	.LCB642:
 731              	.LVL79:
 732 0052 6B46     		mov	r3, sp
 733              	.LBB2:
 396:frucd_display.c ****         // *************** FAULTS ***************
 397:frucd_display.c ****         uint8 fault = state & 0x7f; // mask off fault bit
 398:frucd_display.c ****         switch(fault) {
 734              		.loc 1 398 0
 735 0054 7F20     		movs	r0, #127
 736 0056 1C27     		movs	r7, #28
 737 0058 DF5F     		ldrsh	r7, [r3, r7]
 738 005a 6B46     		mov	r3, sp
 739 005c 3040     		ands	r0, r6
 740 005e 1826     		movs	r6, #24
 741 0060 9E5F     		ldrsh	r6, [r3, r6]
 742              	.LVL80:
 399:frucd_display.c ****             case NONE: // STARTUP (effectively)
 400:frucd_display.c ****                 // not obtainable via CAN
 401:frucd_display.c ****                 // would only show when hardcoded on startup
 402:frucd_display.c ****                 color = C_YELLOW;
 403:frucd_display.c ****                 if (color != last_state_color) {
 404:frucd_display.c ****                     // only draw rectangle if color changed
 405:frucd_display.c ****                     UG_FillFrame(x1, y1, x2, y2, color);
 406:frucd_display.c ****                     last_state_color = color;
 407:frucd_display.c ****                 }
 408:frucd_display.c ****                 UG_PutColorString(xFont, yFont, " STARTUP  ", C_BLACK, color);
 409:frucd_display.c ****                 break;
 410:frucd_display.c ****             case DRIVE_REQUEST_FROM_LV:
 411:frucd_display.c ****                 color = C_RED;
 412:frucd_display.c ****                 if (color != last_state_color) {
 413:frucd_display.c ****                     // only draw rectangle if color changed
 414:frucd_display.c ****                     UG_FillFrame(x1, y1, x2, y2, color);
 415:frucd_display.c ****                     last_state_color = color;
 416:frucd_display.c ****                 }
 417:frucd_display.c ****                 UG_PutColorString(xFont, yFont, "DRV FRM LV", C_BLACK, color);
 418:frucd_display.c ****                 break;
 419:frucd_display.c ****             case CONSERVATIVE_TIMER_MAXED:
 420:frucd_display.c ****                 color = C_RED;
 421:frucd_display.c ****                 if (color != last_state_color) {
 422:frucd_display.c ****                     // only draw rectangle if color changed
 423:frucd_display.c ****                     UG_FillFrame(x1, y1, x2, y2, color);
 424:frucd_display.c ****                     last_state_color = color;
 425:frucd_display.c ****                 }
 426:frucd_display.c ****                 UG_PutColorString(xFont, yFont, "PRE TM OUT", C_BLACK, color);
 427:frucd_display.c ****                 break;
 428:frucd_display.c ****             case BRAKE_NOT_PRESSED:
 429:frucd_display.c ****                 color = C_RED;
 430:frucd_display.c ****                 if (color != last_state_color) {
 431:frucd_display.c ****                     // only draw rectangle if color changed
 432:frucd_display.c ****                     UG_FillFrame(x1, y1, x2, y2, color);
 433:frucd_display.c ****                     last_state_color = color;
 434:frucd_display.c ****                 }
 435:frucd_display.c ****                 UG_PutColorString(xFont, yFont, "BR NOT PRS", C_BLACK, color);
 436:frucd_display.c ****                 break;
 437:frucd_display.c ****             case HV_DISABLED_WHILE_DRIVING:
ARM GAS  C:\Users\leoja\AppData\Local\Temp\ccM6wJLr.s 			page 22


 438:frucd_display.c ****                 color = C_RED;
 439:frucd_display.c ****                 if (color != last_state_color) {
 440:frucd_display.c ****                     // only draw rectangle if color changed
 441:frucd_display.c ****                     UG_FillFrame(x1, y1, x2, y2, color);
 442:frucd_display.c ****                     last_state_color = color;
 443:frucd_display.c ****                 }
 444:frucd_display.c ****                 UG_PutColorString(xFont, yFont, "HV OFF DRV", C_BLACK, color);
 445:frucd_display.c ****                 break;
 446:frucd_display.c ****             case SENSOR_DISCREPANCY:
 447:frucd_display.c ****                 color = C_RED;
 448:frucd_display.c ****                 if (color != last_state_color) {
 449:frucd_display.c ****                     // only draw rectangle if color changed
 450:frucd_display.c ****                     UG_FillFrame(x1, y1, x2, y2, color);
 451:frucd_display.c ****                     last_state_color = color;
 452:frucd_display.c ****                 }
 453:frucd_display.c ****                 UG_PutColorString(xFont, yFont, "SNSR DSCRP", C_BLACK, color);
 454:frucd_display.c ****                 break;
 455:frucd_display.c ****             case BRAKE_IMPLAUSIBLE:
 456:frucd_display.c ****                 color = C_YELLOW;
 457:frucd_display.c ****                 if (color != last_state_color) {
 458:frucd_display.c ****                     // only draw rectangle if color changed
 459:frucd_display.c ****                     UG_FillFrame(x1, y1, x2, y2, color);
 460:frucd_display.c ****                     last_state_color = color;
 461:frucd_display.c ****                 }
 462:frucd_display.c ****                 UG_PutColorString(xFont, yFont, "BSPD TRIPD", C_BLACK, color); //whitespace to clea
 463:frucd_display.c ****                 break;
 464:frucd_display.c ****             case SHUTDOWN_CIRCUIT_OPEN:
 465:frucd_display.c ****                 color = C_RED;
 466:frucd_display.c ****                 if (color != last_state_color) {
 467:frucd_display.c ****                     // only draw rectangle if color changed
 468:frucd_display.c ****                     UG_FillFrame(x1, y1, x2, y2, color);
 469:frucd_display.c ****                     last_state_color = color;
 470:frucd_display.c ****                 }
 471:frucd_display.c ****                 UG_PutColorString(xFont, yFont, "SHTDWN OPN", C_BLACK, color); //whitespace to clea
 472:frucd_display.c ****                 break;
 473:frucd_display.c ****             case UNCALIBRATED:
 474:frucd_display.c ****                 color = C_RED;
 475:frucd_display.c ****                 if (color != last_state_color) {
 476:frucd_display.c ****                     // only draw rectangle if color changed
 477:frucd_display.c ****                     UG_FillFrame(x1, y1, x2, y2, color);
 478:frucd_display.c ****                     last_state_color = color;
 479:frucd_display.c ****                 }
 480:frucd_display.c ****                 UG_PutColorString(xFont, yFont, "UNCALIBRTD", C_BLACK, color); //whitespace to clea
 481:frucd_display.c ****                 break;
 482:frucd_display.c ****             case HARD_BSPD:
 483:frucd_display.c ****                 color = C_RED;
 484:frucd_display.c ****                 if (color != last_state_color) {
 485:frucd_display.c ****                     // only draw rectangle if color changed
 486:frucd_display.c ****                     UG_FillFrame(x1, y1, x2, y2, color);
 487:frucd_display.c ****                     last_state_color = color;
 488:frucd_display.c ****                 }
 489:frucd_display.c ****                 UG_PutColorString(xFont, yFont, "HARD BSPD", C_BLACK, color); //whitespace to clear
 490:frucd_display.c ****                 break;
 491:frucd_display.c ****             case MC_FAULT:
 492:frucd_display.c ****                 color = C_RED;
 493:frucd_display.c ****                 if (color != last_state_color) {
 494:frucd_display.c ****                     // only draw rectangle if color changed
ARM GAS  C:\Users\leoja\AppData\Local\Temp\ccM6wJLr.s 			page 23


 495:frucd_display.c ****                     UG_FillFrame(x1, y1, x2, y2, color);
 496:frucd_display.c ****                     last_state_color = color;
 497:frucd_display.c ****                 }
 498:frucd_display.c ****                 UG_PutColorString(xFont, yFont, "MC FAULT", C_BLACK, color); //whitespace to clear
 499:frucd_display.c ****                 break;
 500:frucd_display.c ****             default:
 501:frucd_display.c ****                 color = C_RED;
 502:frucd_display.c ****                 if (color != last_state_color) {
 743              		.loc 1 502 0
 744 0062 2B68     		ldr	r3, [r5]
 745 0064 1A00     		movs	r2, r3
 398:frucd_display.c ****             case NONE: // STARTUP (effectively)
 746              		.loc 1 398 0
 747 0066 0A28     		cmp	r0, #10
 748 0068 00D9     		bls	.LCB656
 749 006a 25E1     		b	.L37	@long jump
 750              	.LCB656:
 751 006c FFF7FEFF 		bl	__gnu_thumb1_case_uhi
 752              	.L39:
 753 0070 0B00     		.2byte	(.L38-.L39)/2
 754 0072 2200     		.2byte	(.L40-.L39)/2
 755 0074 3C00     		.2byte	(.L41-.L39)/2
 756 0076 5700     		.2byte	(.L42-.L39)/2
 757 0078 7100     		.2byte	(.L43-.L39)/2
 758 007a 8B00     		.2byte	(.L44-.L39)/2
 759 007c A500     		.2byte	(.L45-.L39)/2
 760 007e BC00     		.2byte	(.L46-.L39)/2
 761 0080 D600     		.2byte	(.L47-.L39)/2
 762 0082 F000     		.2byte	(.L48-.L39)/2
 763 0084 0A01     		.2byte	(.L49-.L39)/2
 764              		.p2align 1
 765              	.L38:
 766              	.LVL81:
 403:frucd_display.c ****                     // only draw rectangle if color changed
 767              		.loc 1 403 0
 768 0086 B54B     		ldr	r3, .L71+8
 769 0088 9A42     		cmp	r2, r3
 770 008a 0ED0     		beq	.L50
 405:frucd_display.c ****                     last_state_color = color;
 771              		.loc 1 405 0
 772 008c 6A46     		mov	r2, sp
 773 008e 1421     		movs	r1, #20
 774 0090 525E     		ldrsh	r2, [r2, r1]
 775 0092 6946     		mov	r1, sp
 776 0094 1020     		movs	r0, #16
 777 0096 095E     		ldrsh	r1, [r1, r0]
 778 0098 6846     		mov	r0, sp
 779 009a 23B2     		sxth	r3, r4
 780 009c 0C24     		movs	r4, #12
 781 009e 005F     		ldrsh	r0, [r0, r4]
 782 00a0 AE4C     		ldr	r4, .L71+8
 783 00a2 0094     		str	r4, [sp]
 784 00a4 FFF7FEFF 		bl	UG_FillFrame
 785              	.LVL82:
 406:frucd_display.c ****                 }
 786              		.loc 1 406 0
 787 00a8 2C60     		str	r4, [r5]
ARM GAS  C:\Users\leoja\AppData\Local\Temp\ccM6wJLr.s 			page 24


 788              	.L50:
 408:frucd_display.c ****                 break;
 789              		.loc 1 408 0
 790 00aa AC4B     		ldr	r3, .L71+8
 791 00ac AC4A     		ldr	r2, .L71+12
 792 00ae 0093     		str	r3, [sp]
 793 00b0 0023     		movs	r3, #0
 794 00b2 32E0     		b	.L70
 795              	.LVL83:
 796              	.L40:
 412:frucd_display.c ****                     // only draw rectangle if color changed
 797              		.loc 1 412 0
 798 00b4 FF23     		movs	r3, #255
 799 00b6 1B04     		lsls	r3, r3, #16
 800 00b8 9A42     		cmp	r2, r3
 801 00ba 0FD0     		beq	.L52
 414:frucd_display.c ****                     last_state_color = color;
 802              		.loc 1 414 0
 803 00bc 6A46     		mov	r2, sp
 804 00be 1421     		movs	r1, #20
 805 00c0 525E     		ldrsh	r2, [r2, r1]
 806 00c2 6946     		mov	r1, sp
 807 00c4 1020     		movs	r0, #16
 808 00c6 095E     		ldrsh	r1, [r1, r0]
 809 00c8 6846     		mov	r0, sp
 810 00ca 23B2     		sxth	r3, r4
 811 00cc 0C24     		movs	r4, #12
 812 00ce 005F     		ldrsh	r0, [r0, r4]
 813 00d0 FF24     		movs	r4, #255
 814 00d2 2404     		lsls	r4, r4, #16
 815 00d4 0094     		str	r4, [sp]
 816 00d6 FFF7FEFF 		bl	UG_FillFrame
 817              	.LVL84:
 415:frucd_display.c ****                 }
 818              		.loc 1 415 0
 819 00da 2C60     		str	r4, [r5]
 820              	.L52:
 417:frucd_display.c ****                 break;
 821              		.loc 1 417 0
 822 00dc FF23     		movs	r3, #255
 823 00de 1B04     		lsls	r3, r3, #16
 824 00e0 0093     		str	r3, [sp]
 825 00e2 A04A     		ldr	r2, .L71+16
 826 00e4 0023     		movs	r3, #0
 827 00e6 18E0     		b	.L70
 828              	.LVL85:
 829              	.L41:
 421:frucd_display.c ****                     // only draw rectangle if color changed
 830              		.loc 1 421 0
 831 00e8 FF23     		movs	r3, #255
 832 00ea 1B04     		lsls	r3, r3, #16
 833 00ec 9A42     		cmp	r2, r3
 834 00ee 0FD0     		beq	.L53
 423:frucd_display.c ****                     last_state_color = color;
 835              		.loc 1 423 0
 836 00f0 6A46     		mov	r2, sp
 837 00f2 1421     		movs	r1, #20
ARM GAS  C:\Users\leoja\AppData\Local\Temp\ccM6wJLr.s 			page 25


 838 00f4 525E     		ldrsh	r2, [r2, r1]
 839 00f6 6946     		mov	r1, sp
 840 00f8 1020     		movs	r0, #16
 841 00fa 095E     		ldrsh	r1, [r1, r0]
 842 00fc 6846     		mov	r0, sp
 843 00fe 23B2     		sxth	r3, r4
 844 0100 0C24     		movs	r4, #12
 845 0102 005F     		ldrsh	r0, [r0, r4]
 846 0104 FF24     		movs	r4, #255
 847 0106 2404     		lsls	r4, r4, #16
 848 0108 0094     		str	r4, [sp]
 849 010a FFF7FEFF 		bl	UG_FillFrame
 850              	.LVL86:
 424:frucd_display.c ****                 }
 851              		.loc 1 424 0
 852 010e 2C60     		str	r4, [r5]
 853              	.L53:
 426:frucd_display.c ****                 break;
 854              		.loc 1 426 0
 855 0110 FF23     		movs	r3, #255
 856 0112 1B04     		lsls	r3, r3, #16
 857 0114 0093     		str	r3, [sp]
 858 0116 0023     		movs	r3, #0
 859 0118 934A     		ldr	r2, .L71+20
 860              	.LVL87:
 861              	.L70:
 862 011a 3900     		movs	r1, r7
 863 011c 11E1     		b	.L69
 864              	.L42:
 865              	.LVL88:
 430:frucd_display.c ****                     // only draw rectangle if color changed
 866              		.loc 1 430 0
 867 011e FF23     		movs	r3, #255
 868 0120 1B04     		lsls	r3, r3, #16
 869 0122 9A42     		cmp	r2, r3
 870 0124 0FD0     		beq	.L54
 432:frucd_display.c ****                     last_state_color = color;
 871              		.loc 1 432 0
 872 0126 6A46     		mov	r2, sp
 873 0128 1421     		movs	r1, #20
 874 012a 525E     		ldrsh	r2, [r2, r1]
 875 012c 6946     		mov	r1, sp
 876 012e 1020     		movs	r0, #16
 877 0130 095E     		ldrsh	r1, [r1, r0]
 878 0132 6846     		mov	r0, sp
 879 0134 23B2     		sxth	r3, r4
 880 0136 0C24     		movs	r4, #12
 881 0138 005F     		ldrsh	r0, [r0, r4]
 882 013a FF24     		movs	r4, #255
 883 013c 2404     		lsls	r4, r4, #16
 884 013e 0094     		str	r4, [sp]
 885 0140 FFF7FEFF 		bl	UG_FillFrame
 886              	.LVL89:
 433:frucd_display.c ****                 }
 887              		.loc 1 433 0
 888 0144 2C60     		str	r4, [r5]
 889              	.L54:
ARM GAS  C:\Users\leoja\AppData\Local\Temp\ccM6wJLr.s 			page 26


 435:frucd_display.c ****                 break;
 890              		.loc 1 435 0
 891 0146 FF23     		movs	r3, #255
 892 0148 1B04     		lsls	r3, r3, #16
 893 014a 0093     		str	r3, [sp]
 894 014c 874A     		ldr	r2, .L71+24
 895 014e 0023     		movs	r3, #0
 896 0150 E3E7     		b	.L70
 897              	.LVL90:
 898              	.L43:
 439:frucd_display.c ****                     // only draw rectangle if color changed
 899              		.loc 1 439 0
 900 0152 FF23     		movs	r3, #255
 901 0154 1B04     		lsls	r3, r3, #16
 902 0156 9A42     		cmp	r2, r3
 903 0158 0FD0     		beq	.L55
 441:frucd_display.c ****                     last_state_color = color;
 904              		.loc 1 441 0
 905 015a 6A46     		mov	r2, sp
 906 015c 1421     		movs	r1, #20
 907 015e 525E     		ldrsh	r2, [r2, r1]
 908 0160 6946     		mov	r1, sp
 909 0162 1020     		movs	r0, #16
 910 0164 095E     		ldrsh	r1, [r1, r0]
 911 0166 6846     		mov	r0, sp
 912 0168 23B2     		sxth	r3, r4
 913 016a 0C24     		movs	r4, #12
 914 016c 005F     		ldrsh	r0, [r0, r4]
 915 016e FF24     		movs	r4, #255
 916 0170 2404     		lsls	r4, r4, #16
 917 0172 0094     		str	r4, [sp]
 918 0174 FFF7FEFF 		bl	UG_FillFrame
 919              	.LVL91:
 442:frucd_display.c ****                 }
 920              		.loc 1 442 0
 921 0178 2C60     		str	r4, [r5]
 922              	.L55:
 444:frucd_display.c ****                 break;
 923              		.loc 1 444 0
 924 017a FF23     		movs	r3, #255
 925 017c 1B04     		lsls	r3, r3, #16
 926 017e 0093     		str	r3, [sp]
 927 0180 7B4A     		ldr	r2, .L71+28
 928 0182 0023     		movs	r3, #0
 929 0184 C9E7     		b	.L70
 930              	.LVL92:
 931              	.L44:
 448:frucd_display.c ****                     // only draw rectangle if color changed
 932              		.loc 1 448 0
 933 0186 FF23     		movs	r3, #255
 934 0188 1B04     		lsls	r3, r3, #16
 935 018a 9A42     		cmp	r2, r3
 936 018c 0FD0     		beq	.L56
 450:frucd_display.c ****                     last_state_color = color;
 937              		.loc 1 450 0
 938 018e 6A46     		mov	r2, sp
 939 0190 1421     		movs	r1, #20
ARM GAS  C:\Users\leoja\AppData\Local\Temp\ccM6wJLr.s 			page 27


 940 0192 525E     		ldrsh	r2, [r2, r1]
 941 0194 6946     		mov	r1, sp
 942 0196 1020     		movs	r0, #16
 943 0198 095E     		ldrsh	r1, [r1, r0]
 944 019a 6846     		mov	r0, sp
 945 019c 23B2     		sxth	r3, r4
 946 019e 0C24     		movs	r4, #12
 947 01a0 005F     		ldrsh	r0, [r0, r4]
 948 01a2 FF24     		movs	r4, #255
 949 01a4 2404     		lsls	r4, r4, #16
 950 01a6 0094     		str	r4, [sp]
 951 01a8 FFF7FEFF 		bl	UG_FillFrame
 952              	.LVL93:
 451:frucd_display.c ****                 }
 953              		.loc 1 451 0
 954 01ac 2C60     		str	r4, [r5]
 955              	.L56:
 453:frucd_display.c ****                 break;
 956              		.loc 1 453 0
 957 01ae FF23     		movs	r3, #255
 958 01b0 1B04     		lsls	r3, r3, #16
 959 01b2 0093     		str	r3, [sp]
 960 01b4 6F4A     		ldr	r2, .L71+32
 961 01b6 0023     		movs	r3, #0
 962 01b8 AFE7     		b	.L70
 963              	.LVL94:
 964              	.L45:
 457:frucd_display.c ****                     // only draw rectangle if color changed
 965              		.loc 1 457 0
 966 01ba 684B     		ldr	r3, .L71+8
 967 01bc 9A42     		cmp	r2, r3
 968 01be 0ED0     		beq	.L57
 459:frucd_display.c ****                     last_state_color = color;
 969              		.loc 1 459 0
 970 01c0 6A46     		mov	r2, sp
 971 01c2 1421     		movs	r1, #20
 972 01c4 525E     		ldrsh	r2, [r2, r1]
 973 01c6 6946     		mov	r1, sp
 974 01c8 1020     		movs	r0, #16
 975 01ca 095E     		ldrsh	r1, [r1, r0]
 976 01cc 6846     		mov	r0, sp
 977 01ce 23B2     		sxth	r3, r4
 978 01d0 0C24     		movs	r4, #12
 979 01d2 005F     		ldrsh	r0, [r0, r4]
 980 01d4 614C     		ldr	r4, .L71+8
 981 01d6 0094     		str	r4, [sp]
 982 01d8 FFF7FEFF 		bl	UG_FillFrame
 983              	.LVL95:
 460:frucd_display.c ****                 }
 984              		.loc 1 460 0
 985 01dc 2C60     		str	r4, [r5]
 986              	.L57:
 462:frucd_display.c ****                 break;
 987              		.loc 1 462 0
 988 01de 5F4B     		ldr	r3, .L71+8
 989 01e0 654A     		ldr	r2, .L71+36
 990 01e2 0093     		str	r3, [sp]
ARM GAS  C:\Users\leoja\AppData\Local\Temp\ccM6wJLr.s 			page 28


 991 01e4 0023     		movs	r3, #0
 992 01e6 98E7     		b	.L70
 993              	.LVL96:
 994              	.L46:
 466:frucd_display.c ****                     // only draw rectangle if color changed
 995              		.loc 1 466 0
 996 01e8 FF23     		movs	r3, #255
 997 01ea 1B04     		lsls	r3, r3, #16
 998 01ec 9A42     		cmp	r2, r3
 999 01ee 0FD0     		beq	.L58
 468:frucd_display.c ****                     last_state_color = color;
 1000              		.loc 1 468 0
 1001 01f0 6A46     		mov	r2, sp
 1002 01f2 1421     		movs	r1, #20
 1003 01f4 525E     		ldrsh	r2, [r2, r1]
 1004 01f6 6946     		mov	r1, sp
 1005 01f8 1020     		movs	r0, #16
 1006 01fa 095E     		ldrsh	r1, [r1, r0]
 1007 01fc 6846     		mov	r0, sp
 1008 01fe 23B2     		sxth	r3, r4
 1009 0200 0C24     		movs	r4, #12
 1010 0202 005F     		ldrsh	r0, [r0, r4]
 1011 0204 FF24     		movs	r4, #255
 1012 0206 2404     		lsls	r4, r4, #16
 1013 0208 0094     		str	r4, [sp]
 1014 020a FFF7FEFF 		bl	UG_FillFrame
 1015              	.LVL97:
 469:frucd_display.c ****                 }
 1016              		.loc 1 469 0
 1017 020e 2C60     		str	r4, [r5]
 1018              	.L58:
 471:frucd_display.c ****                 break;
 1019              		.loc 1 471 0
 1020 0210 FF23     		movs	r3, #255
 1021 0212 1B04     		lsls	r3, r3, #16
 1022 0214 0093     		str	r3, [sp]
 1023 0216 594A     		ldr	r2, .L71+40
 1024 0218 0023     		movs	r3, #0
 1025 021a 7EE7     		b	.L70
 1026              	.LVL98:
 1027              	.L47:
 475:frucd_display.c ****                     // only draw rectangle if color changed
 1028              		.loc 1 475 0
 1029 021c FF23     		movs	r3, #255
 1030 021e 1B04     		lsls	r3, r3, #16
 1031 0220 9A42     		cmp	r2, r3
 1032 0222 0FD0     		beq	.L59
 477:frucd_display.c ****                     last_state_color = color;
 1033              		.loc 1 477 0
 1034 0224 6A46     		mov	r2, sp
 1035 0226 1421     		movs	r1, #20
 1036 0228 525E     		ldrsh	r2, [r2, r1]
 1037 022a 6946     		mov	r1, sp
 1038 022c 1020     		movs	r0, #16
 1039 022e 095E     		ldrsh	r1, [r1, r0]
 1040 0230 6846     		mov	r0, sp
 1041 0232 23B2     		sxth	r3, r4
ARM GAS  C:\Users\leoja\AppData\Local\Temp\ccM6wJLr.s 			page 29


 1042 0234 0C24     		movs	r4, #12
 1043 0236 005F     		ldrsh	r0, [r0, r4]
 1044 0238 FF24     		movs	r4, #255
 1045 023a 2404     		lsls	r4, r4, #16
 1046 023c 0094     		str	r4, [sp]
 1047 023e FFF7FEFF 		bl	UG_FillFrame
 1048              	.LVL99:
 478:frucd_display.c ****                 }
 1049              		.loc 1 478 0
 1050 0242 2C60     		str	r4, [r5]
 1051              	.L59:
 480:frucd_display.c ****                 break;
 1052              		.loc 1 480 0
 1053 0244 FF23     		movs	r3, #255
 1054 0246 1B04     		lsls	r3, r3, #16
 1055 0248 0093     		str	r3, [sp]
 1056 024a 4D4A     		ldr	r2, .L71+44
 1057 024c 0023     		movs	r3, #0
 1058 024e 64E7     		b	.L70
 1059              	.LVL100:
 1060              	.L48:
 484:frucd_display.c ****                     // only draw rectangle if color changed
 1061              		.loc 1 484 0
 1062 0250 FF23     		movs	r3, #255
 1063 0252 1B04     		lsls	r3, r3, #16
 1064 0254 9A42     		cmp	r2, r3
 1065 0256 0FD0     		beq	.L60
 486:frucd_display.c ****                     last_state_color = color;
 1066              		.loc 1 486 0
 1067 0258 6A46     		mov	r2, sp
 1068 025a 1421     		movs	r1, #20
 1069 025c 525E     		ldrsh	r2, [r2, r1]
 1070 025e 6946     		mov	r1, sp
 1071 0260 1020     		movs	r0, #16
 1072 0262 095E     		ldrsh	r1, [r1, r0]
 1073 0264 6846     		mov	r0, sp
 1074 0266 23B2     		sxth	r3, r4
 1075 0268 0C24     		movs	r4, #12
 1076 026a 005F     		ldrsh	r0, [r0, r4]
 1077 026c FF24     		movs	r4, #255
 1078 026e 2404     		lsls	r4, r4, #16
 1079 0270 0094     		str	r4, [sp]
 1080 0272 FFF7FEFF 		bl	UG_FillFrame
 1081              	.LVL101:
 487:frucd_display.c ****                 }
 1082              		.loc 1 487 0
 1083 0276 2C60     		str	r4, [r5]
 1084              	.L60:
 489:frucd_display.c ****                 break;
 1085              		.loc 1 489 0
 1086 0278 FF23     		movs	r3, #255
 1087 027a 1B04     		lsls	r3, r3, #16
 1088 027c 0093     		str	r3, [sp]
 1089 027e 414A     		ldr	r2, .L71+48
 1090 0280 0023     		movs	r3, #0
 1091 0282 4AE7     		b	.L70
 1092              	.LVL102:
ARM GAS  C:\Users\leoja\AppData\Local\Temp\ccM6wJLr.s 			page 30


 1093              	.L49:
 493:frucd_display.c ****                     // only draw rectangle if color changed
 1094              		.loc 1 493 0
 1095 0284 FF23     		movs	r3, #255
 1096 0286 1B04     		lsls	r3, r3, #16
 1097 0288 9A42     		cmp	r2, r3
 1098 028a 0FD0     		beq	.L61
 495:frucd_display.c ****                     last_state_color = color;
 1099              		.loc 1 495 0
 1100 028c 6A46     		mov	r2, sp
 1101 028e 1421     		movs	r1, #20
 1102 0290 525E     		ldrsh	r2, [r2, r1]
 1103 0292 6946     		mov	r1, sp
 1104 0294 1020     		movs	r0, #16
 1105 0296 095E     		ldrsh	r1, [r1, r0]
 1106 0298 6846     		mov	r0, sp
 1107 029a 23B2     		sxth	r3, r4
 1108 029c 0C24     		movs	r4, #12
 1109 029e 005F     		ldrsh	r0, [r0, r4]
 1110 02a0 FF24     		movs	r4, #255
 1111 02a2 2404     		lsls	r4, r4, #16
 1112 02a4 0094     		str	r4, [sp]
 1113 02a6 FFF7FEFF 		bl	UG_FillFrame
 1114              	.LVL103:
 496:frucd_display.c ****                 }
 1115              		.loc 1 496 0
 1116 02aa 2C60     		str	r4, [r5]
 1117              	.L61:
 498:frucd_display.c ****                 break;
 1118              		.loc 1 498 0
 1119 02ac FF23     		movs	r3, #255
 1120 02ae 1B04     		lsls	r3, r3, #16
 1121 02b0 0093     		str	r3, [sp]
 1122 02b2 354A     		ldr	r2, .L71+52
 1123 02b4 0023     		movs	r3, #0
 1124 02b6 30E7     		b	.L70
 1125              	.LVL104:
 1126              	.L37:
 1127              		.loc 1 502 0
 1128 02b8 FF23     		movs	r3, #255
 1129 02ba 1B04     		lsls	r3, r3, #16
 1130 02bc 9A42     		cmp	r2, r3
 1131 02be 0FD0     		beq	.L62
 503:frucd_display.c ****                     // only draw rectangle if color changed
 504:frucd_display.c ****                     UG_FillFrame(x1, y1, x2, y2, color);
 1132              		.loc 1 504 0
 1133 02c0 6A46     		mov	r2, sp
 1134 02c2 1421     		movs	r1, #20
 1135 02c4 525E     		ldrsh	r2, [r2, r1]
 1136 02c6 6946     		mov	r1, sp
 1137 02c8 1020     		movs	r0, #16
 1138 02ca 095E     		ldrsh	r1, [r1, r0]
 1139 02cc 6846     		mov	r0, sp
 1140 02ce 23B2     		sxth	r3, r4
 1141 02d0 0C24     		movs	r4, #12
 1142 02d2 005F     		ldrsh	r0, [r0, r4]
 1143 02d4 FF24     		movs	r4, #255
ARM GAS  C:\Users\leoja\AppData\Local\Temp\ccM6wJLr.s 			page 31


 1144 02d6 2404     		lsls	r4, r4, #16
 1145 02d8 0094     		str	r4, [sp]
 1146 02da FFF7FEFF 		bl	UG_FillFrame
 1147              	.LVL105:
 505:frucd_display.c ****                     last_state_color = color;
 1148              		.loc 1 505 0
 1149 02de 2C60     		str	r4, [r5]
 1150              	.L62:
 506:frucd_display.c ****                 }
 507:frucd_display.c ****                 UG_PutColorString(xFont, yFont, "YO WTF?", C_BLACK, color); //whitespace to clear
 1151              		.loc 1 507 0
 1152 02e0 FF23     		movs	r3, #255
 1153 02e2 1B04     		lsls	r3, r3, #16
 1154 02e4 0093     		str	r3, [sp]
 1155 02e6 294A     		ldr	r2, .L71+56
 1156 02e8 0023     		movs	r3, #0
 1157 02ea 16E7     		b	.L70
 1158              	.LVL106:
 1159              	.L36:
 1160              	.LBE2:
 508:frucd_display.c ****                 break;
 509:frucd_display.c ****            
 510:frucd_display.c ****         }
 511:frucd_display.c ****     } else {
 512:frucd_display.c ****         // *************** NO FAULTS ***************
 513:frucd_display.c ****         color = C_GREEN;
 514:frucd_display.c ****         if (color != last_state_color) {
 1161              		.loc 1 514 0
 1162 02ec FF27     		movs	r7, #255
 1163 02ee 2B68     		ldr	r3, [r5]
 1164 02f0 3F02     		lsls	r7, r7, #8
 1165 02f2 BB42     		cmp	r3, r7
 1166 02f4 0DD0     		beq	.L63
 515:frucd_display.c ****             // only draw rectangle if color changed
 516:frucd_display.c ****             UG_FillFrame(x1, y1, x2, y2, color);
 1167              		.loc 1 516 0
 1168 02f6 6A46     		mov	r2, sp
 1169 02f8 1421     		movs	r1, #20
 1170 02fa 525E     		ldrsh	r2, [r2, r1]
 1171 02fc 6946     		mov	r1, sp
 1172 02fe 1020     		movs	r0, #16
 1173 0300 095E     		ldrsh	r1, [r1, r0]
 1174 0302 6846     		mov	r0, sp
 1175 0304 23B2     		sxth	r3, r4
 1176 0306 0C24     		movs	r4, #12
 1177 0308 005F     		ldrsh	r0, [r0, r4]
 1178 030a 0097     		str	r7, [sp]
 1179 030c FFF7FEFF 		bl	UG_FillFrame
 1180              	.LVL107:
 517:frucd_display.c ****             last_state_color = color;
 1181              		.loc 1 517 0
 1182 0310 2F60     		str	r7, [r5]
 1183              	.L63:
 518:frucd_display.c ****         }
 519:frucd_display.c ****         switch(state) {
 1184              		.loc 1 519 0
 1185 0312 032E     		cmp	r6, #3
ARM GAS  C:\Users\leoja\AppData\Local\Temp\ccM6wJLr.s 			page 32


 1186 0314 18D8     		bhi	.L51
 1187 0316 6B46     		mov	r3, sp
 1188 0318 1C21     		movs	r1, #28
 1189 031a 595E     		ldrsh	r1, [r3, r1]
 1190 031c 6B46     		mov	r3, sp
 1191 031e 3000     		movs	r0, r6
 1192 0320 1826     		movs	r6, #24
 1193 0322 9E5F     		ldrsh	r6, [r3, r6]
 1194 0324 FF23     		movs	r3, #255
 1195 0326 1B02     		lsls	r3, r3, #8
 520:frucd_display.c ****             case LV:
 521:frucd_display.c ****                 UG_PutColorString(xFont, yFont, "    LV    ", C_BLACK, color);
 522:frucd_display.c ****                 break;
 523:frucd_display.c ****             case PRECHARGING:
 524:frucd_display.c ****                 UG_PutColorString(xFont, yFont, "PRECHARGE ", C_BLACK, color);
 525:frucd_display.c ****                 break;
 526:frucd_display.c ****             case HV_ENABLED:
 527:frucd_display.c ****                 UG_PutColorString(xFont, yFont, "HV ENABLED", C_BLACK, color);
 528:frucd_display.c ****                 break;
 529:frucd_display.c ****             case DRIVE:
 530:frucd_display.c ****                 UG_PutColorString(xFont, yFont, "  DRIVE   ", C_BLACK, color);
 1196              		.loc 1 530 0
 1197 0328 0093     		str	r3, [sp]
 1198 032a 0023     		movs	r3, #0
 519:frucd_display.c ****             case LV:
 1199              		.loc 1 519 0
 1200 032c FFF7FEFF 		bl	__gnu_thumb1_case_uqi
 1201              	.L65:
 1202 0330 02       		.byte	(.L64-.L65)/2
 1203 0331 04       		.byte	(.L66-.L65)/2
 1204 0332 06       		.byte	(.L67-.L65)/2
 1205 0333 08       		.byte	(.L68-.L65)/2
 1206              		.p2align 1
 1207              	.L64:
 521:frucd_display.c ****                 break;
 1208              		.loc 1 521 0
 1209 0334 164A     		ldr	r2, .L71+60
 1210 0336 04E0     		b	.L69
 1211              	.L66:
 524:frucd_display.c ****                 break;
 1212              		.loc 1 524 0
 1213 0338 164A     		ldr	r2, .L71+64
 1214 033a 02E0     		b	.L69
 1215              	.L67:
 527:frucd_display.c ****                 break;
 1216              		.loc 1 527 0
 1217 033c 164A     		ldr	r2, .L71+68
 1218 033e 00E0     		b	.L69
 1219              	.L68:
 1220              		.loc 1 530 0
 1221 0340 164A     		ldr	r2, .L71+72
 1222              	.LVL108:
 1223              	.L69:
 1224 0342 3000     		movs	r0, r6
 1225 0344 FFF7FEFF 		bl	UG_PutColorString
 1226              	.LVL109:
 1227              	.L51:
ARM GAS  C:\Users\leoja\AppData\Local\Temp\ccM6wJLr.s 			page 33


 531:frucd_display.c ****                 break;
 532:frucd_display.c ****         }
 533:frucd_display.c ****     }
 534:frucd_display.c ****      UG_FontSelect(&FONT_12X16);
 1228              		.loc 1 534 0
 1229 0348 1548     		ldr	r0, .L71+76
 1230 034a FFF7FEFF 		bl	UG_FontSelect
 1231              	.LVL110:
 535:frucd_display.c **** }
 1232              		.loc 1 535 0
 1233 034e 09B0     		add	sp, sp, #36
 1234              		@ sp needed
 1235 0350 F0BD     		pop	{r4, r5, r6, r7, pc}
 1236              	.L72:
 1237 0352 C046     		.align	2
 1238              	.L71:
 1239 0354 00000000 		.word	FONT_32X53
 1240 0358 00000000 		.word	last_state_color
 1241 035c 00FFFF00 		.word	16776960
 1242 0360 65000000 		.word	.LC34
 1243 0364 70000000 		.word	.LC36
 1244 0368 7B000000 		.word	.LC38
 1245 036c 86000000 		.word	.LC40
 1246 0370 91000000 		.word	.LC42
 1247 0374 9C000000 		.word	.LC44
 1248 0378 A7000000 		.word	.LC46
 1249 037c B2000000 		.word	.LC48
 1250 0380 BD000000 		.word	.LC50
 1251 0384 C8000000 		.word	.LC52
 1252 0388 D2000000 		.word	.LC54
 1253 038c DB000000 		.word	.LC56
 1254 0390 E3000000 		.word	.LC58
 1255 0394 EE000000 		.word	.LC60
 1256 0398 F9000000 		.word	.LC62
 1257 039c 04010000 		.word	.LC64
 1258 03a0 00000000 		.word	FONT_12X16
 1259              		.cfi_endproc
 1260              	.LFE40:
 1261              		.size	disp_state, .-disp_state
 1262              		.global	__aeabi_uidiv
 1263              		.section	.text.disp_glv_v,"ax",%progbits
 1264              		.align	1
 1265              		.global	disp_glv_v
 1266              		.code	16
 1267              		.thumb_func
 1268              		.type	disp_glv_v, %function
 1269              	disp_glv_v:
 1270              	.LFB41:
 536:frucd_display.c **** 
 537:frucd_display.c **** /*
 538:frucd_display.c **** 
 539:frucd_display.c **** void disp_glv_v(uint32_t data) {
 540:frucd_display.c ****     // translate from voltage divider measurement to true voltage
 541:frucd_display.c ****     // y = 0.4295x + 18.254
 542:frucd_display.c ****     data *= 859;
 543:frucd_display.c ****     data /= 2000; // 0.4295
 544:frucd_display.c ****     data += 18;
ARM GAS  C:\Users\leoja\AppData\Local\Temp\ccM6wJLr.s 			page 34


 545:frucd_display.c ****     UG_COLOR color;
 546:frucd_display.c ****     if (data > 1150) {
 547:frucd_display.c ****         color = C_GREEN;
 548:frucd_display.c ****     } else if (data > 1100) {
 549:frucd_display.c ****         color = C_YELLOW;
 550:frucd_display.c ****     } else if (data > 1050) {
 551:frucd_display.c ****         color = C_ORANGE;
 552:frucd_display.c ****     } else {
 553:frucd_display.c ****         color = C_RED;
 554:frucd_display.c ****     }
 555:frucd_display.c ****     if (color != last_glv_v_color) {
 556:frucd_display.c ****         // only draw rectangle if color changed
 557:frucd_display.c ****         UG_FillFrame(95, 230, 182, 260, color);
 558:frucd_display.c ****         last_glv_v_color = color;
 559:frucd_display.c ****     }
 560:frucd_display.c ****     char data_s[7];
 561:frucd_display.c ****     sprintf(data_s, "%d", data);
 562:frucd_display.c ****     // handle 3 digit cases; 2 and 1 are practically impossible
 563:frucd_display.c ****     if (data < 1000) {
 564:frucd_display.c ****         data_s[3] = data_s[2];
 565:frucd_display.c ****         data_s[2] = data_s[1];
 566:frucd_display.c ****         data_s[1] = data_s[0];  
 567:frucd_display.c ****         data_s[0] = ' ';
 568:frucd_display.c ****     }
 569:frucd_display.c ****     // shift over fractional part
 570:frucd_display.c ****     data_s[4] = data_s[3];
 571:frucd_display.c ****     data_s[3] = data_s[2];
 572:frucd_display.c ****     // add syntax
 573:frucd_display.c ****     data_s[2] = '.';
 574:frucd_display.c ****     data_s[5] = 'V';
 575:frucd_display.c ****     data_s[6] = '\0';
 576:frucd_display.c ****     UG_PutColorString(100, 240, data_s, C_BLACK, color);
 577:frucd_display.c **** }
 578:frucd_display.c **** 
 579:frucd_display.c **** */
 580:frucd_display.c **** 
 581:frucd_display.c **** 
 582:frucd_display.c **** void disp_glv_v(uint32_t data, uint16_t x1, uint16_t y1, uint16_t x2, uint16_t y2, uint8_t size) { 
 1271              		.loc 1 582 0
 1272              		.cfi_startproc
 1273              		@ args = 8, pretend = 0, frame = 32
 1274              		@ frame_needed = 0, uses_anonymous_args = 0
 1275              	.LVL111:
 1276 0000 F0B5     		push	{r4, r5, r6, r7, lr}
 1277              		.cfi_def_cfa_offset 20
 1278              		.cfi_offset 4, -20
 1279              		.cfi_offset 5, -16
 1280              		.cfi_offset 6, -12
 1281              		.cfi_offset 7, -8
 1282              		.cfi_offset 14, -4
 1283 0002 8BB0     		sub	sp, sp, #44
 1284              		.cfi_def_cfa_offset 64
 1285              		.loc 1 582 0
 1286 0004 0493     		str	r3, [sp, #16]
 1287 0006 10AB     		add	r3, sp, #64
 1288              	.LVL112:
 1289 0008 1B88     		ldrh	r3, [r3]
ARM GAS  C:\Users\leoja\AppData\Local\Temp\ccM6wJLr.s 			page 35


 1290              	.LVL113:
 1291 000a 0392     		str	r2, [sp, #12]
 1292 000c 0593     		str	r3, [sp, #20]
 1293 000e 11AB     		add	r3, sp, #68
 1294              	.LVL114:
 1295 0010 1A78     		ldrb	r2, [r3]
 1296              	.LVL115:
 583:frucd_display.c ****     int xFont, yFont;
 584:frucd_display.c ****     int horizFontSize = 12 + 20*size;
 585:frucd_display.c ****     int stringSize;
 586:frucd_display.c ****     stringSize = 6;
 587:frucd_display.c ****     xFont = (x1 + x2)/2 - ((horizFontSize*stringSize)/2);
 1297              		.loc 1 587 0
 1298 0012 1423     		movs	r3, #20
 1299              	.LVL116:
 582:frucd_display.c ****     int xFont, yFont;
 1300              		.loc 1 582 0
 1301 0014 0E00     		movs	r6, r1
 1302              		.loc 1 587 0
 1303 0016 0621     		movs	r1, #6
 1304              	.LVL117:
 1305 0018 5343     		muls	r3, r2
 1306 001a 0C33     		adds	r3, r3, #12
 1307              	.LVL118:
 1308 001c 4B43     		muls	r3, r1
 1309              	.LVL119:
 1310 001e 0499     		ldr	r1, [sp, #16]
 582:frucd_display.c ****     int xFont, yFont;
 1311              		.loc 1 582 0
 1312 0020 0400     		movs	r4, r0
 1313              		.loc 1 587 0
 1314 0022 7018     		adds	r0, r6, r1
 1315              	.LVL120:
 1316 0024 5B10     		asrs	r3, r3, #1
 1317 0026 4010     		asrs	r0, r0, #1
 1318 0028 C31A     		subs	r3, r0, r3
 588:frucd_display.c ****     yFont = (y1 + y2)/2 - 5 - (size*17);    
 1319              		.loc 1 588 0
 1320 002a 0599     		ldr	r1, [sp, #20]
 587:frucd_display.c ****     yFont = (y1 + y2)/2 - 5 - (size*17);    
 1321              		.loc 1 587 0
 1322 002c 0693     		str	r3, [sp, #24]
 1323              	.LVL121:
 1324              		.loc 1 588 0
 1325 002e 039B     		ldr	r3, [sp, #12]
 1326              	.LVL122:
 1327 0030 5B18     		adds	r3, r3, r1
 1328 0032 1121     		movs	r1, #17
 1329 0034 4942     		rsbs	r1, r1, #0
 1330 0036 5143     		muls	r1, r2
 1331 0038 5B10     		asrs	r3, r3, #1
 1332 003a 053B     		subs	r3, r3, #5
 1333 003c 5B18     		adds	r3, r3, r1
 1334 003e 0793     		str	r3, [sp, #28]
 1335              	.LVL123:
 589:frucd_display.c ****     
 590:frucd_display.c ****     
ARM GAS  C:\Users\leoja\AppData\Local\Temp\ccM6wJLr.s 			page 36


 591:frucd_display.c ****     if(size == 1){
 1336              		.loc 1 591 0
 1337 0040 012A     		cmp	r2, #1
 1338 0042 02D1     		bne	.L74
 592:frucd_display.c ****         UG_FontSelect(&FONT_32X53);  
 1339              		.loc 1 592 0
 1340 0044 2C48     		ldr	r0, .L81
 1341 0046 FFF7FEFF 		bl	UG_FontSelect
 1342              	.LVL124:
 1343              	.L74:
 593:frucd_display.c ****     }
 594:frucd_display.c ****     // translate from voltage divider measurement to true voltage
 595:frucd_display.c ****     // y = 0.4295x + 18.254
 596:frucd_display.c ****     data *= 859;
 597:frucd_display.c ****     data /= 2000; // 0.4295
 1344              		.loc 1 597 0
 1345 004a FA21     		movs	r1, #250
 596:frucd_display.c ****     data /= 2000; // 0.4295
 1346              		.loc 1 596 0
 1347 004c 2B48     		ldr	r0, .L81+4
 1348              		.loc 1 597 0
 1349 004e C900     		lsls	r1, r1, #3
 596:frucd_display.c ****     data /= 2000; // 0.4295
 1350              		.loc 1 596 0
 1351 0050 6043     		muls	r0, r4
 1352              	.LVL125:
 1353              		.loc 1 597 0
 1354 0052 FFF7FEFF 		bl	__aeabi_uidiv
 1355              	.LVL126:
 598:frucd_display.c ****     data += 18;
 599:frucd_display.c ****     UG_COLOR color;
 600:frucd_display.c ****     if (data > 1150) {
 1356              		.loc 1 600 0
 1357 0056 2A4B     		ldr	r3, .L81+8
 598:frucd_display.c ****     data += 18;
 1358              		.loc 1 598 0
 1359 0058 1230     		adds	r0, r0, #18
 1360              	.LVL127:
 1361 005a 0500     		movs	r5, r0
 1362              	.LVL128:
 1363              		.loc 1 600 0
 1364 005c 9842     		cmp	r0, r3
 1365 005e 08D8     		bhi	.L78
 601:frucd_display.c ****         color = C_GREEN;
 602:frucd_display.c ****     } else if (data > 1100) {
 1366              		.loc 1 602 0
 1367 0060 284B     		ldr	r3, .L81+12
 1368 0062 9842     		cmp	r0, r3
 1369 0064 08D8     		bhi	.L79
 603:frucd_display.c ****         color = C_YELLOW;
 604:frucd_display.c ****     } else if (data > 1050) {
 1370              		.loc 1 604 0
 1371 0066 284B     		ldr	r3, .L81+16
 1372 0068 9842     		cmp	r0, r3
 1373 006a 07D8     		bhi	.L80
 605:frucd_display.c ****         color = C_ORANGE;
 606:frucd_display.c ****     } else {
ARM GAS  C:\Users\leoja\AppData\Local\Temp\ccM6wJLr.s 			page 37


 607:frucd_display.c ****         color = C_RED;
 1374              		.loc 1 607 0
 1375 006c FF24     		movs	r4, #255
 1376 006e 2404     		lsls	r4, r4, #16
 1377 0070 05E0     		b	.L75
 1378              	.L78:
 601:frucd_display.c ****     } else if (data > 1100) {
 1379              		.loc 1 601 0
 1380 0072 FF24     		movs	r4, #255
 1381 0074 2402     		lsls	r4, r4, #8
 1382 0076 02E0     		b	.L75
 1383              	.L79:
 603:frucd_display.c ****         color = C_YELLOW;
 1384              		.loc 1 603 0
 1385 0078 244C     		ldr	r4, .L81+20
 1386 007a 00E0     		b	.L75
 1387              	.L80:
 605:frucd_display.c ****         color = C_ORANGE;
 1388              		.loc 1 605 0
 1389 007c 244C     		ldr	r4, .L81+24
 1390              	.L75:
 1391              	.LVL129:
 608:frucd_display.c ****     }
 609:frucd_display.c ****     if (color != last_glv_v_color) {
 1392              		.loc 1 609 0
 1393 007e 254F     		ldr	r7, .L81+28
 1394 0080 3B68     		ldr	r3, [r7]
 1395 0082 9C42     		cmp	r4, r3
 1396 0084 0DD0     		beq	.L76
 610:frucd_display.c ****         // only draw rectangle if color changed
 611:frucd_display.c ****         UG_FillFrame(x1, y1, x2, y2, color);
 1397              		.loc 1 611 0
 1398 0086 6B46     		mov	r3, sp
 1399 0088 1422     		movs	r2, #20
 1400 008a 9B5E     		ldrsh	r3, [r3, r2]
 1401 008c 6A46     		mov	r2, sp
 1402 008e 1021     		movs	r1, #16
 1403 0090 525E     		ldrsh	r2, [r2, r1]
 1404 0092 6946     		mov	r1, sp
 1405 0094 0C20     		movs	r0, #12
 1406 0096 095E     		ldrsh	r1, [r1, r0]
 1407              	.LVL130:
 1408 0098 30B2     		sxth	r0, r6
 1409 009a 0094     		str	r4, [sp]
 1410 009c FFF7FEFF 		bl	UG_FillFrame
 1411              	.LVL131:
 612:frucd_display.c ****         last_glv_v_color = color;
 1412              		.loc 1 612 0
 1413 00a0 3C60     		str	r4, [r7]
 1414              	.L76:
 613:frucd_display.c ****     }
 614:frucd_display.c ****     char data_s[7];
 615:frucd_display.c ****     sprintf(data_s, "%lu", data);
 1415              		.loc 1 615 0
 1416 00a2 08AE     		add	r6, sp, #32
 1417 00a4 2A00     		movs	r2, r5
 1418 00a6 1C49     		ldr	r1, .L81+32
ARM GAS  C:\Users\leoja\AppData\Local\Temp\ccM6wJLr.s 			page 38


 1419 00a8 3000     		movs	r0, r6
 1420 00aa FFF7FEFF 		bl	sprintf
 1421              	.LVL132:
 616:frucd_display.c ****     // handle 3 digit cases; 2 and 1 are practically impossible
 617:frucd_display.c ****     if (data < 1000) {
 1422              		.loc 1 617 0
 1423 00ae 1B4B     		ldr	r3, .L81+36
 1424 00b0 9D42     		cmp	r5, r3
 1425 00b2 07D8     		bhi	.L77
 618:frucd_display.c ****         data_s[3] = data_s[2];
 1426              		.loc 1 618 0
 1427 00b4 B378     		ldrb	r3, [r6, #2]
 1428 00b6 F370     		strb	r3, [r6, #3]
 619:frucd_display.c ****         data_s[2] = data_s[1];
 1429              		.loc 1 619 0
 1430 00b8 7378     		ldrb	r3, [r6, #1]
 1431 00ba B370     		strb	r3, [r6, #2]
 620:frucd_display.c ****         data_s[1] = data_s[0];  
 1432              		.loc 1 620 0
 1433 00bc 3378     		ldrb	r3, [r6]
 1434 00be 7370     		strb	r3, [r6, #1]
 621:frucd_display.c ****         data_s[0] = ' ';
 1435              		.loc 1 621 0
 1436 00c0 2023     		movs	r3, #32
 1437 00c2 3370     		strb	r3, [r6]
 1438              	.L77:
 622:frucd_display.c ****     }
 623:frucd_display.c ****     // shift over fractional part
 624:frucd_display.c ****     data_s[4] = data_s[3];
 1439              		.loc 1 624 0
 1440 00c4 F378     		ldrb	r3, [r6, #3]
 625:frucd_display.c ****     data_s[3] = data_s[2];
 626:frucd_display.c ****     // add syntax
 627:frucd_display.c ****     data_s[2] = '.';
 628:frucd_display.c ****     data_s[5] = 'V';
 629:frucd_display.c ****     data_s[6] = '\0';
 630:frucd_display.c ****     UG_PutColorString(xFont, yFont, data_s, C_BLACK, color);
 1441              		.loc 1 630 0
 1442 00c6 6A46     		mov	r2, sp
 624:frucd_display.c ****     data_s[3] = data_s[2];
 1443              		.loc 1 624 0
 1444 00c8 3371     		strb	r3, [r6, #4]
 625:frucd_display.c ****     data_s[3] = data_s[2];
 1445              		.loc 1 625 0
 1446 00ca B378     		ldrb	r3, [r6, #2]
 1447              		.loc 1 630 0
 1448 00cc 1C21     		movs	r1, #28
 1449 00ce 515E     		ldrsh	r1, [r2, r1]
 625:frucd_display.c ****     data_s[3] = data_s[2];
 1450              		.loc 1 625 0
 1451 00d0 F370     		strb	r3, [r6, #3]
 627:frucd_display.c ****     data_s[5] = 'V';
 1452              		.loc 1 627 0
 1453 00d2 2E23     		movs	r3, #46
 1454 00d4 B370     		strb	r3, [r6, #2]
 628:frucd_display.c ****     data_s[6] = '\0';
 1455              		.loc 1 628 0
ARM GAS  C:\Users\leoja\AppData\Local\Temp\ccM6wJLr.s 			page 39


 1456 00d6 2833     		adds	r3, r3, #40
 1457 00d8 7371     		strb	r3, [r6, #5]
 1458              		.loc 1 630 0
 1459 00da 6A46     		mov	r2, sp
 629:frucd_display.c ****     UG_PutColorString(xFont, yFont, data_s, C_BLACK, color);
 1460              		.loc 1 629 0
 1461 00dc 0023     		movs	r3, #0
 1462              		.loc 1 630 0
 1463 00de 1820     		movs	r0, #24
 1464 00e0 105E     		ldrsh	r0, [r2, r0]
 629:frucd_display.c ****     UG_PutColorString(xFont, yFont, data_s, C_BLACK, color);
 1465              		.loc 1 629 0
 1466 00e2 B371     		strb	r3, [r6, #6]
 1467              		.loc 1 630 0
 1468 00e4 3200     		movs	r2, r6
 1469 00e6 0094     		str	r4, [sp]
 1470 00e8 FFF7FEFF 		bl	UG_PutColorString
 1471              	.LVL133:
 631:frucd_display.c ****     UG_FontSelect(&FONT_12X16);
 1472              		.loc 1 631 0
 1473 00ec 0C48     		ldr	r0, .L81+40
 1474 00ee FFF7FEFF 		bl	UG_FontSelect
 1475              	.LVL134:
 632:frucd_display.c **** }
 1476              		.loc 1 632 0
 1477 00f2 0BB0     		add	sp, sp, #44
 1478              		@ sp needed
 1479              	.LVL135:
 1480              	.LVL136:
 1481 00f4 F0BD     		pop	{r4, r5, r6, r7, pc}
 1482              	.L82:
 1483 00f6 C046     		.align	2
 1484              	.L81:
 1485 00f8 00000000 		.word	FONT_32X53
 1486 00fc 5B030000 		.word	859
 1487 0100 7E040000 		.word	1150
 1488 0104 4C040000 		.word	1100
 1489 0108 1A040000 		.word	1050
 1490 010c 00FFFF00 		.word	16776960
 1491 0110 00A5FF00 		.word	16753920
 1492 0114 00000000 		.word	last_glv_v_color
 1493 0118 0F010000 		.word	.LC69
 1494 011c E7030000 		.word	999
 1495 0120 00000000 		.word	FONT_12X16
 1496              		.cfi_endproc
 1497              	.LFE41:
 1498              		.size	disp_glv_v, .-disp_glv_v
 1499              		.section	.text.disp_gen_temp,"ax",%progbits
 1500              		.align	1
 1501              		.global	disp_gen_temp
 1502              		.code	16
 1503              		.thumb_func
 1504              		.type	disp_gen_temp, %function
 1505              	disp_gen_temp:
 1506              	.LFB44:
 633:frucd_display.c **** 
 634:frucd_display.c **** 
ARM GAS  C:\Users\leoja\AppData\Local\Temp\ccM6wJLr.s 			page 40


 635:frucd_display.c **** /*
 636:frucd_display.c **** void disp_mc_temp(uint16_t data) {
 637:frucd_display.c ****     if (data >= 100) {
 638:frucd_display.c ****         // handle 3 digit cases
 639:frucd_display.c ****         UG_FillFrame(410, 185, 470, 215, C_GREEN);
 640:frucd_display.c ****         char data_s[5];
 641:frucd_display.c ****         sprintf(data_s, "%d", data);
 642:frucd_display.c ****         data_s[3] = 'C';
 643:frucd_display.c ****         data_s[4] = '\0';
 644:frucd_display.c ****         UG_PutColorString(415, 195, data_s, C_BLACK, C_GREEN);
 645:frucd_display.c ****     } else {
 646:frucd_display.c ****         // handle 2 digit cases
 647:frucd_display.c ****         UG_FillFrame(410, 185, 470, 215, C_GREEN);
 648:frucd_display.c ****         char data_s[4];
 649:frucd_display.c ****         sprintf(data_s, "%d", data);
 650:frucd_display.c ****         data_s[2] = 'C';
 651:frucd_display.c ****         data_s[3] = '\0';
 652:frucd_display.c ****         UG_PutColorString(422, 195, data_s, C_BLACK, C_GREEN);
 653:frucd_display.c ****     }
 654:frucd_display.c **** }
 655:frucd_display.c **** */
 656:frucd_display.c **** 
 657:frucd_display.c **** void disp_mc_temp(uint16_t data, uint16_t x1, uint16_t y1, uint16_t x2, uint16_t y2, uint8_t size){
 658:frucd_display.c ****     disp_gen_temp(data, x1, y1, x2, y2, size);
 659:frucd_display.c **** }
 660:frucd_display.c **** /*
 661:frucd_display.c **** void disp_motor_temp(uint16_t data) {
 662:frucd_display.c ****     if (data >= 100) {
 663:frucd_display.c ****         // handle 3 digit cases
 664:frucd_display.c ****         UG_FillFrame(410, 230, 470, 260, C_GREEN);
 665:frucd_display.c ****         char data_s[5];
 666:frucd_display.c ****         sprintf(data_s, "%d", data);
 667:frucd_display.c ****         data_s[3] = 'C';
 668:frucd_display.c ****         data_s[4] = '\0';
 669:frucd_display.c ****         UG_PutColorString(415, 240, data_s, C_BLACK, C_GREEN);
 670:frucd_display.c ****     } else {
 671:frucd_display.c ****         // handle 2 digit cases
 672:frucd_display.c ****         UG_FillFrame(410, 230, 470, 260, C_GREEN);
 673:frucd_display.c ****         char data_s[4];
 674:frucd_display.c ****         sprintf(data_s, "%d", data);
 675:frucd_display.c ****         data_s[2] = 'C';
 676:frucd_display.c ****         data_s[3] = '\0';
 677:frucd_display.c ****         UG_PutColorString(422, 240, data_s, C_BLACK, C_GREEN);
 678:frucd_display.c ****     }
 679:frucd_display.c **** }
 680:frucd_display.c **** */
 681:frucd_display.c **** 
 682:frucd_display.c **** void disp_motor_temp(uint16_t data, uint16_t x1, uint16_t y1, uint16_t x2, uint16_t y2, uint8_t siz
 683:frucd_display.c ****     disp_gen_temp(data, x1, y1, x2, y2, size);
 684:frucd_display.c **** }
 685:frucd_display.c **** 
 686:frucd_display.c **** 
 687:frucd_display.c **** 
 688:frucd_display.c **** void disp_gen_temp(uint16_t data, uint16_t x1, uint16_t y1, uint16_t x2, uint16_t y2, uint8_t size)
 1507              		.loc 1 688 0
 1508              		.cfi_startproc
 1509              		@ args = 8, pretend = 0, frame = 24
ARM GAS  C:\Users\leoja\AppData\Local\Temp\ccM6wJLr.s 			page 41


 1510              		@ frame_needed = 0, uses_anonymous_args = 0
 1511              	.LVL137:
 1512 0000 F0B5     		push	{r4, r5, r6, r7, lr}
 1513              		.cfi_def_cfa_offset 20
 1514              		.cfi_offset 4, -20
 1515              		.cfi_offset 5, -16
 1516              		.cfi_offset 6, -12
 1517              		.cfi_offset 7, -8
 1518              		.cfi_offset 14, -4
 1519 0002 1500     		movs	r5, r2
 689:frucd_display.c ****     int xFont, yFont;
 690:frucd_display.c ****     int horizFontSize = 12 + 20*size;
 691:frucd_display.c ****     int stringSize;
 692:frucd_display.c ****     if (data >= 100) {
 693:frucd_display.c ****         stringSize = 4;
 694:frucd_display.c ****     }else{
 695:frucd_display.c ****         stringSize = 3;
 1520              		.loc 1 695 0
 1521 0004 6322     		movs	r2, #99
 1522              	.LVL138:
 688:frucd_display.c ****     int xFont, yFont;
 1523              		.loc 1 688 0
 1524 0006 89B0     		sub	sp, sp, #36
 1525              		.cfi_def_cfa_offset 56
 688:frucd_display.c ****     int xFont, yFont;
 1526              		.loc 1 688 0
 1527 0008 1E00     		movs	r6, r3
 1528 000a 0EAB     		add	r3, sp, #56
 1529              	.LVL139:
 1530 000c 1F88     		ldrh	r7, [r3]
 1531 000e 0FAB     		add	r3, sp, #60
 1532              	.LVL140:
 1533 0010 0C00     		movs	r4, r1
 1534 0012 1978     		ldrb	r1, [r3]
 1535              	.LVL141:
 690:frucd_display.c ****     int stringSize;
 1536              		.loc 1 690 0
 1537 0014 1423     		movs	r3, #20
 1538              	.LVL142:
 1539              		.loc 1 695 0
 1540 0016 8242     		cmp	r2, r0
 1541 0018 9241     		sbcs	r2, r2, r2
 690:frucd_display.c ****     int stringSize;
 1542              		.loc 1 690 0
 1543 001a 4B43     		muls	r3, r1
 1544              		.loc 1 695 0
 1545 001c 5242     		rsbs	r2, r2, #0
 1546 001e 0332     		adds	r2, r2, #3
 690:frucd_display.c ****     int stringSize;
 1547              		.loc 1 690 0
 1548 0020 0C33     		adds	r3, r3, #12
 1549              	.LVL143:
 696:frucd_display.c ****     }
 697:frucd_display.c ****     xFont = (x1 + x2)/2 - ((horizFontSize*stringSize)/2);
 1550              		.loc 1 697 0
 1551 0022 5343     		muls	r3, r2
 1552              	.LVL144:
ARM GAS  C:\Users\leoja\AppData\Local\Temp\ccM6wJLr.s 			page 42


 698:frucd_display.c ****     yFont = (y1 + y2)/2 - 5 - (size*17);    
 1553              		.loc 1 698 0
 1554 0024 1122     		movs	r2, #17
 1555              	.LVL145:
 688:frucd_display.c ****     int xFont, yFont;
 1556              		.loc 1 688 0
 1557 0026 0390     		str	r0, [sp, #12]
 697:frucd_display.c ****     yFont = (y1 + y2)/2 - 5 - (size*17);    
 1558              		.loc 1 697 0
 1559 0028 A019     		adds	r0, r4, r6
 1560              	.LVL146:
 1561 002a 4010     		asrs	r0, r0, #1
 1562 002c 5B10     		asrs	r3, r3, #1
 1563              		.loc 1 698 0
 1564 002e 5242     		rsbs	r2, r2, #0
 697:frucd_display.c ****     yFont = (y1 + y2)/2 - 5 - (size*17);    
 1565              		.loc 1 697 0
 1566 0030 C31A     		subs	r3, r0, r3
 1567              		.loc 1 698 0
 1568 0032 4A43     		muls	r2, r1
 697:frucd_display.c ****     yFont = (y1 + y2)/2 - 5 - (size*17);    
 1569              		.loc 1 697 0
 1570 0034 0493     		str	r3, [sp, #16]
 1571              	.LVL147:
 1572              		.loc 1 698 0
 1573 0036 EB19     		adds	r3, r5, r7
 1574              	.LVL148:
 1575 0038 5B10     		asrs	r3, r3, #1
 1576 003a 053B     		subs	r3, r3, #5
 1577 003c 9B18     		adds	r3, r3, r2
 1578 003e 0593     		str	r3, [sp, #20]
 1579              	.LVL149:
 699:frucd_display.c ****     if(size == 1){
 1580              		.loc 1 699 0
 1581 0040 0129     		cmp	r1, #1
 1582 0042 02D1     		bne	.L85
 700:frucd_display.c ****         UG_FontSelect(&FONT_32X53);
 1583              		.loc 1 700 0
 1584 0044 1B48     		ldr	r0, .L90
 1585 0046 FFF7FEFF 		bl	UG_FontSelect
 1586              	.LVL150:
 1587              	.L85:
 1588 004a 20B2     		sxth	r0, r4
 1589 004c 6C46     		mov	r4, sp
 1590 004e 29B2     		sxth	r1, r5
 1591 0050 FF25     		movs	r5, #255
 1592 0052 32B2     		sxth	r2, r6
 1593 0054 3BB2     		sxth	r3, r7
 1594 0056 1426     		movs	r6, #20
 1595 0058 A75F     		ldrsh	r7, [r4, r6]
 1596 005a 1026     		movs	r6, #16
 1597 005c A65F     		ldrsh	r6, [r4, r6]
 1598 005e 2D02     		lsls	r5, r5, #8
 1599 0060 3400     		movs	r4, r6
 701:frucd_display.c ****         
 702:frucd_display.c ****     }
 703:frucd_display.c ****     if (data >= 100) {
ARM GAS  C:\Users\leoja\AppData\Local\Temp\ccM6wJLr.s 			page 43


 1600              		.loc 1 703 0
 1601 0062 039E     		ldr	r6, [sp, #12]
 1602              	.LBB3:
 704:frucd_display.c ****         // handle 3 digit cases
 705:frucd_display.c ****         UG_FillFrame(x1, y1, x2, y2, C_GREEN);
 1603              		.loc 1 705 0
 1604 0064 0095     		str	r5, [sp]
 1605              	.LBE3:
 703:frucd_display.c ****         // handle 3 digit cases
 1606              		.loc 1 703 0
 1607 0066 632E     		cmp	r6, #99
 1608 0068 0CD9     		bls	.L86
 1609              	.LBB4:
 706:frucd_display.c ****         char data_s[5];
 707:frucd_display.c ****         sprintf(data_s, "%d", data);
 1610              		.loc 1 707 0
 1611 006a 06AE     		add	r6, sp, #24
 705:frucd_display.c ****         char data_s[5];
 1612              		.loc 1 705 0
 1613 006c FFF7FEFF 		bl	UG_FillFrame
 1614              	.LVL151:
 1615              		.loc 1 707 0
 1616 0070 039A     		ldr	r2, [sp, #12]
 1617 0072 1149     		ldr	r1, .L90+4
 1618 0074 3000     		movs	r0, r6
 1619 0076 FFF7FEFF 		bl	sprintf
 1620              	.LVL152:
 708:frucd_display.c ****         data_s[3] = 'C';
 1621              		.loc 1 708 0
 1622 007a 4323     		movs	r3, #67
 1623 007c F370     		strb	r3, [r6, #3]
 709:frucd_display.c ****         data_s[4] = '\0';
 1624              		.loc 1 709 0
 1625 007e 0023     		movs	r3, #0
 1626 0080 3371     		strb	r3, [r6, #4]
 1627 0082 0BE0     		b	.L89
 1628              	.L86:
 1629              	.LBE4:
 1630              	.LBB5:
 710:frucd_display.c ****         UG_PutColorString(xFont, yFont, data_s, C_BLACK, C_GREEN);
 711:frucd_display.c ****     } else {
 712:frucd_display.c ****         // handle 2 digit cases
 713:frucd_display.c ****         UG_FillFrame(x1, y1, x2, y2, C_GREEN);
 714:frucd_display.c ****         char data_s[4];
 715:frucd_display.c ****         sprintf(data_s, "%d", data);
 1631              		.loc 1 715 0
 1632 0084 06AE     		add	r6, sp, #24
 713:frucd_display.c ****         char data_s[4];
 1633              		.loc 1 713 0
 1634 0086 FFF7FEFF 		bl	UG_FillFrame
 1635              	.LVL153:
 1636              		.loc 1 715 0
 1637 008a 039A     		ldr	r2, [sp, #12]
 1638 008c 0A49     		ldr	r1, .L90+4
 1639 008e 3000     		movs	r0, r6
 1640 0090 FFF7FEFF 		bl	sprintf
 1641              	.LVL154:
ARM GAS  C:\Users\leoja\AppData\Local\Temp\ccM6wJLr.s 			page 44


 716:frucd_display.c ****         data_s[2] = 'C';
 1642              		.loc 1 716 0
 1643 0094 4323     		movs	r3, #67
 1644 0096 B370     		strb	r3, [r6, #2]
 717:frucd_display.c ****         data_s[3] = '\0';
 1645              		.loc 1 717 0
 1646 0098 0023     		movs	r3, #0
 1647 009a F370     		strb	r3, [r6, #3]
 1648              	.L89:
 718:frucd_display.c ****         UG_PutColorString(xFont, yFont, data_s, C_BLACK, C_GREEN);
 1649              		.loc 1 718 0
 1650 009c 3200     		movs	r2, r6
 1651 009e 3900     		movs	r1, r7
 1652 00a0 2000     		movs	r0, r4
 1653 00a2 0095     		str	r5, [sp]
 1654 00a4 FFF7FEFF 		bl	UG_PutColorString
 1655              	.LVL155:
 1656              	.LBE5:
 719:frucd_display.c ****     }
 720:frucd_display.c ****      UG_FontSelect(&FONT_12X16);
 1657              		.loc 1 720 0
 1658 00a8 0448     		ldr	r0, .L90+8
 1659 00aa FFF7FEFF 		bl	UG_FontSelect
 1660              	.LVL156:
 721:frucd_display.c **** }
 1661              		.loc 1 721 0
 1662 00ae 09B0     		add	sp, sp, #36
 1663              		@ sp needed
 1664 00b0 F0BD     		pop	{r4, r5, r6, r7, pc}
 1665              	.L91:
 1666 00b2 C046     		.align	2
 1667              	.L90:
 1668 00b4 00000000 		.word	FONT_32X53
 1669 00b8 13010000 		.word	.LC73
 1670 00bc 00000000 		.word	FONT_12X16
 1671              		.cfi_endproc
 1672              	.LFE44:
 1673              		.size	disp_gen_temp, .-disp_gen_temp
 1674              		.section	.text.disp_motor_temp,"ax",%progbits
 1675              		.align	1
 1676              		.global	disp_motor_temp
 1677              		.code	16
 1678              		.thumb_func
 1679              		.type	disp_motor_temp, %function
 1680              	disp_motor_temp:
 1681              	.LFB43:
 682:frucd_display.c ****     disp_gen_temp(data, x1, y1, x2, y2, size);
 1682              		.loc 1 682 0
 1683              		.cfi_startproc
 1684              		@ args = 8, pretend = 0, frame = 0
 1685              		@ frame_needed = 0, uses_anonymous_args = 0
 1686              	.LVL157:
 1687 0000 37B5     		push	{r0, r1, r2, r4, r5, lr}
 1688              		.cfi_def_cfa_offset 24
 1689              		.cfi_offset 0, -24
 1690              		.cfi_offset 1, -20
 1691              		.cfi_offset 2, -16
ARM GAS  C:\Users\leoja\AppData\Local\Temp\ccM6wJLr.s 			page 45


 1692              		.cfi_offset 4, -12
 1693              		.cfi_offset 5, -8
 1694              		.cfi_offset 14, -4
 682:frucd_display.c ****     disp_gen_temp(data, x1, y1, x2, y2, size);
 1695              		.loc 1 682 0
 1696 0002 06AC     		add	r4, sp, #24
 1697              	.LVL158:
 1698 0004 07AD     		add	r5, sp, #28
 1699              	.LVL159:
 1700 0006 2D78     		ldrb	r5, [r5]
 1701              	.LVL160:
 1702 0008 2488     		ldrh	r4, [r4]
 1703              	.LVL161:
 683:frucd_display.c **** }
 1704              		.loc 1 683 0
 1705 000a 0195     		str	r5, [sp, #4]
 1706 000c 0094     		str	r4, [sp]
 1707 000e FFF7FEFF 		bl	disp_gen_temp
 1708              	.LVL162:
 684:frucd_display.c **** 
 1709              		.loc 1 684 0
 1710              		@ sp needed
 1711 0012 37BD     		pop	{r0, r1, r2, r4, r5, pc}
 1712              		.cfi_endproc
 1713              	.LFE43:
 1714              		.size	disp_motor_temp, .-disp_motor_temp
 1715              		.section	.text.disp_mc_temp,"ax",%progbits
 1716              		.align	1
 1717              		.global	disp_mc_temp
 1718              		.code	16
 1719              		.thumb_func
 1720              		.type	disp_mc_temp, %function
 1721              	disp_mc_temp:
 1722              	.LFB51:
 1723              		.cfi_startproc
 1724              		@ args = 8, pretend = 0, frame = 0
 1725              		@ frame_needed = 0, uses_anonymous_args = 0
 1726 0000 37B5     		push	{r0, r1, r2, r4, r5, lr}
 1727              		.cfi_def_cfa_offset 24
 1728              		.cfi_offset 0, -24
 1729              		.cfi_offset 1, -20
 1730              		.cfi_offset 2, -16
 1731              		.cfi_offset 4, -12
 1732              		.cfi_offset 5, -8
 1733              		.cfi_offset 14, -4
 1734 0002 06AC     		add	r4, sp, #24
 1735 0004 07AD     		add	r5, sp, #28
 1736 0006 2D78     		ldrb	r5, [r5]
 1737 0008 2488     		ldrh	r4, [r4]
 1738 000a 0195     		str	r5, [sp, #4]
 1739 000c 0094     		str	r4, [sp]
 1740 000e FFF7FEFF 		bl	disp_gen_temp
 1741              		@ sp needed
 1742 0012 37BD     		pop	{r0, r1, r2, r4, r5, pc}
 1743              		.cfi_endproc
 1744              	.LFE51:
 1745              		.size	disp_mc_temp, .-disp_mc_temp
ARM GAS  C:\Users\leoja\AppData\Local\Temp\ccM6wJLr.s 			page 46


 1746              		.section	.text.disp_gen_voltage,"ax",%progbits
 1747              		.align	1
 1748              		.global	disp_gen_voltage
 1749              		.code	16
 1750              		.thumb_func
 1751              		.type	disp_gen_voltage, %function
 1752              	disp_gen_voltage:
 1753              	.LFB45:
 722:frucd_display.c **** 
 723:frucd_display.c **** void disp_gen_voltage(uint16_t data, uint16_t x1, uint16_t y1, uint16_t x2, uint16_t y2, uint8_t si
 1754              		.loc 1 723 0
 1755              		.cfi_startproc
 1756              		@ args = 8, pretend = 0, frame = 24
 1757              		@ frame_needed = 0, uses_anonymous_args = 0
 1758              	.LVL163:
 1759              		.loc 1 723 0
 1760 0000 F0B5     		push	{r4, r5, r6, r7, lr}
 1761              		.cfi_def_cfa_offset 20
 1762              		.cfi_offset 4, -20
 1763              		.cfi_offset 5, -16
 1764              		.cfi_offset 6, -12
 1765              		.cfi_offset 7, -8
 1766              		.cfi_offset 14, -4
 1767 0002 89B0     		sub	sp, sp, #36
 1768              		.cfi_def_cfa_offset 56
 1769              		.loc 1 723 0
 1770 0004 1D00     		movs	r5, r3
 1771 0006 0EAB     		add	r3, sp, #56
 1772              	.LVL164:
 1773 0008 1E88     		ldrh	r6, [r3]
 1774 000a 0FAB     		add	r3, sp, #60
 1775              	.LVL165:
 1776 000c 1400     		movs	r4, r2
 1777 000e 1A78     		ldrb	r2, [r3]
 1778              	.LVL166:
 724:frucd_display.c ****     int xFont, yFont;
 725:frucd_display.c ****     int horizFontSize = 12 + 20*size;
 726:frucd_display.c ****     int stringSize;
 727:frucd_display.c ****     stringSize = 6;
 728:frucd_display.c ****    
 729:frucd_display.c ****     xFont = (x1 + x2)/2 - ((horizFontSize*stringSize)/2);
 1779              		.loc 1 729 0
 1780 0010 1423     		movs	r3, #20
 1781              	.LVL167:
 723:frucd_display.c ****     int xFont, yFont;
 1782              		.loc 1 723 0
 1783 0012 0391     		str	r1, [sp, #12]
 1784              		.loc 1 729 0
 1785 0014 0621     		movs	r1, #6
 1786              	.LVL168:
 1787 0016 5343     		muls	r3, r2
 1788 0018 0C33     		adds	r3, r3, #12
 1789              	.LVL169:
 1790 001a 4B43     		muls	r3, r1
 1791              	.LVL170:
 1792 001c 0399     		ldr	r1, [sp, #12]
 723:frucd_display.c ****     int xFont, yFont;
ARM GAS  C:\Users\leoja\AppData\Local\Temp\ccM6wJLr.s 			page 47


 1793              		.loc 1 723 0
 1794 001e 0700     		movs	r7, r0
 1795              		.loc 1 729 0
 1796 0020 4819     		adds	r0, r1, r5
 1797              	.LVL171:
 730:frucd_display.c ****     yFont = (y1 + y2)/2 - 5 - (size*17);    
 1798              		.loc 1 730 0
 1799 0022 1121     		movs	r1, #17
 729:frucd_display.c ****     yFont = (y1 + y2)/2 - 5 - (size*17);    
 1800              		.loc 1 729 0
 1801 0024 5B10     		asrs	r3, r3, #1
 1802 0026 4010     		asrs	r0, r0, #1
 1803              		.loc 1 730 0
 1804 0028 4942     		rsbs	r1, r1, #0
 729:frucd_display.c ****     yFont = (y1 + y2)/2 - 5 - (size*17);    
 1805              		.loc 1 729 0
 1806 002a C31A     		subs	r3, r0, r3
 1807              		.loc 1 730 0
 1808 002c 5143     		muls	r1, r2
 729:frucd_display.c ****     yFont = (y1 + y2)/2 - 5 - (size*17);    
 1809              		.loc 1 729 0
 1810 002e 0493     		str	r3, [sp, #16]
 1811              	.LVL172:
 1812              		.loc 1 730 0
 1813 0030 A319     		adds	r3, r4, r6
 1814              	.LVL173:
 1815 0032 5B10     		asrs	r3, r3, #1
 1816 0034 053B     		subs	r3, r3, #5
 1817 0036 5B18     		adds	r3, r3, r1
 1818 0038 0593     		str	r3, [sp, #20]
 1819              	.LVL174:
 731:frucd_display.c ****     if(size == 1){
 1820              		.loc 1 731 0
 1821 003a 012A     		cmp	r2, #1
 1822 003c 02D1     		bne	.L95
 732:frucd_display.c ****         UG_FontSelect(&FONT_32X53);
 1823              		.loc 1 732 0
 1824 003e 1D48     		ldr	r0, .L97
 1825 0040 FFF7FEFF 		bl	UG_FontSelect
 1826              	.LVL175:
 1827              	.L95:
 733:frucd_display.c ****         
 734:frucd_display.c ****     }
 735:frucd_display.c ****     UG_FillFrame(x1, y1, x2, y2, C_GREEN);
 1828              		.loc 1 735 0
 1829 0044 6846     		mov	r0, sp
 1830 0046 21B2     		sxth	r1, r4
 1831 0048 0C24     		movs	r4, #12
 1832 004a 005F     		ldrsh	r0, [r0, r4]
 1833 004c FF24     		movs	r4, #255
 1834 004e 2402     		lsls	r4, r4, #8
 1835 0050 33B2     		sxth	r3, r6
 1836 0052 2AB2     		sxth	r2, r5
 1837 0054 0094     		str	r4, [sp]
 736:frucd_display.c ****     char data_s[7];
 737:frucd_display.c ****     sprintf(data_s, "%d", data);
 1838              		.loc 1 737 0
ARM GAS  C:\Users\leoja\AppData\Local\Temp\ccM6wJLr.s 			page 48


 1839 0056 06AC     		add	r4, sp, #24
 735:frucd_display.c ****     char data_s[7];
 1840              		.loc 1 735 0
 1841 0058 FFF7FEFF 		bl	UG_FillFrame
 1842              	.LVL176:
 1843              		.loc 1 737 0
 1844 005c 3A00     		movs	r2, r7
 1845 005e 1649     		ldr	r1, .L97+4
 1846 0060 2000     		movs	r0, r4
 1847 0062 FFF7FEFF 		bl	sprintf
 1848              	.LVL177:
 738:frucd_display.c ****     // handle 3 digit cases; 2 and 1 are practically impossible
 739:frucd_display.c ****     if (data < 1000) {
 1849              		.loc 1 739 0
 1850 0066 154B     		ldr	r3, .L97+8
 1851 0068 9F42     		cmp	r7, r3
 1852 006a 07D8     		bhi	.L96
 740:frucd_display.c ****         data_s[3] = data_s[2];
 1853              		.loc 1 740 0
 1854 006c A378     		ldrb	r3, [r4, #2]
 1855 006e E370     		strb	r3, [r4, #3]
 741:frucd_display.c ****         data_s[2] = data_s[1];
 1856              		.loc 1 741 0
 1857 0070 6378     		ldrb	r3, [r4, #1]
 1858 0072 A370     		strb	r3, [r4, #2]
 742:frucd_display.c ****         data_s[1] = data_s[0];  
 1859              		.loc 1 742 0
 1860 0074 2378     		ldrb	r3, [r4]
 1861 0076 6370     		strb	r3, [r4, #1]
 743:frucd_display.c ****         data_s[0] = ' ';
 1862              		.loc 1 743 0
 1863 0078 2023     		movs	r3, #32
 1864 007a 2370     		strb	r3, [r4]
 1865              	.L96:
 744:frucd_display.c ****     }
 745:frucd_display.c ****     // shift over fractional part
 746:frucd_display.c ****     data_s[4] = data_s[3];
 747:frucd_display.c ****     data_s[3] = data_s[2];
 748:frucd_display.c ****     // add syntax
 749:frucd_display.c ****     data_s[2] = '.';
 750:frucd_display.c ****     data_s[5] = 'V';
 751:frucd_display.c ****     data_s[6] = '\0';
 752:frucd_display.c ****     UG_PutColorString(xFont, yFont, data_s, C_BLACK, C_GREEN);
 1866              		.loc 1 752 0
 1867 007c 6A46     		mov	r2, sp
 746:frucd_display.c ****     data_s[3] = data_s[2];
 1868              		.loc 1 746 0
 1869 007e E378     		ldrb	r3, [r4, #3]
 1870              		.loc 1 752 0
 1871 0080 1421     		movs	r1, #20
 1872 0082 515E     		ldrsh	r1, [r2, r1]
 746:frucd_display.c ****     data_s[3] = data_s[2];
 1873              		.loc 1 746 0
 1874 0084 2371     		strb	r3, [r4, #4]
 747:frucd_display.c ****     // add syntax
 1875              		.loc 1 747 0
 1876 0086 A378     		ldrb	r3, [r4, #2]
ARM GAS  C:\Users\leoja\AppData\Local\Temp\ccM6wJLr.s 			page 49


 1877              		.loc 1 752 0
 1878 0088 6A46     		mov	r2, sp
 747:frucd_display.c ****     // add syntax
 1879              		.loc 1 747 0
 1880 008a E370     		strb	r3, [r4, #3]
 749:frucd_display.c ****     data_s[5] = 'V';
 1881              		.loc 1 749 0
 1882 008c 2E23     		movs	r3, #46
 1883              		.loc 1 752 0
 1884 008e 1020     		movs	r0, #16
 1885 0090 105E     		ldrsh	r0, [r2, r0]
 749:frucd_display.c ****     data_s[5] = 'V';
 1886              		.loc 1 749 0
 1887 0092 A370     		strb	r3, [r4, #2]
 1888              		.loc 1 752 0
 1889 0094 FF22     		movs	r2, #255
 750:frucd_display.c ****     data_s[6] = '\0';
 1890              		.loc 1 750 0
 1891 0096 2833     		adds	r3, r3, #40
 1892 0098 6371     		strb	r3, [r4, #5]
 751:frucd_display.c ****     UG_PutColorString(xFont, yFont, data_s, C_BLACK, C_GREEN);
 1893              		.loc 1 751 0
 1894 009a 0023     		movs	r3, #0
 1895              		.loc 1 752 0
 1896 009c 1202     		lsls	r2, r2, #8
 751:frucd_display.c ****     UG_PutColorString(xFont, yFont, data_s, C_BLACK, C_GREEN);
 1897              		.loc 1 751 0
 1898 009e A371     		strb	r3, [r4, #6]
 1899              		.loc 1 752 0
 1900 00a0 0092     		str	r2, [sp]
 1901 00a2 2200     		movs	r2, r4
 1902 00a4 FFF7FEFF 		bl	UG_PutColorString
 1903              	.LVL178:
 753:frucd_display.c ****     
 754:frucd_display.c ****     UG_FontSelect(&FONT_12X16);
 1904              		.loc 1 754 0
 1905 00a8 0548     		ldr	r0, .L97+12
 1906 00aa FFF7FEFF 		bl	UG_FontSelect
 1907              	.LVL179:
 755:frucd_display.c **** }
 1908              		.loc 1 755 0
 1909 00ae 09B0     		add	sp, sp, #36
 1910              		@ sp needed
 1911 00b0 F0BD     		pop	{r4, r5, r6, r7, pc}
 1912              	.L98:
 1913 00b2 C046     		.align	2
 1914              	.L97:
 1915 00b4 00000000 		.word	FONT_32X53
 1916 00b8 13010000 		.word	.LC73
 1917 00bc E7030000 		.word	999
 1918 00c0 00000000 		.word	FONT_12X16
 1919              		.cfi_endproc
 1920              	.LFE45:
 1921              		.size	disp_gen_voltage, .-disp_gen_voltage
 1922              		.section	.text.disp_shutdown_circuit,"ax",%progbits
 1923              		.align	1
 1924              		.global	disp_shutdown_circuit
ARM GAS  C:\Users\leoja\AppData\Local\Temp\ccM6wJLr.s 			page 50


 1925              		.code	16
 1926              		.thumb_func
 1927              		.type	disp_shutdown_circuit, %function
 1928              	disp_shutdown_circuit:
 1929              	.LFB46:
 756:frucd_display.c **** 
 757:frucd_display.c **** void disp_shutdown_circuit(uint8_t shutdown_flags, uint16_t x1, uint16_t y1, uint16_t x2, uint16_t 
 1930              		.loc 1 757 0
 1931              		.cfi_startproc
 1932              		@ args = 8, pretend = 0, frame = 16
 1933              		@ frame_needed = 0, uses_anonymous_args = 0
 1934              	.LVL180:
 1935 0000 F0B5     		push	{r4, r5, r6, r7, lr}
 1936              		.cfi_def_cfa_offset 20
 1937              		.cfi_offset 4, -20
 1938              		.cfi_offset 5, -16
 1939              		.cfi_offset 6, -12
 1940              		.cfi_offset 7, -8
 1941              		.cfi_offset 14, -4
 758:frucd_display.c ****     int xFont, yFont;
 759:frucd_display.c ****     int horizFontSize = 12 + 20*size;
 760:frucd_display.c ****     int stringSize;
 761:frucd_display.c ****     stringSize = 10;
 762:frucd_display.c ****     xFont = (x1 + x2)/2 - ((horizFontSize*stringSize)/2);
 1942              		.loc 1 762 0
 1943 0002 1426     		movs	r6, #20
 757:frucd_display.c ****     int xFont, yFont;
 1944              		.loc 1 757 0
 1945 0004 87B0     		sub	sp, sp, #28
 1946              		.cfi_def_cfa_offset 48
 757:frucd_display.c ****     int xFont, yFont;
 1947              		.loc 1 757 0
 1948 0006 0291     		str	r1, [sp, #8]
 1949              		.loc 1 762 0
 1950 0008 0A21     		movs	r1, #10
 1951              	.LVL181:
 757:frucd_display.c ****     int xFont, yFont;
 1952              		.loc 1 757 0
 1953 000a 0493     		str	r3, [sp, #16]
 1954 000c 0CAB     		add	r3, sp, #48
 1955              	.LVL182:
 1956 000e 1C88     		ldrh	r4, [r3]
 1957 0010 0DAB     		add	r3, sp, #52
 1958              	.LVL183:
 1959 0012 0392     		str	r2, [sp, #12]
 1960 0014 1A78     		ldrb	r2, [r3]
 1961              	.LVL184:
 1962 0016 0590     		str	r0, [sp, #20]
 1963              		.loc 1 762 0
 1964 0018 5643     		muls	r6, r2
 1965 001a 0C36     		adds	r6, r6, #12
 1966              	.LVL185:
 1967 001c 4E43     		muls	r6, r1
 1968              	.LVL186:
 1969 001e 0498     		ldr	r0, [sp, #16]
 1970              	.LVL187:
 1971 0020 0299     		ldr	r1, [sp, #8]
ARM GAS  C:\Users\leoja\AppData\Local\Temp\ccM6wJLr.s 			page 51


 1972 0022 7310     		asrs	r3, r6, #1
 1973              	.LVL188:
 1974 0024 0E18     		adds	r6, r1, r0
 1975 0026 7610     		asrs	r6, r6, #1
 1976 0028 F61A     		subs	r6, r6, r3
 1977              	.LVL189:
 763:frucd_display.c ****     yFont = (y1 + y2)/2 - 5 - (size*17);    
 1978              		.loc 1 763 0
 1979 002a 039B     		ldr	r3, [sp, #12]
 1980 002c 1F19     		adds	r7, r3, r4
 1981 002e 7F10     		asrs	r7, r7, #1
 1982 0030 7B1F     		subs	r3, r7, #5
 1983 0032 1127     		movs	r7, #17
 1984 0034 7F42     		rsbs	r7, r7, #0
 1985 0036 5743     		muls	r7, r2
 1986 0038 DF19     		adds	r7, r3, r7
 1987              	.LVL190:
 764:frucd_display.c ****     if(size == 1){
 1988              		.loc 1 764 0
 1989 003a 012A     		cmp	r2, #1
 1990 003c 02D1     		bne	.L100
 765:frucd_display.c ****         UG_FontSelect(&FONT_32X53);
 1991              		.loc 1 765 0
 1992 003e 7248     		ldr	r0, .L116
 1993 0040 FFF7FEFF 		bl	UG_FontSelect
 1994              	.LVL191:
 1995              	.L100:
 766:frucd_display.c ****         
 767:frucd_display.c ****     }
 768:frucd_display.c ****     UG_COLOR color;
 769:frucd_display.c ****     
 770:frucd_display.c ****     // 00| IMD_OK | BMS_OK | Shutdown Final | AIR1 | AIR2 | Precharge
 771:frucd_display.c ****     if (shutdown_flags & 0b00100000){
 1996              		.loc 1 771 0
 1997 0044 059B     		ldr	r3, [sp, #20]
 1998 0046 714D     		ldr	r5, .L116+4
 1999 0048 3FB2     		sxth	r7, r7
 2000              	.LVL192:
 2001 004a 36B2     		sxth	r6, r6
 2002              	.LVL193:
 2003 004c 9B06     		lsls	r3, r3, #26
 2004 004e 1BD5     		bpl	.L101
 2005              	.LVL194:
 772:frucd_display.c ****         color = C_RED;
 773:frucd_display.c ****         if (color != last_shutdown_color) {
 2006              		.loc 1 773 0
 2007 0050 2B68     		ldr	r3, [r5]
 2008 0052 1A00     		movs	r2, r3
 2009 0054 FF23     		movs	r3, #255
 2010 0056 1B04     		lsls	r3, r3, #16
 2011 0058 9A42     		cmp	r2, r3
 2012 005a 0FD0     		beq	.L102
 774:frucd_display.c ****             // only draw rectangle if color changed
 775:frucd_display.c ****             UG_FillFrame(x1, y1, x2, y2, color);
 2013              		.loc 1 775 0
 2014 005c 6A46     		mov	r2, sp
 2015 005e 1021     		movs	r1, #16
ARM GAS  C:\Users\leoja\AppData\Local\Temp\ccM6wJLr.s 			page 52


 2016 0060 525E     		ldrsh	r2, [r2, r1]
 2017 0062 6946     		mov	r1, sp
 2018 0064 0C20     		movs	r0, #12
 2019 0066 095E     		ldrsh	r1, [r1, r0]
 2020 0068 6846     		mov	r0, sp
 2021 006a 23B2     		sxth	r3, r4
 2022 006c 0824     		movs	r4, #8
 2023 006e 005F     		ldrsh	r0, [r0, r4]
 2024              	.LVL195:
 2025 0070 FF24     		movs	r4, #255
 2026 0072 2404     		lsls	r4, r4, #16
 2027 0074 0094     		str	r4, [sp]
 2028 0076 FFF7FEFF 		bl	UG_FillFrame
 2029              	.LVL196:
 776:frucd_display.c ****             last_shutdown_color = color;
 2030              		.loc 1 776 0
 2031 007a 2C60     		str	r4, [r5]
 2032              	.L102:
 777:frucd_display.c ****         }
 778:frucd_display.c ****         UG_PutColorString(xFont, yFont, "IMD_OK", C_BLACK, color);
 2033              		.loc 1 778 0
 2034 007c FF23     		movs	r3, #255
 2035 007e 1B04     		lsls	r3, r3, #16
 2036 0080 0093     		str	r3, [sp]
 2037 0082 634A     		ldr	r2, .L116+8
 2038 0084 0023     		movs	r3, #0
 2039 0086 B5E0     		b	.L115
 2040              	.LVL197:
 2041              	.L101:
 779:frucd_display.c ****     }
 780:frucd_display.c ****     else if (shutdown_flags & 0b00010000) {
 2042              		.loc 1 780 0
 2043 0088 059B     		ldr	r3, [sp, #20]
 2044 008a DB06     		lsls	r3, r3, #27
 2045 008c 1BD5     		bpl	.L104
 2046              	.LVL198:
 781:frucd_display.c ****         color = C_RED;
 782:frucd_display.c ****         if (color != last_shutdown_color) {
 2047              		.loc 1 782 0
 2048 008e 2B68     		ldr	r3, [r5]
 2049 0090 1A00     		movs	r2, r3
 2050 0092 FF23     		movs	r3, #255
 2051 0094 1B04     		lsls	r3, r3, #16
 2052 0096 9A42     		cmp	r2, r3
 2053 0098 0FD0     		beq	.L105
 783:frucd_display.c ****             // only draw rectangle if color changed
 784:frucd_display.c ****             UG_FillFrame(x1, y1, x2, y2, color);
 2054              		.loc 1 784 0
 2055 009a 6A46     		mov	r2, sp
 2056 009c 1021     		movs	r1, #16
 2057 009e 525E     		ldrsh	r2, [r2, r1]
 2058 00a0 6946     		mov	r1, sp
 2059 00a2 0C20     		movs	r0, #12
 2060 00a4 095E     		ldrsh	r1, [r1, r0]
 2061 00a6 6846     		mov	r0, sp
 2062 00a8 23B2     		sxth	r3, r4
 2063 00aa 0824     		movs	r4, #8
ARM GAS  C:\Users\leoja\AppData\Local\Temp\ccM6wJLr.s 			page 53


 2064 00ac 005F     		ldrsh	r0, [r0, r4]
 2065              	.LVL199:
 2066 00ae FF24     		movs	r4, #255
 2067 00b0 2404     		lsls	r4, r4, #16
 2068 00b2 0094     		str	r4, [sp]
 2069 00b4 FFF7FEFF 		bl	UG_FillFrame
 2070              	.LVL200:
 785:frucd_display.c ****             last_shutdown_color = color;
 2071              		.loc 1 785 0
 2072 00b8 2C60     		str	r4, [r5]
 2073              	.L105:
 786:frucd_display.c ****         }
 787:frucd_display.c ****         UG_PutColorString(xFont, yFont, "BMS_OK", C_BLACK, color);
 2074              		.loc 1 787 0
 2075 00ba FF23     		movs	r3, #255
 2076 00bc 1B04     		lsls	r3, r3, #16
 2077 00be 0093     		str	r3, [sp]
 2078 00c0 544A     		ldr	r2, .L116+12
 2079 00c2 0023     		movs	r3, #0
 2080 00c4 96E0     		b	.L115
 2081              	.LVL201:
 2082              	.L104:
 788:frucd_display.c ****     }
 789:frucd_display.c ****     else if (shutdown_flags & 0b00001000) {
 2083              		.loc 1 789 0
 2084 00c6 059B     		ldr	r3, [sp, #20]
 2085 00c8 1B07     		lsls	r3, r3, #28
 2086 00ca 1BD5     		bpl	.L106
 2087              	.LVL202:
 790:frucd_display.c ****         color = C_RED;
 791:frucd_display.c ****         if (color != last_shutdown_color) {
 2088              		.loc 1 791 0
 2089 00cc 2B68     		ldr	r3, [r5]
 2090 00ce 1A00     		movs	r2, r3
 2091 00d0 FF23     		movs	r3, #255
 2092 00d2 1B04     		lsls	r3, r3, #16
 2093 00d4 9A42     		cmp	r2, r3
 2094 00d6 0FD0     		beq	.L107
 792:frucd_display.c ****             // only draw rectangle if color changed
 793:frucd_display.c ****             UG_FillFrame(x1, y1, x2, y2, color);
 2095              		.loc 1 793 0
 2096 00d8 6A46     		mov	r2, sp
 2097 00da 1021     		movs	r1, #16
 2098 00dc 525E     		ldrsh	r2, [r2, r1]
 2099 00de 6946     		mov	r1, sp
 2100 00e0 0C20     		movs	r0, #12
 2101 00e2 095E     		ldrsh	r1, [r1, r0]
 2102 00e4 6846     		mov	r0, sp
 2103 00e6 23B2     		sxth	r3, r4
 2104 00e8 0824     		movs	r4, #8
 2105 00ea 005F     		ldrsh	r0, [r0, r4]
 2106              	.LVL203:
 2107 00ec FF24     		movs	r4, #255
 2108 00ee 2404     		lsls	r4, r4, #16
 2109 00f0 0094     		str	r4, [sp]
 2110 00f2 FFF7FEFF 		bl	UG_FillFrame
 2111              	.LVL204:
ARM GAS  C:\Users\leoja\AppData\Local\Temp\ccM6wJLr.s 			page 54


 794:frucd_display.c ****             last_shutdown_color = color;
 2112              		.loc 1 794 0
 2113 00f6 2C60     		str	r4, [r5]
 2114              	.L107:
 795:frucd_display.c ****         }
 796:frucd_display.c ****         UG_PutColorString(xFont, yFont, "Shutdown_Final", C_BLACK, color);
 2115              		.loc 1 796 0
 2116 00f8 FF23     		movs	r3, #255
 2117 00fa 1B04     		lsls	r3, r3, #16
 2118 00fc 0093     		str	r3, [sp]
 2119 00fe 464A     		ldr	r2, .L116+16
 2120 0100 0023     		movs	r3, #0
 2121 0102 77E0     		b	.L115
 2122              	.LVL205:
 2123              	.L106:
 797:frucd_display.c ****     }
 798:frucd_display.c ****     else if (shutdown_flags & 0b00000100) {
 2124              		.loc 1 798 0
 2125 0104 059B     		ldr	r3, [sp, #20]
 2126 0106 5B07     		lsls	r3, r3, #29
 2127 0108 1BD5     		bpl	.L108
 2128              	.LVL206:
 799:frucd_display.c ****         color = C_RED;
 800:frucd_display.c ****         if (color != last_shutdown_color) {
 2129              		.loc 1 800 0
 2130 010a 2B68     		ldr	r3, [r5]
 2131 010c 1A00     		movs	r2, r3
 2132 010e FF23     		movs	r3, #255
 2133 0110 1B04     		lsls	r3, r3, #16
 2134 0112 9A42     		cmp	r2, r3
 2135 0114 0FD0     		beq	.L109
 801:frucd_display.c ****             // only draw rectangle if color changed
 802:frucd_display.c ****             UG_FillFrame(x1, y1, x2, y2, color);
 2136              		.loc 1 802 0
 2137 0116 6A46     		mov	r2, sp
 2138 0118 1021     		movs	r1, #16
 2139 011a 525E     		ldrsh	r2, [r2, r1]
 2140 011c 6946     		mov	r1, sp
 2141 011e 0C20     		movs	r0, #12
 2142 0120 095E     		ldrsh	r1, [r1, r0]
 2143 0122 6846     		mov	r0, sp
 2144 0124 23B2     		sxth	r3, r4
 2145 0126 0824     		movs	r4, #8
 2146 0128 005F     		ldrsh	r0, [r0, r4]
 2147              	.LVL207:
 2148 012a FF24     		movs	r4, #255
 2149 012c 2404     		lsls	r4, r4, #16
 2150 012e 0094     		str	r4, [sp]
 2151 0130 FFF7FEFF 		bl	UG_FillFrame
 2152              	.LVL208:
 803:frucd_display.c ****             last_shutdown_color = color;
 2153              		.loc 1 803 0
 2154 0134 2C60     		str	r4, [r5]
 2155              	.L109:
 804:frucd_display.c ****         }
 805:frucd_display.c ****         UG_PutColorString(xFont, yFont, "AIR_1", C_BLACK, color);
 2156              		.loc 1 805 0
ARM GAS  C:\Users\leoja\AppData\Local\Temp\ccM6wJLr.s 			page 55


 2157 0136 FF23     		movs	r3, #255
 2158 0138 1B04     		lsls	r3, r3, #16
 2159 013a 0093     		str	r3, [sp]
 2160 013c 374A     		ldr	r2, .L116+20
 2161 013e 0023     		movs	r3, #0
 2162 0140 58E0     		b	.L115
 2163              	.LVL209:
 2164              	.L108:
 806:frucd_display.c ****     }
 807:frucd_display.c ****     else if (shutdown_flags & 0b00000010) {
 2165              		.loc 1 807 0
 2166 0142 059B     		ldr	r3, [sp, #20]
 2167 0144 9B07     		lsls	r3, r3, #30
 2168 0146 1BD5     		bpl	.L110
 2169              	.LVL210:
 808:frucd_display.c ****         color = C_RED;
 809:frucd_display.c ****         if (color != last_shutdown_color) {
 2170              		.loc 1 809 0
 2171 0148 2B68     		ldr	r3, [r5]
 2172 014a 1A00     		movs	r2, r3
 2173 014c FF23     		movs	r3, #255
 2174 014e 1B04     		lsls	r3, r3, #16
 2175 0150 9A42     		cmp	r2, r3
 2176 0152 0FD0     		beq	.L111
 810:frucd_display.c ****             // only draw rectangle if color changed
 811:frucd_display.c ****             UG_FillFrame(x1, y1, x2, y2, color);
 2177              		.loc 1 811 0
 2178 0154 6A46     		mov	r2, sp
 2179 0156 1021     		movs	r1, #16
 2180 0158 525E     		ldrsh	r2, [r2, r1]
 2181 015a 6946     		mov	r1, sp
 2182 015c 0C20     		movs	r0, #12
 2183 015e 095E     		ldrsh	r1, [r1, r0]
 2184 0160 6846     		mov	r0, sp
 2185 0162 23B2     		sxth	r3, r4
 2186 0164 0824     		movs	r4, #8
 2187 0166 005F     		ldrsh	r0, [r0, r4]
 2188              	.LVL211:
 2189 0168 FF24     		movs	r4, #255
 2190 016a 2404     		lsls	r4, r4, #16
 2191 016c 0094     		str	r4, [sp]
 2192 016e FFF7FEFF 		bl	UG_FillFrame
 2193              	.LVL212:
 812:frucd_display.c ****             last_shutdown_color = color;
 2194              		.loc 1 812 0
 2195 0172 2C60     		str	r4, [r5]
 2196              	.L111:
 813:frucd_display.c ****         }
 814:frucd_display.c ****         UG_PutColorString(xFont, yFont, "AIR_2", C_BLACK, color);
 2197              		.loc 1 814 0
 2198 0174 FF23     		movs	r3, #255
 2199 0176 1B04     		lsls	r3, r3, #16
 2200 0178 0093     		str	r3, [sp]
 2201 017a 294A     		ldr	r2, .L116+24
 2202 017c 0023     		movs	r3, #0
 2203 017e 39E0     		b	.L115
 2204              	.LVL213:
ARM GAS  C:\Users\leoja\AppData\Local\Temp\ccM6wJLr.s 			page 56


 2205              	.L110:
 815:frucd_display.c ****     }
 816:frucd_display.c ****     else if (shutdown_flags & 0b00000001) {
 2206              		.loc 1 816 0
 2207 0180 059B     		ldr	r3, [sp, #20]
 2208 0182 DB07     		lsls	r3, r3, #31
 2209 0184 1BD5     		bpl	.L112
 2210              	.LVL214:
 817:frucd_display.c ****         color = C_RED;
 818:frucd_display.c ****         if (color != last_shutdown_color) {
 2211              		.loc 1 818 0
 2212 0186 2B68     		ldr	r3, [r5]
 2213 0188 1A00     		movs	r2, r3
 2214 018a FF23     		movs	r3, #255
 2215 018c 1B04     		lsls	r3, r3, #16
 2216 018e 9A42     		cmp	r2, r3
 2217 0190 0FD0     		beq	.L113
 819:frucd_display.c ****             // only draw rectangle if color changed
 820:frucd_display.c ****             UG_FillFrame(x1, y1, x2, y2, color);
 2218              		.loc 1 820 0
 2219 0192 6A46     		mov	r2, sp
 2220 0194 1021     		movs	r1, #16
 2221 0196 525E     		ldrsh	r2, [r2, r1]
 2222 0198 6946     		mov	r1, sp
 2223 019a 0C20     		movs	r0, #12
 2224 019c 095E     		ldrsh	r1, [r1, r0]
 2225 019e 6846     		mov	r0, sp
 2226 01a0 23B2     		sxth	r3, r4
 2227 01a2 0824     		movs	r4, #8
 2228 01a4 005F     		ldrsh	r0, [r0, r4]
 2229              	.LVL215:
 2230 01a6 FF24     		movs	r4, #255
 2231 01a8 2404     		lsls	r4, r4, #16
 2232 01aa 0094     		str	r4, [sp]
 2233 01ac FFF7FEFF 		bl	UG_FillFrame
 2234              	.LVL216:
 821:frucd_display.c ****             last_shutdown_color = color;
 2235              		.loc 1 821 0
 2236 01b0 2C60     		str	r4, [r5]
 2237              	.L113:
 822:frucd_display.c ****         }
 823:frucd_display.c ****         UG_PutColorString(xFont, yFont, "Precharge", C_BLACK, color);
 2238              		.loc 1 823 0
 2239 01b2 FF23     		movs	r3, #255
 2240 01b4 1B04     		lsls	r3, r3, #16
 2241 01b6 0093     		str	r3, [sp]
 2242 01b8 1A4A     		ldr	r2, .L116+28
 2243 01ba 0023     		movs	r3, #0
 2244 01bc 1AE0     		b	.L115
 2245              	.LVL217:
 2246              	.L112:
 824:frucd_display.c ****     }
 825:frucd_display.c ****     else {
 826:frucd_display.c ****         color = C_GREEN;
 827:frucd_display.c ****         if (color != last_shutdown_color) {
 2247              		.loc 1 827 0
 2248 01be 2B68     		ldr	r3, [r5]
ARM GAS  C:\Users\leoja\AppData\Local\Temp\ccM6wJLr.s 			page 57


 2249 01c0 1A00     		movs	r2, r3
 2250 01c2 FF23     		movs	r3, #255
 2251 01c4 1B02     		lsls	r3, r3, #8
 2252 01c6 9A42     		cmp	r2, r3
 2253 01c8 0FD0     		beq	.L114
 828:frucd_display.c ****             // only draw rectangle if color changed
 829:frucd_display.c ****             UG_FillFrame(x1, y1, x2, y2, color);
 2254              		.loc 1 829 0
 2255 01ca 6A46     		mov	r2, sp
 2256 01cc 1021     		movs	r1, #16
 2257 01ce 525E     		ldrsh	r2, [r2, r1]
 2258 01d0 6946     		mov	r1, sp
 2259 01d2 0C20     		movs	r0, #12
 2260 01d4 095E     		ldrsh	r1, [r1, r0]
 2261 01d6 6846     		mov	r0, sp
 2262 01d8 23B2     		sxth	r3, r4
 2263 01da 0824     		movs	r4, #8
 2264 01dc 005F     		ldrsh	r0, [r0, r4]
 2265              	.LVL218:
 2266 01de FF24     		movs	r4, #255
 2267 01e0 2402     		lsls	r4, r4, #8
 2268 01e2 0094     		str	r4, [sp]
 2269 01e4 FFF7FEFF 		bl	UG_FillFrame
 2270              	.LVL219:
 830:frucd_display.c ****             last_shutdown_color = color;
 2271              		.loc 1 830 0
 2272 01e8 2C60     		str	r4, [r5]
 2273              	.L114:
 831:frucd_display.c ****         }
 832:frucd_display.c ****         UG_PutColorString(xFont, yFont, "None", C_BLACK, color);
 2274              		.loc 1 832 0
 2275 01ea FF23     		movs	r3, #255
 2276 01ec 1B02     		lsls	r3, r3, #8
 2277 01ee 0093     		str	r3, [sp]
 2278 01f0 0023     		movs	r3, #0
 2279 01f2 0D4A     		ldr	r2, .L116+32
 2280              	.LVL220:
 2281              	.L115:
 2282 01f4 3900     		movs	r1, r7
 2283 01f6 3000     		movs	r0, r6
 2284 01f8 FFF7FEFF 		bl	UG_PutColorString
 2285              	.LVL221:
 833:frucd_display.c ****     }
 834:frucd_display.c ****     
 835:frucd_display.c ****     
 836:frucd_display.c ****     UG_FontSelect(&FONT_12X16);
 2286              		.loc 1 836 0
 2287 01fc 0B48     		ldr	r0, .L116+36
 2288 01fe FFF7FEFF 		bl	UG_FontSelect
 2289              	.LVL222:
 837:frucd_display.c **** }
 2290              		.loc 1 837 0
 2291 0202 07B0     		add	sp, sp, #28
 2292              		@ sp needed
 2293 0204 F0BD     		pop	{r4, r5, r6, r7, pc}
 2294              	.L117:
 2295 0206 C046     		.align	2
ARM GAS  C:\Users\leoja\AppData\Local\Temp\ccM6wJLr.s 			page 58


 2296              	.L116:
 2297 0208 00000000 		.word	FONT_32X53
 2298 020c 00000000 		.word	last_shutdown_color
 2299 0210 16010000 		.word	.LC81
 2300 0214 1D010000 		.word	.LC83
 2301 0218 24010000 		.word	.LC85
 2302 021c 33010000 		.word	.LC87
 2303 0220 39010000 		.word	.LC89
 2304 0224 3F010000 		.word	.LC91
 2305 0228 49010000 		.word	.LC93
 2306 022c 00000000 		.word	FONT_12X16
 2307              		.cfi_endproc
 2308              	.LFE46:
 2309              		.size	disp_shutdown_circuit, .-disp_shutdown_circuit
 2310              		.section	.text.disp_debug,"ax",%progbits
 2311              		.align	1
 2312              		.global	disp_debug
 2313              		.code	16
 2314              		.thumb_func
 2315              		.type	disp_debug, %function
 2316              	disp_debug:
 2317              	.LFB47:
 838:frucd_display.c **** 
 839:frucd_display.c **** void disp_debug(uint16_t data, uint16_t x1, uint16_t y1, uint16_t x2, uint16_t y2, uint8_t size) {
 2318              		.loc 1 839 0
 2319              		.cfi_startproc
 2320              		@ args = 8, pretend = 0, frame = 32
 2321              		@ frame_needed = 0, uses_anonymous_args = 0
 2322              	.LVL223:
 2323 0000 F0B5     		push	{r4, r5, r6, r7, lr}
 2324              		.cfi_def_cfa_offset 20
 2325              		.cfi_offset 4, -20
 2326              		.cfi_offset 5, -16
 2327              		.cfi_offset 6, -12
 2328              		.cfi_offset 7, -8
 2329              		.cfi_offset 14, -4
 2330 0002 8BB0     		sub	sp, sp, #44
 2331              		.cfi_def_cfa_offset 64
 2332              		.loc 1 839 0
 2333 0004 1F00     		movs	r7, r3
 2334 0006 10AB     		add	r3, sp, #64
 2335              	.LVL224:
 2336 0008 1E88     		ldrh	r6, [r3]
 2337 000a 11AB     		add	r3, sp, #68
 2338              	.LVL225:
 2339 000c 1500     		movs	r5, r2
 2340 000e 1A78     		ldrb	r2, [r3]
 2341              	.LVL226:
 840:frucd_display.c ****     int xFont, yFont;
 841:frucd_display.c ****     int horizFontSize = 12 + 20*size;
 842:frucd_display.c ****     int stringSize;
 843:frucd_display.c ****     stringSize = 10;
 844:frucd_display.c ****     xFont = (x1 + x2)/2 - ((horizFontSize*stringSize)/2);
 2342              		.loc 1 844 0
 2343 0010 1423     		movs	r3, #20
 2344              	.LVL227:
 839:frucd_display.c ****     int xFont, yFont;
ARM GAS  C:\Users\leoja\AppData\Local\Temp\ccM6wJLr.s 			page 59


 2345              		.loc 1 839 0
 2346 0012 0C00     		movs	r4, r1
 2347              		.loc 1 844 0
 2348 0014 0A21     		movs	r1, #10
 2349              	.LVL228:
 2350 0016 5343     		muls	r3, r2
 2351 0018 0C33     		adds	r3, r3, #12
 2352              	.LVL229:
 2353 001a 4B43     		muls	r3, r1
 2354              	.LVL230:
 839:frucd_display.c ****     int xFont, yFont;
 2355              		.loc 1 839 0
 2356 001c 0590     		str	r0, [sp, #20]
 2357              		.loc 1 844 0
 2358 001e E019     		adds	r0, r4, r7
 2359              	.LVL231:
 2360 0020 5B10     		asrs	r3, r3, #1
 2361 0022 4010     		asrs	r0, r0, #1
 845:frucd_display.c ****     yFont = (y1 + y2)/2 - 5 - (size*17);    
 2362              		.loc 1 845 0
 2363 0024 1B39     		subs	r1, r1, #27
 844:frucd_display.c ****     yFont = (y1 + y2)/2 - 5 - (size*17);    
 2364              		.loc 1 844 0
 2365 0026 C31A     		subs	r3, r0, r3
 2366              		.loc 1 845 0
 2367 0028 5143     		muls	r1, r2
 844:frucd_display.c ****     yFont = (y1 + y2)/2 - 5 - (size*17);    
 2368              		.loc 1 844 0
 2369 002a 0393     		str	r3, [sp, #12]
 2370              	.LVL232:
 2371              		.loc 1 845 0
 2372 002c AB19     		adds	r3, r5, r6
 2373              	.LVL233:
 2374 002e 5B10     		asrs	r3, r3, #1
 2375 0030 053B     		subs	r3, r3, #5
 2376 0032 5B18     		adds	r3, r3, r1
 2377 0034 0493     		str	r3, [sp, #16]
 2378              	.LVL234:
 846:frucd_display.c ****     if(size == 1){
 2379              		.loc 1 846 0
 2380 0036 012A     		cmp	r2, #1
 2381 0038 02D1     		bne	.L119
 847:frucd_display.c ****         UG_FontSelect(&FONT_32X53);
 2382              		.loc 1 847 0
 2383 003a 1048     		ldr	r0, .L120
 2384 003c FFF7FEFF 		bl	UG_FontSelect
 2385              	.LVL235:
 2386              	.L119:
 848:frucd_display.c ****     }
 849:frucd_display.c ****     
 850:frucd_display.c ****     // choose color
 851:frucd_display.c ****     UG_COLOR color = C_GREEN_YELLOW;
 852:frucd_display.c **** 
 853:frucd_display.c ****     char data_s[10];
 854:frucd_display.c ****     sprintf(data_s, "%d", data);
 2387              		.loc 1 854 0
 2388 0040 059A     		ldr	r2, [sp, #20]
ARM GAS  C:\Users\leoja\AppData\Local\Temp\ccM6wJLr.s 			page 60


 2389 0042 0F49     		ldr	r1, .L120+4
 2390 0044 07A8     		add	r0, sp, #28
 2391 0046 FFF7FEFF 		bl	sprintf
 2392              	.LVL236:
 855:frucd_display.c ****     UG_FillFrame(x1, y1, x2, y2, color);
 2393              		.loc 1 855 0
 2394 004a 3AB2     		sxth	r2, r7
 2395 004c 0D4F     		ldr	r7, .L120+8
 2396 004e 33B2     		sxth	r3, r6
 2397 0050 29B2     		sxth	r1, r5
 2398 0052 20B2     		sxth	r0, r4
 2399 0054 0097     		str	r7, [sp]
 2400 0056 FFF7FEFF 		bl	UG_FillFrame
 2401              	.LVL237:
 856:frucd_display.c ****     UG_PutColorString(xFont, yFont, data_s, C_BLACK, color);
 2402              		.loc 1 856 0
 2403 005a 6B46     		mov	r3, sp
 2404 005c 1021     		movs	r1, #16
 2405 005e 595E     		ldrsh	r1, [r3, r1]
 2406 0060 6B46     		mov	r3, sp
 2407 0062 07AA     		add	r2, sp, #28
 2408 0064 0C20     		movs	r0, #12
 2409 0066 185E     		ldrsh	r0, [r3, r0]
 2410 0068 0023     		movs	r3, #0
 2411 006a 0097     		str	r7, [sp]
 2412 006c FFF7FEFF 		bl	UG_PutColorString
 2413              	.LVL238:
 857:frucd_display.c ****     UG_FontSelect(&FONT_12X16);
 2414              		.loc 1 857 0
 2415 0070 0548     		ldr	r0, .L120+12
 2416 0072 FFF7FEFF 		bl	UG_FontSelect
 2417              	.LVL239:
 858:frucd_display.c **** }
 2418              		.loc 1 858 0
 2419 0076 0BB0     		add	sp, sp, #44
 2420              		@ sp needed
 2421 0078 F0BD     		pop	{r4, r5, r6, r7, pc}
 2422              	.L121:
 2423 007a C046     		.align	2
 2424              	.L120:
 2425 007c 00000000 		.word	FONT_32X53
 2426 0080 13010000 		.word	.LC73
 2427 0084 2FFFAD00 		.word	11403055
 2428 0088 00000000 		.word	FONT_12X16
 2429              		.cfi_endproc
 2430              	.LFE47:
 2431              		.size	disp_debug, .-disp_debug
 2432              		.section	.text.disp_mc_fault,"ax",%progbits
 2433              		.align	1
 2434              		.global	disp_mc_fault
 2435              		.code	16
 2436              		.thumb_func
 2437              		.type	disp_mc_fault, %function
 2438              	disp_mc_fault:
 2439              	.LFB48:
 859:frucd_display.c **** 
 860:frucd_display.c **** void disp_mc_fault(uint8_t data[8], uint16_t x1, uint16_t y1, uint16_t x2, uint16_t y2, uint8_t siz
ARM GAS  C:\Users\leoja\AppData\Local\Temp\ccM6wJLr.s 			page 61


 2440              		.loc 1 860 0
 2441              		.cfi_startproc
 2442              		@ args = 8, pretend = 0, frame = 32
 2443              		@ frame_needed = 0, uses_anonymous_args = 0
 2444              	.LVL240:
 2445 0000 F0B5     		push	{r4, r5, r6, r7, lr}
 2446              		.cfi_def_cfa_offset 20
 2447              		.cfi_offset 4, -20
 2448              		.cfi_offset 5, -16
 2449              		.cfi_offset 6, -12
 2450              		.cfi_offset 7, -8
 2451              		.cfi_offset 14, -4
 2452 0002 8BB0     		sub	sp, sp, #44
 2453              		.cfi_def_cfa_offset 64
 2454              		.loc 1 860 0
 2455 0004 1E00     		movs	r6, r3
 2456 0006 10AB     		add	r3, sp, #64
 2457              	.LVL241:
 2458 0008 1F88     		ldrh	r7, [r3]
 2459 000a 11AB     		add	r3, sp, #68
 2460              	.LVL242:
 2461 000c 1500     		movs	r5, r2
 2462 000e 1A78     		ldrb	r2, [r3]
 2463              	.LVL243:
 861:frucd_display.c ****     int xFont, yFont;
 862:frucd_display.c ****     int horizFontSize = 12 + 20*size;
 863:frucd_display.c ****     int stringSize;
 864:frucd_display.c ****     stringSize = 10;
 865:frucd_display.c ****     xFont = (x1 + x2)/2 - ((horizFontSize*stringSize)/2);
 2464              		.loc 1 865 0
 2465 0010 1423     		movs	r3, #20
 2466              	.LVL244:
 860:frucd_display.c ****     int xFont, yFont;
 2467              		.loc 1 860 0
 2468 0012 0C00     		movs	r4, r1
 2469              		.loc 1 865 0
 2470 0014 0A21     		movs	r1, #10
 2471              	.LVL245:
 2472 0016 5343     		muls	r3, r2
 2473 0018 0C33     		adds	r3, r3, #12
 2474              	.LVL246:
 2475 001a 4B43     		muls	r3, r1
 2476              	.LVL247:
 860:frucd_display.c ****     int xFont, yFont;
 2477              		.loc 1 860 0
 2478 001c 0590     		str	r0, [sp, #20]
 2479              		.loc 1 865 0
 2480 001e A019     		adds	r0, r4, r6
 2481              	.LVL248:
 2482 0020 5B10     		asrs	r3, r3, #1
 2483 0022 4010     		asrs	r0, r0, #1
 866:frucd_display.c ****     yFont = (y1 + y2)/2 - 5 - (size*17);    
 2484              		.loc 1 866 0
 2485 0024 1B39     		subs	r1, r1, #27
 865:frucd_display.c ****     yFont = (y1 + y2)/2 - 5 - (size*17);    
 2486              		.loc 1 865 0
 2487 0026 C31A     		subs	r3, r0, r3
ARM GAS  C:\Users\leoja\AppData\Local\Temp\ccM6wJLr.s 			page 62


 2488              		.loc 1 866 0
 2489 0028 5143     		muls	r1, r2
 865:frucd_display.c ****     yFont = (y1 + y2)/2 - 5 - (size*17);    
 2490              		.loc 1 865 0
 2491 002a 0393     		str	r3, [sp, #12]
 2492              	.LVL249:
 2493              		.loc 1 866 0
 2494 002c EB19     		adds	r3, r5, r7
 2495              	.LVL250:
 2496 002e 5B10     		asrs	r3, r3, #1
 2497 0030 053B     		subs	r3, r3, #5
 2498 0032 5B18     		adds	r3, r3, r1
 2499 0034 0493     		str	r3, [sp, #16]
 2500              	.LVL251:
 867:frucd_display.c ****     if(size == 1){
 2501              		.loc 1 867 0
 2502 0036 012A     		cmp	r2, #1
 2503 0038 02D1     		bne	.L123
 868:frucd_display.c ****         UG_FontSelect(&FONT_32X53);
 2504              		.loc 1 868 0
 2505 003a 1548     		ldr	r0, .L127
 2506 003c FFF7FEFF 		bl	UG_FontSelect
 2507              	.LVL252:
 2508              	.L123:
 860:frucd_display.c ****     int xFont, yFont;
 2509              		.loc 1 860 0
 2510 0040 0021     		movs	r1, #0
 2511              	.LVL253:
 2512              	.L125:
 869:frucd_display.c ****     }
 870:frucd_display.c ****     
 871:frucd_display.c ****     // choose color
 872:frucd_display.c ****     UG_COLOR color = C_GREEN;
 873:frucd_display.c ****     
 874:frucd_display.c ****     uint8_t printed_data = 0; 
 875:frucd_display.c ****     uint8_t i = 0;
 876:frucd_display.c ****     for (; i < 8; i++) {
 877:frucd_display.c ****         if (data[i] > 0) {
 2513              		.loc 1 877 0
 2514 0042 059B     		ldr	r3, [sp, #20]
 2515 0044 CAB2     		uxtb	r2, r1
 2516              	.LVL254:
 2517 0046 5B5C     		ldrb	r3, [r3, r1]
 2518 0048 002B     		cmp	r3, #0
 2519 004a 03D1     		bne	.L124
 2520              	.LVL255:
 2521 004c 0131     		adds	r1, r1, #1
 2522              	.LVL256:
 876:frucd_display.c ****         if (data[i] > 0) {
 2523              		.loc 1 876 0
 2524 004e 0829     		cmp	r1, #8
 2525 0050 F7D1     		bne	.L125
 2526 0052 0A00     		movs	r2, r1
 2527              	.LVL257:
 2528              	.L124:
 878:frucd_display.c ****             printed_data = data[i];
 879:frucd_display.c ****             break;
ARM GAS  C:\Users\leoja\AppData\Local\Temp\ccM6wJLr.s 			page 63


 880:frucd_display.c ****         }
 881:frucd_display.c ****     }
 882:frucd_display.c **** 
 883:frucd_display.c ****     char data_s[10];
 884:frucd_display.c ****     sprintf(data_s, "%d:%d", i, printed_data);
 2529              		.loc 1 884 0
 2530 0054 0F49     		ldr	r1, .L127+4
 2531 0056 07A8     		add	r0, sp, #28
 2532 0058 FFF7FEFF 		bl	sprintf
 2533              	.LVL258:
 885:frucd_display.c ****     UG_FillFrame(x1, y1, x2, y2, color);
 2534              		.loc 1 885 0
 2535 005c 32B2     		sxth	r2, r6
 2536 005e FF26     		movs	r6, #255
 2537 0060 3602     		lsls	r6, r6, #8
 2538 0062 3BB2     		sxth	r3, r7
 2539 0064 29B2     		sxth	r1, r5
 2540 0066 20B2     		sxth	r0, r4
 2541 0068 0096     		str	r6, [sp]
 2542 006a FFF7FEFF 		bl	UG_FillFrame
 2543              	.LVL259:
 886:frucd_display.c ****     UG_PutColorString(xFont, yFont, data_s, C_BLACK, color);
 2544              		.loc 1 886 0
 2545 006e 6B46     		mov	r3, sp
 2546 0070 1021     		movs	r1, #16
 2547 0072 595E     		ldrsh	r1, [r3, r1]
 2548 0074 6B46     		mov	r3, sp
 2549 0076 07AA     		add	r2, sp, #28
 2550 0078 0C20     		movs	r0, #12
 2551 007a 185E     		ldrsh	r0, [r3, r0]
 2552 007c 0023     		movs	r3, #0
 2553 007e 0096     		str	r6, [sp]
 2554 0080 FFF7FEFF 		bl	UG_PutColorString
 2555              	.LVL260:
 887:frucd_display.c ****     UG_FontSelect(&FONT_12X16);
 2556              		.loc 1 887 0
 2557 0084 0448     		ldr	r0, .L127+8
 2558 0086 FFF7FEFF 		bl	UG_FontSelect
 2559              	.LVL261:
 888:frucd_display.c **** }
 2560              		.loc 1 888 0
 2561 008a 0BB0     		add	sp, sp, #44
 2562              		@ sp needed
 2563 008c F0BD     		pop	{r4, r5, r6, r7, pc}
 2564              	.L128:
 2565 008e C046     		.align	2
 2566              	.L127:
 2567 0090 00000000 		.word	FONT_32X53
 2568 0094 4E010000 		.word	.LC102
 2569 0098 00000000 		.word	FONT_12X16
 2570              		.cfi_endproc
 2571              	.LFE48:
 2572              		.size	disp_mc_fault, .-disp_mc_fault
 2573              		.section	.text.clear_colors,"ax",%progbits
 2574              		.align	1
 2575              		.global	clear_colors
 2576              		.code	16
ARM GAS  C:\Users\leoja\AppData\Local\Temp\ccM6wJLr.s 			page 64


 2577              		.thumb_func
 2578              		.type	clear_colors, %function
 2579              	clear_colors:
 2580              	.LFB49:
 889:frucd_display.c **** 
 890:frucd_display.c **** void clear_colors(void)
 891:frucd_display.c **** {
 2581              		.loc 1 891 0
 2582              		.cfi_startproc
 2583              		@ args = 0, pretend = 0, frame = 0
 2584              		@ frame_needed = 0, uses_anonymous_args = 0
 2585              		@ link register save eliminated.
 892:frucd_display.c ****     last_SOC_color = C_BLACK;
 2586              		.loc 1 892 0
 2587 0000 0023     		movs	r3, #0
 2588 0002 074A     		ldr	r2, .L130
 893:frucd_display.c ****     last_max_pack_temp_color = C_BLACK;
 894:frucd_display.c ****     last_state_color = C_BLACK;
 895:frucd_display.c ****     last_glv_v_color = C_BLACK;
 896:frucd_display.c ****     last_mc_temp_color = C_BLACK;
 897:frucd_display.c ****     last_motor_temp_color = C_BLACK;
 898:frucd_display.c ****     last_shutdown_color = C_BLACK;
 899:frucd_display.c **** }
 2589              		.loc 1 899 0
 2590              		@ sp needed
 892:frucd_display.c ****     last_SOC_color = C_BLACK;
 2591              		.loc 1 892 0
 2592 0004 1360     		str	r3, [r2]
 893:frucd_display.c ****     last_max_pack_temp_color = C_BLACK;
 2593              		.loc 1 893 0
 2594 0006 074A     		ldr	r2, .L130+4
 2595 0008 1360     		str	r3, [r2]
 894:frucd_display.c ****     last_glv_v_color = C_BLACK;
 2596              		.loc 1 894 0
 2597 000a 074A     		ldr	r2, .L130+8
 2598 000c 1360     		str	r3, [r2]
 895:frucd_display.c ****     last_mc_temp_color = C_BLACK;
 2599              		.loc 1 895 0
 2600 000e 074A     		ldr	r2, .L130+12
 2601 0010 1360     		str	r3, [r2]
 896:frucd_display.c ****     last_motor_temp_color = C_BLACK;
 2602              		.loc 1 896 0
 2603 0012 074A     		ldr	r2, .L130+16
 2604 0014 1360     		str	r3, [r2]
 897:frucd_display.c ****     last_shutdown_color = C_BLACK;
 2605              		.loc 1 897 0
 2606 0016 074A     		ldr	r2, .L130+20
 2607 0018 1360     		str	r3, [r2]
 898:frucd_display.c **** }
 2608              		.loc 1 898 0
 2609 001a 074A     		ldr	r2, .L130+24
 2610 001c 1360     		str	r3, [r2]
 2611              		.loc 1 899 0
 2612 001e 7047     		bx	lr
 2613              	.L131:
 2614              		.align	2
 2615              	.L130:
ARM GAS  C:\Users\leoja\AppData\Local\Temp\ccM6wJLr.s 			page 65


 2616 0020 00000000 		.word	last_SOC_color
 2617 0024 00000000 		.word	last_max_pack_temp_color
 2618 0028 00000000 		.word	last_state_color
 2619 002c 00000000 		.word	last_glv_v_color
 2620 0030 00000000 		.word	last_mc_temp_color
 2621 0034 00000000 		.word	last_motor_temp_color
 2622 0038 00000000 		.word	last_shutdown_color
 2623              		.cfi_endproc
 2624              	.LFE49:
 2625              		.size	clear_colors, .-clear_colors
 2626              		.comm	last_shutdown_color,4,4
 2627              		.comm	last_motor_temp_color,4,4
 2628              		.comm	last_mc_temp_color,4,4
 2629              		.comm	last_glv_v_color,4,4
 2630              		.comm	last_state_color,4,4
 2631              		.comm	last_max_pack_temp_color,4,4
 2632              		.comm	last_SOC_color,4,4
 2633              		.comm	gui1963,120,4
 2634              		.section	.rodata.str1.1,"aMS",%progbits,1
 2635              	.LC0:
 2636 0000 5041434B 		.ascii	"PACK SOC:\000"
 2636      20534F43 
 2636      3A00
 2637              	.LC2:
 2638 000a 4D415820 		.ascii	"MAX PACK T:\000"
 2638      5041434B 
 2638      20543A00 
 2639              	.LC4:
 2640 0016 53544154 		.ascii	"STATE:\000"
 2640      453A00
 2641              	.LC6:
 2642 001d 4D432054 		.ascii	"MC T:\000"
 2642      3A00
 2643              	.LC8:
 2644 0023 474C5620 		.ascii	"GLV V:\000"
 2644      563A00
 2645              	.LC10:
 2646 002a 4D4F544F 		.ascii	"MOTOR T:\000"
 2646      5220543A 
 2646      00
 2647              	.LC12:
 2648 0033 53485554 		.ascii	"SHUTDOWN:\000"
 2648      444F574E 
 2648      3A00
 2649              	.LC14:
 2650 003d 4D432046 		.ascii	"MC FAULT:\000"
 2650      41554C54 
 2650      3A00
 2651              	.LC16:
 2652 0047 5041434B 		.ascii	"PACK SOC\000"
 2652      20534F43 
 2652      00
 2653              	.LC18:
 2654 0050 4D415820 		.ascii	"MAX PACK T\000"
 2654      5041434B 
 2654      205400
 2655              	.LC23:
ARM GAS  C:\Users\leoja\AppData\Local\Temp\ccM6wJLr.s 			page 66


 2656 005b 25642525 		.ascii	"%d%%\000"
 2656      00
 2657              	.LC29:
 2658 0060 25642043 		.ascii	"%d C\000"
 2658      00
 2659              	.LC34:
 2660 0065 20535441 		.ascii	" STARTUP  \000"
 2660      52545550 
 2660      202000
 2661              	.LC36:
 2662 0070 44525620 		.ascii	"DRV FRM LV\000"
 2662      46524D20 
 2662      4C5600
 2663              	.LC38:
 2664 007b 50524520 		.ascii	"PRE TM OUT\000"
 2664      544D204F 
 2664      555400
 2665              	.LC40:
 2666 0086 4252204E 		.ascii	"BR NOT PRS\000"
 2666      4F542050 
 2666      525300
 2667              	.LC42:
 2668 0091 4856204F 		.ascii	"HV OFF DRV\000"
 2668      46462044 
 2668      525600
 2669              	.LC44:
 2670 009c 534E5352 		.ascii	"SNSR DSCRP\000"
 2670      20445343 
 2670      525000
 2671              	.LC46:
 2672 00a7 42535044 		.ascii	"BSPD TRIPD\000"
 2672      20545249 
 2672      504400
 2673              	.LC48:
 2674 00b2 53485444 		.ascii	"SHTDWN OPN\000"
 2674      574E204F 
 2674      504E00
 2675              	.LC50:
 2676 00bd 554E4341 		.ascii	"UNCALIBRTD\000"
 2676      4C494252 
 2676      544400
 2677              	.LC52:
 2678 00c8 48415244 		.ascii	"HARD BSPD\000"
 2678      20425350 
 2678      4400
 2679              	.LC54:
 2680 00d2 4D432046 		.ascii	"MC FAULT\000"
 2680      41554C54 
 2680      00
 2681              	.LC56:
 2682 00db 594F2057 		.ascii	"YO WTF?\000"
 2682      54463F00 
 2683              	.LC58:
 2684 00e3 20202020 		.ascii	"    LV    \000"
 2684      4C562020 
 2684      202000
 2685              	.LC60:
ARM GAS  C:\Users\leoja\AppData\Local\Temp\ccM6wJLr.s 			page 67


 2686 00ee 50524543 		.ascii	"PRECHARGE \000"
 2686      48415247 
 2686      452000
 2687              	.LC62:
 2688 00f9 48562045 		.ascii	"HV ENABLED\000"
 2688      4E41424C 
 2688      454400
 2689              	.LC64:
 2690 0104 20204452 		.ascii	"  DRIVE   \000"
 2690      49564520 
 2690      202000
 2691              	.LC69:
 2692 010f 256C7500 		.ascii	"%lu\000"
 2693              	.LC73:
 2694 0113 256400   		.ascii	"%d\000"
 2695              	.LC81:
 2696 0116 494D445F 		.ascii	"IMD_OK\000"
 2696      4F4B00
 2697              	.LC83:
 2698 011d 424D535F 		.ascii	"BMS_OK\000"
 2698      4F4B00
 2699              	.LC85:
 2700 0124 53687574 		.ascii	"Shutdown_Final\000"
 2700      646F776E 
 2700      5F46696E 
 2700      616C00
 2701              	.LC87:
 2702 0133 4149525F 		.ascii	"AIR_1\000"
 2702      3100
 2703              	.LC89:
 2704 0139 4149525F 		.ascii	"AIR_2\000"
 2704      3200
 2705              	.LC91:
 2706 013f 50726563 		.ascii	"Precharge\000"
 2706      68617267 
 2706      6500
 2707              	.LC93:
 2708 0149 4E6F6E65 		.ascii	"None\000"
 2708      00
 2709              	.LC102:
 2710 014e 25643A25 		.ascii	"%d:%d\000"
 2710      6400
 2711              		.text
 2712              	.Letext0:
 2713              		.file 2 "c:\\program files (x86)\\cypress\\psoc creator\\4.4\\psoc creator\\import\\gnu\\arm\\5.4.
 2714              		.file 3 "c:\\program files (x86)\\cypress\\psoc creator\\4.4\\psoc creator\\import\\gnu\\arm\\5.4.
 2715              		.file 4 "Generated_Source\\PSoC4/cytypes.h"
 2716              		.file 5 "data.h"
 2717              		.file 6 "ugui_config.h"
 2718              		.file 7 "ugui.h"
 2719              		.file 8 "ugui_SSD1963.h"
 2720              		.file 9 "frucd_display.h"
 2721              		.file 10 "Generated_Source\\PSoC4/CyLib.h"
 2722              		.file 11 "c:\\program files (x86)\\cypress\\psoc creator\\4.4\\psoc creator\\import\\gnu\\arm\\5.4
 2723              		.section	.debug_info,"",%progbits
 2724              	.Ldebug_info0:
 2725 0000 3F1B0000 		.4byte	0x1b3f
ARM GAS  C:\Users\leoja\AppData\Local\Temp\ccM6wJLr.s 			page 68


 2726 0004 0400     		.2byte	0x4
 2727 0006 00000000 		.4byte	.Ldebug_abbrev0
 2728 000a 04       		.byte	0x4
 2729 000b 01       		.uleb128 0x1
 2730 000c 8F050000 		.4byte	.LASF143
 2731 0010 0C       		.byte	0xc
 2732 0011 90060000 		.4byte	.LASF144
 2733 0015 D3000000 		.4byte	.LASF145
 2734 0019 18000000 		.4byte	.Ldebug_ranges0+0x18
 2735 001d 00000000 		.4byte	0
 2736 0021 00000000 		.4byte	.Ldebug_line0
 2737 0025 02       		.uleb128 0x2
 2738 0026 0E040000 		.4byte	.LASF0
 2739 002a 02       		.byte	0x2
 2740 002b 1B       		.byte	0x1b
 2741 002c 30000000 		.4byte	0x30
 2742 0030 03       		.uleb128 0x3
 2743 0031 01       		.byte	0x1
 2744 0032 06       		.byte	0x6
 2745 0033 71060000 		.4byte	.LASF2
 2746 0037 02       		.uleb128 0x2
 2747 0038 C4040000 		.4byte	.LASF1
 2748 003c 02       		.byte	0x2
 2749 003d 1D       		.byte	0x1d
 2750 003e 42000000 		.4byte	0x42
 2751 0042 03       		.uleb128 0x3
 2752 0043 01       		.byte	0x1
 2753 0044 08       		.byte	0x8
 2754 0045 44050000 		.4byte	.LASF3
 2755 0049 02       		.uleb128 0x2
 2756 004a A7030000 		.4byte	.LASF4
 2757 004e 02       		.byte	0x2
 2758 004f 29       		.byte	0x29
 2759 0050 54000000 		.4byte	0x54
 2760 0054 03       		.uleb128 0x3
 2761 0055 02       		.byte	0x2
 2762 0056 05       		.byte	0x5
 2763 0057 75040000 		.4byte	.LASF5
 2764 005b 02       		.uleb128 0x2
 2765 005c CB010000 		.4byte	.LASF6
 2766 0060 02       		.byte	0x2
 2767 0061 2B       		.byte	0x2b
 2768 0062 66000000 		.4byte	0x66
 2769 0066 03       		.uleb128 0x3
 2770 0067 02       		.byte	0x2
 2771 0068 07       		.byte	0x7
 2772 0069 7D060000 		.4byte	.LASF7
 2773 006d 03       		.uleb128 0x3
 2774 006e 04       		.byte	0x4
 2775 006f 05       		.byte	0x5
 2776 0070 90040000 		.4byte	.LASF8
 2777 0074 02       		.uleb128 0x2
 2778 0075 52050000 		.4byte	.LASF9
 2779 0079 02       		.byte	0x2
 2780 007a 41       		.byte	0x41
 2781 007b 7F000000 		.4byte	0x7f
 2782 007f 03       		.uleb128 0x3
ARM GAS  C:\Users\leoja\AppData\Local\Temp\ccM6wJLr.s 			page 69


 2783 0080 04       		.byte	0x4
 2784 0081 07       		.byte	0x7
 2785 0082 E2040000 		.4byte	.LASF10
 2786 0086 03       		.uleb128 0x3
 2787 0087 08       		.byte	0x8
 2788 0088 05       		.byte	0x5
 2789 0089 80030000 		.4byte	.LASF11
 2790 008d 03       		.uleb128 0x3
 2791 008e 08       		.byte	0x8
 2792 008f 07       		.byte	0x7
 2793 0090 A4010000 		.4byte	.LASF12
 2794 0094 04       		.uleb128 0x4
 2795 0095 04       		.byte	0x4
 2796 0096 05       		.byte	0x5
 2797 0097 696E7400 		.ascii	"int\000"
 2798 009b 03       		.uleb128 0x3
 2799 009c 04       		.byte	0x4
 2800 009d 07       		.byte	0x7
 2801 009e 48000000 		.4byte	.LASF13
 2802 00a2 02       		.uleb128 0x2
 2803 00a3 54010000 		.4byte	.LASF14
 2804 00a7 03       		.byte	0x3
 2805 00a8 14       		.byte	0x14
 2806 00a9 25000000 		.4byte	0x25
 2807 00ad 02       		.uleb128 0x2
 2808 00ae 5F030000 		.4byte	.LASF15
 2809 00b2 03       		.byte	0x3
 2810 00b3 18       		.byte	0x18
 2811 00b4 37000000 		.4byte	0x37
 2812 00b8 02       		.uleb128 0x2
 2813 00b9 91010000 		.4byte	.LASF16
 2814 00bd 03       		.byte	0x3
 2815 00be 20       		.byte	0x20
 2816 00bf 49000000 		.4byte	0x49
 2817 00c3 02       		.uleb128 0x2
 2818 00c4 3F040000 		.4byte	.LASF17
 2819 00c8 03       		.byte	0x3
 2820 00c9 24       		.byte	0x24
 2821 00ca 5B000000 		.4byte	0x5b
 2822 00ce 02       		.uleb128 0x2
 2823 00cf 4B010000 		.4byte	.LASF18
 2824 00d3 03       		.byte	0x3
 2825 00d4 30       		.byte	0x30
 2826 00d5 74000000 		.4byte	0x74
 2827 00d9 05       		.uleb128 0x5
 2828 00da AD060000 		.4byte	.LASF19
 2829 00de 04       		.byte	0x4
 2830 00df FC01     		.2byte	0x1fc
 2831 00e1 42000000 		.4byte	0x42
 2832 00e5 03       		.uleb128 0x3
 2833 00e6 04       		.byte	0x4
 2834 00e7 04       		.byte	0x4
 2835 00e8 68010000 		.4byte	.LASF20
 2836 00ec 03       		.uleb128 0x3
 2837 00ed 08       		.byte	0x8
 2838 00ee 04       		.byte	0x4
 2839 00ef B3060000 		.4byte	.LASF21
ARM GAS  C:\Users\leoja\AppData\Local\Temp\ccM6wJLr.s 			page 70


 2840 00f3 03       		.uleb128 0x3
 2841 00f4 01       		.byte	0x1
 2842 00f5 08       		.byte	0x8
 2843 00f6 0F030000 		.4byte	.LASF22
 2844 00fa 03       		.uleb128 0x3
 2845 00fb 08       		.byte	0x8
 2846 00fc 04       		.byte	0x4
 2847 00fd 2B040000 		.4byte	.LASF23
 2848 0101 03       		.uleb128 0x3
 2849 0102 04       		.byte	0x4
 2850 0103 07       		.byte	0x7
 2851 0104 D9040000 		.4byte	.LASF24
 2852 0108 06       		.uleb128 0x6
 2853 0109 04       		.byte	0x4
 2854 010a 07       		.uleb128 0x7
 2855 010b 04       		.byte	0x4
 2856 010c F3000000 		.4byte	0xf3
 2857 0110 07       		.uleb128 0x7
 2858 0111 04       		.byte	0x4
 2859 0112 42000000 		.4byte	0x42
 2860 0116 08       		.uleb128 0x8
 2861 0117 01       		.byte	0x1
 2862 0118 42000000 		.4byte	0x42
 2863 011c 05       		.byte	0x5
 2864 011d 09       		.byte	0x9
 2865 011e 40010000 		.4byte	0x140
 2866 0122 09       		.uleb128 0x9
 2867 0123 4C5600   		.ascii	"LV\000"
 2868 0126 00       		.byte	0
 2869 0127 0A       		.uleb128 0xa
 2870 0128 FC030000 		.4byte	.LASF25
 2871 012c 01       		.byte	0x1
 2872 012d 0A       		.uleb128 0xa
 2873 012e F4020000 		.4byte	.LASF26
 2874 0132 02       		.byte	0x2
 2875 0133 0A       		.uleb128 0xa
 2876 0134 8B010000 		.4byte	.LASF27
 2877 0138 03       		.byte	0x3
 2878 0139 0A       		.uleb128 0xa
 2879 013a 89050000 		.4byte	.LASF28
 2880 013e 80       		.byte	0x80
 2881 013f 00       		.byte	0
 2882 0140 08       		.uleb128 0x8
 2883 0141 01       		.byte	0x1
 2884 0142 42000000 		.4byte	0x42
 2885 0146 05       		.byte	0x5
 2886 0147 11       		.byte	0x11
 2887 0148 8F010000 		.4byte	0x18f
 2888 014c 0A       		.uleb128 0xa
 2889 014d 62000000 		.4byte	.LASF29
 2890 0151 00       		.byte	0
 2891 0152 0A       		.uleb128 0xa
 2892 0153 C8060000 		.4byte	.LASF30
 2893 0157 01       		.byte	0x1
 2894 0158 0A       		.uleb128 0xa
 2895 0159 14030000 		.4byte	.LASF31
 2896 015d 02       		.byte	0x2
ARM GAS  C:\Users\leoja\AppData\Local\Temp\ccM6wJLr.s 			page 71


 2897 015e 0A       		.uleb128 0xa
 2898 015f 2F020000 		.4byte	.LASF32
 2899 0163 03       		.byte	0x3
 2900 0164 0A       		.uleb128 0xa
 2901 0165 7F020000 		.4byte	.LASF33
 2902 0169 04       		.byte	0x4
 2903 016a 0A       		.uleb128 0xa
 2904 016b 7E000000 		.4byte	.LASF34
 2905 016f 05       		.byte	0x5
 2906 0170 0A       		.uleb128 0xa
 2907 0171 AB000000 		.4byte	.LASF35
 2908 0175 06       		.byte	0x6
 2909 0176 0A       		.uleb128 0xa
 2910 0177 DE020000 		.4byte	.LASF36
 2911 017b 07       		.byte	0x7
 2912 017c 0A       		.uleb128 0xa
 2913 017d 9E000000 		.4byte	.LASF37
 2914 0181 08       		.byte	0x8
 2915 0182 0A       		.uleb128 0xa
 2916 0183 B3020000 		.4byte	.LASF38
 2917 0187 09       		.byte	0x9
 2918 0188 0A       		.uleb128 0xa
 2919 0189 BD000000 		.4byte	.LASF39
 2920 018d 0A       		.byte	0xa
 2921 018e 00       		.byte	0
 2922 018f 02       		.uleb128 0x2
 2923 0190 08040000 		.4byte	.LASF40
 2924 0194 06       		.byte	0x6
 2925 0195 26       		.byte	0x26
 2926 0196 AD000000 		.4byte	0xad
 2927 019a 02       		.uleb128 0x2
 2928 019b 74030000 		.4byte	.LASF41
 2929 019f 06       		.byte	0x6
 2930 01a0 27       		.byte	0x27
 2931 01a1 A2000000 		.4byte	0xa2
 2932 01a5 02       		.uleb128 0x2
 2933 01a6 41000000 		.4byte	.LASF42
 2934 01aa 06       		.byte	0x6
 2935 01ab 28       		.byte	0x28
 2936 01ac C3000000 		.4byte	0xc3
 2937 01b0 02       		.uleb128 0x2
 2938 01b1 EB010000 		.4byte	.LASF43
 2939 01b5 06       		.byte	0x6
 2940 01b6 29       		.byte	0x29
 2941 01b7 B8000000 		.4byte	0xb8
 2942 01bb 02       		.uleb128 0x2
 2943 01bc 5B010000 		.4byte	.LASF44
 2944 01c0 06       		.byte	0x6
 2945 01c1 2A       		.byte	0x2a
 2946 01c2 CE000000 		.4byte	0xce
 2947 01c6 08       		.uleb128 0x8
 2948 01c7 01       		.byte	0x1
 2949 01c8 42000000 		.4byte	0x42
 2950 01cc 07       		.byte	0x7
 2951 01cd 1F       		.byte	0x1f
 2952 01ce DF010000 		.4byte	0x1df
 2953 01d2 0A       		.uleb128 0xa
ARM GAS  C:\Users\leoja\AppData\Local\Temp\ccM6wJLr.s 			page 72


 2954 01d3 F9060000 		.4byte	.LASF45
 2955 01d7 00       		.byte	0
 2956 01d8 0A       		.uleb128 0xa
 2957 01d9 0F000000 		.4byte	.LASF46
 2958 01dd 01       		.byte	0x1
 2959 01de 00       		.byte	0
 2960 01df 02       		.uleb128 0x2
 2961 01e0 3D030000 		.4byte	.LASF47
 2962 01e4 07       		.byte	0x7
 2963 01e5 22       		.byte	0x22
 2964 01e6 C6010000 		.4byte	0x1c6
 2965 01ea 0B       		.uleb128 0xb
 2966 01eb 14       		.byte	0x14
 2967 01ec 07       		.byte	0x7
 2968 01ed 24       		.byte	0x24
 2969 01ee 45020000 		.4byte	0x245
 2970 01f2 0C       		.uleb128 0xc
 2971 01f3 7000     		.ascii	"p\000"
 2972 01f5 07       		.byte	0x7
 2973 01f6 26       		.byte	0x26
 2974 01f7 10010000 		.4byte	0x110
 2975 01fb 00       		.byte	0
 2976 01fc 0D       		.uleb128 0xd
 2977 01fd 33030000 		.4byte	.LASF48
 2978 0201 07       		.byte	0x7
 2979 0202 27       		.byte	0x27
 2980 0203 DF010000 		.4byte	0x1df
 2981 0207 04       		.byte	0x4
 2982 0208 0D       		.uleb128 0xd
 2983 0209 74020000 		.4byte	.LASF49
 2984 020d 07       		.byte	0x7
 2985 020e 28       		.byte	0x28
 2986 020f B0010000 		.4byte	0x1b0
 2987 0213 06       		.byte	0x6
 2988 0214 0D       		.uleb128 0xd
 2989 0215 69040000 		.4byte	.LASF50
 2990 0219 07       		.byte	0x7
 2991 021a 29       		.byte	0x29
 2992 021b B0010000 		.4byte	0x1b0
 2993 021f 08       		.byte	0x8
 2994 0220 0D       		.uleb128 0xd
 2995 0221 F1030000 		.4byte	.LASF51
 2996 0225 07       		.byte	0x7
 2997 0226 2A       		.byte	0x2a
 2998 0227 A5010000 		.4byte	0x1a5
 2999 022b 0A       		.byte	0xa
 3000 022c 0D       		.uleb128 0xd
 3001 022d B3040000 		.4byte	.LASF52
 3002 0231 07       		.byte	0x7
 3003 0232 2B       		.byte	0x2b
 3004 0233 A5010000 		.4byte	0x1a5
 3005 0237 0C       		.byte	0xc
 3006 0238 0D       		.uleb128 0xd
 3007 0239 17040000 		.4byte	.LASF53
 3008 023d 07       		.byte	0x7
 3009 023e 2C       		.byte	0x2c
 3010 023f 45020000 		.4byte	0x245
ARM GAS  C:\Users\leoja\AppData\Local\Temp\ccM6wJLr.s 			page 73


 3011 0243 10       		.byte	0x10
 3012 0244 00       		.byte	0
 3013 0245 07       		.uleb128 0x7
 3014 0246 04       		.byte	0x4
 3015 0247 8F010000 		.4byte	0x18f
 3016 024b 02       		.uleb128 0x2
 3017 024c BC040000 		.4byte	.LASF54
 3018 0250 07       		.byte	0x7
 3019 0251 2D       		.byte	0x2d
 3020 0252 EA010000 		.4byte	0x1ea
 3021 0256 02       		.uleb128 0x2
 3022 0257 B1030000 		.4byte	.LASF55
 3023 025b 07       		.byte	0x7
 3024 025c 66       		.byte	0x66
 3025 025d 61020000 		.4byte	0x261
 3026 0261 0E       		.uleb128 0xe
 3027 0262 DE060000 		.4byte	.LASF65
 3028 0266 20       		.byte	0x20
 3029 0267 07       		.byte	0x7
 3030 0268 F7       		.byte	0xf7
 3031 0269 DB020000 		.4byte	0x2db
 3032 026d 0D       		.uleb128 0xd
 3033 026e 36060000 		.4byte	.LASF56
 3034 0272 07       		.byte	0x7
 3035 0273 F9       		.byte	0xf9
 3036 0274 8F010000 		.4byte	0x18f
 3037 0278 00       		.byte	0
 3038 0279 0D       		.uleb128 0xd
 3039 027a 2C000000 		.4byte	.LASF57
 3040 027e 07       		.byte	0x7
 3041 027f FA       		.byte	0xfa
 3042 0280 8F010000 		.4byte	0x18f
 3043 0284 01       		.byte	0x1
 3044 0285 0D       		.uleb128 0xd
 3045 0286 91000000 		.4byte	.LASF58
 3046 028a 07       		.byte	0x7
 3047 028b FB       		.byte	0xfb
 3048 028c 80040000 		.4byte	0x480
 3049 0290 04       		.byte	0x4
 3050 0291 0D       		.uleb128 0xd
 3051 0292 ED060000 		.4byte	.LASF59
 3052 0296 07       		.byte	0x7
 3053 0297 FC       		.byte	0xfc
 3054 0298 C9030000 		.4byte	0x3c9
 3055 029c 08       		.byte	0x8
 3056 029d 0D       		.uleb128 0xd
 3057 029e 62060000 		.4byte	.LASF60
 3058 02a2 07       		.byte	0x7
 3059 02a3 FD       		.byte	0xfd
 3060 02a4 C9030000 		.4byte	0x3c9
 3061 02a8 10       		.byte	0x10
 3062 02a9 0D       		.uleb128 0xd
 3063 02aa 3F050000 		.4byte	.LASF61
 3064 02ae 07       		.byte	0x7
 3065 02af FE       		.byte	0xfe
 3066 02b0 8F010000 		.4byte	0x18f
 3067 02b4 18       		.byte	0x18
ARM GAS  C:\Users\leoja\AppData\Local\Temp\ccM6wJLr.s 			page 74


 3068 02b5 0C       		.uleb128 0xc
 3069 02b6 696400   		.ascii	"id\000"
 3070 02b9 07       		.byte	0x7
 3071 02ba FF       		.byte	0xff
 3072 02bb 8F010000 		.4byte	0x18f
 3073 02bf 19       		.byte	0x19
 3074 02c0 0F       		.uleb128 0xf
 3075 02c1 6E010000 		.4byte	.LASF62
 3076 02c5 07       		.byte	0x7
 3077 02c6 0001     		.2byte	0x100
 3078 02c8 8F010000 		.4byte	0x18f
 3079 02cc 1A       		.byte	0x1a
 3080 02cd 0F       		.uleb128 0xf
 3081 02ce 5A030000 		.4byte	.LASF63
 3082 02d2 07       		.byte	0x7
 3083 02d3 0101     		.2byte	0x101
 3084 02d5 08010000 		.4byte	0x108
 3085 02d9 1C       		.byte	0x1c
 3086 02da 00       		.byte	0
 3087 02db 02       		.uleb128 0x2
 3088 02dc 99040000 		.4byte	.LASF64
 3089 02e0 07       		.byte	0x7
 3090 02e1 67       		.byte	0x67
 3091 02e2 E6020000 		.4byte	0x2e6
 3092 02e6 10       		.uleb128 0x10
 3093 02e7 75000000 		.4byte	.LASF66
 3094 02eb 44       		.byte	0x44
 3095 02ec 07       		.byte	0x7
 3096 02ed 4101     		.2byte	0x141
 3097 02ef 89030000 		.4byte	0x389
 3098 02f3 0F       		.uleb128 0xf
 3099 02f4 E4010000 		.4byte	.LASF67
 3100 02f8 07       		.byte	0x7
 3101 02f9 4301     		.2byte	0x143
 3102 02fb 8F010000 		.4byte	0x18f
 3103 02ff 00       		.byte	0
 3104 0300 0F       		.uleb128 0xf
 3105 0301 32010000 		.4byte	.LASF68
 3106 0305 07       		.byte	0x7
 3107 0306 4401     		.2byte	0x144
 3108 0308 7A040000 		.4byte	0x47a
 3109 030c 04       		.byte	0x4
 3110 030d 0F       		.uleb128 0xf
 3111 030e 36060000 		.4byte	.LASF56
 3112 0312 07       		.byte	0x7
 3113 0313 4501     		.2byte	0x145
 3114 0315 8F010000 		.4byte	0x18f
 3115 0319 08       		.byte	0x8
 3116 031a 11       		.uleb128 0x11
 3117 031b 666300   		.ascii	"fc\000"
 3118 031e 07       		.byte	0x7
 3119 031f 4601     		.2byte	0x146
 3120 0321 89030000 		.4byte	0x389
 3121 0325 0C       		.byte	0xc
 3122 0326 11       		.uleb128 0x11
 3123 0327 626300   		.ascii	"bc\000"
 3124 032a 07       		.byte	0x7
ARM GAS  C:\Users\leoja\AppData\Local\Temp\ccM6wJLr.s 			page 75


 3125 032b 4701     		.2byte	0x147
 3126 032d 89030000 		.4byte	0x389
 3127 0331 10       		.byte	0x10
 3128 0332 11       		.uleb128 0x11
 3129 0333 787300   		.ascii	"xs\000"
 3130 0336 07       		.byte	0x7
 3131 0337 4801     		.2byte	0x148
 3132 0339 B0010000 		.4byte	0x1b0
 3133 033d 14       		.byte	0x14
 3134 033e 11       		.uleb128 0x11
 3135 033f 797300   		.ascii	"ys\000"
 3136 0342 07       		.byte	0x7
 3137 0343 4901     		.2byte	0x149
 3138 0345 B0010000 		.4byte	0x1b0
 3139 0349 16       		.byte	0x16
 3140 034a 11       		.uleb128 0x11
 3141 034b 786500   		.ascii	"xe\000"
 3142 034e 07       		.byte	0x7
 3143 034f 4A01     		.2byte	0x14a
 3144 0351 B0010000 		.4byte	0x1b0
 3145 0355 18       		.byte	0x18
 3146 0356 11       		.uleb128 0x11
 3147 0357 796500   		.ascii	"ye\000"
 3148 035a 07       		.byte	0x7
 3149 035b 4B01     		.2byte	0x14b
 3150 035d B0010000 		.4byte	0x1b0
 3151 0361 1A       		.byte	0x1a
 3152 0362 0F       		.uleb128 0xf
 3153 0363 30060000 		.4byte	.LASF69
 3154 0367 07       		.byte	0x7
 3155 0368 4C01     		.2byte	0x14c
 3156 036a 8F010000 		.4byte	0x18f
 3157 036e 1C       		.byte	0x1c
 3158 036f 0F       		.uleb128 0xf
 3159 0370 45010000 		.4byte	.LASF70
 3160 0374 07       		.byte	0x7
 3161 0375 4D01     		.2byte	0x14d
 3162 0377 10050000 		.4byte	0x510
 3163 037b 20       		.byte	0x20
 3164 037c 11       		.uleb128 0x11
 3165 037d 636200   		.ascii	"cb\000"
 3166 0380 07       		.byte	0x7
 3167 0381 4E01     		.2byte	0x14e
 3168 0383 2D050000 		.4byte	0x52d
 3169 0387 40       		.byte	0x40
 3170 0388 00       		.byte	0
 3171 0389 02       		.uleb128 0x2
 3172 038a 38000000 		.4byte	.LASF71
 3173 038e 07       		.byte	0x7
 3174 038f 6A       		.byte	0x6a
 3175 0390 BB010000 		.4byte	0x1bb
 3176 0394 0B       		.uleb128 0xb
 3177 0395 08       		.byte	0x8
 3178 0396 07       		.byte	0x7
 3179 0397 A7       		.byte	0xa7
 3180 0398 C9030000 		.4byte	0x3c9
 3181 039c 0C       		.uleb128 0xc
ARM GAS  C:\Users\leoja\AppData\Local\Temp\ccM6wJLr.s 			page 76


 3182 039d 787300   		.ascii	"xs\000"
 3183 03a0 07       		.byte	0x7
 3184 03a1 A9       		.byte	0xa9
 3185 03a2 B0010000 		.4byte	0x1b0
 3186 03a6 00       		.byte	0
 3187 03a7 0C       		.uleb128 0xc
 3188 03a8 797300   		.ascii	"ys\000"
 3189 03ab 07       		.byte	0x7
 3190 03ac AA       		.byte	0xaa
 3191 03ad B0010000 		.4byte	0x1b0
 3192 03b1 02       		.byte	0x2
 3193 03b2 0C       		.uleb128 0xc
 3194 03b3 786500   		.ascii	"xe\000"
 3195 03b6 07       		.byte	0x7
 3196 03b7 AB       		.byte	0xab
 3197 03b8 B0010000 		.4byte	0x1b0
 3198 03bc 04       		.byte	0x4
 3199 03bd 0C       		.uleb128 0xc
 3200 03be 796500   		.ascii	"ye\000"
 3201 03c1 07       		.byte	0x7
 3202 03c2 AC       		.byte	0xac
 3203 03c3 B0010000 		.4byte	0x1b0
 3204 03c7 06       		.byte	0x6
 3205 03c8 00       		.byte	0
 3206 03c9 02       		.uleb128 0x2
 3207 03ca 47030000 		.4byte	.LASF72
 3208 03ce 07       		.byte	0x7
 3209 03cf AD       		.byte	0xad
 3210 03d0 94030000 		.4byte	0x394
 3211 03d4 07       		.uleb128 0x7
 3212 03d5 04       		.byte	0x4
 3213 03d6 DA030000 		.4byte	0x3da
 3214 03da 12       		.uleb128 0x12
 3215 03db 4B020000 		.4byte	0x24b
 3216 03df 0B       		.uleb128 0xb
 3217 03e0 08       		.byte	0x8
 3218 03e1 07       		.byte	0x7
 3219 03e2 D6       		.byte	0xd6
 3220 03e3 23040000 		.4byte	0x423
 3221 03e7 0D       		.uleb128 0xd
 3222 03e8 3F050000 		.4byte	.LASF61
 3223 03ec 07       		.byte	0x7
 3224 03ed D8       		.byte	0xd8
 3225 03ee 8F010000 		.4byte	0x18f
 3226 03f2 00       		.byte	0
 3227 03f3 0C       		.uleb128 0xc
 3228 03f4 696400   		.ascii	"id\000"
 3229 03f7 07       		.byte	0x7
 3230 03f8 D9       		.byte	0xd9
 3231 03f9 8F010000 		.4byte	0x18f
 3232 03fd 01       		.byte	0x1
 3233 03fe 0D       		.uleb128 0xd
 3234 03ff C0030000 		.4byte	.LASF73
 3235 0403 07       		.byte	0x7
 3236 0404 DA       		.byte	0xda
 3237 0405 8F010000 		.4byte	0x18f
 3238 0409 02       		.byte	0x2
ARM GAS  C:\Users\leoja\AppData\Local\Temp\ccM6wJLr.s 			page 77


 3239 040a 0D       		.uleb128 0xd
 3240 040b 6E010000 		.4byte	.LASF62
 3241 040f 07       		.byte	0x7
 3242 0410 DB       		.byte	0xdb
 3243 0411 8F010000 		.4byte	0x18f
 3244 0415 03       		.byte	0x3
 3245 0416 0C       		.uleb128 0xc
 3246 0417 73726300 		.ascii	"src\000"
 3247 041b 07       		.byte	0x7
 3248 041c DC       		.byte	0xdc
 3249 041d 08010000 		.4byte	0x108
 3250 0421 04       		.byte	0x4
 3251 0422 00       		.byte	0
 3252 0423 02       		.uleb128 0x2
 3253 0424 4F030000 		.4byte	.LASF74
 3254 0428 07       		.byte	0x7
 3255 0429 DD       		.byte	0xdd
 3256 042a DF030000 		.4byte	0x3df
 3257 042e 0B       		.uleb128 0xb
 3258 042f 06       		.byte	0x6
 3259 0430 07       		.byte	0x7
 3260 0431 E8       		.byte	0xe8
 3261 0432 59040000 		.4byte	0x459
 3262 0436 0D       		.uleb128 0xd
 3263 0437 36060000 		.4byte	.LASF56
 3264 043b 07       		.byte	0x7
 3265 043c EA       		.byte	0xea
 3266 043d 8F010000 		.4byte	0x18f
 3267 0441 00       		.byte	0
 3268 0442 0C       		.uleb128 0xc
 3269 0443 787000   		.ascii	"xp\000"
 3270 0446 07       		.byte	0x7
 3271 0447 EB       		.byte	0xeb
 3272 0448 B0010000 		.4byte	0x1b0
 3273 044c 02       		.byte	0x2
 3274 044d 0C       		.uleb128 0xc
 3275 044e 797000   		.ascii	"yp\000"
 3276 0451 07       		.byte	0x7
 3277 0452 EC       		.byte	0xec
 3278 0453 B0010000 		.4byte	0x1b0
 3279 0457 04       		.byte	0x4
 3280 0458 00       		.byte	0
 3281 0459 02       		.uleb128 0x2
 3282 045a 68060000 		.4byte	.LASF75
 3283 045e 07       		.byte	0x7
 3284 045f ED       		.byte	0xed
 3285 0460 2E040000 		.4byte	0x42e
 3286 0464 13       		.uleb128 0x13
 3287 0465 74040000 		.4byte	0x474
 3288 0469 14       		.uleb128 0x14
 3289 046a 74040000 		.4byte	0x474
 3290 046e 14       		.uleb128 0x14
 3291 046f 7A040000 		.4byte	0x47a
 3292 0473 00       		.byte	0
 3293 0474 07       		.uleb128 0x7
 3294 0475 04       		.byte	0x4
 3295 0476 DB020000 		.4byte	0x2db
ARM GAS  C:\Users\leoja\AppData\Local\Temp\ccM6wJLr.s 			page 78


 3296 047a 07       		.uleb128 0x7
 3297 047b 04       		.byte	0x4
 3298 047c 56020000 		.4byte	0x256
 3299 0480 07       		.uleb128 0x7
 3300 0481 04       		.byte	0x4
 3301 0482 64040000 		.4byte	0x464
 3302 0486 15       		.uleb128 0x15
 3303 0487 20       		.byte	0x20
 3304 0488 07       		.byte	0x7
 3305 0489 3201     		.2byte	0x132
 3306 048b 10050000 		.4byte	0x510
 3307 048f 11       		.uleb128 0x11
 3308 0490 73747200 		.ascii	"str\000"
 3309 0494 07       		.byte	0x7
 3310 0495 3401     		.2byte	0x134
 3311 0497 0A010000 		.4byte	0x10a
 3312 049b 00       		.byte	0
 3313 049c 0F       		.uleb128 0xf
 3314 049d D4040000 		.4byte	.LASF76
 3315 04a1 07       		.byte	0x7
 3316 04a2 3501     		.2byte	0x135
 3317 04a4 D4030000 		.4byte	0x3d4
 3318 04a8 04       		.byte	0x4
 3319 04a9 0F       		.uleb128 0xf
 3320 04aa 6B050000 		.4byte	.LASF77
 3321 04ae 07       		.byte	0x7
 3322 04af 3601     		.2byte	0x136
 3323 04b1 9A010000 		.4byte	0x19a
 3324 04b5 08       		.byte	0x8
 3325 04b6 0F       		.uleb128 0xf
 3326 04b7 07030000 		.4byte	.LASF78
 3327 04bb 07       		.byte	0x7
 3328 04bc 3701     		.2byte	0x137
 3329 04be 9A010000 		.4byte	0x19a
 3330 04c2 09       		.byte	0x9
 3331 04c3 0F       		.uleb128 0xf
 3332 04c4 E7060000 		.4byte	.LASF79
 3333 04c8 07       		.byte	0x7
 3334 04c9 3801     		.2byte	0x138
 3335 04cb 8F010000 		.4byte	0x18f
 3336 04cf 0A       		.byte	0xa
 3337 04d0 11       		.uleb128 0x11
 3338 04d1 666300   		.ascii	"fc\000"
 3339 04d4 07       		.byte	0x7
 3340 04d5 3901     		.2byte	0x139
 3341 04d7 89030000 		.4byte	0x389
 3342 04db 0C       		.byte	0xc
 3343 04dc 11       		.uleb128 0x11
 3344 04dd 626300   		.ascii	"bc\000"
 3345 04e0 07       		.byte	0x7
 3346 04e1 3A01     		.2byte	0x13a
 3347 04e3 89030000 		.4byte	0x389
 3348 04e7 10       		.byte	0x10
 3349 04e8 11       		.uleb128 0x11
 3350 04e9 69666300 		.ascii	"ifc\000"
 3351 04ed 07       		.byte	0x7
 3352 04ee 3B01     		.2byte	0x13b
ARM GAS  C:\Users\leoja\AppData\Local\Temp\ccM6wJLr.s 			page 79


 3353 04f0 89030000 		.4byte	0x389
 3354 04f4 14       		.byte	0x14
 3355 04f5 11       		.uleb128 0x11
 3356 04f6 69626300 		.ascii	"ibc\000"
 3357 04fa 07       		.byte	0x7
 3358 04fb 3C01     		.2byte	0x13c
 3359 04fd 89030000 		.4byte	0x389
 3360 0501 18       		.byte	0x18
 3361 0502 0F       		.uleb128 0xf
 3362 0503 EA030000 		.4byte	.LASF80
 3363 0507 07       		.byte	0x7
 3364 0508 3D01     		.2byte	0x13d
 3365 050a 8F010000 		.4byte	0x18f
 3366 050e 1C       		.byte	0x1c
 3367 050f 00       		.byte	0
 3368 0510 05       		.uleb128 0x5
 3369 0511 50040000 		.4byte	.LASF81
 3370 0515 07       		.byte	0x7
 3371 0516 3E01     		.2byte	0x13e
 3372 0518 86040000 		.4byte	0x486
 3373 051c 13       		.uleb128 0x13
 3374 051d 27050000 		.4byte	0x527
 3375 0521 14       		.uleb128 0x14
 3376 0522 27050000 		.4byte	0x527
 3377 0526 00       		.byte	0
 3378 0527 07       		.uleb128 0x7
 3379 0528 04       		.byte	0x4
 3380 0529 23040000 		.4byte	0x423
 3381 052d 07       		.uleb128 0x7
 3382 052e 04       		.byte	0x4
 3383 052f 1C050000 		.4byte	0x51c
 3384 0533 15       		.uleb128 0x15
 3385 0534 08       		.byte	0x8
 3386 0535 07       		.byte	0x7
 3387 0536 2002     		.2byte	0x220
 3388 0538 57050000 		.4byte	0x557
 3389 053c 0F       		.uleb128 0xf
 3390 053d 6D030000 		.4byte	.LASF82
 3391 0541 07       		.byte	0x7
 3392 0542 2202     		.2byte	0x222
 3393 0544 08010000 		.4byte	0x108
 3394 0548 00       		.byte	0
 3395 0549 0F       		.uleb128 0xf
 3396 054a 36060000 		.4byte	.LASF56
 3397 054e 07       		.byte	0x7
 3398 054f 2302     		.2byte	0x223
 3399 0551 8F010000 		.4byte	0x18f
 3400 0555 04       		.byte	0x4
 3401 0556 00       		.byte	0
 3402 0557 05       		.uleb128 0x5
 3403 0558 59040000 		.4byte	.LASF83
 3404 055c 07       		.byte	0x7
 3405 055d 2402     		.2byte	0x224
 3406 055f 33050000 		.4byte	0x533
 3407 0563 15       		.uleb128 0x15
 3408 0564 14       		.byte	0x14
 3409 0565 07       		.byte	0x7
ARM GAS  C:\Users\leoja\AppData\Local\Temp\ccM6wJLr.s 			page 80


 3410 0566 3C02     		.2byte	0x23c
 3411 0568 D5050000 		.4byte	0x5d5
 3412 056c 0F       		.uleb128 0xf
 3413 056d 63040000 		.4byte	.LASF84
 3414 0571 07       		.byte	0x7
 3415 0572 3E02     		.2byte	0x23e
 3416 0574 B0010000 		.4byte	0x1b0
 3417 0578 00       		.byte	0
 3418 0579 0F       		.uleb128 0xf
 3419 057a FD010000 		.4byte	.LASF85
 3420 057e 07       		.byte	0x7
 3421 057f 3F02     		.2byte	0x23f
 3422 0581 B0010000 		.4byte	0x1b0
 3423 0585 02       		.byte	0x2
 3424 0586 0F       		.uleb128 0xf
 3425 0587 81050000 		.4byte	.LASF86
 3426 058b 07       		.byte	0x7
 3427 058c 4002     		.2byte	0x240
 3428 058e B0010000 		.4byte	0x1b0
 3429 0592 04       		.byte	0x4
 3430 0593 0F       		.uleb128 0xf
 3431 0594 FF020000 		.4byte	.LASF87
 3432 0598 07       		.byte	0x7
 3433 0599 4102     		.2byte	0x241
 3434 059b B0010000 		.4byte	0x1b0
 3435 059f 06       		.byte	0x6
 3436 05a0 0F       		.uleb128 0xf
 3437 05a1 62010000 		.4byte	.LASF88
 3438 05a5 07       		.byte	0x7
 3439 05a6 4202     		.2byte	0x242
 3440 05a8 B0010000 		.4byte	0x1b0
 3441 05ac 08       		.byte	0x8
 3442 05ad 0F       		.uleb128 0xf
 3443 05ae 67000000 		.4byte	.LASF89
 3444 05b2 07       		.byte	0x7
 3445 05b3 4302     		.2byte	0x243
 3446 05b5 B0010000 		.4byte	0x1b0
 3447 05b9 0A       		.byte	0xa
 3448 05ba 0F       		.uleb128 0xf
 3449 05bb F2010000 		.4byte	.LASF90
 3450 05bf 07       		.byte	0x7
 3451 05c0 4402     		.2byte	0x244
 3452 05c2 89030000 		.4byte	0x389
 3453 05c6 0C       		.byte	0xc
 3454 05c7 0F       		.uleb128 0xf
 3455 05c8 80010000 		.4byte	.LASF91
 3456 05cc 07       		.byte	0x7
 3457 05cd 4502     		.2byte	0x245
 3458 05cf 89030000 		.4byte	0x389
 3459 05d3 10       		.byte	0x10
 3460 05d4 00       		.byte	0
 3461 05d5 15       		.uleb128 0x15
 3462 05d6 78       		.byte	0x78
 3463 05d7 07       		.byte	0x7
 3464 05d8 3302     		.2byte	0x233
 3465 05da AF060000 		.4byte	0x6af
 3466 05de 0F       		.uleb128 0xf
ARM GAS  C:\Users\leoja\AppData\Local\Temp\ccM6wJLr.s 			page 81


 3467 05df BB030000 		.4byte	.LASF92
 3468 05e3 07       		.byte	0x7
 3469 05e4 3502     		.2byte	0x235
 3470 05e6 C4060000 		.4byte	0x6c4
 3471 05ea 00       		.byte	0
 3472 05eb 0F       		.uleb128 0xf
 3473 05ec 7A030000 		.4byte	.LASF93
 3474 05f0 07       		.byte	0x7
 3475 05f1 3602     		.2byte	0x236
 3476 05f3 B0010000 		.4byte	0x1b0
 3477 05f7 04       		.byte	0x4
 3478 05f8 0F       		.uleb128 0xf
 3479 05f9 98000000 		.4byte	.LASF94
 3480 05fd 07       		.byte	0x7
 3481 05fe 3702     		.2byte	0x237
 3482 0600 B0010000 		.4byte	0x1b0
 3483 0604 06       		.byte	0x6
 3484 0605 0F       		.uleb128 0xf
 3485 0606 67030000 		.4byte	.LASF95
 3486 060a 07       		.byte	0x7
 3487 060b 3802     		.2byte	0x238
 3488 060d 59040000 		.4byte	0x459
 3489 0611 08       		.byte	0x8
 3490 0612 0F       		.uleb128 0xf
 3491 0613 39010000 		.4byte	.LASF96
 3492 0617 07       		.byte	0x7
 3493 0618 3902     		.2byte	0x239
 3494 061a 74040000 		.4byte	0x474
 3495 061e 10       		.byte	0x10
 3496 061f 0F       		.uleb128 0xf
 3497 0620 D6010000 		.4byte	.LASF97
 3498 0624 07       		.byte	0x7
 3499 0625 3A02     		.2byte	0x23a
 3500 0627 74040000 		.4byte	0x474
 3501 062b 14       		.byte	0x14
 3502 062c 0F       		.uleb128 0xf
 3503 062d 74010000 		.4byte	.LASF98
 3504 0631 07       		.byte	0x7
 3505 0632 3B02     		.2byte	0x23b
 3506 0634 74040000 		.4byte	0x474
 3507 0638 18       		.byte	0x18
 3508 0639 0F       		.uleb128 0xf
 3509 063a 6D000000 		.4byte	.LASF99
 3510 063e 07       		.byte	0x7
 3511 063f 4602     		.2byte	0x246
 3512 0641 63050000 		.4byte	0x563
 3513 0645 1C       		.byte	0x1c
 3514 0646 0F       		.uleb128 0xf
 3515 0647 D4040000 		.4byte	.LASF76
 3516 064b 07       		.byte	0x7
 3517 064c 4702     		.2byte	0x247
 3518 064e 4B020000 		.4byte	0x24b
 3519 0652 30       		.byte	0x30
 3520 0653 0F       		.uleb128 0xf
 3521 0654 16070000 		.4byte	.LASF100
 3522 0658 07       		.byte	0x7
 3523 0659 4802     		.2byte	0x248
ARM GAS  C:\Users\leoja\AppData\Local\Temp\ccM6wJLr.s 			page 82


 3524 065b 9A010000 		.4byte	0x19a
 3525 065f 44       		.byte	0x44
 3526 0660 0F       		.uleb128 0xf
 3527 0661 55000000 		.4byte	.LASF101
 3528 0665 07       		.byte	0x7
 3529 0666 4902     		.2byte	0x249
 3530 0668 9A010000 		.4byte	0x19a
 3531 066c 45       		.byte	0x45
 3532 066d 0F       		.uleb128 0xf
 3533 066e F2010000 		.4byte	.LASF90
 3534 0672 07       		.byte	0x7
 3535 0673 4A02     		.2byte	0x24a
 3536 0675 89030000 		.4byte	0x389
 3537 0679 48       		.byte	0x48
 3538 067a 0F       		.uleb128 0xf
 3539 067b 80010000 		.4byte	.LASF91
 3540 067f 07       		.byte	0x7
 3541 0680 4B02     		.2byte	0x24b
 3542 0682 89030000 		.4byte	0x389
 3543 0686 4C       		.byte	0x4c
 3544 0687 0F       		.uleb128 0xf
 3545 0688 1E000000 		.4byte	.LASF102
 3546 068c 07       		.byte	0x7
 3547 068d 4C02     		.2byte	0x24c
 3548 068f 89030000 		.4byte	0x389
 3549 0693 50       		.byte	0x50
 3550 0694 0F       		.uleb128 0xf
 3551 0695 36060000 		.4byte	.LASF56
 3552 0699 07       		.byte	0x7
 3553 069a 4D02     		.2byte	0x24d
 3554 069c 8F010000 		.4byte	0x18f
 3555 06a0 54       		.byte	0x54
 3556 06a1 0F       		.uleb128 0xf
 3557 06a2 6D030000 		.4byte	.LASF82
 3558 06a6 07       		.byte	0x7
 3559 06a7 4E02     		.2byte	0x24e
 3560 06a9 CA060000 		.4byte	0x6ca
 3561 06ad 58       		.byte	0x58
 3562 06ae 00       		.byte	0
 3563 06af 13       		.uleb128 0x13
 3564 06b0 C4060000 		.4byte	0x6c4
 3565 06b4 14       		.uleb128 0x14
 3566 06b5 B0010000 		.4byte	0x1b0
 3567 06b9 14       		.uleb128 0x14
 3568 06ba B0010000 		.4byte	0x1b0
 3569 06be 14       		.uleb128 0x14
 3570 06bf 89030000 		.4byte	0x389
 3571 06c3 00       		.byte	0
 3572 06c4 07       		.uleb128 0x7
 3573 06c5 04       		.byte	0x4
 3574 06c6 AF060000 		.4byte	0x6af
 3575 06ca 16       		.uleb128 0x16
 3576 06cb 57050000 		.4byte	0x557
 3577 06cf DA060000 		.4byte	0x6da
 3578 06d3 17       		.uleb128 0x17
 3579 06d4 01010000 		.4byte	0x101
 3580 06d8 03       		.byte	0x3
ARM GAS  C:\Users\leoja\AppData\Local\Temp\ccM6wJLr.s 			page 83


 3581 06d9 00       		.byte	0
 3582 06da 05       		.uleb128 0x5
 3583 06db 5B060000 		.4byte	.LASF103
 3584 06df 07       		.byte	0x7
 3585 06e0 4F02     		.2byte	0x24f
 3586 06e2 D5050000 		.4byte	0x5d5
 3587 06e6 18       		.uleb128 0x18
 3588 06e7 BB010000 		.4byte	.LASF104
 3589 06eb 01       		.byte	0x1
 3590 06ec 0A       		.byte	0xa
 3591 06ed 00000000 		.4byte	.LFB35
 3592 06f1 70000000 		.4byte	.LFE35-.LFB35
 3593 06f5 01       		.uleb128 0x1
 3594 06f6 9C       		.byte	0x9c
 3595 06f7 D6070000 		.4byte	0x7d6
 3596 06fb 19       		.uleb128 0x19
 3597 06fc 08000000 		.4byte	.LVL0
 3598 0700 F01A0000 		.4byte	0x1af0
 3599 0704 12070000 		.4byte	0x712
 3600 0708 1A       		.uleb128 0x1a
 3601 0709 01       		.uleb128 0x1
 3602 070a 50       		.byte	0x50
 3603 070b 05       		.uleb128 0x5
 3604 070c 0C       		.byte	0xc
 3605 070d FFFFFF00 		.4byte	0xffffff
 3606 0711 00       		.byte	0
 3607 0712 19       		.uleb128 0x19
 3608 0713 1E000000 		.4byte	.LVL1
 3609 0717 FC1A0000 		.4byte	0x1afc
 3610 071b 3D070000 		.4byte	0x73d
 3611 071f 1A       		.uleb128 0x1a
 3612 0720 01       		.uleb128 0x1
 3613 0721 50       		.byte	0x50
 3614 0722 01       		.uleb128 0x1
 3615 0723 30       		.byte	0x30
 3616 0724 1A       		.uleb128 0x1a
 3617 0725 01       		.uleb128 0x1
 3618 0726 51       		.byte	0x51
 3619 0727 01       		.uleb128 0x1
 3620 0728 30       		.byte	0x30
 3621 0729 1A       		.uleb128 0x1a
 3622 072a 01       		.uleb128 0x1
 3623 072b 52       		.byte	0x52
 3624 072c 01       		.uleb128 0x1
 3625 072d 3A       		.byte	0x3a
 3626 072e 1A       		.uleb128 0x1a
 3627 072f 01       		.uleb128 0x1
 3628 0730 53       		.byte	0x53
 3629 0731 01       		.uleb128 0x1
 3630 0732 3A       		.byte	0x3a
 3631 0733 1A       		.uleb128 0x1a
 3632 0734 02       		.uleb128 0x2
 3633 0735 7D       		.byte	0x7d
 3634 0736 00       		.sleb128 0
 3635 0737 04       		.uleb128 0x4
 3636 0738 08       		.byte	0x8
 3637 0739 FF       		.byte	0xff
ARM GAS  C:\Users\leoja\AppData\Local\Temp\ccM6wJLr.s 			page 84


 3638 073a 40       		.byte	0x40
 3639 073b 24       		.byte	0x24
 3640 073c 00       		.byte	0
 3641 073d 19       		.uleb128 0x19
 3642 073e 32000000 		.4byte	.LVL2
 3643 0742 FC1A0000 		.4byte	0x1afc
 3644 0746 68070000 		.4byte	0x768
 3645 074a 1A       		.uleb128 0x1a
 3646 074b 01       		.uleb128 0x1
 3647 074c 50       		.byte	0x50
 3648 074d 01       		.uleb128 0x1
 3649 074e 30       		.byte	0x30
 3650 074f 1A       		.uleb128 0x1a
 3651 0750 01       		.uleb128 0x1
 3652 0751 51       		.byte	0x51
 3653 0752 02       		.uleb128 0x2
 3654 0753 75       		.byte	0x75
 3655 0754 00       		.sleb128 0
 3656 0755 1A       		.uleb128 0x1a
 3657 0756 01       		.uleb128 0x1
 3658 0757 52       		.byte	0x52
 3659 0758 01       		.uleb128 0x1
 3660 0759 3A       		.byte	0x3a
 3661 075a 1A       		.uleb128 0x1a
 3662 075b 01       		.uleb128 0x1
 3663 075c 53       		.byte	0x53
 3664 075d 02       		.uleb128 0x2
 3665 075e 77       		.byte	0x77
 3666 075f 00       		.sleb128 0
 3667 0760 1A       		.uleb128 0x1a
 3668 0761 02       		.uleb128 0x2
 3669 0762 7D       		.byte	0x7d
 3670 0763 00       		.sleb128 0
 3671 0764 02       		.uleb128 0x2
 3672 0765 08       		.byte	0x8
 3673 0766 FF       		.byte	0xff
 3674 0767 00       		.byte	0
 3675 0768 19       		.uleb128 0x19
 3676 0769 4C000000 		.4byte	.LVL3
 3677 076d FC1A0000 		.4byte	0x1afc
 3678 0771 94070000 		.4byte	0x794
 3679 0775 1A       		.uleb128 0x1a
 3680 0776 01       		.uleb128 0x1
 3681 0777 50       		.byte	0x50
 3682 0778 02       		.uleb128 0x2
 3683 0779 74       		.byte	0x74
 3684 077a 00       		.sleb128 0
 3685 077b 1A       		.uleb128 0x1a
 3686 077c 01       		.uleb128 0x1
 3687 077d 51       		.byte	0x51
 3688 077e 01       		.uleb128 0x1
 3689 077f 30       		.byte	0x30
 3690 0780 1A       		.uleb128 0x1a
 3691 0781 01       		.uleb128 0x1
 3692 0782 52       		.byte	0x52
 3693 0783 02       		.uleb128 0x2
 3694 0784 76       		.byte	0x76
ARM GAS  C:\Users\leoja\AppData\Local\Temp\ccM6wJLr.s 			page 85


 3695 0785 00       		.sleb128 0
 3696 0786 1A       		.uleb128 0x1a
 3697 0787 01       		.uleb128 0x1
 3698 0788 53       		.byte	0x53
 3699 0789 01       		.uleb128 0x1
 3700 078a 3A       		.byte	0x3a
 3701 078b 1A       		.uleb128 0x1a
 3702 078c 02       		.uleb128 0x2
 3703 078d 7D       		.byte	0x7d
 3704 078e 00       		.sleb128 0
 3705 078f 03       		.uleb128 0x3
 3706 0790 0A       		.byte	0xa
 3707 0791 00FF     		.2byte	0xff00
 3708 0793 00       		.byte	0
 3709 0794 19       		.uleb128 0x19
 3710 0795 5C000000 		.4byte	.LVL4
 3711 0799 FC1A0000 		.4byte	0x1afc
 3712 079d C4070000 		.4byte	0x7c4
 3713 07a1 1A       		.uleb128 0x1a
 3714 07a2 01       		.uleb128 0x1
 3715 07a3 50       		.byte	0x50
 3716 07a4 02       		.uleb128 0x2
 3717 07a5 74       		.byte	0x74
 3718 07a6 00       		.sleb128 0
 3719 07a7 1A       		.uleb128 0x1a
 3720 07a8 01       		.uleb128 0x1
 3721 07a9 51       		.byte	0x51
 3722 07aa 02       		.uleb128 0x2
 3723 07ab 75       		.byte	0x75
 3724 07ac 00       		.sleb128 0
 3725 07ad 1A       		.uleb128 0x1a
 3726 07ae 01       		.uleb128 0x1
 3727 07af 52       		.byte	0x52
 3728 07b0 02       		.uleb128 0x2
 3729 07b1 76       		.byte	0x76
 3730 07b2 00       		.sleb128 0
 3731 07b3 1A       		.uleb128 0x1a
 3732 07b4 01       		.uleb128 0x1
 3733 07b5 53       		.byte	0x53
 3734 07b6 02       		.uleb128 0x2
 3735 07b7 77       		.byte	0x77
 3736 07b8 00       		.sleb128 0
 3737 07b9 1A       		.uleb128 0x1a
 3738 07ba 02       		.uleb128 0x2
 3739 07bb 7D       		.byte	0x7d
 3740 07bc 00       		.sleb128 0
 3741 07bd 05       		.uleb128 0x5
 3742 07be 0C       		.byte	0xc
 3743 07bf 00FFFF00 		.4byte	0xffff00
 3744 07c3 00       		.byte	0
 3745 07c4 1B       		.uleb128 0x1b
 3746 07c5 64000000 		.4byte	.LVL5
 3747 07c9 081B0000 		.4byte	0x1b08
 3748 07cd 1A       		.uleb128 0x1a
 3749 07ce 01       		.uleb128 0x1
 3750 07cf 50       		.byte	0x50
 3751 07d0 03       		.uleb128 0x3
ARM GAS  C:\Users\leoja\AppData\Local\Temp\ccM6wJLr.s 			page 86


 3752 07d1 0A       		.byte	0xa
 3753 07d2 2C01     		.2byte	0x12c
 3754 07d4 00       		.byte	0
 3755 07d5 00       		.byte	0
 3756 07d6 18       		.uleb128 0x18
 3757 07d7 F4040000 		.4byte	.LASF105
 3758 07db 01       		.byte	0x1
 3759 07dc 24       		.byte	0x24
 3760 07dd 00000000 		.4byte	.LFB36
 3761 07e1 7C000000 		.4byte	.LFE36-.LFB36
 3762 07e5 01       		.uleb128 0x1
 3763 07e6 9C       		.byte	0x9c
 3764 07e7 0D090000 		.4byte	0x90d
 3765 07eb 19       		.uleb128 0x19
 3766 07ec 08000000 		.4byte	.LVL6
 3767 07f0 F01A0000 		.4byte	0x1af0
 3768 07f4 FE070000 		.4byte	0x7fe
 3769 07f8 1A       		.uleb128 0x1a
 3770 07f9 01       		.uleb128 0x1
 3771 07fa 50       		.byte	0x50
 3772 07fb 01       		.uleb128 0x1
 3773 07fc 30       		.byte	0x30
 3774 07fd 00       		.byte	0
 3775 07fe 19       		.uleb128 0x19
 3776 07ff 12000000 		.4byte	.LVL7
 3777 0803 131B0000 		.4byte	0x1b13
 3778 0807 1F080000 		.4byte	0x81f
 3779 080b 1A       		.uleb128 0x1a
 3780 080c 01       		.uleb128 0x1
 3781 080d 50       		.byte	0x50
 3782 080e 01       		.uleb128 0x1
 3783 080f 3A       		.byte	0x3a
 3784 0810 1A       		.uleb128 0x1a
 3785 0811 01       		.uleb128 0x1
 3786 0812 51       		.byte	0x51
 3787 0813 01       		.uleb128 0x1
 3788 0814 3A       		.byte	0x3a
 3789 0815 1A       		.uleb128 0x1a
 3790 0816 01       		.uleb128 0x1
 3791 0817 52       		.byte	0x52
 3792 0818 05       		.uleb128 0x5
 3793 0819 03       		.byte	0x3
 3794 081a 00000000 		.4byte	.LC0
 3795 081e 00       		.byte	0
 3796 081f 19       		.uleb128 0x19
 3797 0820 1C000000 		.4byte	.LVL8
 3798 0824 131B0000 		.4byte	0x1b13
 3799 0828 41080000 		.4byte	0x841
 3800 082c 1A       		.uleb128 0x1a
 3801 082d 01       		.uleb128 0x1
 3802 082e 50       		.byte	0x50
 3803 082f 02       		.uleb128 0x2
 3804 0830 08       		.byte	0x8
 3805 0831 FA       		.byte	0xfa
 3806 0832 1A       		.uleb128 0x1a
 3807 0833 01       		.uleb128 0x1
 3808 0834 51       		.byte	0x51
ARM GAS  C:\Users\leoja\AppData\Local\Temp\ccM6wJLr.s 			page 87


 3809 0835 01       		.uleb128 0x1
 3810 0836 3A       		.byte	0x3a
 3811 0837 1A       		.uleb128 0x1a
 3812 0838 01       		.uleb128 0x1
 3813 0839 52       		.byte	0x52
 3814 083a 05       		.uleb128 0x5
 3815 083b 03       		.byte	0x3
 3816 083c 0A000000 		.4byte	.LC2
 3817 0840 00       		.byte	0
 3818 0841 19       		.uleb128 0x19
 3819 0842 26000000 		.4byte	.LVL9
 3820 0846 131B0000 		.4byte	0x1b13
 3821 084a 63080000 		.4byte	0x863
 3822 084e 1A       		.uleb128 0x1a
 3823 084f 01       		.uleb128 0x1
 3824 0850 50       		.byte	0x50
 3825 0851 01       		.uleb128 0x1
 3826 0852 3A       		.byte	0x3a
 3827 0853 1A       		.uleb128 0x1a
 3828 0854 01       		.uleb128 0x1
 3829 0855 51       		.byte	0x51
 3830 0856 02       		.uleb128 0x2
 3831 0857 08       		.byte	0x8
 3832 0858 4B       		.byte	0x4b
 3833 0859 1A       		.uleb128 0x1a
 3834 085a 01       		.uleb128 0x1
 3835 085b 52       		.byte	0x52
 3836 085c 05       		.uleb128 0x5
 3837 085d 03       		.byte	0x3
 3838 085e 16000000 		.4byte	.LC4
 3839 0862 00       		.byte	0
 3840 0863 19       		.uleb128 0x19
 3841 0864 30000000 		.4byte	.LVL10
 3842 0868 131B0000 		.4byte	0x1b13
 3843 086c 86080000 		.4byte	0x886
 3844 0870 1A       		.uleb128 0x1a
 3845 0871 01       		.uleb128 0x1
 3846 0872 50       		.byte	0x50
 3847 0873 02       		.uleb128 0x2
 3848 0874 08       		.byte	0x8
 3849 0875 FA       		.byte	0xfa
 3850 0876 1A       		.uleb128 0x1a
 3851 0877 01       		.uleb128 0x1
 3852 0878 51       		.byte	0x51
 3853 0879 02       		.uleb128 0x2
 3854 087a 08       		.byte	0x8
 3855 087b 4B       		.byte	0x4b
 3856 087c 1A       		.uleb128 0x1a
 3857 087d 01       		.uleb128 0x1
 3858 087e 52       		.byte	0x52
 3859 087f 05       		.uleb128 0x5
 3860 0880 03       		.byte	0x3
 3861 0881 1D000000 		.4byte	.LC6
 3862 0885 00       		.byte	0
 3863 0886 19       		.uleb128 0x19
 3864 0887 3A000000 		.4byte	.LVL11
 3865 088b 131B0000 		.4byte	0x1b13
ARM GAS  C:\Users\leoja\AppData\Local\Temp\ccM6wJLr.s 			page 88


 3866 088f A8080000 		.4byte	0x8a8
 3867 0893 1A       		.uleb128 0x1a
 3868 0894 01       		.uleb128 0x1
 3869 0895 50       		.byte	0x50
 3870 0896 01       		.uleb128 0x1
 3871 0897 3A       		.byte	0x3a
 3872 0898 1A       		.uleb128 0x1a
 3873 0899 01       		.uleb128 0x1
 3874 089a 51       		.byte	0x51
 3875 089b 02       		.uleb128 0x2
 3876 089c 08       		.byte	0x8
 3877 089d 8C       		.byte	0x8c
 3878 089e 1A       		.uleb128 0x1a
 3879 089f 01       		.uleb128 0x1
 3880 08a0 52       		.byte	0x52
 3881 08a1 05       		.uleb128 0x5
 3882 08a2 03       		.byte	0x3
 3883 08a3 23000000 		.4byte	.LC8
 3884 08a7 00       		.byte	0
 3885 08a8 19       		.uleb128 0x19
 3886 08a9 44000000 		.4byte	.LVL12
 3887 08ad 131B0000 		.4byte	0x1b13
 3888 08b1 CB080000 		.4byte	0x8cb
 3889 08b5 1A       		.uleb128 0x1a
 3890 08b6 01       		.uleb128 0x1
 3891 08b7 50       		.byte	0x50
 3892 08b8 02       		.uleb128 0x2
 3893 08b9 08       		.byte	0x8
 3894 08ba FA       		.byte	0xfa
 3895 08bb 1A       		.uleb128 0x1a
 3896 08bc 01       		.uleb128 0x1
 3897 08bd 51       		.byte	0x51
 3898 08be 02       		.uleb128 0x2
 3899 08bf 08       		.byte	0x8
 3900 08c0 8C       		.byte	0x8c
 3901 08c1 1A       		.uleb128 0x1a
 3902 08c2 01       		.uleb128 0x1
 3903 08c3 52       		.byte	0x52
 3904 08c4 05       		.uleb128 0x5
 3905 08c5 03       		.byte	0x3
 3906 08c6 2A000000 		.4byte	.LC10
 3907 08ca 00       		.byte	0
 3908 08cb 19       		.uleb128 0x19
 3909 08cc 4E000000 		.4byte	.LVL13
 3910 08d0 131B0000 		.4byte	0x1b13
 3911 08d4 ED080000 		.4byte	0x8ed
 3912 08d8 1A       		.uleb128 0x1a
 3913 08d9 01       		.uleb128 0x1
 3914 08da 50       		.byte	0x50
 3915 08db 01       		.uleb128 0x1
 3916 08dc 3A       		.byte	0x3a
 3917 08dd 1A       		.uleb128 0x1a
 3918 08de 01       		.uleb128 0x1
 3919 08df 51       		.byte	0x51
 3920 08e0 02       		.uleb128 0x2
 3921 08e1 08       		.byte	0x8
 3922 08e2 CD       		.byte	0xcd
ARM GAS  C:\Users\leoja\AppData\Local\Temp\ccM6wJLr.s 			page 89


 3923 08e3 1A       		.uleb128 0x1a
 3924 08e4 01       		.uleb128 0x1
 3925 08e5 52       		.byte	0x52
 3926 08e6 05       		.uleb128 0x5
 3927 08e7 03       		.byte	0x3
 3928 08e8 33000000 		.4byte	.LC12
 3929 08ec 00       		.byte	0
 3930 08ed 1B       		.uleb128 0x1b
 3931 08ee 58000000 		.4byte	.LVL14
 3932 08f2 131B0000 		.4byte	0x1b13
 3933 08f6 1A       		.uleb128 0x1a
 3934 08f7 01       		.uleb128 0x1
 3935 08f8 50       		.byte	0x50
 3936 08f9 02       		.uleb128 0x2
 3937 08fa 08       		.byte	0x8
 3938 08fb FA       		.byte	0xfa
 3939 08fc 1A       		.uleb128 0x1a
 3940 08fd 01       		.uleb128 0x1
 3941 08fe 51       		.byte	0x51
 3942 08ff 02       		.uleb128 0x2
 3943 0900 08       		.byte	0x8
 3944 0901 CD       		.byte	0xcd
 3945 0902 1A       		.uleb128 0x1a
 3946 0903 01       		.uleb128 0x1
 3947 0904 52       		.byte	0x52
 3948 0905 05       		.uleb128 0x5
 3949 0906 03       		.byte	0x3
 3950 0907 3D000000 		.4byte	.LC14
 3951 090b 00       		.byte	0
 3952 090c 00       		.byte	0
 3953 090d 18       		.uleb128 0x18
 3954 090e 73050000 		.4byte	.LASF106
 3955 0912 01       		.byte	0x1
 3956 0913 2F       		.byte	0x2f
 3957 0914 00000000 		.4byte	.LFB37
 3958 0918 48000000 		.4byte	.LFE37-.LFB37
 3959 091c 01       		.uleb128 0x1
 3960 091d 9C       		.byte	0x9c
 3961 091e BD090000 		.4byte	0x9bd
 3962 0922 19       		.uleb128 0x19
 3963 0923 08000000 		.4byte	.LVL15
 3964 0927 F01A0000 		.4byte	0x1af0
 3965 092b 35090000 		.4byte	0x935
 3966 092f 1A       		.uleb128 0x1a
 3967 0930 01       		.uleb128 0x1
 3968 0931 50       		.byte	0x50
 3969 0932 01       		.uleb128 0x1
 3970 0933 30       		.byte	0x30
 3971 0934 00       		.byte	0
 3972 0935 19       		.uleb128 0x19
 3973 0936 12000000 		.4byte	.LVL16
 3974 093a 131B0000 		.4byte	0x1b13
 3975 093e 57090000 		.4byte	0x957
 3976 0942 1A       		.uleb128 0x1a
 3977 0943 01       		.uleb128 0x1
 3978 0944 50       		.byte	0x50
 3979 0945 02       		.uleb128 0x2
ARM GAS  C:\Users\leoja\AppData\Local\Temp\ccM6wJLr.s 			page 90


 3980 0946 08       		.byte	0x8
 3981 0947 44       		.byte	0x44
 3982 0948 1A       		.uleb128 0x1a
 3983 0949 01       		.uleb128 0x1
 3984 094a 51       		.byte	0x51
 3985 094b 01       		.uleb128 0x1
 3986 094c 3A       		.byte	0x3a
 3987 094d 1A       		.uleb128 0x1a
 3988 094e 01       		.uleb128 0x1
 3989 094f 52       		.byte	0x52
 3990 0950 05       		.uleb128 0x5
 3991 0951 03       		.byte	0x3
 3992 0952 47000000 		.4byte	.LC16
 3993 0956 00       		.byte	0
 3994 0957 19       		.uleb128 0x19
 3995 0958 1E000000 		.4byte	.LVL17
 3996 095c 131B0000 		.4byte	0x1b13
 3997 0960 7A090000 		.4byte	0x97a
 3998 0964 1A       		.uleb128 0x1a
 3999 0965 01       		.uleb128 0x1
 4000 0966 50       		.byte	0x50
 4001 0967 03       		.uleb128 0x3
 4002 0968 0A       		.byte	0xa
 4003 0969 2901     		.2byte	0x129
 4004 096b 1A       		.uleb128 0x1a
 4005 096c 01       		.uleb128 0x1
 4006 096d 51       		.byte	0x51
 4007 096e 01       		.uleb128 0x1
 4008 096f 3A       		.byte	0x3a
 4009 0970 1A       		.uleb128 0x1a
 4010 0971 01       		.uleb128 0x1
 4011 0972 52       		.byte	0x52
 4012 0973 05       		.uleb128 0x5
 4013 0974 03       		.byte	0x3
 4014 0975 50000000 		.4byte	.LC18
 4015 0979 00       		.byte	0
 4016 097a 19       		.uleb128 0x19
 4017 097b 28000000 		.4byte	.LVL18
 4018 097f 131B0000 		.4byte	0x1b13
 4019 0983 9C090000 		.4byte	0x99c
 4020 0987 1A       		.uleb128 0x1a
 4021 0988 01       		.uleb128 0x1
 4022 0989 50       		.byte	0x50
 4023 098a 01       		.uleb128 0x1
 4024 098b 35       		.byte	0x35
 4025 098c 1A       		.uleb128 0x1a
 4026 098d 01       		.uleb128 0x1
 4027 098e 51       		.byte	0x51
 4028 098f 02       		.uleb128 0x2
 4029 0990 08       		.byte	0x8
 4030 0991 B4       		.byte	0xb4
 4031 0992 1A       		.uleb128 0x1a
 4032 0993 01       		.uleb128 0x1
 4033 0994 52       		.byte	0x52
 4034 0995 05       		.uleb128 0x5
 4035 0996 03       		.byte	0x3
 4036 0997 16000000 		.4byte	.LC4
ARM GAS  C:\Users\leoja\AppData\Local\Temp\ccM6wJLr.s 			page 91


 4037 099b 00       		.byte	0
 4038 099c 1B       		.uleb128 0x1b
 4039 099d 34000000 		.4byte	.LVL19
 4040 09a1 131B0000 		.4byte	0x1b13
 4041 09a5 1A       		.uleb128 0x1a
 4042 09a6 01       		.uleb128 0x1
 4043 09a7 50       		.byte	0x50
 4044 09a8 03       		.uleb128 0x3
 4045 09a9 0A       		.byte	0xa
 4046 09aa 1301     		.2byte	0x113
 4047 09ac 1A       		.uleb128 0x1a
 4048 09ad 01       		.uleb128 0x1
 4049 09ae 51       		.byte	0x51
 4050 09af 02       		.uleb128 0x2
 4051 09b0 08       		.byte	0x8
 4052 09b1 B4       		.byte	0xb4
 4053 09b2 1A       		.uleb128 0x1a
 4054 09b3 01       		.uleb128 0x1
 4055 09b4 52       		.byte	0x52
 4056 09b5 05       		.uleb128 0x5
 4057 09b6 03       		.byte	0x3
 4058 09b7 23000000 		.4byte	.LC8
 4059 09bb 00       		.byte	0
 4060 09bc 00       		.byte	0
 4061 09bd 1C       		.uleb128 0x1c
 4062 09be 47060000 		.4byte	.LASF114
 4063 09c2 01       		.byte	0x1
 4064 09c3 85       		.byte	0x85
 4065 09c4 00000000 		.4byte	.LFB38
 4066 09c8 E0000000 		.4byte	.LFE38-.LFB38
 4067 09cc 01       		.uleb128 0x1
 4068 09cd 9C       		.byte	0x9c
 4069 09ce 180B0000 		.4byte	0xb18
 4070 09d2 1D       		.uleb128 0x1d
 4071 09d3 5A030000 		.4byte	.LASF63
 4072 09d7 01       		.byte	0x1
 4073 09d8 85       		.byte	0x85
 4074 09d9 C3000000 		.4byte	0xc3
 4075 09dd 00000000 		.4byte	.LLST0
 4076 09e1 1E       		.uleb128 0x1e
 4077 09e2 783100   		.ascii	"x1\000"
 4078 09e5 01       		.byte	0x1
 4079 09e6 85       		.byte	0x85
 4080 09e7 C3000000 		.4byte	0xc3
 4081 09eb 21000000 		.4byte	.LLST1
 4082 09ef 1E       		.uleb128 0x1e
 4083 09f0 793100   		.ascii	"y1\000"
 4084 09f3 01       		.byte	0x1
 4085 09f4 85       		.byte	0x85
 4086 09f5 C3000000 		.4byte	0xc3
 4087 09f9 42000000 		.4byte	.LLST2
 4088 09fd 1E       		.uleb128 0x1e
 4089 09fe 783200   		.ascii	"x2\000"
 4090 0a01 01       		.byte	0x1
 4091 0a02 85       		.byte	0x85
 4092 0a03 C3000000 		.4byte	0xc3
 4093 0a07 63000000 		.4byte	.LLST3
ARM GAS  C:\Users\leoja\AppData\Local\Temp\ccM6wJLr.s 			page 92


 4094 0a0b 1E       		.uleb128 0x1e
 4095 0a0c 793200   		.ascii	"y2\000"
 4096 0a0f 01       		.byte	0x1
 4097 0a10 85       		.byte	0x85
 4098 0a11 C3000000 		.4byte	0xc3
 4099 0a15 84000000 		.4byte	.LLST4
 4100 0a19 1D       		.uleb128 0x1d
 4101 0a1a C7030000 		.4byte	.LASF107
 4102 0a1e 01       		.byte	0x1
 4103 0a1f 85       		.byte	0x85
 4104 0a20 AD000000 		.4byte	0xad
 4105 0a24 B0000000 		.4byte	.LLST5
 4106 0a28 1F       		.uleb128 0x1f
 4107 0a29 50060000 		.4byte	.LASF108
 4108 0a2d 01       		.byte	0x1
 4109 0a2e 86       		.byte	0x86
 4110 0a2f 94000000 		.4byte	0x94
 4111 0a33 F4000000 		.4byte	.LLST6
 4112 0a37 1F       		.uleb128 0x1f
 4113 0a38 CE040000 		.4byte	.LASF109
 4114 0a3c 01       		.byte	0x1
 4115 0a3d 87       		.byte	0x87
 4116 0a3e 94000000 		.4byte	0x94
 4117 0a42 07010000 		.4byte	.LLST7
 4118 0a46 1F       		.uleb128 0x1f
 4119 0a47 2D030000 		.4byte	.LASF110
 4120 0a4b 01       		.byte	0x1
 4121 0a4c 87       		.byte	0x87
 4122 0a4d 94000000 		.4byte	0x94
 4123 0a51 26010000 		.4byte	.LLST8
 4124 0a55 1F       		.uleb128 0x1f
 4125 0a56 20050000 		.4byte	.LASF111
 4126 0a5a 01       		.byte	0x1
 4127 0a5b 88       		.byte	0x88
 4128 0a5c 94000000 		.4byte	0x94
 4129 0a60 45010000 		.4byte	.LLST9
 4130 0a64 1F       		.uleb128 0x1f
 4131 0a65 03020000 		.4byte	.LASF112
 4132 0a69 01       		.byte	0x1
 4133 0a6a 98       		.byte	0x98
 4134 0a6b 89030000 		.4byte	0x389
 4135 0a6f 7F010000 		.4byte	.LLST10
 4136 0a73 20       		.uleb128 0x20
 4137 0a74 08000000 		.4byte	.LASF113
 4138 0a78 01       		.byte	0x1
 4139 0a79 9A       		.byte	0x9a
 4140 0a7a 180B0000 		.4byte	0xb18
 4141 0a7e 02       		.uleb128 0x2
 4142 0a7f 91       		.byte	0x91
 4143 0a80 60       		.sleb128 -32
 4144 0a81 21       		.uleb128 0x21
 4145 0a82 56000000 		.4byte	.LVL34
 4146 0a86 1F1B0000 		.4byte	0x1b1f
 4147 0a8a 19       		.uleb128 0x19
 4148 0a8b 60000000 		.4byte	.LVL35
 4149 0a8f 2B1B0000 		.4byte	0x1b2b
 4150 0a93 AD0A0000 		.4byte	0xaad
ARM GAS  C:\Users\leoja\AppData\Local\Temp\ccM6wJLr.s 			page 93


 4151 0a97 1A       		.uleb128 0x1a
 4152 0a98 01       		.uleb128 0x1
 4153 0a99 50       		.byte	0x50
 4154 0a9a 02       		.uleb128 0x2
 4155 0a9b 91       		.byte	0x91
 4156 0a9c 60       		.sleb128 -32
 4157 0a9d 1A       		.uleb128 0x1a
 4158 0a9e 01       		.uleb128 0x1
 4159 0a9f 51       		.byte	0x51
 4160 0aa0 05       		.uleb128 0x5
 4161 0aa1 03       		.byte	0x3
 4162 0aa2 5B000000 		.4byte	.LC23
 4163 0aa6 1A       		.uleb128 0x1a
 4164 0aa7 01       		.uleb128 0x1
 4165 0aa8 52       		.byte	0x52
 4166 0aa9 02       		.uleb128 0x2
 4167 0aaa 74       		.byte	0x74
 4168 0aab 00       		.sleb128 0
 4169 0aac 00       		.byte	0
 4170 0aad 19       		.uleb128 0x19
 4171 0aae A4000000 		.4byte	.LVL38
 4172 0ab2 FC1A0000 		.4byte	0x1afc
 4173 0ab6 DE0A0000 		.4byte	0xade
 4174 0aba 1A       		.uleb128 0x1a
 4175 0abb 01       		.uleb128 0x1
 4176 0abc 50       		.byte	0x50
 4177 0abd 02       		.uleb128 0x2
 4178 0abe 75       		.byte	0x75
 4179 0abf 00       		.sleb128 0
 4180 0ac0 1A       		.uleb128 0x1a
 4181 0ac1 01       		.uleb128 0x1
 4182 0ac2 51       		.byte	0x51
 4183 0ac3 02       		.uleb128 0x2
 4184 0ac4 76       		.byte	0x76
 4185 0ac5 00       		.sleb128 0
 4186 0ac6 1A       		.uleb128 0x1a
 4187 0ac7 01       		.uleb128 0x1
 4188 0ac8 52       		.byte	0x52
 4189 0ac9 04       		.uleb128 0x4
 4190 0aca 7D       		.byte	0x7d
 4191 0acb 08       		.sleb128 8
 4192 0acc 94       		.byte	0x94
 4193 0acd 02       		.byte	0x2
 4194 0ace 1A       		.uleb128 0x1a
 4195 0acf 01       		.uleb128 0x1
 4196 0ad0 53       		.byte	0x53
 4197 0ad1 04       		.uleb128 0x4
 4198 0ad2 7D       		.byte	0x7d
 4199 0ad3 0C       		.sleb128 12
 4200 0ad4 94       		.byte	0x94
 4201 0ad5 02       		.byte	0x2
 4202 0ad6 1A       		.uleb128 0x1a
 4203 0ad7 02       		.uleb128 0x2
 4204 0ad8 7D       		.byte	0x7d
 4205 0ad9 00       		.sleb128 0
 4206 0ada 02       		.uleb128 0x2
 4207 0adb 74       		.byte	0x74
ARM GAS  C:\Users\leoja\AppData\Local\Temp\ccM6wJLr.s 			page 94


 4208 0adc 00       		.sleb128 0
 4209 0add 00       		.byte	0
 4210 0ade 19       		.uleb128 0x19
 4211 0adf BC000000 		.4byte	.LVL39
 4212 0ae3 361B0000 		.4byte	0x1b36
 4213 0ae7 0E0B0000 		.4byte	0xb0e
 4214 0aeb 1A       		.uleb128 0x1a
 4215 0aec 01       		.uleb128 0x1
 4216 0aed 50       		.byte	0x50
 4217 0aee 04       		.uleb128 0x4
 4218 0aef 7D       		.byte	0x7d
 4219 0af0 10       		.sleb128 16
 4220 0af1 94       		.byte	0x94
 4221 0af2 02       		.byte	0x2
 4222 0af3 1A       		.uleb128 0x1a
 4223 0af4 01       		.uleb128 0x1
 4224 0af5 51       		.byte	0x51
 4225 0af6 04       		.uleb128 0x4
 4226 0af7 7D       		.byte	0x7d
 4227 0af8 14       		.sleb128 20
 4228 0af9 94       		.byte	0x94
 4229 0afa 02       		.byte	0x2
 4230 0afb 1A       		.uleb128 0x1a
 4231 0afc 01       		.uleb128 0x1
 4232 0afd 52       		.byte	0x52
 4233 0afe 02       		.uleb128 0x2
 4234 0aff 91       		.byte	0x91
 4235 0b00 60       		.sleb128 -32
 4236 0b01 1A       		.uleb128 0x1a
 4237 0b02 01       		.uleb128 0x1
 4238 0b03 53       		.byte	0x53
 4239 0b04 01       		.uleb128 0x1
 4240 0b05 30       		.byte	0x30
 4241 0b06 1A       		.uleb128 0x1a
 4242 0b07 02       		.uleb128 0x2
 4243 0b08 7D       		.byte	0x7d
 4244 0b09 00       		.sleb128 0
 4245 0b0a 02       		.uleb128 0x2
 4246 0b0b 74       		.byte	0x74
 4247 0b0c 00       		.sleb128 0
 4248 0b0d 00       		.byte	0
 4249 0b0e 21       		.uleb128 0x21
 4250 0b0f C2000000 		.4byte	.LVL40
 4251 0b13 1F1B0000 		.4byte	0x1b1f
 4252 0b17 00       		.byte	0
 4253 0b18 16       		.uleb128 0x16
 4254 0b19 F3000000 		.4byte	0xf3
 4255 0b1d 280B0000 		.4byte	0xb28
 4256 0b21 17       		.uleb128 0x17
 4257 0b22 01010000 		.4byte	0x101
 4258 0b26 04       		.byte	0x4
 4259 0b27 00       		.byte	0
 4260 0b28 1C       		.uleb128 0x1c
 4261 0b29 0D050000 		.4byte	.LASF115
 4262 0b2d 01       		.byte	0x1
 4263 0b2e E0       		.byte	0xe0
 4264 0b2f 00000000 		.4byte	.LFB39
ARM GAS  C:\Users\leoja\AppData\Local\Temp\ccM6wJLr.s 			page 95


 4265 0b33 0C010000 		.4byte	.LFE39-.LFB39
 4266 0b37 01       		.uleb128 0x1
 4267 0b38 9C       		.byte	0x9c
 4268 0b39 E30C0000 		.4byte	0xce3
 4269 0b3d 1D       		.uleb128 0x1d
 4270 0b3e 5A030000 		.4byte	.LASF63
 4271 0b42 01       		.byte	0x1
 4272 0b43 E0       		.byte	0xe0
 4273 0b44 AD000000 		.4byte	0xad
 4274 0b48 92010000 		.4byte	.LLST11
 4275 0b4c 1E       		.uleb128 0x1e
 4276 0b4d 783100   		.ascii	"x1\000"
 4277 0b50 01       		.byte	0x1
 4278 0b51 E0       		.byte	0xe0
 4279 0b52 C3000000 		.4byte	0xc3
 4280 0b56 B3010000 		.4byte	.LLST12
 4281 0b5a 1E       		.uleb128 0x1e
 4282 0b5b 793100   		.ascii	"y1\000"
 4283 0b5e 01       		.byte	0x1
 4284 0b5f E0       		.byte	0xe0
 4285 0b60 C3000000 		.4byte	0xc3
 4286 0b64 D4010000 		.4byte	.LLST13
 4287 0b68 1E       		.uleb128 0x1e
 4288 0b69 783200   		.ascii	"x2\000"
 4289 0b6c 01       		.byte	0x1
 4290 0b6d E0       		.byte	0xe0
 4291 0b6e C3000000 		.4byte	0xc3
 4292 0b72 F5010000 		.4byte	.LLST14
 4293 0b76 1E       		.uleb128 0x1e
 4294 0b77 793200   		.ascii	"y2\000"
 4295 0b7a 01       		.byte	0x1
 4296 0b7b E0       		.byte	0xe0
 4297 0b7c C3000000 		.4byte	0xc3
 4298 0b80 16020000 		.4byte	.LLST15
 4299 0b84 1D       		.uleb128 0x1d
 4300 0b85 C7030000 		.4byte	.LASF107
 4301 0b89 01       		.byte	0x1
 4302 0b8a E0       		.byte	0xe0
 4303 0b8b AD000000 		.4byte	0xad
 4304 0b8f 42020000 		.4byte	.LLST16
 4305 0b93 1F       		.uleb128 0x1f
 4306 0b94 CE040000 		.4byte	.LASF109
 4307 0b98 01       		.byte	0x1
 4308 0b99 E1       		.byte	0xe1
 4309 0b9a 94000000 		.4byte	0x94
 4310 0b9e 86020000 		.4byte	.LLST17
 4311 0ba2 1F       		.uleb128 0x1f
 4312 0ba3 2D030000 		.4byte	.LASF110
 4313 0ba7 01       		.byte	0x1
 4314 0ba8 E1       		.byte	0xe1
 4315 0ba9 94000000 		.4byte	0x94
 4316 0bad A5020000 		.4byte	.LLST18
 4317 0bb1 1F       		.uleb128 0x1f
 4318 0bb2 20050000 		.4byte	.LASF111
 4319 0bb6 01       		.byte	0x1
 4320 0bb7 E2       		.byte	0xe2
 4321 0bb8 94000000 		.4byte	0x94
ARM GAS  C:\Users\leoja\AppData\Local\Temp\ccM6wJLr.s 			page 96


 4322 0bbc C4020000 		.4byte	.LLST19
 4323 0bc0 22       		.uleb128 0x22
 4324 0bc1 50060000 		.4byte	.LASF108
 4325 0bc5 01       		.byte	0x1
 4326 0bc6 E3       		.byte	0xe3
 4327 0bc7 94000000 		.4byte	0x94
 4328 0bcb 03       		.byte	0x3
 4329 0bcc 1F       		.uleb128 0x1f
 4330 0bcd 03020000 		.4byte	.LASF112
 4331 0bd1 01       		.byte	0x1
 4332 0bd2 EC       		.byte	0xec
 4333 0bd3 89030000 		.4byte	0x389
 4334 0bd7 0F030000 		.4byte	.LLST20
 4335 0bdb 23       		.uleb128 0x23
 4336 0bdc 08000000 		.4byte	.LASF113
 4337 0be0 01       		.byte	0x1
 4338 0be1 0301     		.2byte	0x103
 4339 0be3 E30C0000 		.4byte	0xce3
 4340 0be7 02       		.uleb128 0x2
 4341 0be8 91       		.byte	0x91
 4342 0be9 64       		.sleb128 -28
 4343 0bea 21       		.uleb128 0x21
 4344 0beb 4C000000 		.4byte	.LVL55
 4345 0bef 1F1B0000 		.4byte	0x1b1f
 4346 0bf3 19       		.uleb128 0x19
 4347 0bf4 86000000 		.4byte	.LVL57
 4348 0bf8 FC1A0000 		.4byte	0x1afc
 4349 0bfc 210C0000 		.4byte	0xc21
 4350 0c00 1A       		.uleb128 0x1a
 4351 0c01 01       		.uleb128 0x1
 4352 0c02 50       		.byte	0x50
 4353 0c03 02       		.uleb128 0x2
 4354 0c04 75       		.byte	0x75
 4355 0c05 00       		.sleb128 0
 4356 0c06 1A       		.uleb128 0x1a
 4357 0c07 01       		.uleb128 0x1
 4358 0c08 51       		.byte	0x51
 4359 0c09 02       		.uleb128 0x2
 4360 0c0a 76       		.byte	0x76
 4361 0c0b 00       		.sleb128 0
 4362 0c0c 1A       		.uleb128 0x1a
 4363 0c0d 01       		.uleb128 0x1
 4364 0c0e 52       		.byte	0x52
 4365 0c0f 02       		.uleb128 0x2
 4366 0c10 77       		.byte	0x77
 4367 0c11 00       		.sleb128 0
 4368 0c12 1A       		.uleb128 0x1a
 4369 0c13 01       		.uleb128 0x1
 4370 0c14 53       		.byte	0x53
 4371 0c15 04       		.uleb128 0x4
 4372 0c16 91       		.byte	0x91
 4373 0c17 54       		.sleb128 -44
 4374 0c18 94       		.byte	0x94
 4375 0c19 02       		.byte	0x2
 4376 0c1a 1A       		.uleb128 0x1a
 4377 0c1b 02       		.uleb128 0x2
 4378 0c1c 7D       		.byte	0x7d
ARM GAS  C:\Users\leoja\AppData\Local\Temp\ccM6wJLr.s 			page 97


 4379 0c1d 00       		.sleb128 0
 4380 0c1e 01       		.uleb128 0x1
 4381 0c1f 30       		.byte	0x30
 4382 0c20 00       		.byte	0
 4383 0c21 19       		.uleb128 0x19
 4384 0c22 94000000 		.4byte	.LVL58
 4385 0c26 FC1A0000 		.4byte	0x1afc
 4386 0c2a 500C0000 		.4byte	0xc50
 4387 0c2e 1A       		.uleb128 0x1a
 4388 0c2f 01       		.uleb128 0x1
 4389 0c30 50       		.byte	0x50
 4390 0c31 02       		.uleb128 0x2
 4391 0c32 75       		.byte	0x75
 4392 0c33 00       		.sleb128 0
 4393 0c34 1A       		.uleb128 0x1a
 4394 0c35 01       		.uleb128 0x1
 4395 0c36 51       		.byte	0x51
 4396 0c37 02       		.uleb128 0x2
 4397 0c38 76       		.byte	0x76
 4398 0c39 00       		.sleb128 0
 4399 0c3a 1A       		.uleb128 0x1a
 4400 0c3b 01       		.uleb128 0x1
 4401 0c3c 52       		.byte	0x52
 4402 0c3d 02       		.uleb128 0x2
 4403 0c3e 77       		.byte	0x77
 4404 0c3f 00       		.sleb128 0
 4405 0c40 1A       		.uleb128 0x1a
 4406 0c41 01       		.uleb128 0x1
 4407 0c42 53       		.byte	0x53
 4408 0c43 04       		.uleb128 0x4
 4409 0c44 91       		.byte	0x91
 4410 0c45 54       		.sleb128 -44
 4411 0c46 94       		.byte	0x94
 4412 0c47 02       		.byte	0x2
 4413 0c48 1A       		.uleb128 0x1a
 4414 0c49 02       		.uleb128 0x2
 4415 0c4a 7D       		.byte	0x7d
 4416 0c4b 00       		.sleb128 0
 4417 0c4c 02       		.uleb128 0x2
 4418 0c4d 74       		.byte	0x74
 4419 0c4e 00       		.sleb128 0
 4420 0c4f 00       		.byte	0
 4421 0c50 19       		.uleb128 0x19
 4422 0c51 C8000000 		.4byte	.LVL61
 4423 0c55 FC1A0000 		.4byte	0x1afc
 4424 0c59 850C0000 		.4byte	0xc85
 4425 0c5d 1A       		.uleb128 0x1a
 4426 0c5e 01       		.uleb128 0x1
 4427 0c5f 50       		.byte	0x50
 4428 0c60 04       		.uleb128 0x4
 4429 0c61 7D       		.byte	0x7d
 4430 0c62 0C       		.sleb128 12
 4431 0c63 94       		.byte	0x94
 4432 0c64 02       		.byte	0x2
 4433 0c65 1A       		.uleb128 0x1a
 4434 0c66 01       		.uleb128 0x1
 4435 0c67 51       		.byte	0x51
ARM GAS  C:\Users\leoja\AppData\Local\Temp\ccM6wJLr.s 			page 98


 4436 0c68 04       		.uleb128 0x4
 4437 0c69 7D       		.byte	0x7d
 4438 0c6a 10       		.sleb128 16
 4439 0c6b 94       		.byte	0x94
 4440 0c6c 02       		.byte	0x2
 4441 0c6d 1A       		.uleb128 0x1a
 4442 0c6e 01       		.uleb128 0x1
 4443 0c6f 52       		.byte	0x52
 4444 0c70 04       		.uleb128 0x4
 4445 0c71 7D       		.byte	0x7d
 4446 0c72 14       		.sleb128 20
 4447 0c73 94       		.byte	0x94
 4448 0c74 02       		.byte	0x2
 4449 0c75 1A       		.uleb128 0x1a
 4450 0c76 01       		.uleb128 0x1
 4451 0c77 53       		.byte	0x53
 4452 0c78 04       		.uleb128 0x4
 4453 0c79 7D       		.byte	0x7d
 4454 0c7a 18       		.sleb128 24
 4455 0c7b 94       		.byte	0x94
 4456 0c7c 02       		.byte	0x2
 4457 0c7d 1A       		.uleb128 0x1a
 4458 0c7e 02       		.uleb128 0x2
 4459 0c7f 7D       		.byte	0x7d
 4460 0c80 00       		.sleb128 0
 4461 0c81 02       		.uleb128 0x2
 4462 0c82 74       		.byte	0x74
 4463 0c83 00       		.sleb128 0
 4464 0c84 00       		.byte	0
 4465 0c85 19       		.uleb128 0x19
 4466 0c86 D4000000 		.4byte	.LVL62
 4467 0c8a 2B1B0000 		.4byte	0x1b2b
 4468 0c8e A90C0000 		.4byte	0xca9
 4469 0c92 1A       		.uleb128 0x1a
 4470 0c93 01       		.uleb128 0x1
 4471 0c94 50       		.byte	0x50
 4472 0c95 02       		.uleb128 0x2
 4473 0c96 91       		.byte	0x91
 4474 0c97 64       		.sleb128 -28
 4475 0c98 1A       		.uleb128 0x1a
 4476 0c99 01       		.uleb128 0x1
 4477 0c9a 51       		.byte	0x51
 4478 0c9b 05       		.uleb128 0x5
 4479 0c9c 03       		.byte	0x3
 4480 0c9d 60000000 		.4byte	.LC29
 4481 0ca1 1A       		.uleb128 0x1a
 4482 0ca2 01       		.uleb128 0x1
 4483 0ca3 52       		.byte	0x52
 4484 0ca4 03       		.uleb128 0x3
 4485 0ca5 91       		.byte	0x91
 4486 0ca6 40       		.sleb128 -64
 4487 0ca7 06       		.byte	0x6
 4488 0ca8 00       		.byte	0
 4489 0ca9 19       		.uleb128 0x19
 4490 0caa EA000000 		.4byte	.LVL63
 4491 0cae 361B0000 		.4byte	0x1b36
 4492 0cb2 D90C0000 		.4byte	0xcd9
ARM GAS  C:\Users\leoja\AppData\Local\Temp\ccM6wJLr.s 			page 99


 4493 0cb6 1A       		.uleb128 0x1a
 4494 0cb7 01       		.uleb128 0x1
 4495 0cb8 50       		.byte	0x50
 4496 0cb9 04       		.uleb128 0x4
 4497 0cba 7D       		.byte	0x7d
 4498 0cbb 20       		.sleb128 32
 4499 0cbc 94       		.byte	0x94
 4500 0cbd 02       		.byte	0x2
 4501 0cbe 1A       		.uleb128 0x1a
 4502 0cbf 01       		.uleb128 0x1
 4503 0cc0 51       		.byte	0x51
 4504 0cc1 04       		.uleb128 0x4
 4505 0cc2 7D       		.byte	0x7d
 4506 0cc3 24       		.sleb128 36
 4507 0cc4 94       		.byte	0x94
 4508 0cc5 02       		.byte	0x2
 4509 0cc6 1A       		.uleb128 0x1a
 4510 0cc7 01       		.uleb128 0x1
 4511 0cc8 52       		.byte	0x52
 4512 0cc9 02       		.uleb128 0x2
 4513 0cca 91       		.byte	0x91
 4514 0ccb 64       		.sleb128 -28
 4515 0ccc 1A       		.uleb128 0x1a
 4516 0ccd 01       		.uleb128 0x1
 4517 0cce 53       		.byte	0x53
 4518 0ccf 01       		.uleb128 0x1
 4519 0cd0 30       		.byte	0x30
 4520 0cd1 1A       		.uleb128 0x1a
 4521 0cd2 02       		.uleb128 0x2
 4522 0cd3 7D       		.byte	0x7d
 4523 0cd4 00       		.sleb128 0
 4524 0cd5 02       		.uleb128 0x2
 4525 0cd6 74       		.byte	0x74
 4526 0cd7 00       		.sleb128 0
 4527 0cd8 00       		.byte	0
 4528 0cd9 21       		.uleb128 0x21
 4529 0cda F0000000 		.4byte	.LVL64
 4530 0cde 1F1B0000 		.4byte	0x1b1f
 4531 0ce2 00       		.byte	0
 4532 0ce3 16       		.uleb128 0x16
 4533 0ce4 F3000000 		.4byte	0xf3
 4534 0ce8 F30C0000 		.4byte	0xcf3
 4535 0cec 17       		.uleb128 0x17
 4536 0ced 01010000 		.4byte	0x101
 4537 0cf1 03       		.byte	0x3
 4538 0cf2 00       		.byte	0
 4539 0cf3 24       		.uleb128 0x24
 4540 0cf4 BD020000 		.4byte	.LASF116
 4541 0cf8 01       		.byte	0x1
 4542 0cf9 7E01     		.2byte	0x17e
 4543 0cfb 00000000 		.4byte	.LFB40
 4544 0cff A4030000 		.4byte	.LFE40-.LFB40
 4545 0d03 01       		.uleb128 0x1
 4546 0d04 9C       		.byte	0x9c
 4547 0d05 3C100000 		.4byte	0x103c
 4548 0d09 25       		.uleb128 0x25
 4549 0d0a 36060000 		.4byte	.LASF56
ARM GAS  C:\Users\leoja\AppData\Local\Temp\ccM6wJLr.s 			page 100


 4550 0d0e 01       		.byte	0x1
 4551 0d0f 7E01     		.2byte	0x17e
 4552 0d11 AD000000 		.4byte	0xad
 4553 0d15 31030000 		.4byte	.LLST21
 4554 0d19 26       		.uleb128 0x26
 4555 0d1a 783100   		.ascii	"x1\000"
 4556 0d1d 01       		.byte	0x1
 4557 0d1e 7E01     		.2byte	0x17e
 4558 0d20 C3000000 		.4byte	0xc3
 4559 0d24 52030000 		.4byte	.LLST22
 4560 0d28 26       		.uleb128 0x26
 4561 0d29 793100   		.ascii	"y1\000"
 4562 0d2c 01       		.byte	0x1
 4563 0d2d 7E01     		.2byte	0x17e
 4564 0d2f C3000000 		.4byte	0xc3
 4565 0d33 73030000 		.4byte	.LLST23
 4566 0d37 26       		.uleb128 0x26
 4567 0d38 783200   		.ascii	"x2\000"
 4568 0d3b 01       		.byte	0x1
 4569 0d3c 7E01     		.2byte	0x17e
 4570 0d3e C3000000 		.4byte	0xc3
 4571 0d42 94030000 		.4byte	.LLST24
 4572 0d46 26       		.uleb128 0x26
 4573 0d47 793200   		.ascii	"y2\000"
 4574 0d4a 01       		.byte	0x1
 4575 0d4b 7E01     		.2byte	0x17e
 4576 0d4d C3000000 		.4byte	0xc3
 4577 0d51 B5030000 		.4byte	.LLST25
 4578 0d55 25       		.uleb128 0x25
 4579 0d56 C7030000 		.4byte	.LASF107
 4580 0d5a 01       		.byte	0x1
 4581 0d5b 7E01     		.2byte	0x17e
 4582 0d5d AD000000 		.4byte	0xad
 4583 0d61 E1030000 		.4byte	.LLST26
 4584 0d65 27       		.uleb128 0x27
 4585 0d66 CE040000 		.4byte	.LASF109
 4586 0d6a 01       		.byte	0x1
 4587 0d6b 7F01     		.2byte	0x17f
 4588 0d6d 94000000 		.4byte	0x94
 4589 0d71 19040000 		.4byte	.LLST27
 4590 0d75 27       		.uleb128 0x27
 4591 0d76 2D030000 		.4byte	.LASF110
 4592 0d7a 01       		.byte	0x1
 4593 0d7b 7F01     		.2byte	0x17f
 4594 0d7d 94000000 		.4byte	0x94
 4595 0d81 38040000 		.4byte	.LLST28
 4596 0d85 27       		.uleb128 0x27
 4597 0d86 20050000 		.4byte	.LASF111
 4598 0d8a 01       		.byte	0x1
 4599 0d8b 8001     		.2byte	0x180
 4600 0d8d 94000000 		.4byte	0x94
 4601 0d91 57040000 		.4byte	.LLST29
 4602 0d95 28       		.uleb128 0x28
 4603 0d96 50060000 		.4byte	.LASF108
 4604 0d9a 01       		.byte	0x1
 4605 0d9b 8101     		.2byte	0x181
 4606 0d9d 94000000 		.4byte	0x94
ARM GAS  C:\Users\leoja\AppData\Local\Temp\ccM6wJLr.s 			page 101


 4607 0da1 0A       		.byte	0xa
 4608 0da2 27       		.uleb128 0x27
 4609 0da3 03020000 		.4byte	.LASF112
 4610 0da7 01       		.byte	0x1
 4611 0da8 8901     		.2byte	0x189
 4612 0daa 89030000 		.4byte	0x389
 4613 0dae A2040000 		.4byte	.LLST30
 4614 0db2 29       		.uleb128 0x29
 4615 0db3 54000000 		.4byte	.LBB2
 4616 0db7 98020000 		.4byte	.LBE2-.LBB2
 4617 0dbb E80F0000 		.4byte	0xfe8
 4618 0dbf 27       		.uleb128 0x27
 4619 0dc0 F3060000 		.4byte	.LASF117
 4620 0dc4 01       		.byte	0x1
 4621 0dc5 8D01     		.2byte	0x18d
 4622 0dc7 D9000000 		.4byte	0xd9
 4623 0dcb 05050000 		.4byte	.LLST31
 4624 0dcf 19       		.uleb128 0x19
 4625 0dd0 A8000000 		.4byte	.LVL82
 4626 0dd4 FC1A0000 		.4byte	0x1afc
 4627 0dd8 FC0D0000 		.4byte	0xdfc
 4628 0ddc 1A       		.uleb128 0x1a
 4629 0ddd 01       		.uleb128 0x1
 4630 0dde 50       		.byte	0x50
 4631 0ddf 04       		.uleb128 0x4
 4632 0de0 7D       		.byte	0x7d
 4633 0de1 0C       		.sleb128 12
 4634 0de2 94       		.byte	0x94
 4635 0de3 02       		.byte	0x2
 4636 0de4 1A       		.uleb128 0x1a
 4637 0de5 01       		.uleb128 0x1
 4638 0de6 51       		.byte	0x51
 4639 0de7 04       		.uleb128 0x4
 4640 0de8 7D       		.byte	0x7d
 4641 0de9 10       		.sleb128 16
 4642 0dea 94       		.byte	0x94
 4643 0deb 02       		.byte	0x2
 4644 0dec 1A       		.uleb128 0x1a
 4645 0ded 01       		.uleb128 0x1
 4646 0dee 52       		.byte	0x52
 4647 0def 04       		.uleb128 0x4
 4648 0df0 7D       		.byte	0x7d
 4649 0df1 14       		.sleb128 20
 4650 0df2 94       		.byte	0x94
 4651 0df3 02       		.byte	0x2
 4652 0df4 1A       		.uleb128 0x1a
 4653 0df5 02       		.uleb128 0x2
 4654 0df6 7D       		.byte	0x7d
 4655 0df7 00       		.sleb128 0
 4656 0df8 02       		.uleb128 0x2
 4657 0df9 74       		.byte	0x74
 4658 0dfa 00       		.sleb128 0
 4659 0dfb 00       		.byte	0
 4660 0dfc 19       		.uleb128 0x19
 4661 0dfd DA000000 		.4byte	.LVL84
 4662 0e01 FC1A0000 		.4byte	0x1afc
 4663 0e05 290E0000 		.4byte	0xe29
ARM GAS  C:\Users\leoja\AppData\Local\Temp\ccM6wJLr.s 			page 102


 4664 0e09 1A       		.uleb128 0x1a
 4665 0e0a 01       		.uleb128 0x1
 4666 0e0b 50       		.byte	0x50
 4667 0e0c 04       		.uleb128 0x4
 4668 0e0d 7D       		.byte	0x7d
 4669 0e0e 0C       		.sleb128 12
 4670 0e0f 94       		.byte	0x94
 4671 0e10 02       		.byte	0x2
 4672 0e11 1A       		.uleb128 0x1a
 4673 0e12 01       		.uleb128 0x1
 4674 0e13 51       		.byte	0x51
 4675 0e14 04       		.uleb128 0x4
 4676 0e15 7D       		.byte	0x7d
 4677 0e16 10       		.sleb128 16
 4678 0e17 94       		.byte	0x94
 4679 0e18 02       		.byte	0x2
 4680 0e19 1A       		.uleb128 0x1a
 4681 0e1a 01       		.uleb128 0x1
 4682 0e1b 52       		.byte	0x52
 4683 0e1c 04       		.uleb128 0x4
 4684 0e1d 7D       		.byte	0x7d
 4685 0e1e 14       		.sleb128 20
 4686 0e1f 94       		.byte	0x94
 4687 0e20 02       		.byte	0x2
 4688 0e21 1A       		.uleb128 0x1a
 4689 0e22 02       		.uleb128 0x2
 4690 0e23 7D       		.byte	0x7d
 4691 0e24 00       		.sleb128 0
 4692 0e25 02       		.uleb128 0x2
 4693 0e26 74       		.byte	0x74
 4694 0e27 00       		.sleb128 0
 4695 0e28 00       		.byte	0
 4696 0e29 19       		.uleb128 0x19
 4697 0e2a 0E010000 		.4byte	.LVL86
 4698 0e2e FC1A0000 		.4byte	0x1afc
 4699 0e32 560E0000 		.4byte	0xe56
 4700 0e36 1A       		.uleb128 0x1a
 4701 0e37 01       		.uleb128 0x1
 4702 0e38 50       		.byte	0x50
 4703 0e39 04       		.uleb128 0x4
 4704 0e3a 7D       		.byte	0x7d
 4705 0e3b 0C       		.sleb128 12
 4706 0e3c 94       		.byte	0x94
 4707 0e3d 02       		.byte	0x2
 4708 0e3e 1A       		.uleb128 0x1a
 4709 0e3f 01       		.uleb128 0x1
 4710 0e40 51       		.byte	0x51
 4711 0e41 04       		.uleb128 0x4
 4712 0e42 7D       		.byte	0x7d
 4713 0e43 10       		.sleb128 16
 4714 0e44 94       		.byte	0x94
 4715 0e45 02       		.byte	0x2
 4716 0e46 1A       		.uleb128 0x1a
 4717 0e47 01       		.uleb128 0x1
 4718 0e48 52       		.byte	0x52
 4719 0e49 04       		.uleb128 0x4
 4720 0e4a 7D       		.byte	0x7d
ARM GAS  C:\Users\leoja\AppData\Local\Temp\ccM6wJLr.s 			page 103


 4721 0e4b 14       		.sleb128 20
 4722 0e4c 94       		.byte	0x94
 4723 0e4d 02       		.byte	0x2
 4724 0e4e 1A       		.uleb128 0x1a
 4725 0e4f 02       		.uleb128 0x2
 4726 0e50 7D       		.byte	0x7d
 4727 0e51 00       		.sleb128 0
 4728 0e52 02       		.uleb128 0x2
 4729 0e53 74       		.byte	0x74
 4730 0e54 00       		.sleb128 0
 4731 0e55 00       		.byte	0
 4732 0e56 19       		.uleb128 0x19
 4733 0e57 44010000 		.4byte	.LVL89
 4734 0e5b FC1A0000 		.4byte	0x1afc
 4735 0e5f 830E0000 		.4byte	0xe83
 4736 0e63 1A       		.uleb128 0x1a
 4737 0e64 01       		.uleb128 0x1
 4738 0e65 50       		.byte	0x50
 4739 0e66 04       		.uleb128 0x4
 4740 0e67 7D       		.byte	0x7d
 4741 0e68 0C       		.sleb128 12
 4742 0e69 94       		.byte	0x94
 4743 0e6a 02       		.byte	0x2
 4744 0e6b 1A       		.uleb128 0x1a
 4745 0e6c 01       		.uleb128 0x1
 4746 0e6d 51       		.byte	0x51
 4747 0e6e 04       		.uleb128 0x4
 4748 0e6f 7D       		.byte	0x7d
 4749 0e70 10       		.sleb128 16
 4750 0e71 94       		.byte	0x94
 4751 0e72 02       		.byte	0x2
 4752 0e73 1A       		.uleb128 0x1a
 4753 0e74 01       		.uleb128 0x1
 4754 0e75 52       		.byte	0x52
 4755 0e76 04       		.uleb128 0x4
 4756 0e77 7D       		.byte	0x7d
 4757 0e78 14       		.sleb128 20
 4758 0e79 94       		.byte	0x94
 4759 0e7a 02       		.byte	0x2
 4760 0e7b 1A       		.uleb128 0x1a
 4761 0e7c 02       		.uleb128 0x2
 4762 0e7d 7D       		.byte	0x7d
 4763 0e7e 00       		.sleb128 0
 4764 0e7f 02       		.uleb128 0x2
 4765 0e80 74       		.byte	0x74
 4766 0e81 00       		.sleb128 0
 4767 0e82 00       		.byte	0
 4768 0e83 19       		.uleb128 0x19
 4769 0e84 78010000 		.4byte	.LVL91
 4770 0e88 FC1A0000 		.4byte	0x1afc
 4771 0e8c B00E0000 		.4byte	0xeb0
 4772 0e90 1A       		.uleb128 0x1a
 4773 0e91 01       		.uleb128 0x1
 4774 0e92 50       		.byte	0x50
 4775 0e93 04       		.uleb128 0x4
 4776 0e94 7D       		.byte	0x7d
 4777 0e95 0C       		.sleb128 12
ARM GAS  C:\Users\leoja\AppData\Local\Temp\ccM6wJLr.s 			page 104


 4778 0e96 94       		.byte	0x94
 4779 0e97 02       		.byte	0x2
 4780 0e98 1A       		.uleb128 0x1a
 4781 0e99 01       		.uleb128 0x1
 4782 0e9a 51       		.byte	0x51
 4783 0e9b 04       		.uleb128 0x4
 4784 0e9c 7D       		.byte	0x7d
 4785 0e9d 10       		.sleb128 16
 4786 0e9e 94       		.byte	0x94
 4787 0e9f 02       		.byte	0x2
 4788 0ea0 1A       		.uleb128 0x1a
 4789 0ea1 01       		.uleb128 0x1
 4790 0ea2 52       		.byte	0x52
 4791 0ea3 04       		.uleb128 0x4
 4792 0ea4 7D       		.byte	0x7d
 4793 0ea5 14       		.sleb128 20
 4794 0ea6 94       		.byte	0x94
 4795 0ea7 02       		.byte	0x2
 4796 0ea8 1A       		.uleb128 0x1a
 4797 0ea9 02       		.uleb128 0x2
 4798 0eaa 7D       		.byte	0x7d
 4799 0eab 00       		.sleb128 0
 4800 0eac 02       		.uleb128 0x2
 4801 0ead 74       		.byte	0x74
 4802 0eae 00       		.sleb128 0
 4803 0eaf 00       		.byte	0
 4804 0eb0 19       		.uleb128 0x19
 4805 0eb1 AC010000 		.4byte	.LVL93
 4806 0eb5 FC1A0000 		.4byte	0x1afc
 4807 0eb9 DD0E0000 		.4byte	0xedd
 4808 0ebd 1A       		.uleb128 0x1a
 4809 0ebe 01       		.uleb128 0x1
 4810 0ebf 50       		.byte	0x50
 4811 0ec0 04       		.uleb128 0x4
 4812 0ec1 7D       		.byte	0x7d
 4813 0ec2 0C       		.sleb128 12
 4814 0ec3 94       		.byte	0x94
 4815 0ec4 02       		.byte	0x2
 4816 0ec5 1A       		.uleb128 0x1a
 4817 0ec6 01       		.uleb128 0x1
 4818 0ec7 51       		.byte	0x51
 4819 0ec8 04       		.uleb128 0x4
 4820 0ec9 7D       		.byte	0x7d
 4821 0eca 10       		.sleb128 16
 4822 0ecb 94       		.byte	0x94
 4823 0ecc 02       		.byte	0x2
 4824 0ecd 1A       		.uleb128 0x1a
 4825 0ece 01       		.uleb128 0x1
 4826 0ecf 52       		.byte	0x52
 4827 0ed0 04       		.uleb128 0x4
 4828 0ed1 7D       		.byte	0x7d
 4829 0ed2 14       		.sleb128 20
 4830 0ed3 94       		.byte	0x94
 4831 0ed4 02       		.byte	0x2
 4832 0ed5 1A       		.uleb128 0x1a
 4833 0ed6 02       		.uleb128 0x2
 4834 0ed7 7D       		.byte	0x7d
ARM GAS  C:\Users\leoja\AppData\Local\Temp\ccM6wJLr.s 			page 105


 4835 0ed8 00       		.sleb128 0
 4836 0ed9 02       		.uleb128 0x2
 4837 0eda 74       		.byte	0x74
 4838 0edb 00       		.sleb128 0
 4839 0edc 00       		.byte	0
 4840 0edd 19       		.uleb128 0x19
 4841 0ede DC010000 		.4byte	.LVL95
 4842 0ee2 FC1A0000 		.4byte	0x1afc
 4843 0ee6 0A0F0000 		.4byte	0xf0a
 4844 0eea 1A       		.uleb128 0x1a
 4845 0eeb 01       		.uleb128 0x1
 4846 0eec 50       		.byte	0x50
 4847 0eed 04       		.uleb128 0x4
 4848 0eee 7D       		.byte	0x7d
 4849 0eef 0C       		.sleb128 12
 4850 0ef0 94       		.byte	0x94
 4851 0ef1 02       		.byte	0x2
 4852 0ef2 1A       		.uleb128 0x1a
 4853 0ef3 01       		.uleb128 0x1
 4854 0ef4 51       		.byte	0x51
 4855 0ef5 04       		.uleb128 0x4
 4856 0ef6 7D       		.byte	0x7d
 4857 0ef7 10       		.sleb128 16
 4858 0ef8 94       		.byte	0x94
 4859 0ef9 02       		.byte	0x2
 4860 0efa 1A       		.uleb128 0x1a
 4861 0efb 01       		.uleb128 0x1
 4862 0efc 52       		.byte	0x52
 4863 0efd 04       		.uleb128 0x4
 4864 0efe 7D       		.byte	0x7d
 4865 0eff 14       		.sleb128 20
 4866 0f00 94       		.byte	0x94
 4867 0f01 02       		.byte	0x2
 4868 0f02 1A       		.uleb128 0x1a
 4869 0f03 02       		.uleb128 0x2
 4870 0f04 7D       		.byte	0x7d
 4871 0f05 00       		.sleb128 0
 4872 0f06 02       		.uleb128 0x2
 4873 0f07 74       		.byte	0x74
 4874 0f08 00       		.sleb128 0
 4875 0f09 00       		.byte	0
 4876 0f0a 19       		.uleb128 0x19
 4877 0f0b 0E020000 		.4byte	.LVL97
 4878 0f0f FC1A0000 		.4byte	0x1afc
 4879 0f13 370F0000 		.4byte	0xf37
 4880 0f17 1A       		.uleb128 0x1a
 4881 0f18 01       		.uleb128 0x1
 4882 0f19 50       		.byte	0x50
 4883 0f1a 04       		.uleb128 0x4
 4884 0f1b 7D       		.byte	0x7d
 4885 0f1c 0C       		.sleb128 12
 4886 0f1d 94       		.byte	0x94
 4887 0f1e 02       		.byte	0x2
 4888 0f1f 1A       		.uleb128 0x1a
 4889 0f20 01       		.uleb128 0x1
 4890 0f21 51       		.byte	0x51
 4891 0f22 04       		.uleb128 0x4
ARM GAS  C:\Users\leoja\AppData\Local\Temp\ccM6wJLr.s 			page 106


 4892 0f23 7D       		.byte	0x7d
 4893 0f24 10       		.sleb128 16
 4894 0f25 94       		.byte	0x94
 4895 0f26 02       		.byte	0x2
 4896 0f27 1A       		.uleb128 0x1a
 4897 0f28 01       		.uleb128 0x1
 4898 0f29 52       		.byte	0x52
 4899 0f2a 04       		.uleb128 0x4
 4900 0f2b 7D       		.byte	0x7d
 4901 0f2c 14       		.sleb128 20
 4902 0f2d 94       		.byte	0x94
 4903 0f2e 02       		.byte	0x2
 4904 0f2f 1A       		.uleb128 0x1a
 4905 0f30 02       		.uleb128 0x2
 4906 0f31 7D       		.byte	0x7d
 4907 0f32 00       		.sleb128 0
 4908 0f33 02       		.uleb128 0x2
 4909 0f34 74       		.byte	0x74
 4910 0f35 00       		.sleb128 0
 4911 0f36 00       		.byte	0
 4912 0f37 19       		.uleb128 0x19
 4913 0f38 42020000 		.4byte	.LVL99
 4914 0f3c FC1A0000 		.4byte	0x1afc
 4915 0f40 640F0000 		.4byte	0xf64
 4916 0f44 1A       		.uleb128 0x1a
 4917 0f45 01       		.uleb128 0x1
 4918 0f46 50       		.byte	0x50
 4919 0f47 04       		.uleb128 0x4
 4920 0f48 7D       		.byte	0x7d
 4921 0f49 0C       		.sleb128 12
 4922 0f4a 94       		.byte	0x94
 4923 0f4b 02       		.byte	0x2
 4924 0f4c 1A       		.uleb128 0x1a
 4925 0f4d 01       		.uleb128 0x1
 4926 0f4e 51       		.byte	0x51
 4927 0f4f 04       		.uleb128 0x4
 4928 0f50 7D       		.byte	0x7d
 4929 0f51 10       		.sleb128 16
 4930 0f52 94       		.byte	0x94
 4931 0f53 02       		.byte	0x2
 4932 0f54 1A       		.uleb128 0x1a
 4933 0f55 01       		.uleb128 0x1
 4934 0f56 52       		.byte	0x52
 4935 0f57 04       		.uleb128 0x4
 4936 0f58 7D       		.byte	0x7d
 4937 0f59 14       		.sleb128 20
 4938 0f5a 94       		.byte	0x94
 4939 0f5b 02       		.byte	0x2
 4940 0f5c 1A       		.uleb128 0x1a
 4941 0f5d 02       		.uleb128 0x2
 4942 0f5e 7D       		.byte	0x7d
 4943 0f5f 00       		.sleb128 0
 4944 0f60 02       		.uleb128 0x2
 4945 0f61 74       		.byte	0x74
 4946 0f62 00       		.sleb128 0
 4947 0f63 00       		.byte	0
 4948 0f64 19       		.uleb128 0x19
ARM GAS  C:\Users\leoja\AppData\Local\Temp\ccM6wJLr.s 			page 107


 4949 0f65 76020000 		.4byte	.LVL101
 4950 0f69 FC1A0000 		.4byte	0x1afc
 4951 0f6d 910F0000 		.4byte	0xf91
 4952 0f71 1A       		.uleb128 0x1a
 4953 0f72 01       		.uleb128 0x1
 4954 0f73 50       		.byte	0x50
 4955 0f74 04       		.uleb128 0x4
 4956 0f75 7D       		.byte	0x7d
 4957 0f76 0C       		.sleb128 12
 4958 0f77 94       		.byte	0x94
 4959 0f78 02       		.byte	0x2
 4960 0f79 1A       		.uleb128 0x1a
 4961 0f7a 01       		.uleb128 0x1
 4962 0f7b 51       		.byte	0x51
 4963 0f7c 04       		.uleb128 0x4
 4964 0f7d 7D       		.byte	0x7d
 4965 0f7e 10       		.sleb128 16
 4966 0f7f 94       		.byte	0x94
 4967 0f80 02       		.byte	0x2
 4968 0f81 1A       		.uleb128 0x1a
 4969 0f82 01       		.uleb128 0x1
 4970 0f83 52       		.byte	0x52
 4971 0f84 04       		.uleb128 0x4
 4972 0f85 7D       		.byte	0x7d
 4973 0f86 14       		.sleb128 20
 4974 0f87 94       		.byte	0x94
 4975 0f88 02       		.byte	0x2
 4976 0f89 1A       		.uleb128 0x1a
 4977 0f8a 02       		.uleb128 0x2
 4978 0f8b 7D       		.byte	0x7d
 4979 0f8c 00       		.sleb128 0
 4980 0f8d 02       		.uleb128 0x2
 4981 0f8e 74       		.byte	0x74
 4982 0f8f 00       		.sleb128 0
 4983 0f90 00       		.byte	0
 4984 0f91 19       		.uleb128 0x19
 4985 0f92 AA020000 		.4byte	.LVL103
 4986 0f96 FC1A0000 		.4byte	0x1afc
 4987 0f9a BE0F0000 		.4byte	0xfbe
 4988 0f9e 1A       		.uleb128 0x1a
 4989 0f9f 01       		.uleb128 0x1
 4990 0fa0 50       		.byte	0x50
 4991 0fa1 04       		.uleb128 0x4
 4992 0fa2 7D       		.byte	0x7d
 4993 0fa3 0C       		.sleb128 12
 4994 0fa4 94       		.byte	0x94
 4995 0fa5 02       		.byte	0x2
 4996 0fa6 1A       		.uleb128 0x1a
 4997 0fa7 01       		.uleb128 0x1
 4998 0fa8 51       		.byte	0x51
 4999 0fa9 04       		.uleb128 0x4
 5000 0faa 7D       		.byte	0x7d
 5001 0fab 10       		.sleb128 16
 5002 0fac 94       		.byte	0x94
 5003 0fad 02       		.byte	0x2
 5004 0fae 1A       		.uleb128 0x1a
 5005 0faf 01       		.uleb128 0x1
ARM GAS  C:\Users\leoja\AppData\Local\Temp\ccM6wJLr.s 			page 108


 5006 0fb0 52       		.byte	0x52
 5007 0fb1 04       		.uleb128 0x4
 5008 0fb2 7D       		.byte	0x7d
 5009 0fb3 14       		.sleb128 20
 5010 0fb4 94       		.byte	0x94
 5011 0fb5 02       		.byte	0x2
 5012 0fb6 1A       		.uleb128 0x1a
 5013 0fb7 02       		.uleb128 0x2
 5014 0fb8 7D       		.byte	0x7d
 5015 0fb9 00       		.sleb128 0
 5016 0fba 02       		.uleb128 0x2
 5017 0fbb 74       		.byte	0x74
 5018 0fbc 00       		.sleb128 0
 5019 0fbd 00       		.byte	0
 5020 0fbe 1B       		.uleb128 0x1b
 5021 0fbf DE020000 		.4byte	.LVL105
 5022 0fc3 FC1A0000 		.4byte	0x1afc
 5023 0fc7 1A       		.uleb128 0x1a
 5024 0fc8 01       		.uleb128 0x1
 5025 0fc9 50       		.byte	0x50
 5026 0fca 04       		.uleb128 0x4
 5027 0fcb 7D       		.byte	0x7d
 5028 0fcc 0C       		.sleb128 12
 5029 0fcd 94       		.byte	0x94
 5030 0fce 02       		.byte	0x2
 5031 0fcf 1A       		.uleb128 0x1a
 5032 0fd0 01       		.uleb128 0x1
 5033 0fd1 51       		.byte	0x51
 5034 0fd2 04       		.uleb128 0x4
 5035 0fd3 7D       		.byte	0x7d
 5036 0fd4 10       		.sleb128 16
 5037 0fd5 94       		.byte	0x94
 5038 0fd6 02       		.byte	0x2
 5039 0fd7 1A       		.uleb128 0x1a
 5040 0fd8 01       		.uleb128 0x1
 5041 0fd9 52       		.byte	0x52
 5042 0fda 04       		.uleb128 0x4
 5043 0fdb 7D       		.byte	0x7d
 5044 0fdc 14       		.sleb128 20
 5045 0fdd 94       		.byte	0x94
 5046 0fde 02       		.byte	0x2
 5047 0fdf 1A       		.uleb128 0x1a
 5048 0fe0 02       		.uleb128 0x2
 5049 0fe1 7D       		.byte	0x7d
 5050 0fe2 00       		.sleb128 0
 5051 0fe3 02       		.uleb128 0x2
 5052 0fe4 74       		.byte	0x74
 5053 0fe5 00       		.sleb128 0
 5054 0fe6 00       		.byte	0
 5055 0fe7 00       		.byte	0
 5056 0fe8 21       		.uleb128 0x21
 5057 0fe9 48000000 		.4byte	.LVL78
 5058 0fed 1F1B0000 		.4byte	0x1b1f
 5059 0ff1 19       		.uleb128 0x19
 5060 0ff2 10030000 		.4byte	.LVL107
 5061 0ff6 FC1A0000 		.4byte	0x1afc
 5062 0ffa 1E100000 		.4byte	0x101e
ARM GAS  C:\Users\leoja\AppData\Local\Temp\ccM6wJLr.s 			page 109


 5063 0ffe 1A       		.uleb128 0x1a
 5064 0fff 01       		.uleb128 0x1
 5065 1000 50       		.byte	0x50
 5066 1001 04       		.uleb128 0x4
 5067 1002 7D       		.byte	0x7d
 5068 1003 0C       		.sleb128 12
 5069 1004 94       		.byte	0x94
 5070 1005 02       		.byte	0x2
 5071 1006 1A       		.uleb128 0x1a
 5072 1007 01       		.uleb128 0x1
 5073 1008 51       		.byte	0x51
 5074 1009 04       		.uleb128 0x4
 5075 100a 7D       		.byte	0x7d
 5076 100b 10       		.sleb128 16
 5077 100c 94       		.byte	0x94
 5078 100d 02       		.byte	0x2
 5079 100e 1A       		.uleb128 0x1a
 5080 100f 01       		.uleb128 0x1
 5081 1010 52       		.byte	0x52
 5082 1011 04       		.uleb128 0x4
 5083 1012 7D       		.byte	0x7d
 5084 1013 14       		.sleb128 20
 5085 1014 94       		.byte	0x94
 5086 1015 02       		.byte	0x2
 5087 1016 1A       		.uleb128 0x1a
 5088 1017 02       		.uleb128 0x2
 5089 1018 7D       		.byte	0x7d
 5090 1019 00       		.sleb128 0
 5091 101a 02       		.uleb128 0x2
 5092 101b 77       		.byte	0x77
 5093 101c 00       		.sleb128 0
 5094 101d 00       		.byte	0
 5095 101e 19       		.uleb128 0x19
 5096 101f 48030000 		.4byte	.LVL109
 5097 1023 361B0000 		.4byte	0x1b36
 5098 1027 32100000 		.4byte	0x1032
 5099 102b 1A       		.uleb128 0x1a
 5100 102c 01       		.uleb128 0x1
 5101 102d 50       		.byte	0x50
 5102 102e 02       		.uleb128 0x2
 5103 102f 76       		.byte	0x76
 5104 1030 00       		.sleb128 0
 5105 1031 00       		.byte	0
 5106 1032 21       		.uleb128 0x21
 5107 1033 4E030000 		.4byte	.LVL110
 5108 1037 1F1B0000 		.4byte	0x1b1f
 5109 103b 00       		.byte	0
 5110 103c 2A       		.uleb128 0x2a
 5111 103d 99020000 		.4byte	.LASF118
 5112 1041 01       		.byte	0x1
 5113 1042 4602     		.2byte	0x246
 5114 1044 00000000 		.4byte	.LFB41
 5115 1048 24010000 		.4byte	.LFE41-.LFB41
 5116 104c 01       		.uleb128 0x1
 5117 104d 9C       		.byte	0x9c
 5118 104e A3110000 		.4byte	0x11a3
 5119 1052 25       		.uleb128 0x25
ARM GAS  C:\Users\leoja\AppData\Local\Temp\ccM6wJLr.s 			page 110


 5120 1053 5A030000 		.4byte	.LASF63
 5121 1057 01       		.byte	0x1
 5122 1058 4602     		.2byte	0x246
 5123 105a CE000000 		.4byte	0xce
 5124 105e 1D050000 		.4byte	.LLST32
 5125 1062 26       		.uleb128 0x26
 5126 1063 783100   		.ascii	"x1\000"
 5127 1066 01       		.byte	0x1
 5128 1067 4602     		.2byte	0x246
 5129 1069 C3000000 		.4byte	0xc3
 5130 106d 85050000 		.4byte	.LLST33
 5131 1071 26       		.uleb128 0x26
 5132 1072 793100   		.ascii	"y1\000"
 5133 1075 01       		.byte	0x1
 5134 1076 4602     		.2byte	0x246
 5135 1078 C3000000 		.4byte	0xc3
 5136 107c A6050000 		.4byte	.LLST34
 5137 1080 26       		.uleb128 0x26
 5138 1081 783200   		.ascii	"x2\000"
 5139 1084 01       		.byte	0x1
 5140 1085 4602     		.2byte	0x246
 5141 1087 C3000000 		.4byte	0xc3
 5142 108b C7050000 		.4byte	.LLST35
 5143 108f 26       		.uleb128 0x26
 5144 1090 793200   		.ascii	"y2\000"
 5145 1093 01       		.byte	0x1
 5146 1094 4602     		.2byte	0x246
 5147 1096 C3000000 		.4byte	0xc3
 5148 109a E8050000 		.4byte	.LLST36
 5149 109e 25       		.uleb128 0x25
 5150 109f C7030000 		.4byte	.LASF107
 5151 10a3 01       		.byte	0x1
 5152 10a4 4602     		.2byte	0x246
 5153 10a6 AD000000 		.4byte	0xad
 5154 10aa 14060000 		.4byte	.LLST37
 5155 10ae 27       		.uleb128 0x27
 5156 10af CE040000 		.4byte	.LASF109
 5157 10b3 01       		.byte	0x1
 5158 10b4 4702     		.2byte	0x247
 5159 10b6 94000000 		.4byte	0x94
 5160 10ba 58060000 		.4byte	.LLST38
 5161 10be 27       		.uleb128 0x27
 5162 10bf 2D030000 		.4byte	.LASF110
 5163 10c3 01       		.byte	0x1
 5164 10c4 4702     		.2byte	0x247
 5165 10c6 94000000 		.4byte	0x94
 5166 10ca 77060000 		.4byte	.LLST39
 5167 10ce 27       		.uleb128 0x27
 5168 10cf 20050000 		.4byte	.LASF111
 5169 10d3 01       		.byte	0x1
 5170 10d4 4802     		.2byte	0x248
 5171 10d6 94000000 		.4byte	0x94
 5172 10da 96060000 		.4byte	.LLST40
 5173 10de 28       		.uleb128 0x28
 5174 10df 50060000 		.4byte	.LASF108
 5175 10e3 01       		.byte	0x1
 5176 10e4 4902     		.2byte	0x249
ARM GAS  C:\Users\leoja\AppData\Local\Temp\ccM6wJLr.s 			page 111


 5177 10e6 94000000 		.4byte	0x94
 5178 10ea 06       		.byte	0x6
 5179 10eb 27       		.uleb128 0x27
 5180 10ec 03020000 		.4byte	.LASF112
 5181 10f0 01       		.byte	0x1
 5182 10f1 5702     		.2byte	0x257
 5183 10f3 89030000 		.4byte	0x389
 5184 10f7 E1060000 		.4byte	.LLST41
 5185 10fb 23       		.uleb128 0x23
 5186 10fc 08000000 		.4byte	.LASF113
 5187 1100 01       		.byte	0x1
 5188 1101 6602     		.2byte	0x266
 5189 1103 A3110000 		.4byte	0x11a3
 5190 1107 02       		.uleb128 0x2
 5191 1108 91       		.byte	0x91
 5192 1109 60       		.sleb128 -32
 5193 110a 21       		.uleb128 0x21
 5194 110b 4A000000 		.4byte	.LVL124
 5195 110f 1F1B0000 		.4byte	0x1b1f
 5196 1113 19       		.uleb128 0x19
 5197 1114 A0000000 		.4byte	.LVL131
 5198 1118 FC1A0000 		.4byte	0x1afc
 5199 111c 46110000 		.4byte	0x1146
 5200 1120 1A       		.uleb128 0x1a
 5201 1121 01       		.uleb128 0x1
 5202 1122 50       		.byte	0x50
 5203 1123 02       		.uleb128 0x2
 5204 1124 76       		.byte	0x76
 5205 1125 00       		.sleb128 0
 5206 1126 1A       		.uleb128 0x1a
 5207 1127 01       		.uleb128 0x1
 5208 1128 51       		.byte	0x51
 5209 1129 04       		.uleb128 0x4
 5210 112a 7D       		.byte	0x7d
 5211 112b 0C       		.sleb128 12
 5212 112c 94       		.byte	0x94
 5213 112d 02       		.byte	0x2
 5214 112e 1A       		.uleb128 0x1a
 5215 112f 01       		.uleb128 0x1
 5216 1130 52       		.byte	0x52
 5217 1131 04       		.uleb128 0x4
 5218 1132 7D       		.byte	0x7d
 5219 1133 10       		.sleb128 16
 5220 1134 94       		.byte	0x94
 5221 1135 02       		.byte	0x2
 5222 1136 1A       		.uleb128 0x1a
 5223 1137 01       		.uleb128 0x1
 5224 1138 53       		.byte	0x53
 5225 1139 04       		.uleb128 0x4
 5226 113a 7D       		.byte	0x7d
 5227 113b 14       		.sleb128 20
 5228 113c 94       		.byte	0x94
 5229 113d 02       		.byte	0x2
 5230 113e 1A       		.uleb128 0x1a
 5231 113f 02       		.uleb128 0x2
 5232 1140 7D       		.byte	0x7d
 5233 1141 00       		.sleb128 0
ARM GAS  C:\Users\leoja\AppData\Local\Temp\ccM6wJLr.s 			page 112


 5234 1142 02       		.uleb128 0x2
 5235 1143 74       		.byte	0x74
 5236 1144 00       		.sleb128 0
 5237 1145 00       		.byte	0
 5238 1146 19       		.uleb128 0x19
 5239 1147 AE000000 		.4byte	.LVL132
 5240 114b 2B1B0000 		.4byte	0x1b2b
 5241 114f 69110000 		.4byte	0x1169
 5242 1153 1A       		.uleb128 0x1a
 5243 1154 01       		.uleb128 0x1
 5244 1155 50       		.byte	0x50
 5245 1156 02       		.uleb128 0x2
 5246 1157 76       		.byte	0x76
 5247 1158 00       		.sleb128 0
 5248 1159 1A       		.uleb128 0x1a
 5249 115a 01       		.uleb128 0x1
 5250 115b 51       		.byte	0x51
 5251 115c 05       		.uleb128 0x5
 5252 115d 03       		.byte	0x3
 5253 115e 0F010000 		.4byte	.LC69
 5254 1162 1A       		.uleb128 0x1a
 5255 1163 01       		.uleb128 0x1
 5256 1164 52       		.byte	0x52
 5257 1165 02       		.uleb128 0x2
 5258 1166 75       		.byte	0x75
 5259 1167 00       		.sleb128 0
 5260 1168 00       		.byte	0
 5261 1169 19       		.uleb128 0x19
 5262 116a EC000000 		.4byte	.LVL133
 5263 116e 361B0000 		.4byte	0x1b36
 5264 1172 99110000 		.4byte	0x1199
 5265 1176 1A       		.uleb128 0x1a
 5266 1177 01       		.uleb128 0x1
 5267 1178 50       		.byte	0x50
 5268 1179 04       		.uleb128 0x4
 5269 117a 7D       		.byte	0x7d
 5270 117b 18       		.sleb128 24
 5271 117c 94       		.byte	0x94
 5272 117d 02       		.byte	0x2
 5273 117e 1A       		.uleb128 0x1a
 5274 117f 01       		.uleb128 0x1
 5275 1180 51       		.byte	0x51
 5276 1181 04       		.uleb128 0x4
 5277 1182 7D       		.byte	0x7d
 5278 1183 1C       		.sleb128 28
 5279 1184 94       		.byte	0x94
 5280 1185 02       		.byte	0x2
 5281 1186 1A       		.uleb128 0x1a
 5282 1187 01       		.uleb128 0x1
 5283 1188 52       		.byte	0x52
 5284 1189 02       		.uleb128 0x2
 5285 118a 76       		.byte	0x76
 5286 118b 00       		.sleb128 0
 5287 118c 1A       		.uleb128 0x1a
 5288 118d 01       		.uleb128 0x1
 5289 118e 53       		.byte	0x53
 5290 118f 01       		.uleb128 0x1
ARM GAS  C:\Users\leoja\AppData\Local\Temp\ccM6wJLr.s 			page 113


 5291 1190 30       		.byte	0x30
 5292 1191 1A       		.uleb128 0x1a
 5293 1192 02       		.uleb128 0x2
 5294 1193 7D       		.byte	0x7d
 5295 1194 00       		.sleb128 0
 5296 1195 02       		.uleb128 0x2
 5297 1196 74       		.byte	0x74
 5298 1197 00       		.sleb128 0
 5299 1198 00       		.byte	0
 5300 1199 21       		.uleb128 0x21
 5301 119a F2000000 		.4byte	.LVL134
 5302 119e 1F1B0000 		.4byte	0x1b1f
 5303 11a2 00       		.byte	0
 5304 11a3 16       		.uleb128 0x16
 5305 11a4 F3000000 		.4byte	0xf3
 5306 11a8 B3110000 		.4byte	0x11b3
 5307 11ac 17       		.uleb128 0x17
 5308 11ad 01010000 		.4byte	0x101
 5309 11b1 06       		.byte	0x6
 5310 11b2 00       		.byte	0
 5311 11b3 24       		.uleb128 0x24
 5312 11b4 08070000 		.4byte	.LASF119
 5313 11b8 01       		.byte	0x1
 5314 11b9 B002     		.2byte	0x2b0
 5315 11bb 00000000 		.4byte	.LFB44
 5316 11bf C0000000 		.4byte	.LFE44-.LFB44
 5317 11c3 01       		.uleb128 0x1
 5318 11c4 9C       		.byte	0x9c
 5319 11c5 33130000 		.4byte	0x1333
 5320 11c9 25       		.uleb128 0x25
 5321 11ca 5A030000 		.4byte	.LASF63
 5322 11ce 01       		.byte	0x1
 5323 11cf B002     		.2byte	0x2b0
 5324 11d1 C3000000 		.4byte	0xc3
 5325 11d5 F4060000 		.4byte	.LLST42
 5326 11d9 26       		.uleb128 0x26
 5327 11da 783100   		.ascii	"x1\000"
 5328 11dd 01       		.byte	0x1
 5329 11de B002     		.2byte	0x2b0
 5330 11e0 C3000000 		.4byte	0xc3
 5331 11e4 15070000 		.4byte	.LLST43
 5332 11e8 26       		.uleb128 0x26
 5333 11e9 793100   		.ascii	"y1\000"
 5334 11ec 01       		.byte	0x1
 5335 11ed B002     		.2byte	0x2b0
 5336 11ef C3000000 		.4byte	0xc3
 5337 11f3 36070000 		.4byte	.LLST44
 5338 11f7 26       		.uleb128 0x26
 5339 11f8 783200   		.ascii	"x2\000"
 5340 11fb 01       		.byte	0x1
 5341 11fc B002     		.2byte	0x2b0
 5342 11fe C3000000 		.4byte	0xc3
 5343 1202 57070000 		.4byte	.LLST45
 5344 1206 26       		.uleb128 0x26
 5345 1207 793200   		.ascii	"y2\000"
 5346 120a 01       		.byte	0x1
 5347 120b B002     		.2byte	0x2b0
ARM GAS  C:\Users\leoja\AppData\Local\Temp\ccM6wJLr.s 			page 114


 5348 120d C3000000 		.4byte	0xc3
 5349 1211 78070000 		.4byte	.LLST46
 5350 1215 25       		.uleb128 0x25
 5351 1216 C7030000 		.4byte	.LASF107
 5352 121a 01       		.byte	0x1
 5353 121b B002     		.2byte	0x2b0
 5354 121d AD000000 		.4byte	0xad
 5355 1221 A4070000 		.4byte	.LLST47
 5356 1225 27       		.uleb128 0x27
 5357 1226 CE040000 		.4byte	.LASF109
 5358 122a 01       		.byte	0x1
 5359 122b B102     		.2byte	0x2b1
 5360 122d 94000000 		.4byte	0x94
 5361 1231 DC070000 		.4byte	.LLST48
 5362 1235 27       		.uleb128 0x27
 5363 1236 2D030000 		.4byte	.LASF110
 5364 123a 01       		.byte	0x1
 5365 123b B102     		.2byte	0x2b1
 5366 123d 94000000 		.4byte	0x94
 5367 1241 FB070000 		.4byte	.LLST49
 5368 1245 27       		.uleb128 0x27
 5369 1246 20050000 		.4byte	.LASF111
 5370 124a 01       		.byte	0x1
 5371 124b B202     		.2byte	0x2b2
 5372 124d 94000000 		.4byte	0x94
 5373 1251 1A080000 		.4byte	.LLST50
 5374 1255 27       		.uleb128 0x27
 5375 1256 50060000 		.4byte	.LASF108
 5376 125a 01       		.byte	0x1
 5377 125b B302     		.2byte	0x2b3
 5378 125d 94000000 		.4byte	0x94
 5379 1261 54080000 		.4byte	.LLST51
 5380 1265 2B       		.uleb128 0x2b
 5381 1266 00000000 		.4byte	.Ldebug_ranges0+0
 5382 126a B3120000 		.4byte	0x12b3
 5383 126e 23       		.uleb128 0x23
 5384 126f 08000000 		.4byte	.LASF113
 5385 1273 01       		.byte	0x1
 5386 1274 C202     		.2byte	0x2c2
 5387 1276 180B0000 		.4byte	0xb18
 5388 127a 02       		.uleb128 0x2
 5389 127b 91       		.byte	0x91
 5390 127c 60       		.sleb128 -32
 5391 127d 19       		.uleb128 0x19
 5392 127e 70000000 		.4byte	.LVL151
 5393 1282 FC1A0000 		.4byte	0x1afc
 5394 1286 92120000 		.4byte	0x1292
 5395 128a 1A       		.uleb128 0x1a
 5396 128b 02       		.uleb128 0x2
 5397 128c 7D       		.byte	0x7d
 5398 128d 00       		.sleb128 0
 5399 128e 02       		.uleb128 0x2
 5400 128f 75       		.byte	0x75
 5401 1290 00       		.sleb128 0
 5402 1291 00       		.byte	0
 5403 1292 1B       		.uleb128 0x1b
 5404 1293 7A000000 		.4byte	.LVL152
ARM GAS  C:\Users\leoja\AppData\Local\Temp\ccM6wJLr.s 			page 115


 5405 1297 2B1B0000 		.4byte	0x1b2b
 5406 129b 1A       		.uleb128 0x1a
 5407 129c 01       		.uleb128 0x1
 5408 129d 50       		.byte	0x50
 5409 129e 02       		.uleb128 0x2
 5410 129f 76       		.byte	0x76
 5411 12a0 00       		.sleb128 0
 5412 12a1 1A       		.uleb128 0x1a
 5413 12a2 01       		.uleb128 0x1
 5414 12a3 51       		.byte	0x51
 5415 12a4 05       		.uleb128 0x5
 5416 12a5 03       		.byte	0x3
 5417 12a6 13010000 		.4byte	.LC73
 5418 12aa 1A       		.uleb128 0x1a
 5419 12ab 01       		.uleb128 0x1
 5420 12ac 52       		.byte	0x52
 5421 12ad 03       		.uleb128 0x3
 5422 12ae 91       		.byte	0x91
 5423 12af 54       		.sleb128 -44
 5424 12b0 06       		.byte	0x6
 5425 12b1 00       		.byte	0
 5426 12b2 00       		.byte	0
 5427 12b3 29       		.uleb128 0x29
 5428 12b4 84000000 		.4byte	.LBB5
 5429 12b8 24000000 		.4byte	.LBE5-.LBB5
 5430 12bc 20130000 		.4byte	0x1320
 5431 12c0 23       		.uleb128 0x23
 5432 12c1 08000000 		.4byte	.LASF113
 5433 12c5 01       		.byte	0x1
 5434 12c6 CA02     		.2byte	0x2ca
 5435 12c8 E30C0000 		.4byte	0xce3
 5436 12cc 02       		.uleb128 0x2
 5437 12cd 91       		.byte	0x91
 5438 12ce 60       		.sleb128 -32
 5439 12cf 21       		.uleb128 0x21
 5440 12d0 8A000000 		.4byte	.LVL153
 5441 12d4 FC1A0000 		.4byte	0x1afc
 5442 12d8 19       		.uleb128 0x19
 5443 12d9 94000000 		.4byte	.LVL154
 5444 12dd 2B1B0000 		.4byte	0x1b2b
 5445 12e1 FC120000 		.4byte	0x12fc
 5446 12e5 1A       		.uleb128 0x1a
 5447 12e6 01       		.uleb128 0x1
 5448 12e7 50       		.byte	0x50
 5449 12e8 02       		.uleb128 0x2
 5450 12e9 76       		.byte	0x76
 5451 12ea 00       		.sleb128 0
 5452 12eb 1A       		.uleb128 0x1a
 5453 12ec 01       		.uleb128 0x1
 5454 12ed 51       		.byte	0x51
 5455 12ee 05       		.uleb128 0x5
 5456 12ef 03       		.byte	0x3
 5457 12f0 13010000 		.4byte	.LC73
 5458 12f4 1A       		.uleb128 0x1a
 5459 12f5 01       		.uleb128 0x1
 5460 12f6 52       		.byte	0x52
 5461 12f7 03       		.uleb128 0x3
ARM GAS  C:\Users\leoja\AppData\Local\Temp\ccM6wJLr.s 			page 116


 5462 12f8 91       		.byte	0x91
 5463 12f9 54       		.sleb128 -44
 5464 12fa 06       		.byte	0x6
 5465 12fb 00       		.byte	0
 5466 12fc 1B       		.uleb128 0x1b
 5467 12fd A8000000 		.4byte	.LVL155
 5468 1301 361B0000 		.4byte	0x1b36
 5469 1305 1A       		.uleb128 0x1a
 5470 1306 01       		.uleb128 0x1
 5471 1307 50       		.byte	0x50
 5472 1308 02       		.uleb128 0x2
 5473 1309 74       		.byte	0x74
 5474 130a 00       		.sleb128 0
 5475 130b 1A       		.uleb128 0x1a
 5476 130c 01       		.uleb128 0x1
 5477 130d 51       		.byte	0x51
 5478 130e 02       		.uleb128 0x2
 5479 130f 77       		.byte	0x77
 5480 1310 00       		.sleb128 0
 5481 1311 1A       		.uleb128 0x1a
 5482 1312 01       		.uleb128 0x1
 5483 1313 52       		.byte	0x52
 5484 1314 02       		.uleb128 0x2
 5485 1315 76       		.byte	0x76
 5486 1316 00       		.sleb128 0
 5487 1317 1A       		.uleb128 0x1a
 5488 1318 02       		.uleb128 0x2
 5489 1319 7D       		.byte	0x7d
 5490 131a 00       		.sleb128 0
 5491 131b 02       		.uleb128 0x2
 5492 131c 75       		.byte	0x75
 5493 131d 00       		.sleb128 0
 5494 131e 00       		.byte	0
 5495 131f 00       		.byte	0
 5496 1320 21       		.uleb128 0x21
 5497 1321 4A000000 		.4byte	.LVL150
 5498 1325 1F1B0000 		.4byte	0x1b1f
 5499 1329 21       		.uleb128 0x21
 5500 132a AE000000 		.4byte	.LVL156
 5501 132e 1F1B0000 		.4byte	0x1b1f
 5502 1332 00       		.byte	0
 5503 1333 2C       		.uleb128 0x2c
 5504 1334 A3040000 		.4byte	.LASF146
 5505 1338 01       		.byte	0x1
 5506 1339 AA02     		.2byte	0x2aa
 5507 133b 01       		.byte	0x1
 5508 133c 85130000 		.4byte	0x1385
 5509 1340 2D       		.uleb128 0x2d
 5510 1341 5A030000 		.4byte	.LASF63
 5511 1345 01       		.byte	0x1
 5512 1346 AA02     		.2byte	0x2aa
 5513 1348 C3000000 		.4byte	0xc3
 5514 134c 2E       		.uleb128 0x2e
 5515 134d 783100   		.ascii	"x1\000"
 5516 1350 01       		.byte	0x1
 5517 1351 AA02     		.2byte	0x2aa
 5518 1353 C3000000 		.4byte	0xc3
ARM GAS  C:\Users\leoja\AppData\Local\Temp\ccM6wJLr.s 			page 117


 5519 1357 2E       		.uleb128 0x2e
 5520 1358 793100   		.ascii	"y1\000"
 5521 135b 01       		.byte	0x1
 5522 135c AA02     		.2byte	0x2aa
 5523 135e C3000000 		.4byte	0xc3
 5524 1362 2E       		.uleb128 0x2e
 5525 1363 783200   		.ascii	"x2\000"
 5526 1366 01       		.byte	0x1
 5527 1367 AA02     		.2byte	0x2aa
 5528 1369 C3000000 		.4byte	0xc3
 5529 136d 2E       		.uleb128 0x2e
 5530 136e 793200   		.ascii	"y2\000"
 5531 1371 01       		.byte	0x1
 5532 1372 AA02     		.2byte	0x2aa
 5533 1374 C3000000 		.4byte	0xc3
 5534 1378 2D       		.uleb128 0x2d
 5535 1379 C7030000 		.4byte	.LASF107
 5536 137d 01       		.byte	0x1
 5537 137e AA02     		.2byte	0x2aa
 5538 1380 AD000000 		.4byte	0xad
 5539 1384 00       		.byte	0
 5540 1385 2F       		.uleb128 0x2f
 5541 1386 33130000 		.4byte	0x1333
 5542 138a 00000000 		.4byte	.LFB43
 5543 138e 14000000 		.4byte	.LFE43-.LFB43
 5544 1392 01       		.uleb128 0x1
 5545 1393 9C       		.byte	0x9c
 5546 1394 E7130000 		.4byte	0x13e7
 5547 1398 30       		.uleb128 0x30
 5548 1399 40130000 		.4byte	0x1340
 5549 139d 9C080000 		.4byte	.LLST52
 5550 13a1 30       		.uleb128 0x30
 5551 13a2 4C130000 		.4byte	0x134c
 5552 13a6 BD080000 		.4byte	.LLST53
 5553 13aa 30       		.uleb128 0x30
 5554 13ab 57130000 		.4byte	0x1357
 5555 13af DE080000 		.4byte	.LLST54
 5556 13b3 30       		.uleb128 0x30
 5557 13b4 62130000 		.4byte	0x1362
 5558 13b8 FF080000 		.4byte	.LLST55
 5559 13bc 30       		.uleb128 0x30
 5560 13bd 6D130000 		.4byte	0x136d
 5561 13c1 20090000 		.4byte	.LLST56
 5562 13c5 30       		.uleb128 0x30
 5563 13c6 78130000 		.4byte	0x1378
 5564 13ca 4C090000 		.4byte	.LLST57
 5565 13ce 1B       		.uleb128 0x1b
 5566 13cf 12000000 		.4byte	.LVL162
 5567 13d3 B3110000 		.4byte	0x11b3
 5568 13d7 1A       		.uleb128 0x1a
 5569 13d8 02       		.uleb128 0x2
 5570 13d9 7D       		.byte	0x7d
 5571 13da 00       		.sleb128 0
 5572 13db 02       		.uleb128 0x2
 5573 13dc 74       		.byte	0x74
 5574 13dd 00       		.sleb128 0
 5575 13de 1A       		.uleb128 0x1a
ARM GAS  C:\Users\leoja\AppData\Local\Temp\ccM6wJLr.s 			page 118


 5576 13df 02       		.uleb128 0x2
 5577 13e0 7D       		.byte	0x7d
 5578 13e1 04       		.sleb128 4
 5579 13e2 02       		.uleb128 0x2
 5580 13e3 75       		.byte	0x75
 5581 13e4 00       		.sleb128 0
 5582 13e5 00       		.byte	0
 5583 13e6 00       		.byte	0
 5584 13e7 24       		.uleb128 0x24
 5585 13e8 D9030000 		.4byte	.LASF120
 5586 13ec 01       		.byte	0x1
 5587 13ed D302     		.2byte	0x2d3
 5588 13ef 00000000 		.4byte	.LFB45
 5589 13f3 C4000000 		.4byte	.LFE45-.LFB45
 5590 13f7 01       		.uleb128 0x1
 5591 13f8 9C       		.byte	0x9c
 5592 13f9 36150000 		.4byte	0x1536
 5593 13fd 25       		.uleb128 0x25
 5594 13fe 5A030000 		.4byte	.LASF63
 5595 1402 01       		.byte	0x1
 5596 1403 D302     		.2byte	0x2d3
 5597 1405 C3000000 		.4byte	0xc3
 5598 1409 90090000 		.4byte	.LLST58
 5599 140d 26       		.uleb128 0x26
 5600 140e 783100   		.ascii	"x1\000"
 5601 1411 01       		.byte	0x1
 5602 1412 D302     		.2byte	0x2d3
 5603 1414 C3000000 		.4byte	0xc3
 5604 1418 B1090000 		.4byte	.LLST59
 5605 141c 26       		.uleb128 0x26
 5606 141d 793100   		.ascii	"y1\000"
 5607 1420 01       		.byte	0x1
 5608 1421 D302     		.2byte	0x2d3
 5609 1423 C3000000 		.4byte	0xc3
 5610 1427 D2090000 		.4byte	.LLST60
 5611 142b 26       		.uleb128 0x26
 5612 142c 783200   		.ascii	"x2\000"
 5613 142f 01       		.byte	0x1
 5614 1430 D302     		.2byte	0x2d3
 5615 1432 C3000000 		.4byte	0xc3
 5616 1436 F3090000 		.4byte	.LLST61
 5617 143a 26       		.uleb128 0x26
 5618 143b 793200   		.ascii	"y2\000"
 5619 143e 01       		.byte	0x1
 5620 143f D302     		.2byte	0x2d3
 5621 1441 C3000000 		.4byte	0xc3
 5622 1445 140A0000 		.4byte	.LLST62
 5623 1449 25       		.uleb128 0x25
 5624 144a C7030000 		.4byte	.LASF107
 5625 144e 01       		.byte	0x1
 5626 144f D302     		.2byte	0x2d3
 5627 1451 AD000000 		.4byte	0xad
 5628 1455 400A0000 		.4byte	.LLST63
 5629 1459 27       		.uleb128 0x27
 5630 145a CE040000 		.4byte	.LASF109
 5631 145e 01       		.byte	0x1
 5632 145f D402     		.2byte	0x2d4
ARM GAS  C:\Users\leoja\AppData\Local\Temp\ccM6wJLr.s 			page 119


 5633 1461 94000000 		.4byte	0x94
 5634 1465 780A0000 		.4byte	.LLST64
 5635 1469 27       		.uleb128 0x27
 5636 146a 2D030000 		.4byte	.LASF110
 5637 146e 01       		.byte	0x1
 5638 146f D402     		.2byte	0x2d4
 5639 1471 94000000 		.4byte	0x94
 5640 1475 970A0000 		.4byte	.LLST65
 5641 1479 27       		.uleb128 0x27
 5642 147a 20050000 		.4byte	.LASF111
 5643 147e 01       		.byte	0x1
 5644 147f D502     		.2byte	0x2d5
 5645 1481 94000000 		.4byte	0x94
 5646 1485 B60A0000 		.4byte	.LLST66
 5647 1489 28       		.uleb128 0x28
 5648 148a 50060000 		.4byte	.LASF108
 5649 148e 01       		.byte	0x1
 5650 148f D602     		.2byte	0x2d6
 5651 1491 94000000 		.4byte	0x94
 5652 1495 06       		.byte	0x6
 5653 1496 23       		.uleb128 0x23
 5654 1497 08000000 		.4byte	.LASF113
 5655 149b 01       		.byte	0x1
 5656 149c E002     		.2byte	0x2e0
 5657 149e A3110000 		.4byte	0x11a3
 5658 14a2 02       		.uleb128 0x2
 5659 14a3 91       		.byte	0x91
 5660 14a4 60       		.sleb128 -32
 5661 14a5 21       		.uleb128 0x21
 5662 14a6 44000000 		.4byte	.LVL175
 5663 14aa 1F1B0000 		.4byte	0x1b1f
 5664 14ae 19       		.uleb128 0x19
 5665 14af 5C000000 		.4byte	.LVL176
 5666 14b3 FC1A0000 		.4byte	0x1afc
 5667 14b7 D8140000 		.4byte	0x14d8
 5668 14bb 1A       		.uleb128 0x1a
 5669 14bc 01       		.uleb128 0x1
 5670 14bd 50       		.byte	0x50
 5671 14be 04       		.uleb128 0x4
 5672 14bf 7D       		.byte	0x7d
 5673 14c0 0C       		.sleb128 12
 5674 14c1 94       		.byte	0x94
 5675 14c2 02       		.byte	0x2
 5676 14c3 1A       		.uleb128 0x1a
 5677 14c4 01       		.uleb128 0x1
 5678 14c5 52       		.byte	0x52
 5679 14c6 02       		.uleb128 0x2
 5680 14c7 75       		.byte	0x75
 5681 14c8 00       		.sleb128 0
 5682 14c9 1A       		.uleb128 0x1a
 5683 14ca 01       		.uleb128 0x1
 5684 14cb 53       		.byte	0x53
 5685 14cc 02       		.uleb128 0x2
 5686 14cd 76       		.byte	0x76
 5687 14ce 00       		.sleb128 0
 5688 14cf 1A       		.uleb128 0x1a
 5689 14d0 02       		.uleb128 0x2
ARM GAS  C:\Users\leoja\AppData\Local\Temp\ccM6wJLr.s 			page 120


 5690 14d1 7D       		.byte	0x7d
 5691 14d2 00       		.sleb128 0
 5692 14d3 03       		.uleb128 0x3
 5693 14d4 0A       		.byte	0xa
 5694 14d5 00FF     		.2byte	0xff00
 5695 14d7 00       		.byte	0
 5696 14d8 19       		.uleb128 0x19
 5697 14d9 66000000 		.4byte	.LVL177
 5698 14dd 2B1B0000 		.4byte	0x1b2b
 5699 14e1 FB140000 		.4byte	0x14fb
 5700 14e5 1A       		.uleb128 0x1a
 5701 14e6 01       		.uleb128 0x1
 5702 14e7 50       		.byte	0x50
 5703 14e8 02       		.uleb128 0x2
 5704 14e9 74       		.byte	0x74
 5705 14ea 00       		.sleb128 0
 5706 14eb 1A       		.uleb128 0x1a
 5707 14ec 01       		.uleb128 0x1
 5708 14ed 51       		.byte	0x51
 5709 14ee 05       		.uleb128 0x5
 5710 14ef 03       		.byte	0x3
 5711 14f0 13010000 		.4byte	.LC73
 5712 14f4 1A       		.uleb128 0x1a
 5713 14f5 01       		.uleb128 0x1
 5714 14f6 52       		.byte	0x52
 5715 14f7 02       		.uleb128 0x2
 5716 14f8 77       		.byte	0x77
 5717 14f9 00       		.sleb128 0
 5718 14fa 00       		.byte	0
 5719 14fb 19       		.uleb128 0x19
 5720 14fc A8000000 		.4byte	.LVL178
 5721 1500 361B0000 		.4byte	0x1b36
 5722 1504 2C150000 		.4byte	0x152c
 5723 1508 1A       		.uleb128 0x1a
 5724 1509 01       		.uleb128 0x1
 5725 150a 50       		.byte	0x50
 5726 150b 04       		.uleb128 0x4
 5727 150c 7D       		.byte	0x7d
 5728 150d 10       		.sleb128 16
 5729 150e 94       		.byte	0x94
 5730 150f 02       		.byte	0x2
 5731 1510 1A       		.uleb128 0x1a
 5732 1511 01       		.uleb128 0x1
 5733 1512 51       		.byte	0x51
 5734 1513 04       		.uleb128 0x4
 5735 1514 7D       		.byte	0x7d
 5736 1515 14       		.sleb128 20
 5737 1516 94       		.byte	0x94
 5738 1517 02       		.byte	0x2
 5739 1518 1A       		.uleb128 0x1a
 5740 1519 01       		.uleb128 0x1
 5741 151a 52       		.byte	0x52
 5742 151b 02       		.uleb128 0x2
 5743 151c 74       		.byte	0x74
 5744 151d 00       		.sleb128 0
 5745 151e 1A       		.uleb128 0x1a
 5746 151f 01       		.uleb128 0x1
ARM GAS  C:\Users\leoja\AppData\Local\Temp\ccM6wJLr.s 			page 121


 5747 1520 53       		.byte	0x53
 5748 1521 01       		.uleb128 0x1
 5749 1522 30       		.byte	0x30
 5750 1523 1A       		.uleb128 0x1a
 5751 1524 02       		.uleb128 0x2
 5752 1525 7D       		.byte	0x7d
 5753 1526 00       		.sleb128 0
 5754 1527 03       		.uleb128 0x3
 5755 1528 0A       		.byte	0xa
 5756 1529 00FF     		.2byte	0xff00
 5757 152b 00       		.byte	0
 5758 152c 21       		.uleb128 0x21
 5759 152d AE000000 		.4byte	.LVL179
 5760 1531 1F1B0000 		.4byte	0x1b1f
 5761 1535 00       		.byte	0
 5762 1536 24       		.uleb128 0x24
 5763 1537 5E020000 		.4byte	.LASF121
 5764 153b 01       		.byte	0x1
 5765 153c F502     		.2byte	0x2f5
 5766 153e 00000000 		.4byte	.LFB46
 5767 1542 30020000 		.4byte	.LFE46-.LFB46
 5768 1546 01       		.uleb128 0x1
 5769 1547 9C       		.byte	0x9c
 5770 1548 5D170000 		.4byte	0x175d
 5771 154c 25       		.uleb128 0x25
 5772 154d A4020000 		.4byte	.LASF122
 5773 1551 01       		.byte	0x1
 5774 1552 F502     		.2byte	0x2f5
 5775 1554 AD000000 		.4byte	0xad
 5776 1558 010B0000 		.4byte	.LLST67
 5777 155c 26       		.uleb128 0x26
 5778 155d 783100   		.ascii	"x1\000"
 5779 1560 01       		.byte	0x1
 5780 1561 F502     		.2byte	0x2f5
 5781 1563 C3000000 		.4byte	0xc3
 5782 1567 220B0000 		.4byte	.LLST68
 5783 156b 26       		.uleb128 0x26
 5784 156c 793100   		.ascii	"y1\000"
 5785 156f 01       		.byte	0x1
 5786 1570 F502     		.2byte	0x2f5
 5787 1572 C3000000 		.4byte	0xc3
 5788 1576 430B0000 		.4byte	.LLST69
 5789 157a 26       		.uleb128 0x26
 5790 157b 783200   		.ascii	"x2\000"
 5791 157e 01       		.byte	0x1
 5792 157f F502     		.2byte	0x2f5
 5793 1581 C3000000 		.4byte	0xc3
 5794 1585 640B0000 		.4byte	.LLST70
 5795 1589 26       		.uleb128 0x26
 5796 158a 793200   		.ascii	"y2\000"
 5797 158d 01       		.byte	0x1
 5798 158e F502     		.2byte	0x2f5
 5799 1590 C3000000 		.4byte	0xc3
 5800 1594 850B0000 		.4byte	.LLST71
 5801 1598 25       		.uleb128 0x25
 5802 1599 C7030000 		.4byte	.LASF107
 5803 159d 01       		.byte	0x1
ARM GAS  C:\Users\leoja\AppData\Local\Temp\ccM6wJLr.s 			page 122


 5804 159e F502     		.2byte	0x2f5
 5805 15a0 AD000000 		.4byte	0xad
 5806 15a4 B10B0000 		.4byte	.LLST72
 5807 15a8 27       		.uleb128 0x27
 5808 15a9 CE040000 		.4byte	.LASF109
 5809 15ad 01       		.byte	0x1
 5810 15ae F602     		.2byte	0x2f6
 5811 15b0 94000000 		.4byte	0x94
 5812 15b4 E90B0000 		.4byte	.LLST73
 5813 15b8 27       		.uleb128 0x27
 5814 15b9 2D030000 		.4byte	.LASF110
 5815 15bd 01       		.byte	0x1
 5816 15be F602     		.2byte	0x2f6
 5817 15c0 94000000 		.4byte	0x94
 5818 15c4 200C0000 		.4byte	.LLST74
 5819 15c8 27       		.uleb128 0x27
 5820 15c9 20050000 		.4byte	.LASF111
 5821 15cd 01       		.byte	0x1
 5822 15ce F702     		.2byte	0x2f7
 5823 15d0 94000000 		.4byte	0x94
 5824 15d4 1D0E0000 		.4byte	.LLST75
 5825 15d8 28       		.uleb128 0x28
 5826 15d9 50060000 		.4byte	.LASF108
 5827 15dd 01       		.byte	0x1
 5828 15de F802     		.2byte	0x2f8
 5829 15e0 94000000 		.4byte	0x94
 5830 15e4 0A       		.byte	0xa
 5831 15e5 27       		.uleb128 0x27
 5832 15e6 03020000 		.4byte	.LASF112
 5833 15ea 01       		.byte	0x1
 5834 15eb 0003     		.2byte	0x300
 5835 15ed 89030000 		.4byte	0x389
 5836 15f1 680E0000 		.4byte	.LLST76
 5837 15f5 21       		.uleb128 0x21
 5838 15f6 44000000 		.4byte	.LVL191
 5839 15fa 1F1B0000 		.4byte	0x1b1f
 5840 15fe 19       		.uleb128 0x19
 5841 15ff 7A000000 		.4byte	.LVL196
 5842 1603 FC1A0000 		.4byte	0x1afc
 5843 1607 2B160000 		.4byte	0x162b
 5844 160b 1A       		.uleb128 0x1a
 5845 160c 01       		.uleb128 0x1
 5846 160d 50       		.byte	0x50
 5847 160e 04       		.uleb128 0x4
 5848 160f 7D       		.byte	0x7d
 5849 1610 08       		.sleb128 8
 5850 1611 94       		.byte	0x94
 5851 1612 02       		.byte	0x2
 5852 1613 1A       		.uleb128 0x1a
 5853 1614 01       		.uleb128 0x1
 5854 1615 51       		.byte	0x51
 5855 1616 04       		.uleb128 0x4
 5856 1617 7D       		.byte	0x7d
 5857 1618 0C       		.sleb128 12
 5858 1619 94       		.byte	0x94
 5859 161a 02       		.byte	0x2
 5860 161b 1A       		.uleb128 0x1a
ARM GAS  C:\Users\leoja\AppData\Local\Temp\ccM6wJLr.s 			page 123


 5861 161c 01       		.uleb128 0x1
 5862 161d 52       		.byte	0x52
 5863 161e 04       		.uleb128 0x4
 5864 161f 7D       		.byte	0x7d
 5865 1620 10       		.sleb128 16
 5866 1621 94       		.byte	0x94
 5867 1622 02       		.byte	0x2
 5868 1623 1A       		.uleb128 0x1a
 5869 1624 02       		.uleb128 0x2
 5870 1625 7D       		.byte	0x7d
 5871 1626 00       		.sleb128 0
 5872 1627 02       		.uleb128 0x2
 5873 1628 74       		.byte	0x74
 5874 1629 00       		.sleb128 0
 5875 162a 00       		.byte	0
 5876 162b 19       		.uleb128 0x19
 5877 162c B8000000 		.4byte	.LVL200
 5878 1630 FC1A0000 		.4byte	0x1afc
 5879 1634 58160000 		.4byte	0x1658
 5880 1638 1A       		.uleb128 0x1a
 5881 1639 01       		.uleb128 0x1
 5882 163a 50       		.byte	0x50
 5883 163b 04       		.uleb128 0x4
 5884 163c 7D       		.byte	0x7d
 5885 163d 08       		.sleb128 8
 5886 163e 94       		.byte	0x94
 5887 163f 02       		.byte	0x2
 5888 1640 1A       		.uleb128 0x1a
 5889 1641 01       		.uleb128 0x1
 5890 1642 51       		.byte	0x51
 5891 1643 04       		.uleb128 0x4
 5892 1644 7D       		.byte	0x7d
 5893 1645 0C       		.sleb128 12
 5894 1646 94       		.byte	0x94
 5895 1647 02       		.byte	0x2
 5896 1648 1A       		.uleb128 0x1a
 5897 1649 01       		.uleb128 0x1
 5898 164a 52       		.byte	0x52
 5899 164b 04       		.uleb128 0x4
 5900 164c 7D       		.byte	0x7d
 5901 164d 10       		.sleb128 16
 5902 164e 94       		.byte	0x94
 5903 164f 02       		.byte	0x2
 5904 1650 1A       		.uleb128 0x1a
 5905 1651 02       		.uleb128 0x2
 5906 1652 7D       		.byte	0x7d
 5907 1653 00       		.sleb128 0
 5908 1654 02       		.uleb128 0x2
 5909 1655 74       		.byte	0x74
 5910 1656 00       		.sleb128 0
 5911 1657 00       		.byte	0
 5912 1658 19       		.uleb128 0x19
 5913 1659 F6000000 		.4byte	.LVL204
 5914 165d FC1A0000 		.4byte	0x1afc
 5915 1661 85160000 		.4byte	0x1685
 5916 1665 1A       		.uleb128 0x1a
 5917 1666 01       		.uleb128 0x1
ARM GAS  C:\Users\leoja\AppData\Local\Temp\ccM6wJLr.s 			page 124


 5918 1667 50       		.byte	0x50
 5919 1668 04       		.uleb128 0x4
 5920 1669 7D       		.byte	0x7d
 5921 166a 08       		.sleb128 8
 5922 166b 94       		.byte	0x94
 5923 166c 02       		.byte	0x2
 5924 166d 1A       		.uleb128 0x1a
 5925 166e 01       		.uleb128 0x1
 5926 166f 51       		.byte	0x51
 5927 1670 04       		.uleb128 0x4
 5928 1671 7D       		.byte	0x7d
 5929 1672 0C       		.sleb128 12
 5930 1673 94       		.byte	0x94
 5931 1674 02       		.byte	0x2
 5932 1675 1A       		.uleb128 0x1a
 5933 1676 01       		.uleb128 0x1
 5934 1677 52       		.byte	0x52
 5935 1678 04       		.uleb128 0x4
 5936 1679 7D       		.byte	0x7d
 5937 167a 10       		.sleb128 16
 5938 167b 94       		.byte	0x94
 5939 167c 02       		.byte	0x2
 5940 167d 1A       		.uleb128 0x1a
 5941 167e 02       		.uleb128 0x2
 5942 167f 7D       		.byte	0x7d
 5943 1680 00       		.sleb128 0
 5944 1681 02       		.uleb128 0x2
 5945 1682 74       		.byte	0x74
 5946 1683 00       		.sleb128 0
 5947 1684 00       		.byte	0
 5948 1685 19       		.uleb128 0x19
 5949 1686 34010000 		.4byte	.LVL208
 5950 168a FC1A0000 		.4byte	0x1afc
 5951 168e B2160000 		.4byte	0x16b2
 5952 1692 1A       		.uleb128 0x1a
 5953 1693 01       		.uleb128 0x1
 5954 1694 50       		.byte	0x50
 5955 1695 04       		.uleb128 0x4
 5956 1696 7D       		.byte	0x7d
 5957 1697 08       		.sleb128 8
 5958 1698 94       		.byte	0x94
 5959 1699 02       		.byte	0x2
 5960 169a 1A       		.uleb128 0x1a
 5961 169b 01       		.uleb128 0x1
 5962 169c 51       		.byte	0x51
 5963 169d 04       		.uleb128 0x4
 5964 169e 7D       		.byte	0x7d
 5965 169f 0C       		.sleb128 12
 5966 16a0 94       		.byte	0x94
 5967 16a1 02       		.byte	0x2
 5968 16a2 1A       		.uleb128 0x1a
 5969 16a3 01       		.uleb128 0x1
 5970 16a4 52       		.byte	0x52
 5971 16a5 04       		.uleb128 0x4
 5972 16a6 7D       		.byte	0x7d
 5973 16a7 10       		.sleb128 16
 5974 16a8 94       		.byte	0x94
ARM GAS  C:\Users\leoja\AppData\Local\Temp\ccM6wJLr.s 			page 125


 5975 16a9 02       		.byte	0x2
 5976 16aa 1A       		.uleb128 0x1a
 5977 16ab 02       		.uleb128 0x2
 5978 16ac 7D       		.byte	0x7d
 5979 16ad 00       		.sleb128 0
 5980 16ae 02       		.uleb128 0x2
 5981 16af 74       		.byte	0x74
 5982 16b0 00       		.sleb128 0
 5983 16b1 00       		.byte	0
 5984 16b2 19       		.uleb128 0x19
 5985 16b3 72010000 		.4byte	.LVL212
 5986 16b7 FC1A0000 		.4byte	0x1afc
 5987 16bb DF160000 		.4byte	0x16df
 5988 16bf 1A       		.uleb128 0x1a
 5989 16c0 01       		.uleb128 0x1
 5990 16c1 50       		.byte	0x50
 5991 16c2 04       		.uleb128 0x4
 5992 16c3 7D       		.byte	0x7d
 5993 16c4 08       		.sleb128 8
 5994 16c5 94       		.byte	0x94
 5995 16c6 02       		.byte	0x2
 5996 16c7 1A       		.uleb128 0x1a
 5997 16c8 01       		.uleb128 0x1
 5998 16c9 51       		.byte	0x51
 5999 16ca 04       		.uleb128 0x4
 6000 16cb 7D       		.byte	0x7d
 6001 16cc 0C       		.sleb128 12
 6002 16cd 94       		.byte	0x94
 6003 16ce 02       		.byte	0x2
 6004 16cf 1A       		.uleb128 0x1a
 6005 16d0 01       		.uleb128 0x1
 6006 16d1 52       		.byte	0x52
 6007 16d2 04       		.uleb128 0x4
 6008 16d3 7D       		.byte	0x7d
 6009 16d4 10       		.sleb128 16
 6010 16d5 94       		.byte	0x94
 6011 16d6 02       		.byte	0x2
 6012 16d7 1A       		.uleb128 0x1a
 6013 16d8 02       		.uleb128 0x2
 6014 16d9 7D       		.byte	0x7d
 6015 16da 00       		.sleb128 0
 6016 16db 02       		.uleb128 0x2
 6017 16dc 74       		.byte	0x74
 6018 16dd 00       		.sleb128 0
 6019 16de 00       		.byte	0
 6020 16df 19       		.uleb128 0x19
 6021 16e0 B0010000 		.4byte	.LVL216
 6022 16e4 FC1A0000 		.4byte	0x1afc
 6023 16e8 0C170000 		.4byte	0x170c
 6024 16ec 1A       		.uleb128 0x1a
 6025 16ed 01       		.uleb128 0x1
 6026 16ee 50       		.byte	0x50
 6027 16ef 04       		.uleb128 0x4
 6028 16f0 7D       		.byte	0x7d
 6029 16f1 08       		.sleb128 8
 6030 16f2 94       		.byte	0x94
 6031 16f3 02       		.byte	0x2
ARM GAS  C:\Users\leoja\AppData\Local\Temp\ccM6wJLr.s 			page 126


 6032 16f4 1A       		.uleb128 0x1a
 6033 16f5 01       		.uleb128 0x1
 6034 16f6 51       		.byte	0x51
 6035 16f7 04       		.uleb128 0x4
 6036 16f8 7D       		.byte	0x7d
 6037 16f9 0C       		.sleb128 12
 6038 16fa 94       		.byte	0x94
 6039 16fb 02       		.byte	0x2
 6040 16fc 1A       		.uleb128 0x1a
 6041 16fd 01       		.uleb128 0x1
 6042 16fe 52       		.byte	0x52
 6043 16ff 04       		.uleb128 0x4
 6044 1700 7D       		.byte	0x7d
 6045 1701 10       		.sleb128 16
 6046 1702 94       		.byte	0x94
 6047 1703 02       		.byte	0x2
 6048 1704 1A       		.uleb128 0x1a
 6049 1705 02       		.uleb128 0x2
 6050 1706 7D       		.byte	0x7d
 6051 1707 00       		.sleb128 0
 6052 1708 02       		.uleb128 0x2
 6053 1709 74       		.byte	0x74
 6054 170a 00       		.sleb128 0
 6055 170b 00       		.byte	0
 6056 170c 19       		.uleb128 0x19
 6057 170d E8010000 		.4byte	.LVL219
 6058 1711 FC1A0000 		.4byte	0x1afc
 6059 1715 39170000 		.4byte	0x1739
 6060 1719 1A       		.uleb128 0x1a
 6061 171a 01       		.uleb128 0x1
 6062 171b 50       		.byte	0x50
 6063 171c 04       		.uleb128 0x4
 6064 171d 7D       		.byte	0x7d
 6065 171e 08       		.sleb128 8
 6066 171f 94       		.byte	0x94
 6067 1720 02       		.byte	0x2
 6068 1721 1A       		.uleb128 0x1a
 6069 1722 01       		.uleb128 0x1
 6070 1723 51       		.byte	0x51
 6071 1724 04       		.uleb128 0x4
 6072 1725 7D       		.byte	0x7d
 6073 1726 0C       		.sleb128 12
 6074 1727 94       		.byte	0x94
 6075 1728 02       		.byte	0x2
 6076 1729 1A       		.uleb128 0x1a
 6077 172a 01       		.uleb128 0x1
 6078 172b 52       		.byte	0x52
 6079 172c 04       		.uleb128 0x4
 6080 172d 7D       		.byte	0x7d
 6081 172e 10       		.sleb128 16
 6082 172f 94       		.byte	0x94
 6083 1730 02       		.byte	0x2
 6084 1731 1A       		.uleb128 0x1a
 6085 1732 02       		.uleb128 0x2
 6086 1733 7D       		.byte	0x7d
 6087 1734 00       		.sleb128 0
 6088 1735 02       		.uleb128 0x2
ARM GAS  C:\Users\leoja\AppData\Local\Temp\ccM6wJLr.s 			page 127


 6089 1736 74       		.byte	0x74
 6090 1737 00       		.sleb128 0
 6091 1738 00       		.byte	0
 6092 1739 19       		.uleb128 0x19
 6093 173a FC010000 		.4byte	.LVL221
 6094 173e 361B0000 		.4byte	0x1b36
 6095 1742 53170000 		.4byte	0x1753
 6096 1746 1A       		.uleb128 0x1a
 6097 1747 01       		.uleb128 0x1
 6098 1748 50       		.byte	0x50
 6099 1749 02       		.uleb128 0x2
 6100 174a 76       		.byte	0x76
 6101 174b 00       		.sleb128 0
 6102 174c 1A       		.uleb128 0x1a
 6103 174d 01       		.uleb128 0x1
 6104 174e 51       		.byte	0x51
 6105 174f 02       		.uleb128 0x2
 6106 1750 77       		.byte	0x77
 6107 1751 00       		.sleb128 0
 6108 1752 00       		.byte	0
 6109 1753 21       		.uleb128 0x21
 6110 1754 02020000 		.4byte	.LVL222
 6111 1758 1F1B0000 		.4byte	0x1b1f
 6112 175c 00       		.byte	0
 6113 175d 24       		.uleb128 0x24
 6114 175e 3C060000 		.4byte	.LASF123
 6115 1762 01       		.byte	0x1
 6116 1763 4703     		.2byte	0x347
 6117 1765 00000000 		.4byte	.LFB47
 6118 1769 8C000000 		.4byte	.LFE47-.LFB47
 6119 176d 01       		.uleb128 0x1
 6120 176e 9C       		.byte	0x9c
 6121 176f B9180000 		.4byte	0x18b9
 6122 1773 25       		.uleb128 0x25
 6123 1774 5A030000 		.4byte	.LASF63
 6124 1778 01       		.byte	0x1
 6125 1779 4703     		.2byte	0x347
 6126 177b C3000000 		.4byte	0xc3
 6127 177f D80E0000 		.4byte	.LLST77
 6128 1783 26       		.uleb128 0x26
 6129 1784 783100   		.ascii	"x1\000"
 6130 1787 01       		.byte	0x1
 6131 1788 4703     		.2byte	0x347
 6132 178a C3000000 		.4byte	0xc3
 6133 178e F90E0000 		.4byte	.LLST78
 6134 1792 26       		.uleb128 0x26
 6135 1793 793100   		.ascii	"y1\000"
 6136 1796 01       		.byte	0x1
 6137 1797 4703     		.2byte	0x347
 6138 1799 C3000000 		.4byte	0xc3
 6139 179d 1A0F0000 		.4byte	.LLST79
 6140 17a1 26       		.uleb128 0x26
 6141 17a2 783200   		.ascii	"x2\000"
 6142 17a5 01       		.byte	0x1
 6143 17a6 4703     		.2byte	0x347
 6144 17a8 C3000000 		.4byte	0xc3
 6145 17ac 3B0F0000 		.4byte	.LLST80
ARM GAS  C:\Users\leoja\AppData\Local\Temp\ccM6wJLr.s 			page 128


 6146 17b0 26       		.uleb128 0x26
 6147 17b1 793200   		.ascii	"y2\000"
 6148 17b4 01       		.byte	0x1
 6149 17b5 4703     		.2byte	0x347
 6150 17b7 C3000000 		.4byte	0xc3
 6151 17bb 5C0F0000 		.4byte	.LLST81
 6152 17bf 25       		.uleb128 0x25
 6153 17c0 C7030000 		.4byte	.LASF107
 6154 17c4 01       		.byte	0x1
 6155 17c5 4703     		.2byte	0x347
 6156 17c7 AD000000 		.4byte	0xad
 6157 17cb 880F0000 		.4byte	.LLST82
 6158 17cf 27       		.uleb128 0x27
 6159 17d0 CE040000 		.4byte	.LASF109
 6160 17d4 01       		.byte	0x1
 6161 17d5 4803     		.2byte	0x348
 6162 17d7 94000000 		.4byte	0x94
 6163 17db C00F0000 		.4byte	.LLST83
 6164 17df 27       		.uleb128 0x27
 6165 17e0 2D030000 		.4byte	.LASF110
 6166 17e4 01       		.byte	0x1
 6167 17e5 4803     		.2byte	0x348
 6168 17e7 94000000 		.4byte	0x94
 6169 17eb DF0F0000 		.4byte	.LLST84
 6170 17ef 27       		.uleb128 0x27
 6171 17f0 20050000 		.4byte	.LASF111
 6172 17f4 01       		.byte	0x1
 6173 17f5 4903     		.2byte	0x349
 6174 17f7 94000000 		.4byte	0x94
 6175 17fb FE0F0000 		.4byte	.LLST85
 6176 17ff 28       		.uleb128 0x28
 6177 1800 50060000 		.4byte	.LASF108
 6178 1804 01       		.byte	0x1
 6179 1805 4A03     		.2byte	0x34a
 6180 1807 94000000 		.4byte	0x94
 6181 180b 0A       		.byte	0xa
 6182 180c 31       		.uleb128 0x31
 6183 180d 03020000 		.4byte	.LASF112
 6184 1811 01       		.byte	0x1
 6185 1812 5303     		.2byte	0x353
 6186 1814 89030000 		.4byte	0x389
 6187 1818 2FFFAD00 		.4byte	0xadff2f
 6188 181c 23       		.uleb128 0x23
 6189 181d 08000000 		.4byte	.LASF113
 6190 1821 01       		.byte	0x1
 6191 1822 5503     		.2byte	0x355
 6192 1824 B9180000 		.4byte	0x18b9
 6193 1828 02       		.uleb128 0x2
 6194 1829 91       		.byte	0x91
 6195 182a 5C       		.sleb128 -36
 6196 182b 21       		.uleb128 0x21
 6197 182c 40000000 		.4byte	.LVL235
 6198 1830 1F1B0000 		.4byte	0x1b1f
 6199 1834 19       		.uleb128 0x19
 6200 1835 4A000000 		.4byte	.LVL236
 6201 1839 2B1B0000 		.4byte	0x1b2b
 6202 183d 58180000 		.4byte	0x1858
ARM GAS  C:\Users\leoja\AppData\Local\Temp\ccM6wJLr.s 			page 129


 6203 1841 1A       		.uleb128 0x1a
 6204 1842 01       		.uleb128 0x1
 6205 1843 50       		.byte	0x50
 6206 1844 02       		.uleb128 0x2
 6207 1845 91       		.byte	0x91
 6208 1846 5C       		.sleb128 -36
 6209 1847 1A       		.uleb128 0x1a
 6210 1848 01       		.uleb128 0x1
 6211 1849 51       		.byte	0x51
 6212 184a 05       		.uleb128 0x5
 6213 184b 03       		.byte	0x3
 6214 184c 13010000 		.4byte	.LC73
 6215 1850 1A       		.uleb128 0x1a
 6216 1851 01       		.uleb128 0x1
 6217 1852 52       		.byte	0x52
 6218 1853 03       		.uleb128 0x3
 6219 1854 91       		.byte	0x91
 6220 1855 54       		.sleb128 -44
 6221 1856 06       		.byte	0x6
 6222 1857 00       		.byte	0
 6223 1858 19       		.uleb128 0x19
 6224 1859 5A000000 		.4byte	.LVL237
 6225 185d FC1A0000 		.4byte	0x1afc
 6226 1861 7F180000 		.4byte	0x187f
 6227 1865 1A       		.uleb128 0x1a
 6228 1866 01       		.uleb128 0x1
 6229 1867 50       		.byte	0x50
 6230 1868 02       		.uleb128 0x2
 6231 1869 74       		.byte	0x74
 6232 186a 00       		.sleb128 0
 6233 186b 1A       		.uleb128 0x1a
 6234 186c 01       		.uleb128 0x1
 6235 186d 51       		.byte	0x51
 6236 186e 02       		.uleb128 0x2
 6237 186f 75       		.byte	0x75
 6238 1870 00       		.sleb128 0
 6239 1871 1A       		.uleb128 0x1a
 6240 1872 01       		.uleb128 0x1
 6241 1873 53       		.byte	0x53
 6242 1874 02       		.uleb128 0x2
 6243 1875 76       		.byte	0x76
 6244 1876 00       		.sleb128 0
 6245 1877 1A       		.uleb128 0x1a
 6246 1878 02       		.uleb128 0x2
 6247 1879 7D       		.byte	0x7d
 6248 187a 00       		.sleb128 0
 6249 187b 02       		.uleb128 0x2
 6250 187c 77       		.byte	0x77
 6251 187d 00       		.sleb128 0
 6252 187e 00       		.byte	0
 6253 187f 19       		.uleb128 0x19
 6254 1880 70000000 		.4byte	.LVL238
 6255 1884 361B0000 		.4byte	0x1b36
 6256 1888 AF180000 		.4byte	0x18af
 6257 188c 1A       		.uleb128 0x1a
 6258 188d 01       		.uleb128 0x1
 6259 188e 50       		.byte	0x50
ARM GAS  C:\Users\leoja\AppData\Local\Temp\ccM6wJLr.s 			page 130


 6260 188f 04       		.uleb128 0x4
 6261 1890 7D       		.byte	0x7d
 6262 1891 0C       		.sleb128 12
 6263 1892 94       		.byte	0x94
 6264 1893 02       		.byte	0x2
 6265 1894 1A       		.uleb128 0x1a
 6266 1895 01       		.uleb128 0x1
 6267 1896 51       		.byte	0x51
 6268 1897 04       		.uleb128 0x4
 6269 1898 7D       		.byte	0x7d
 6270 1899 10       		.sleb128 16
 6271 189a 94       		.byte	0x94
 6272 189b 02       		.byte	0x2
 6273 189c 1A       		.uleb128 0x1a
 6274 189d 01       		.uleb128 0x1
 6275 189e 52       		.byte	0x52
 6276 189f 02       		.uleb128 0x2
 6277 18a0 91       		.byte	0x91
 6278 18a1 5C       		.sleb128 -36
 6279 18a2 1A       		.uleb128 0x1a
 6280 18a3 01       		.uleb128 0x1
 6281 18a4 53       		.byte	0x53
 6282 18a5 01       		.uleb128 0x1
 6283 18a6 30       		.byte	0x30
 6284 18a7 1A       		.uleb128 0x1a
 6285 18a8 02       		.uleb128 0x2
 6286 18a9 7D       		.byte	0x7d
 6287 18aa 00       		.sleb128 0
 6288 18ab 02       		.uleb128 0x2
 6289 18ac 77       		.byte	0x77
 6290 18ad 00       		.sleb128 0
 6291 18ae 00       		.byte	0
 6292 18af 21       		.uleb128 0x21
 6293 18b0 76000000 		.4byte	.LVL239
 6294 18b4 1F1B0000 		.4byte	0x1b1f
 6295 18b8 00       		.byte	0
 6296 18b9 16       		.uleb128 0x16
 6297 18ba F3000000 		.4byte	0xf3
 6298 18be C9180000 		.4byte	0x18c9
 6299 18c2 17       		.uleb128 0x17
 6300 18c3 01010000 		.4byte	0x101
 6301 18c7 09       		.byte	0x9
 6302 18c8 00       		.byte	0
 6303 18c9 24       		.uleb128 0x24
 6304 18ca 5D050000 		.4byte	.LASF124
 6305 18ce 01       		.byte	0x1
 6306 18cf 5C03     		.2byte	0x35c
 6307 18d1 00000000 		.4byte	.LFB48
 6308 18d5 9C000000 		.4byte	.LFE48-.LFB48
 6309 18d9 01       		.uleb128 0x1
 6310 18da 9C       		.byte	0x9c
 6311 18db 3A1A0000 		.4byte	0x1a3a
 6312 18df 25       		.uleb128 0x25
 6313 18e0 5A030000 		.4byte	.LASF63
 6314 18e4 01       		.byte	0x1
 6315 18e5 5C03     		.2byte	0x35c
 6316 18e7 3A1A0000 		.4byte	0x1a3a
ARM GAS  C:\Users\leoja\AppData\Local\Temp\ccM6wJLr.s 			page 131


 6317 18eb 49100000 		.4byte	.LLST86
 6318 18ef 26       		.uleb128 0x26
 6319 18f0 783100   		.ascii	"x1\000"
 6320 18f3 01       		.byte	0x1
 6321 18f4 5C03     		.2byte	0x35c
 6322 18f6 C3000000 		.4byte	0xc3
 6323 18fa 68100000 		.4byte	.LLST87
 6324 18fe 26       		.uleb128 0x26
 6325 18ff 793100   		.ascii	"y1\000"
 6326 1902 01       		.byte	0x1
 6327 1903 5C03     		.2byte	0x35c
 6328 1905 C3000000 		.4byte	0xc3
 6329 1909 89100000 		.4byte	.LLST88
 6330 190d 26       		.uleb128 0x26
 6331 190e 783200   		.ascii	"x2\000"
 6332 1911 01       		.byte	0x1
 6333 1912 5C03     		.2byte	0x35c
 6334 1914 C3000000 		.4byte	0xc3
 6335 1918 AA100000 		.4byte	.LLST89
 6336 191c 26       		.uleb128 0x26
 6337 191d 793200   		.ascii	"y2\000"
 6338 1920 01       		.byte	0x1
 6339 1921 5C03     		.2byte	0x35c
 6340 1923 C3000000 		.4byte	0xc3
 6341 1927 CB100000 		.4byte	.LLST90
 6342 192b 25       		.uleb128 0x25
 6343 192c C7030000 		.4byte	.LASF107
 6344 1930 01       		.byte	0x1
 6345 1931 5C03     		.2byte	0x35c
 6346 1933 AD000000 		.4byte	0xad
 6347 1937 F7100000 		.4byte	.LLST91
 6348 193b 27       		.uleb128 0x27
 6349 193c CE040000 		.4byte	.LASF109
 6350 1940 01       		.byte	0x1
 6351 1941 5D03     		.2byte	0x35d
 6352 1943 94000000 		.4byte	0x94
 6353 1947 2F110000 		.4byte	.LLST92
 6354 194b 27       		.uleb128 0x27
 6355 194c 2D030000 		.4byte	.LASF110
 6356 1950 01       		.byte	0x1
 6357 1951 5D03     		.2byte	0x35d
 6358 1953 94000000 		.4byte	0x94
 6359 1957 4E110000 		.4byte	.LLST93
 6360 195b 27       		.uleb128 0x27
 6361 195c 20050000 		.4byte	.LASF111
 6362 1960 01       		.byte	0x1
 6363 1961 5E03     		.2byte	0x35e
 6364 1963 94000000 		.4byte	0x94
 6365 1967 6D110000 		.4byte	.LLST94
 6366 196b 28       		.uleb128 0x28
 6367 196c 50060000 		.4byte	.LASF108
 6368 1970 01       		.byte	0x1
 6369 1971 5F03     		.2byte	0x35f
 6370 1973 94000000 		.4byte	0x94
 6371 1977 0A       		.byte	0xa
 6372 1978 32       		.uleb128 0x32
 6373 1979 03020000 		.4byte	.LASF112
ARM GAS  C:\Users\leoja\AppData\Local\Temp\ccM6wJLr.s 			page 132


 6374 197d 01       		.byte	0x1
 6375 197e 6803     		.2byte	0x368
 6376 1980 89030000 		.4byte	0x389
 6377 1984 00FF     		.2byte	0xff00
 6378 1986 27       		.uleb128 0x27
 6379 1987 A0060000 		.4byte	.LASF125
 6380 198b 01       		.byte	0x1
 6381 198c 6A03     		.2byte	0x36a
 6382 198e AD000000 		.4byte	0xad
 6383 1992 B8110000 		.4byte	.LLST95
 6384 1996 33       		.uleb128 0x33
 6385 1997 6900     		.ascii	"i\000"
 6386 1999 01       		.byte	0x1
 6387 199a 6B03     		.2byte	0x36b
 6388 199c AD000000 		.4byte	0xad
 6389 19a0 D7110000 		.4byte	.LLST96
 6390 19a4 23       		.uleb128 0x23
 6391 19a5 08000000 		.4byte	.LASF113
 6392 19a9 01       		.byte	0x1
 6393 19aa 7303     		.2byte	0x373
 6394 19ac B9180000 		.4byte	0x18b9
 6395 19b0 02       		.uleb128 0x2
 6396 19b1 91       		.byte	0x91
 6397 19b2 5C       		.sleb128 -36
 6398 19b3 21       		.uleb128 0x21
 6399 19b4 40000000 		.4byte	.LVL252
 6400 19b8 1F1B0000 		.4byte	0x1b1f
 6401 19bc 19       		.uleb128 0x19
 6402 19bd 5C000000 		.4byte	.LVL258
 6403 19c1 2B1B0000 		.4byte	0x1b2b
 6404 19c5 D9190000 		.4byte	0x19d9
 6405 19c9 1A       		.uleb128 0x1a
 6406 19ca 01       		.uleb128 0x1
 6407 19cb 50       		.byte	0x50
 6408 19cc 02       		.uleb128 0x2
 6409 19cd 91       		.byte	0x91
 6410 19ce 5C       		.sleb128 -36
 6411 19cf 1A       		.uleb128 0x1a
 6412 19d0 01       		.uleb128 0x1
 6413 19d1 51       		.byte	0x51
 6414 19d2 05       		.uleb128 0x5
 6415 19d3 03       		.byte	0x3
 6416 19d4 4E010000 		.4byte	.LC102
 6417 19d8 00       		.byte	0
 6418 19d9 19       		.uleb128 0x19
 6419 19da 6E000000 		.4byte	.LVL259
 6420 19de FC1A0000 		.4byte	0x1afc
 6421 19e2 001A0000 		.4byte	0x1a00
 6422 19e6 1A       		.uleb128 0x1a
 6423 19e7 01       		.uleb128 0x1
 6424 19e8 50       		.byte	0x50
 6425 19e9 02       		.uleb128 0x2
 6426 19ea 74       		.byte	0x74
 6427 19eb 00       		.sleb128 0
 6428 19ec 1A       		.uleb128 0x1a
 6429 19ed 01       		.uleb128 0x1
 6430 19ee 51       		.byte	0x51
ARM GAS  C:\Users\leoja\AppData\Local\Temp\ccM6wJLr.s 			page 133


 6431 19ef 02       		.uleb128 0x2
 6432 19f0 75       		.byte	0x75
 6433 19f1 00       		.sleb128 0
 6434 19f2 1A       		.uleb128 0x1a
 6435 19f3 01       		.uleb128 0x1
 6436 19f4 53       		.byte	0x53
 6437 19f5 02       		.uleb128 0x2
 6438 19f6 77       		.byte	0x77
 6439 19f7 00       		.sleb128 0
 6440 19f8 1A       		.uleb128 0x1a
 6441 19f9 02       		.uleb128 0x2
 6442 19fa 7D       		.byte	0x7d
 6443 19fb 00       		.sleb128 0
 6444 19fc 02       		.uleb128 0x2
 6445 19fd 76       		.byte	0x76
 6446 19fe 00       		.sleb128 0
 6447 19ff 00       		.byte	0
 6448 1a00 19       		.uleb128 0x19
 6449 1a01 84000000 		.4byte	.LVL260
 6450 1a05 361B0000 		.4byte	0x1b36
 6451 1a09 301A0000 		.4byte	0x1a30
 6452 1a0d 1A       		.uleb128 0x1a
 6453 1a0e 01       		.uleb128 0x1
 6454 1a0f 50       		.byte	0x50
 6455 1a10 04       		.uleb128 0x4
 6456 1a11 7D       		.byte	0x7d
 6457 1a12 0C       		.sleb128 12
 6458 1a13 94       		.byte	0x94
 6459 1a14 02       		.byte	0x2
 6460 1a15 1A       		.uleb128 0x1a
 6461 1a16 01       		.uleb128 0x1
 6462 1a17 51       		.byte	0x51
 6463 1a18 04       		.uleb128 0x4
 6464 1a19 7D       		.byte	0x7d
 6465 1a1a 10       		.sleb128 16
 6466 1a1b 94       		.byte	0x94
 6467 1a1c 02       		.byte	0x2
 6468 1a1d 1A       		.uleb128 0x1a
 6469 1a1e 01       		.uleb128 0x1
 6470 1a1f 52       		.byte	0x52
 6471 1a20 02       		.uleb128 0x2
 6472 1a21 91       		.byte	0x91
 6473 1a22 5C       		.sleb128 -36
 6474 1a23 1A       		.uleb128 0x1a
 6475 1a24 01       		.uleb128 0x1
 6476 1a25 53       		.byte	0x53
 6477 1a26 01       		.uleb128 0x1
 6478 1a27 30       		.byte	0x30
 6479 1a28 1A       		.uleb128 0x1a
 6480 1a29 02       		.uleb128 0x2
 6481 1a2a 7D       		.byte	0x7d
 6482 1a2b 00       		.sleb128 0
 6483 1a2c 02       		.uleb128 0x2
 6484 1a2d 76       		.byte	0x76
 6485 1a2e 00       		.sleb128 0
 6486 1a2f 00       		.byte	0
 6487 1a30 21       		.uleb128 0x21
ARM GAS  C:\Users\leoja\AppData\Local\Temp\ccM6wJLr.s 			page 134


 6488 1a31 8A000000 		.4byte	.LVL261
 6489 1a35 1F1B0000 		.4byte	0x1b1f
 6490 1a39 00       		.byte	0
 6491 1a3a 07       		.uleb128 0x7
 6492 1a3b 04       		.byte	0x4
 6493 1a3c AD000000 		.4byte	0xad
 6494 1a40 34       		.uleb128 0x34
 6495 1a41 CC030000 		.4byte	.LASF147
 6496 1a45 01       		.byte	0x1
 6497 1a46 7A03     		.2byte	0x37a
 6498 1a48 00000000 		.4byte	.LFB49
 6499 1a4c 3C000000 		.4byte	.LFE49-.LFB49
 6500 1a50 01       		.uleb128 0x1
 6501 1a51 9C       		.byte	0x9c
 6502 1a52 35       		.uleb128 0x35
 6503 1a53 99010000 		.4byte	.LASF126
 6504 1a57 07       		.byte	0x7
 6505 1a58 51       		.byte	0x51
 6506 1a59 DA030000 		.4byte	0x3da
 6507 1a5d 35       		.uleb128 0x35
 6508 1a5e 02050000 		.4byte	.LASF127
 6509 1a62 07       		.byte	0x7
 6510 1a63 60       		.byte	0x60
 6511 1a64 DA030000 		.4byte	0x3da
 6512 1a68 36       		.uleb128 0x36
 6513 1a69 48040000 		.4byte	.LASF128
 6514 1a6d 08       		.byte	0x8
 6515 1a6e 33       		.byte	0x33
 6516 1a6f DA060000 		.4byte	0x6da
 6517 1a73 05       		.uleb128 0x5
 6518 1a74 03       		.byte	0x3
 6519 1a75 00000000 		.4byte	gui1963
 6520 1a79 36       		.uleb128 0x36
 6521 1a7a 4F020000 		.4byte	.LASF129
 6522 1a7e 09       		.byte	0x9
 6523 1a7f 0F       		.byte	0xf
 6524 1a80 89030000 		.4byte	0x389
 6525 1a84 05       		.uleb128 0x5
 6526 1a85 03       		.byte	0x3
 6527 1a86 00000000 		.4byte	last_SOC_color
 6528 1a8a 36       		.uleb128 0x36
 6529 1a8b 8E030000 		.4byte	.LASF130
 6530 1a8f 09       		.byte	0x9
 6531 1a90 10       		.byte	0x10
 6532 1a91 89030000 		.4byte	0x389
 6533 1a95 05       		.uleb128 0x5
 6534 1a96 03       		.byte	0x3
 6535 1a97 00000000 		.4byte	last_max_pack_temp_color
 6536 1a9b 36       		.uleb128 0x36
 6537 1a9c 7F040000 		.4byte	.LASF131
 6538 1aa0 09       		.byte	0x9
 6539 1aa1 11       		.byte	0x11
 6540 1aa2 89030000 		.4byte	0x389
 6541 1aa6 05       		.uleb128 0x5
 6542 1aa7 03       		.byte	0x3
 6543 1aa8 00000000 		.4byte	last_state_color
 6544 1aac 36       		.uleb128 0x36
ARM GAS  C:\Users\leoja\AppData\Local\Temp\ccM6wJLr.s 			page 135


 6545 1aad 2E050000 		.4byte	.LASF132
 6546 1ab1 09       		.byte	0x9
 6547 1ab2 12       		.byte	0x12
 6548 1ab3 89030000 		.4byte	0x389
 6549 1ab7 05       		.uleb128 0x5
 6550 1ab8 03       		.byte	0x3
 6551 1ab9 00000000 		.4byte	last_glv_v_color
 6552 1abd 36       		.uleb128 0x36
 6553 1abe 1D060000 		.4byte	.LASF133
 6554 1ac2 09       		.byte	0x9
 6555 1ac3 13       		.byte	0x13
 6556 1ac4 89030000 		.4byte	0x389
 6557 1ac8 05       		.uleb128 0x5
 6558 1ac9 03       		.byte	0x3
 6559 1aca 00000000 		.4byte	last_mc_temp_color
 6560 1ace 36       		.uleb128 0x36
 6561 1acf C8020000 		.4byte	.LASF134
 6562 1ad3 09       		.byte	0x9
 6563 1ad4 14       		.byte	0x14
 6564 1ad5 89030000 		.4byte	0x389
 6565 1ad9 05       		.uleb128 0x5
 6566 1ada 03       		.byte	0x3
 6567 1adb 00000000 		.4byte	last_motor_temp_color
 6568 1adf 36       		.uleb128 0x36
 6569 1ae0 09020000 		.4byte	.LASF135
 6570 1ae4 09       		.byte	0x9
 6571 1ae5 15       		.byte	0x15
 6572 1ae6 89030000 		.4byte	0x389
 6573 1aea 05       		.uleb128 0x5
 6574 1aeb 03       		.byte	0x3
 6575 1aec 00000000 		.4byte	last_shutdown_color
 6576 1af0 37       		.uleb128 0x37
 6577 1af1 41020000 		.4byte	.LASF136
 6578 1af5 41020000 		.4byte	.LASF136
 6579 1af9 07       		.byte	0x7
 6580 1afa EC02     		.2byte	0x2ec
 6581 1afc 37       		.uleb128 0x37
 6582 1afd C6000000 		.4byte	.LASF137
 6583 1b01 C6000000 		.4byte	.LASF137
 6584 1b05 07       		.byte	0x7
 6585 1b06 ED02     		.2byte	0x2ed
 6586 1b08 38       		.uleb128 0x38
 6587 1b09 00000000 		.4byte	.LASF138
 6588 1b0d 00000000 		.4byte	.LASF138
 6589 1b11 0A       		.byte	0xa
 6590 1b12 EC       		.byte	0xec
 6591 1b13 37       		.uleb128 0x37
 6592 1b14 1E040000 		.4byte	.LASF139
 6593 1b18 1E040000 		.4byte	.LASF139
 6594 1b1c 07       		.byte	0x7
 6595 1b1d F702     		.2byte	0x2f7
 6596 1b1f 37       		.uleb128 0x37
 6597 1b20 BA060000 		.4byte	.LASF140
 6598 1b24 BA060000 		.4byte	.LASF140
 6599 1b28 07       		.byte	0x7
 6600 1b29 EB02     		.2byte	0x2eb
 6601 1b2b 38       		.uleb128 0x38
ARM GAS  C:\Users\leoja\AppData\Local\Temp\ccM6wJLr.s 			page 136


 6602 1b2c 37040000 		.4byte	.LASF141
 6603 1b30 37040000 		.4byte	.LASF141
 6604 1b34 0B       		.byte	0xb
 6605 1b35 E7       		.byte	0xe7
 6606 1b36 37       		.uleb128 0x37
 6607 1b37 1D020000 		.4byte	.LASF142
 6608 1b3b 1D020000 		.4byte	.LASF142
 6609 1b3f 07       		.byte	0x7
 6610 1b40 F802     		.2byte	0x2f8
 6611 1b42 00       		.byte	0
 6612              		.section	.debug_abbrev,"",%progbits
 6613              	.Ldebug_abbrev0:
 6614 0000 01       		.uleb128 0x1
 6615 0001 11       		.uleb128 0x11
 6616 0002 01       		.byte	0x1
 6617 0003 25       		.uleb128 0x25
 6618 0004 0E       		.uleb128 0xe
 6619 0005 13       		.uleb128 0x13
 6620 0006 0B       		.uleb128 0xb
 6621 0007 03       		.uleb128 0x3
 6622 0008 0E       		.uleb128 0xe
 6623 0009 1B       		.uleb128 0x1b
 6624 000a 0E       		.uleb128 0xe
 6625 000b 55       		.uleb128 0x55
 6626 000c 17       		.uleb128 0x17
 6627 000d 11       		.uleb128 0x11
 6628 000e 01       		.uleb128 0x1
 6629 000f 10       		.uleb128 0x10
 6630 0010 17       		.uleb128 0x17
 6631 0011 00       		.byte	0
 6632 0012 00       		.byte	0
 6633 0013 02       		.uleb128 0x2
 6634 0014 16       		.uleb128 0x16
 6635 0015 00       		.byte	0
 6636 0016 03       		.uleb128 0x3
 6637 0017 0E       		.uleb128 0xe
 6638 0018 3A       		.uleb128 0x3a
 6639 0019 0B       		.uleb128 0xb
 6640 001a 3B       		.uleb128 0x3b
 6641 001b 0B       		.uleb128 0xb
 6642 001c 49       		.uleb128 0x49
 6643 001d 13       		.uleb128 0x13
 6644 001e 00       		.byte	0
 6645 001f 00       		.byte	0
 6646 0020 03       		.uleb128 0x3
 6647 0021 24       		.uleb128 0x24
 6648 0022 00       		.byte	0
 6649 0023 0B       		.uleb128 0xb
 6650 0024 0B       		.uleb128 0xb
 6651 0025 3E       		.uleb128 0x3e
 6652 0026 0B       		.uleb128 0xb
 6653 0027 03       		.uleb128 0x3
 6654 0028 0E       		.uleb128 0xe
 6655 0029 00       		.byte	0
 6656 002a 00       		.byte	0
 6657 002b 04       		.uleb128 0x4
 6658 002c 24       		.uleb128 0x24
ARM GAS  C:\Users\leoja\AppData\Local\Temp\ccM6wJLr.s 			page 137


 6659 002d 00       		.byte	0
 6660 002e 0B       		.uleb128 0xb
 6661 002f 0B       		.uleb128 0xb
 6662 0030 3E       		.uleb128 0x3e
 6663 0031 0B       		.uleb128 0xb
 6664 0032 03       		.uleb128 0x3
 6665 0033 08       		.uleb128 0x8
 6666 0034 00       		.byte	0
 6667 0035 00       		.byte	0
 6668 0036 05       		.uleb128 0x5
 6669 0037 16       		.uleb128 0x16
 6670 0038 00       		.byte	0
 6671 0039 03       		.uleb128 0x3
 6672 003a 0E       		.uleb128 0xe
 6673 003b 3A       		.uleb128 0x3a
 6674 003c 0B       		.uleb128 0xb
 6675 003d 3B       		.uleb128 0x3b
 6676 003e 05       		.uleb128 0x5
 6677 003f 49       		.uleb128 0x49
 6678 0040 13       		.uleb128 0x13
 6679 0041 00       		.byte	0
 6680 0042 00       		.byte	0
 6681 0043 06       		.uleb128 0x6
 6682 0044 0F       		.uleb128 0xf
 6683 0045 00       		.byte	0
 6684 0046 0B       		.uleb128 0xb
 6685 0047 0B       		.uleb128 0xb
 6686 0048 00       		.byte	0
 6687 0049 00       		.byte	0
 6688 004a 07       		.uleb128 0x7
 6689 004b 0F       		.uleb128 0xf
 6690 004c 00       		.byte	0
 6691 004d 0B       		.uleb128 0xb
 6692 004e 0B       		.uleb128 0xb
 6693 004f 49       		.uleb128 0x49
 6694 0050 13       		.uleb128 0x13
 6695 0051 00       		.byte	0
 6696 0052 00       		.byte	0
 6697 0053 08       		.uleb128 0x8
 6698 0054 04       		.uleb128 0x4
 6699 0055 01       		.byte	0x1
 6700 0056 0B       		.uleb128 0xb
 6701 0057 0B       		.uleb128 0xb
 6702 0058 49       		.uleb128 0x49
 6703 0059 13       		.uleb128 0x13
 6704 005a 3A       		.uleb128 0x3a
 6705 005b 0B       		.uleb128 0xb
 6706 005c 3B       		.uleb128 0x3b
 6707 005d 0B       		.uleb128 0xb
 6708 005e 01       		.uleb128 0x1
 6709 005f 13       		.uleb128 0x13
 6710 0060 00       		.byte	0
 6711 0061 00       		.byte	0
 6712 0062 09       		.uleb128 0x9
 6713 0063 28       		.uleb128 0x28
 6714 0064 00       		.byte	0
 6715 0065 03       		.uleb128 0x3
ARM GAS  C:\Users\leoja\AppData\Local\Temp\ccM6wJLr.s 			page 138


 6716 0066 08       		.uleb128 0x8
 6717 0067 1C       		.uleb128 0x1c
 6718 0068 0B       		.uleb128 0xb
 6719 0069 00       		.byte	0
 6720 006a 00       		.byte	0
 6721 006b 0A       		.uleb128 0xa
 6722 006c 28       		.uleb128 0x28
 6723 006d 00       		.byte	0
 6724 006e 03       		.uleb128 0x3
 6725 006f 0E       		.uleb128 0xe
 6726 0070 1C       		.uleb128 0x1c
 6727 0071 0B       		.uleb128 0xb
 6728 0072 00       		.byte	0
 6729 0073 00       		.byte	0
 6730 0074 0B       		.uleb128 0xb
 6731 0075 13       		.uleb128 0x13
 6732 0076 01       		.byte	0x1
 6733 0077 0B       		.uleb128 0xb
 6734 0078 0B       		.uleb128 0xb
 6735 0079 3A       		.uleb128 0x3a
 6736 007a 0B       		.uleb128 0xb
 6737 007b 3B       		.uleb128 0x3b
 6738 007c 0B       		.uleb128 0xb
 6739 007d 01       		.uleb128 0x1
 6740 007e 13       		.uleb128 0x13
 6741 007f 00       		.byte	0
 6742 0080 00       		.byte	0
 6743 0081 0C       		.uleb128 0xc
 6744 0082 0D       		.uleb128 0xd
 6745 0083 00       		.byte	0
 6746 0084 03       		.uleb128 0x3
 6747 0085 08       		.uleb128 0x8
 6748 0086 3A       		.uleb128 0x3a
 6749 0087 0B       		.uleb128 0xb
 6750 0088 3B       		.uleb128 0x3b
 6751 0089 0B       		.uleb128 0xb
 6752 008a 49       		.uleb128 0x49
 6753 008b 13       		.uleb128 0x13
 6754 008c 38       		.uleb128 0x38
 6755 008d 0B       		.uleb128 0xb
 6756 008e 00       		.byte	0
 6757 008f 00       		.byte	0
 6758 0090 0D       		.uleb128 0xd
 6759 0091 0D       		.uleb128 0xd
 6760 0092 00       		.byte	0
 6761 0093 03       		.uleb128 0x3
 6762 0094 0E       		.uleb128 0xe
 6763 0095 3A       		.uleb128 0x3a
 6764 0096 0B       		.uleb128 0xb
 6765 0097 3B       		.uleb128 0x3b
 6766 0098 0B       		.uleb128 0xb
 6767 0099 49       		.uleb128 0x49
 6768 009a 13       		.uleb128 0x13
 6769 009b 38       		.uleb128 0x38
 6770 009c 0B       		.uleb128 0xb
 6771 009d 00       		.byte	0
 6772 009e 00       		.byte	0
ARM GAS  C:\Users\leoja\AppData\Local\Temp\ccM6wJLr.s 			page 139


 6773 009f 0E       		.uleb128 0xe
 6774 00a0 13       		.uleb128 0x13
 6775 00a1 01       		.byte	0x1
 6776 00a2 03       		.uleb128 0x3
 6777 00a3 0E       		.uleb128 0xe
 6778 00a4 0B       		.uleb128 0xb
 6779 00a5 0B       		.uleb128 0xb
 6780 00a6 3A       		.uleb128 0x3a
 6781 00a7 0B       		.uleb128 0xb
 6782 00a8 3B       		.uleb128 0x3b
 6783 00a9 0B       		.uleb128 0xb
 6784 00aa 01       		.uleb128 0x1
 6785 00ab 13       		.uleb128 0x13
 6786 00ac 00       		.byte	0
 6787 00ad 00       		.byte	0
 6788 00ae 0F       		.uleb128 0xf
 6789 00af 0D       		.uleb128 0xd
 6790 00b0 00       		.byte	0
 6791 00b1 03       		.uleb128 0x3
 6792 00b2 0E       		.uleb128 0xe
 6793 00b3 3A       		.uleb128 0x3a
 6794 00b4 0B       		.uleb128 0xb
 6795 00b5 3B       		.uleb128 0x3b
 6796 00b6 05       		.uleb128 0x5
 6797 00b7 49       		.uleb128 0x49
 6798 00b8 13       		.uleb128 0x13
 6799 00b9 38       		.uleb128 0x38
 6800 00ba 0B       		.uleb128 0xb
 6801 00bb 00       		.byte	0
 6802 00bc 00       		.byte	0
 6803 00bd 10       		.uleb128 0x10
 6804 00be 13       		.uleb128 0x13
 6805 00bf 01       		.byte	0x1
 6806 00c0 03       		.uleb128 0x3
 6807 00c1 0E       		.uleb128 0xe
 6808 00c2 0B       		.uleb128 0xb
 6809 00c3 0B       		.uleb128 0xb
 6810 00c4 3A       		.uleb128 0x3a
 6811 00c5 0B       		.uleb128 0xb
 6812 00c6 3B       		.uleb128 0x3b
 6813 00c7 05       		.uleb128 0x5
 6814 00c8 01       		.uleb128 0x1
 6815 00c9 13       		.uleb128 0x13
 6816 00ca 00       		.byte	0
 6817 00cb 00       		.byte	0
 6818 00cc 11       		.uleb128 0x11
 6819 00cd 0D       		.uleb128 0xd
 6820 00ce 00       		.byte	0
 6821 00cf 03       		.uleb128 0x3
 6822 00d0 08       		.uleb128 0x8
 6823 00d1 3A       		.uleb128 0x3a
 6824 00d2 0B       		.uleb128 0xb
 6825 00d3 3B       		.uleb128 0x3b
 6826 00d4 05       		.uleb128 0x5
 6827 00d5 49       		.uleb128 0x49
 6828 00d6 13       		.uleb128 0x13
 6829 00d7 38       		.uleb128 0x38
ARM GAS  C:\Users\leoja\AppData\Local\Temp\ccM6wJLr.s 			page 140


 6830 00d8 0B       		.uleb128 0xb
 6831 00d9 00       		.byte	0
 6832 00da 00       		.byte	0
 6833 00db 12       		.uleb128 0x12
 6834 00dc 26       		.uleb128 0x26
 6835 00dd 00       		.byte	0
 6836 00de 49       		.uleb128 0x49
 6837 00df 13       		.uleb128 0x13
 6838 00e0 00       		.byte	0
 6839 00e1 00       		.byte	0
 6840 00e2 13       		.uleb128 0x13
 6841 00e3 15       		.uleb128 0x15
 6842 00e4 01       		.byte	0x1
 6843 00e5 27       		.uleb128 0x27
 6844 00e6 19       		.uleb128 0x19
 6845 00e7 01       		.uleb128 0x1
 6846 00e8 13       		.uleb128 0x13
 6847 00e9 00       		.byte	0
 6848 00ea 00       		.byte	0
 6849 00eb 14       		.uleb128 0x14
 6850 00ec 05       		.uleb128 0x5
 6851 00ed 00       		.byte	0
 6852 00ee 49       		.uleb128 0x49
 6853 00ef 13       		.uleb128 0x13
 6854 00f0 00       		.byte	0
 6855 00f1 00       		.byte	0
 6856 00f2 15       		.uleb128 0x15
 6857 00f3 13       		.uleb128 0x13
 6858 00f4 01       		.byte	0x1
 6859 00f5 0B       		.uleb128 0xb
 6860 00f6 0B       		.uleb128 0xb
 6861 00f7 3A       		.uleb128 0x3a
 6862 00f8 0B       		.uleb128 0xb
 6863 00f9 3B       		.uleb128 0x3b
 6864 00fa 05       		.uleb128 0x5
 6865 00fb 01       		.uleb128 0x1
 6866 00fc 13       		.uleb128 0x13
 6867 00fd 00       		.byte	0
 6868 00fe 00       		.byte	0
 6869 00ff 16       		.uleb128 0x16
 6870 0100 01       		.uleb128 0x1
 6871 0101 01       		.byte	0x1
 6872 0102 49       		.uleb128 0x49
 6873 0103 13       		.uleb128 0x13
 6874 0104 01       		.uleb128 0x1
 6875 0105 13       		.uleb128 0x13
 6876 0106 00       		.byte	0
 6877 0107 00       		.byte	0
 6878 0108 17       		.uleb128 0x17
 6879 0109 21       		.uleb128 0x21
 6880 010a 00       		.byte	0
 6881 010b 49       		.uleb128 0x49
 6882 010c 13       		.uleb128 0x13
 6883 010d 2F       		.uleb128 0x2f
 6884 010e 0B       		.uleb128 0xb
 6885 010f 00       		.byte	0
 6886 0110 00       		.byte	0
ARM GAS  C:\Users\leoja\AppData\Local\Temp\ccM6wJLr.s 			page 141


 6887 0111 18       		.uleb128 0x18
 6888 0112 2E       		.uleb128 0x2e
 6889 0113 01       		.byte	0x1
 6890 0114 3F       		.uleb128 0x3f
 6891 0115 19       		.uleb128 0x19
 6892 0116 03       		.uleb128 0x3
 6893 0117 0E       		.uleb128 0xe
 6894 0118 3A       		.uleb128 0x3a
 6895 0119 0B       		.uleb128 0xb
 6896 011a 3B       		.uleb128 0x3b
 6897 011b 0B       		.uleb128 0xb
 6898 011c 11       		.uleb128 0x11
 6899 011d 01       		.uleb128 0x1
 6900 011e 12       		.uleb128 0x12
 6901 011f 06       		.uleb128 0x6
 6902 0120 40       		.uleb128 0x40
 6903 0121 18       		.uleb128 0x18
 6904 0122 9742     		.uleb128 0x2117
 6905 0124 19       		.uleb128 0x19
 6906 0125 01       		.uleb128 0x1
 6907 0126 13       		.uleb128 0x13
 6908 0127 00       		.byte	0
 6909 0128 00       		.byte	0
 6910 0129 19       		.uleb128 0x19
 6911 012a 898201   		.uleb128 0x4109
 6912 012d 01       		.byte	0x1
 6913 012e 11       		.uleb128 0x11
 6914 012f 01       		.uleb128 0x1
 6915 0130 31       		.uleb128 0x31
 6916 0131 13       		.uleb128 0x13
 6917 0132 01       		.uleb128 0x1
 6918 0133 13       		.uleb128 0x13
 6919 0134 00       		.byte	0
 6920 0135 00       		.byte	0
 6921 0136 1A       		.uleb128 0x1a
 6922 0137 8A8201   		.uleb128 0x410a
 6923 013a 00       		.byte	0
 6924 013b 02       		.uleb128 0x2
 6925 013c 18       		.uleb128 0x18
 6926 013d 9142     		.uleb128 0x2111
 6927 013f 18       		.uleb128 0x18
 6928 0140 00       		.byte	0
 6929 0141 00       		.byte	0
 6930 0142 1B       		.uleb128 0x1b
 6931 0143 898201   		.uleb128 0x4109
 6932 0146 01       		.byte	0x1
 6933 0147 11       		.uleb128 0x11
 6934 0148 01       		.uleb128 0x1
 6935 0149 31       		.uleb128 0x31
 6936 014a 13       		.uleb128 0x13
 6937 014b 00       		.byte	0
 6938 014c 00       		.byte	0
 6939 014d 1C       		.uleb128 0x1c
 6940 014e 2E       		.uleb128 0x2e
 6941 014f 01       		.byte	0x1
 6942 0150 3F       		.uleb128 0x3f
 6943 0151 19       		.uleb128 0x19
ARM GAS  C:\Users\leoja\AppData\Local\Temp\ccM6wJLr.s 			page 142


 6944 0152 03       		.uleb128 0x3
 6945 0153 0E       		.uleb128 0xe
 6946 0154 3A       		.uleb128 0x3a
 6947 0155 0B       		.uleb128 0xb
 6948 0156 3B       		.uleb128 0x3b
 6949 0157 0B       		.uleb128 0xb
 6950 0158 27       		.uleb128 0x27
 6951 0159 19       		.uleb128 0x19
 6952 015a 11       		.uleb128 0x11
 6953 015b 01       		.uleb128 0x1
 6954 015c 12       		.uleb128 0x12
 6955 015d 06       		.uleb128 0x6
 6956 015e 40       		.uleb128 0x40
 6957 015f 18       		.uleb128 0x18
 6958 0160 9742     		.uleb128 0x2117
 6959 0162 19       		.uleb128 0x19
 6960 0163 01       		.uleb128 0x1
 6961 0164 13       		.uleb128 0x13
 6962 0165 00       		.byte	0
 6963 0166 00       		.byte	0
 6964 0167 1D       		.uleb128 0x1d
 6965 0168 05       		.uleb128 0x5
 6966 0169 00       		.byte	0
 6967 016a 03       		.uleb128 0x3
 6968 016b 0E       		.uleb128 0xe
 6969 016c 3A       		.uleb128 0x3a
 6970 016d 0B       		.uleb128 0xb
 6971 016e 3B       		.uleb128 0x3b
 6972 016f 0B       		.uleb128 0xb
 6973 0170 49       		.uleb128 0x49
 6974 0171 13       		.uleb128 0x13
 6975 0172 02       		.uleb128 0x2
 6976 0173 17       		.uleb128 0x17
 6977 0174 00       		.byte	0
 6978 0175 00       		.byte	0
 6979 0176 1E       		.uleb128 0x1e
 6980 0177 05       		.uleb128 0x5
 6981 0178 00       		.byte	0
 6982 0179 03       		.uleb128 0x3
 6983 017a 08       		.uleb128 0x8
 6984 017b 3A       		.uleb128 0x3a
 6985 017c 0B       		.uleb128 0xb
 6986 017d 3B       		.uleb128 0x3b
 6987 017e 0B       		.uleb128 0xb
 6988 017f 49       		.uleb128 0x49
 6989 0180 13       		.uleb128 0x13
 6990 0181 02       		.uleb128 0x2
 6991 0182 17       		.uleb128 0x17
 6992 0183 00       		.byte	0
 6993 0184 00       		.byte	0
 6994 0185 1F       		.uleb128 0x1f
 6995 0186 34       		.uleb128 0x34
 6996 0187 00       		.byte	0
 6997 0188 03       		.uleb128 0x3
 6998 0189 0E       		.uleb128 0xe
 6999 018a 3A       		.uleb128 0x3a
 7000 018b 0B       		.uleb128 0xb
ARM GAS  C:\Users\leoja\AppData\Local\Temp\ccM6wJLr.s 			page 143


 7001 018c 3B       		.uleb128 0x3b
 7002 018d 0B       		.uleb128 0xb
 7003 018e 49       		.uleb128 0x49
 7004 018f 13       		.uleb128 0x13
 7005 0190 02       		.uleb128 0x2
 7006 0191 17       		.uleb128 0x17
 7007 0192 00       		.byte	0
 7008 0193 00       		.byte	0
 7009 0194 20       		.uleb128 0x20
 7010 0195 34       		.uleb128 0x34
 7011 0196 00       		.byte	0
 7012 0197 03       		.uleb128 0x3
 7013 0198 0E       		.uleb128 0xe
 7014 0199 3A       		.uleb128 0x3a
 7015 019a 0B       		.uleb128 0xb
 7016 019b 3B       		.uleb128 0x3b
 7017 019c 0B       		.uleb128 0xb
 7018 019d 49       		.uleb128 0x49
 7019 019e 13       		.uleb128 0x13
 7020 019f 02       		.uleb128 0x2
 7021 01a0 18       		.uleb128 0x18
 7022 01a1 00       		.byte	0
 7023 01a2 00       		.byte	0
 7024 01a3 21       		.uleb128 0x21
 7025 01a4 898201   		.uleb128 0x4109
 7026 01a7 00       		.byte	0
 7027 01a8 11       		.uleb128 0x11
 7028 01a9 01       		.uleb128 0x1
 7029 01aa 31       		.uleb128 0x31
 7030 01ab 13       		.uleb128 0x13
 7031 01ac 00       		.byte	0
 7032 01ad 00       		.byte	0
 7033 01ae 22       		.uleb128 0x22
 7034 01af 34       		.uleb128 0x34
 7035 01b0 00       		.byte	0
 7036 01b1 03       		.uleb128 0x3
 7037 01b2 0E       		.uleb128 0xe
 7038 01b3 3A       		.uleb128 0x3a
 7039 01b4 0B       		.uleb128 0xb
 7040 01b5 3B       		.uleb128 0x3b
 7041 01b6 0B       		.uleb128 0xb
 7042 01b7 49       		.uleb128 0x49
 7043 01b8 13       		.uleb128 0x13
 7044 01b9 1C       		.uleb128 0x1c
 7045 01ba 0B       		.uleb128 0xb
 7046 01bb 00       		.byte	0
 7047 01bc 00       		.byte	0
 7048 01bd 23       		.uleb128 0x23
 7049 01be 34       		.uleb128 0x34
 7050 01bf 00       		.byte	0
 7051 01c0 03       		.uleb128 0x3
 7052 01c1 0E       		.uleb128 0xe
 7053 01c2 3A       		.uleb128 0x3a
 7054 01c3 0B       		.uleb128 0xb
 7055 01c4 3B       		.uleb128 0x3b
 7056 01c5 05       		.uleb128 0x5
 7057 01c6 49       		.uleb128 0x49
ARM GAS  C:\Users\leoja\AppData\Local\Temp\ccM6wJLr.s 			page 144


 7058 01c7 13       		.uleb128 0x13
 7059 01c8 02       		.uleb128 0x2
 7060 01c9 18       		.uleb128 0x18
 7061 01ca 00       		.byte	0
 7062 01cb 00       		.byte	0
 7063 01cc 24       		.uleb128 0x24
 7064 01cd 2E       		.uleb128 0x2e
 7065 01ce 01       		.byte	0x1
 7066 01cf 3F       		.uleb128 0x3f
 7067 01d0 19       		.uleb128 0x19
 7068 01d1 03       		.uleb128 0x3
 7069 01d2 0E       		.uleb128 0xe
 7070 01d3 3A       		.uleb128 0x3a
 7071 01d4 0B       		.uleb128 0xb
 7072 01d5 3B       		.uleb128 0x3b
 7073 01d6 05       		.uleb128 0x5
 7074 01d7 27       		.uleb128 0x27
 7075 01d8 19       		.uleb128 0x19
 7076 01d9 11       		.uleb128 0x11
 7077 01da 01       		.uleb128 0x1
 7078 01db 12       		.uleb128 0x12
 7079 01dc 06       		.uleb128 0x6
 7080 01dd 40       		.uleb128 0x40
 7081 01de 18       		.uleb128 0x18
 7082 01df 9742     		.uleb128 0x2117
 7083 01e1 19       		.uleb128 0x19
 7084 01e2 01       		.uleb128 0x1
 7085 01e3 13       		.uleb128 0x13
 7086 01e4 00       		.byte	0
 7087 01e5 00       		.byte	0
 7088 01e6 25       		.uleb128 0x25
 7089 01e7 05       		.uleb128 0x5
 7090 01e8 00       		.byte	0
 7091 01e9 03       		.uleb128 0x3
 7092 01ea 0E       		.uleb128 0xe
 7093 01eb 3A       		.uleb128 0x3a
 7094 01ec 0B       		.uleb128 0xb
 7095 01ed 3B       		.uleb128 0x3b
 7096 01ee 05       		.uleb128 0x5
 7097 01ef 49       		.uleb128 0x49
 7098 01f0 13       		.uleb128 0x13
 7099 01f1 02       		.uleb128 0x2
 7100 01f2 17       		.uleb128 0x17
 7101 01f3 00       		.byte	0
 7102 01f4 00       		.byte	0
 7103 01f5 26       		.uleb128 0x26
 7104 01f6 05       		.uleb128 0x5
 7105 01f7 00       		.byte	0
 7106 01f8 03       		.uleb128 0x3
 7107 01f9 08       		.uleb128 0x8
 7108 01fa 3A       		.uleb128 0x3a
 7109 01fb 0B       		.uleb128 0xb
 7110 01fc 3B       		.uleb128 0x3b
 7111 01fd 05       		.uleb128 0x5
 7112 01fe 49       		.uleb128 0x49
 7113 01ff 13       		.uleb128 0x13
 7114 0200 02       		.uleb128 0x2
ARM GAS  C:\Users\leoja\AppData\Local\Temp\ccM6wJLr.s 			page 145


 7115 0201 17       		.uleb128 0x17
 7116 0202 00       		.byte	0
 7117 0203 00       		.byte	0
 7118 0204 27       		.uleb128 0x27
 7119 0205 34       		.uleb128 0x34
 7120 0206 00       		.byte	0
 7121 0207 03       		.uleb128 0x3
 7122 0208 0E       		.uleb128 0xe
 7123 0209 3A       		.uleb128 0x3a
 7124 020a 0B       		.uleb128 0xb
 7125 020b 3B       		.uleb128 0x3b
 7126 020c 05       		.uleb128 0x5
 7127 020d 49       		.uleb128 0x49
 7128 020e 13       		.uleb128 0x13
 7129 020f 02       		.uleb128 0x2
 7130 0210 17       		.uleb128 0x17
 7131 0211 00       		.byte	0
 7132 0212 00       		.byte	0
 7133 0213 28       		.uleb128 0x28
 7134 0214 34       		.uleb128 0x34
 7135 0215 00       		.byte	0
 7136 0216 03       		.uleb128 0x3
 7137 0217 0E       		.uleb128 0xe
 7138 0218 3A       		.uleb128 0x3a
 7139 0219 0B       		.uleb128 0xb
 7140 021a 3B       		.uleb128 0x3b
 7141 021b 05       		.uleb128 0x5
 7142 021c 49       		.uleb128 0x49
 7143 021d 13       		.uleb128 0x13
 7144 021e 1C       		.uleb128 0x1c
 7145 021f 0B       		.uleb128 0xb
 7146 0220 00       		.byte	0
 7147 0221 00       		.byte	0
 7148 0222 29       		.uleb128 0x29
 7149 0223 0B       		.uleb128 0xb
 7150 0224 01       		.byte	0x1
 7151 0225 11       		.uleb128 0x11
 7152 0226 01       		.uleb128 0x1
 7153 0227 12       		.uleb128 0x12
 7154 0228 06       		.uleb128 0x6
 7155 0229 01       		.uleb128 0x1
 7156 022a 13       		.uleb128 0x13
 7157 022b 00       		.byte	0
 7158 022c 00       		.byte	0
 7159 022d 2A       		.uleb128 0x2a
 7160 022e 2E       		.uleb128 0x2e
 7161 022f 01       		.byte	0x1
 7162 0230 3F       		.uleb128 0x3f
 7163 0231 19       		.uleb128 0x19
 7164 0232 03       		.uleb128 0x3
 7165 0233 0E       		.uleb128 0xe
 7166 0234 3A       		.uleb128 0x3a
 7167 0235 0B       		.uleb128 0xb
 7168 0236 3B       		.uleb128 0x3b
 7169 0237 05       		.uleb128 0x5
 7170 0238 27       		.uleb128 0x27
 7171 0239 19       		.uleb128 0x19
ARM GAS  C:\Users\leoja\AppData\Local\Temp\ccM6wJLr.s 			page 146


 7172 023a 11       		.uleb128 0x11
 7173 023b 01       		.uleb128 0x1
 7174 023c 12       		.uleb128 0x12
 7175 023d 06       		.uleb128 0x6
 7176 023e 40       		.uleb128 0x40
 7177 023f 18       		.uleb128 0x18
 7178 0240 9642     		.uleb128 0x2116
 7179 0242 19       		.uleb128 0x19
 7180 0243 01       		.uleb128 0x1
 7181 0244 13       		.uleb128 0x13
 7182 0245 00       		.byte	0
 7183 0246 00       		.byte	0
 7184 0247 2B       		.uleb128 0x2b
 7185 0248 0B       		.uleb128 0xb
 7186 0249 01       		.byte	0x1
 7187 024a 55       		.uleb128 0x55
 7188 024b 17       		.uleb128 0x17
 7189 024c 01       		.uleb128 0x1
 7190 024d 13       		.uleb128 0x13
 7191 024e 00       		.byte	0
 7192 024f 00       		.byte	0
 7193 0250 2C       		.uleb128 0x2c
 7194 0251 2E       		.uleb128 0x2e
 7195 0252 01       		.byte	0x1
 7196 0253 3F       		.uleb128 0x3f
 7197 0254 19       		.uleb128 0x19
 7198 0255 03       		.uleb128 0x3
 7199 0256 0E       		.uleb128 0xe
 7200 0257 3A       		.uleb128 0x3a
 7201 0258 0B       		.uleb128 0xb
 7202 0259 3B       		.uleb128 0x3b
 7203 025a 05       		.uleb128 0x5
 7204 025b 27       		.uleb128 0x27
 7205 025c 19       		.uleb128 0x19
 7206 025d 20       		.uleb128 0x20
 7207 025e 0B       		.uleb128 0xb
 7208 025f 01       		.uleb128 0x1
 7209 0260 13       		.uleb128 0x13
 7210 0261 00       		.byte	0
 7211 0262 00       		.byte	0
 7212 0263 2D       		.uleb128 0x2d
 7213 0264 05       		.uleb128 0x5
 7214 0265 00       		.byte	0
 7215 0266 03       		.uleb128 0x3
 7216 0267 0E       		.uleb128 0xe
 7217 0268 3A       		.uleb128 0x3a
 7218 0269 0B       		.uleb128 0xb
 7219 026a 3B       		.uleb128 0x3b
 7220 026b 05       		.uleb128 0x5
 7221 026c 49       		.uleb128 0x49
 7222 026d 13       		.uleb128 0x13
 7223 026e 00       		.byte	0
 7224 026f 00       		.byte	0
 7225 0270 2E       		.uleb128 0x2e
 7226 0271 05       		.uleb128 0x5
 7227 0272 00       		.byte	0
 7228 0273 03       		.uleb128 0x3
ARM GAS  C:\Users\leoja\AppData\Local\Temp\ccM6wJLr.s 			page 147


 7229 0274 08       		.uleb128 0x8
 7230 0275 3A       		.uleb128 0x3a
 7231 0276 0B       		.uleb128 0xb
 7232 0277 3B       		.uleb128 0x3b
 7233 0278 05       		.uleb128 0x5
 7234 0279 49       		.uleb128 0x49
 7235 027a 13       		.uleb128 0x13
 7236 027b 00       		.byte	0
 7237 027c 00       		.byte	0
 7238 027d 2F       		.uleb128 0x2f
 7239 027e 2E       		.uleb128 0x2e
 7240 027f 01       		.byte	0x1
 7241 0280 31       		.uleb128 0x31
 7242 0281 13       		.uleb128 0x13
 7243 0282 11       		.uleb128 0x11
 7244 0283 01       		.uleb128 0x1
 7245 0284 12       		.uleb128 0x12
 7246 0285 06       		.uleb128 0x6
 7247 0286 40       		.uleb128 0x40
 7248 0287 18       		.uleb128 0x18
 7249 0288 9742     		.uleb128 0x2117
 7250 028a 19       		.uleb128 0x19
 7251 028b 01       		.uleb128 0x1
 7252 028c 13       		.uleb128 0x13
 7253 028d 00       		.byte	0
 7254 028e 00       		.byte	0
 7255 028f 30       		.uleb128 0x30
 7256 0290 05       		.uleb128 0x5
 7257 0291 00       		.byte	0
 7258 0292 31       		.uleb128 0x31
 7259 0293 13       		.uleb128 0x13
 7260 0294 02       		.uleb128 0x2
 7261 0295 17       		.uleb128 0x17
 7262 0296 00       		.byte	0
 7263 0297 00       		.byte	0
 7264 0298 31       		.uleb128 0x31
 7265 0299 34       		.uleb128 0x34
 7266 029a 00       		.byte	0
 7267 029b 03       		.uleb128 0x3
 7268 029c 0E       		.uleb128 0xe
 7269 029d 3A       		.uleb128 0x3a
 7270 029e 0B       		.uleb128 0xb
 7271 029f 3B       		.uleb128 0x3b
 7272 02a0 05       		.uleb128 0x5
 7273 02a1 49       		.uleb128 0x49
 7274 02a2 13       		.uleb128 0x13
 7275 02a3 1C       		.uleb128 0x1c
 7276 02a4 06       		.uleb128 0x6
 7277 02a5 00       		.byte	0
 7278 02a6 00       		.byte	0
 7279 02a7 32       		.uleb128 0x32
 7280 02a8 34       		.uleb128 0x34
 7281 02a9 00       		.byte	0
 7282 02aa 03       		.uleb128 0x3
 7283 02ab 0E       		.uleb128 0xe
 7284 02ac 3A       		.uleb128 0x3a
 7285 02ad 0B       		.uleb128 0xb
ARM GAS  C:\Users\leoja\AppData\Local\Temp\ccM6wJLr.s 			page 148


 7286 02ae 3B       		.uleb128 0x3b
 7287 02af 05       		.uleb128 0x5
 7288 02b0 49       		.uleb128 0x49
 7289 02b1 13       		.uleb128 0x13
 7290 02b2 1C       		.uleb128 0x1c
 7291 02b3 05       		.uleb128 0x5
 7292 02b4 00       		.byte	0
 7293 02b5 00       		.byte	0
 7294 02b6 33       		.uleb128 0x33
 7295 02b7 34       		.uleb128 0x34
 7296 02b8 00       		.byte	0
 7297 02b9 03       		.uleb128 0x3
 7298 02ba 08       		.uleb128 0x8
 7299 02bb 3A       		.uleb128 0x3a
 7300 02bc 0B       		.uleb128 0xb
 7301 02bd 3B       		.uleb128 0x3b
 7302 02be 05       		.uleb128 0x5
 7303 02bf 49       		.uleb128 0x49
 7304 02c0 13       		.uleb128 0x13
 7305 02c1 02       		.uleb128 0x2
 7306 02c2 17       		.uleb128 0x17
 7307 02c3 00       		.byte	0
 7308 02c4 00       		.byte	0
 7309 02c5 34       		.uleb128 0x34
 7310 02c6 2E       		.uleb128 0x2e
 7311 02c7 00       		.byte	0
 7312 02c8 3F       		.uleb128 0x3f
 7313 02c9 19       		.uleb128 0x19
 7314 02ca 03       		.uleb128 0x3
 7315 02cb 0E       		.uleb128 0xe
 7316 02cc 3A       		.uleb128 0x3a
 7317 02cd 0B       		.uleb128 0xb
 7318 02ce 3B       		.uleb128 0x3b
 7319 02cf 05       		.uleb128 0x5
 7320 02d0 27       		.uleb128 0x27
 7321 02d1 19       		.uleb128 0x19
 7322 02d2 11       		.uleb128 0x11
 7323 02d3 01       		.uleb128 0x1
 7324 02d4 12       		.uleb128 0x12
 7325 02d5 06       		.uleb128 0x6
 7326 02d6 40       		.uleb128 0x40
 7327 02d7 18       		.uleb128 0x18
 7328 02d8 9742     		.uleb128 0x2117
 7329 02da 19       		.uleb128 0x19
 7330 02db 00       		.byte	0
 7331 02dc 00       		.byte	0
 7332 02dd 35       		.uleb128 0x35
 7333 02de 34       		.uleb128 0x34
 7334 02df 00       		.byte	0
 7335 02e0 03       		.uleb128 0x3
 7336 02e1 0E       		.uleb128 0xe
 7337 02e2 3A       		.uleb128 0x3a
 7338 02e3 0B       		.uleb128 0xb
 7339 02e4 3B       		.uleb128 0x3b
 7340 02e5 0B       		.uleb128 0xb
 7341 02e6 49       		.uleb128 0x49
 7342 02e7 13       		.uleb128 0x13
ARM GAS  C:\Users\leoja\AppData\Local\Temp\ccM6wJLr.s 			page 149


 7343 02e8 3F       		.uleb128 0x3f
 7344 02e9 19       		.uleb128 0x19
 7345 02ea 3C       		.uleb128 0x3c
 7346 02eb 19       		.uleb128 0x19
 7347 02ec 00       		.byte	0
 7348 02ed 00       		.byte	0
 7349 02ee 36       		.uleb128 0x36
 7350 02ef 34       		.uleb128 0x34
 7351 02f0 00       		.byte	0
 7352 02f1 03       		.uleb128 0x3
 7353 02f2 0E       		.uleb128 0xe
 7354 02f3 3A       		.uleb128 0x3a
 7355 02f4 0B       		.uleb128 0xb
 7356 02f5 3B       		.uleb128 0x3b
 7357 02f6 0B       		.uleb128 0xb
 7358 02f7 49       		.uleb128 0x49
 7359 02f8 13       		.uleb128 0x13
 7360 02f9 3F       		.uleb128 0x3f
 7361 02fa 19       		.uleb128 0x19
 7362 02fb 02       		.uleb128 0x2
 7363 02fc 18       		.uleb128 0x18
 7364 02fd 00       		.byte	0
 7365 02fe 00       		.byte	0
 7366 02ff 37       		.uleb128 0x37
 7367 0300 2E       		.uleb128 0x2e
 7368 0301 00       		.byte	0
 7369 0302 3F       		.uleb128 0x3f
 7370 0303 19       		.uleb128 0x19
 7371 0304 3C       		.uleb128 0x3c
 7372 0305 19       		.uleb128 0x19
 7373 0306 6E       		.uleb128 0x6e
 7374 0307 0E       		.uleb128 0xe
 7375 0308 03       		.uleb128 0x3
 7376 0309 0E       		.uleb128 0xe
 7377 030a 3A       		.uleb128 0x3a
 7378 030b 0B       		.uleb128 0xb
 7379 030c 3B       		.uleb128 0x3b
 7380 030d 05       		.uleb128 0x5
 7381 030e 00       		.byte	0
 7382 030f 00       		.byte	0
 7383 0310 38       		.uleb128 0x38
 7384 0311 2E       		.uleb128 0x2e
 7385 0312 00       		.byte	0
 7386 0313 3F       		.uleb128 0x3f
 7387 0314 19       		.uleb128 0x19
 7388 0315 3C       		.uleb128 0x3c
 7389 0316 19       		.uleb128 0x19
 7390 0317 6E       		.uleb128 0x6e
 7391 0318 0E       		.uleb128 0xe
 7392 0319 03       		.uleb128 0x3
 7393 031a 0E       		.uleb128 0xe
 7394 031b 3A       		.uleb128 0x3a
 7395 031c 0B       		.uleb128 0xb
 7396 031d 3B       		.uleb128 0x3b
 7397 031e 0B       		.uleb128 0xb
 7398 031f 00       		.byte	0
 7399 0320 00       		.byte	0
ARM GAS  C:\Users\leoja\AppData\Local\Temp\ccM6wJLr.s 			page 150


 7400 0321 00       		.byte	0
 7401              		.section	.debug_loc,"",%progbits
 7402              	.Ldebug_loc0:
 7403              	.LLST0:
 7404 0000 00000000 		.4byte	.LVL20
 7405 0004 52000000 		.4byte	.LVL33
 7406 0008 0100     		.2byte	0x1
 7407 000a 50       		.byte	0x50
 7408 000b 52000000 		.4byte	.LVL33
 7409 000f E0000000 		.4byte	.LFE38
 7410 0013 0400     		.2byte	0x4
 7411 0015 F3       		.byte	0xf3
 7412 0016 01       		.uleb128 0x1
 7413 0017 50       		.byte	0x50
 7414 0018 9F       		.byte	0x9f
 7415 0019 00000000 		.4byte	0
 7416 001d 00000000 		.4byte	0
 7417              	.LLST1:
 7418 0021 00000000 		.4byte	.LVL20
 7419 0025 30000000 		.4byte	.LVL29
 7420 0029 0100     		.2byte	0x1
 7421 002b 51       		.byte	0x51
 7422 002c 30000000 		.4byte	.LVL29
 7423 0030 E0000000 		.4byte	.LFE38
 7424 0034 0400     		.2byte	0x4
 7425 0036 F3       		.byte	0xf3
 7426 0037 01       		.uleb128 0x1
 7427 0038 51       		.byte	0x51
 7428 0039 9F       		.byte	0x9f
 7429 003a 00000000 		.4byte	0
 7430 003e 00000000 		.4byte	0
 7431              	.LLST2:
 7432 0042 00000000 		.4byte	.LVL20
 7433 0046 1E000000 		.4byte	.LVL26
 7434 004a 0100     		.2byte	0x1
 7435 004c 52       		.byte	0x52
 7436 004d 1E000000 		.4byte	.LVL26
 7437 0051 E0000000 		.4byte	.LFE38
 7438 0055 0400     		.2byte	0x4
 7439 0057 F3       		.byte	0xf3
 7440 0058 01       		.uleb128 0x1
 7441 0059 52       		.byte	0x52
 7442 005a 9F       		.byte	0x9f
 7443 005b 00000000 		.4byte	0
 7444 005f 00000000 		.4byte	0
 7445              	.LLST3:
 7446 0063 00000000 		.4byte	.LVL20
 7447 0067 08000000 		.4byte	.LVL21
 7448 006b 0100     		.2byte	0x1
 7449 006d 53       		.byte	0x53
 7450 006e 08000000 		.4byte	.LVL21
 7451 0072 E0000000 		.4byte	.LFE38
 7452 0076 0400     		.2byte	0x4
 7453 0078 F3       		.byte	0xf3
 7454 0079 01       		.uleb128 0x1
 7455 007a 53       		.byte	0x53
 7456 007b 9F       		.byte	0x9f
ARM GAS  C:\Users\leoja\AppData\Local\Temp\ccM6wJLr.s 			page 151


 7457 007c 00000000 		.4byte	0
 7458 0080 00000000 		.4byte	0
 7459              	.LLST4:
 7460 0084 00000000 		.4byte	.LVL20
 7461 0088 08000000 		.4byte	.LVL21
 7462 008c 0200     		.2byte	0x2
 7463 008e 91       		.byte	0x91
 7464 008f 00       		.sleb128 0
 7465 0090 08000000 		.4byte	.LVL21
 7466 0094 0A000000 		.4byte	.LVL22
 7467 0098 0200     		.2byte	0x2
 7468 009a 73       		.byte	0x73
 7469 009b 00       		.sleb128 0
 7470 009c 0A000000 		.4byte	.LVL22
 7471 00a0 E0000000 		.4byte	.LFE38
 7472 00a4 0200     		.2byte	0x2
 7473 00a6 91       		.byte	0x91
 7474 00a7 00       		.sleb128 0
 7475 00a8 00000000 		.4byte	0
 7476 00ac 00000000 		.4byte	0
 7477              	.LLST5:
 7478 00b0 00000000 		.4byte	.LVL20
 7479 00b4 08000000 		.4byte	.LVL21
 7480 00b8 0200     		.2byte	0x2
 7481 00ba 91       		.byte	0x91
 7482 00bb 04       		.sleb128 4
 7483 00bc 08000000 		.4byte	.LVL21
 7484 00c0 0A000000 		.4byte	.LVL22
 7485 00c4 0200     		.2byte	0x2
 7486 00c6 73       		.byte	0x73
 7487 00c7 04       		.sleb128 4
 7488 00c8 0A000000 		.4byte	.LVL22
 7489 00cc 10000000 		.4byte	.LVL23
 7490 00d0 0200     		.2byte	0x2
 7491 00d2 91       		.byte	0x91
 7492 00d3 04       		.sleb128 4
 7493 00d4 10000000 		.4byte	.LVL23
 7494 00d8 14000000 		.4byte	.LVL24
 7495 00dc 0200     		.2byte	0x2
 7496 00de 73       		.byte	0x73
 7497 00df 00       		.sleb128 0
 7498 00e0 14000000 		.4byte	.LVL24
 7499 00e4 E0000000 		.4byte	.LFE38
 7500 00e8 0200     		.2byte	0x2
 7501 00ea 91       		.byte	0x91
 7502 00eb 04       		.sleb128 4
 7503 00ec 00000000 		.4byte	0
 7504 00f0 00000000 		.4byte	0
 7505              	.LLST6:
 7506 00f4 2C000000 		.4byte	.LVL27
 7507 00f8 55000000 		.4byte	.LVL34-1
 7508 00fc 0100     		.2byte	0x1
 7509 00fe 52       		.byte	0x52
 7510 00ff 00000000 		.4byte	0
 7511 0103 00000000 		.4byte	0
 7512              	.LLST7:
 7513 0107 3C000000 		.4byte	.LVL30
ARM GAS  C:\Users\leoja\AppData\Local\Temp\ccM6wJLr.s 			page 152


 7514 010b 40000000 		.4byte	.LVL31
 7515 010f 0100     		.2byte	0x1
 7516 0111 53       		.byte	0x53
 7517 0112 40000000 		.4byte	.LVL31
 7518 0116 E0000000 		.4byte	.LFE38
 7519 011a 0200     		.2byte	0x2
 7520 011c 91       		.byte	0x91
 7521 011d 58       		.sleb128 -40
 7522 011e 00000000 		.4byte	0
 7523 0122 00000000 		.4byte	0
 7524              	.LLST8:
 7525 0126 4C000000 		.4byte	.LVL32
 7526 012a 55000000 		.4byte	.LVL34-1
 7527 012e 0100     		.2byte	0x1
 7528 0130 53       		.byte	0x53
 7529 0131 55000000 		.4byte	.LVL34-1
 7530 0135 E0000000 		.4byte	.LFE38
 7531 0139 0200     		.2byte	0x2
 7532 013b 91       		.byte	0x91
 7533 013c 5C       		.sleb128 -36
 7534 013d 00000000 		.4byte	0
 7535 0141 00000000 		.4byte	0
 7536              	.LLST9:
 7537 0145 1C000000 		.4byte	.LVL25
 7538 0149 2E000000 		.4byte	.LVL28
 7539 014d 0100     		.2byte	0x1
 7540 014f 53       		.byte	0x53
 7541 0150 2E000000 		.4byte	.LVL28
 7542 0154 88000000 		.4byte	.LVL37
 7543 0158 0700     		.2byte	0x7
 7544 015a 77       		.byte	0x77
 7545 015b 00       		.sleb128 0
 7546 015c 44       		.byte	0x44
 7547 015d 1E       		.byte	0x1e
 7548 015e 23       		.byte	0x23
 7549 015f 0C       		.uleb128 0xc
 7550 0160 9F       		.byte	0x9f
 7551 0161 88000000 		.4byte	.LVL37
 7552 0165 E0000000 		.4byte	.LFE38
 7553 0169 0C00     		.2byte	0xc
 7554 016b 91       		.byte	0x91
 7555 016c 04       		.sleb128 4
 7556 016d 94       		.byte	0x94
 7557 016e 01       		.byte	0x1
 7558 016f 08       		.byte	0x8
 7559 0170 FF       		.byte	0xff
 7560 0171 1A       		.byte	0x1a
 7561 0172 44       		.byte	0x44
 7562 0173 1E       		.byte	0x1e
 7563 0174 23       		.byte	0x23
 7564 0175 0C       		.uleb128 0xc
 7565 0176 9F       		.byte	0x9f
 7566 0177 00000000 		.4byte	0
 7567 017b 00000000 		.4byte	0
 7568              	.LLST10:
 7569 017f 86000000 		.4byte	.LVL36
 7570 0183 C4000000 		.4byte	.LVL41
ARM GAS  C:\Users\leoja\AppData\Local\Temp\ccM6wJLr.s 			page 153


 7571 0187 0100     		.2byte	0x1
 7572 0189 54       		.byte	0x54
 7573 018a 00000000 		.4byte	0
 7574 018e 00000000 		.4byte	0
 7575              	.LLST11:
 7576 0192 00000000 		.4byte	.LVL42
 7577 0196 24000000 		.4byte	.LVL51
 7578 019a 0100     		.2byte	0x1
 7579 019c 50       		.byte	0x50
 7580 019d 24000000 		.4byte	.LVL51
 7581 01a1 0C010000 		.4byte	.LFE39
 7582 01a5 0400     		.2byte	0x4
 7583 01a7 F3       		.byte	0xf3
 7584 01a8 01       		.uleb128 0x1
 7585 01a9 50       		.byte	0x50
 7586 01aa 9F       		.byte	0x9f
 7587 01ab 00000000 		.4byte	0
 7588 01af 00000000 		.4byte	0
 7589              	.LLST12:
 7590 01b3 00000000 		.4byte	.LVL42
 7591 01b7 18000000 		.4byte	.LVL48
 7592 01bb 0100     		.2byte	0x1
 7593 01bd 51       		.byte	0x51
 7594 01be 18000000 		.4byte	.LVL48
 7595 01c2 0C010000 		.4byte	.LFE39
 7596 01c6 0400     		.2byte	0x4
 7597 01c8 F3       		.byte	0xf3
 7598 01c9 01       		.uleb128 0x1
 7599 01ca 51       		.byte	0x51
 7600 01cb 9F       		.byte	0x9f
 7601 01cc 00000000 		.4byte	0
 7602 01d0 00000000 		.4byte	0
 7603              	.LLST13:
 7604 01d4 00000000 		.4byte	.LVL42
 7605 01d8 12000000 		.4byte	.LVL46
 7606 01dc 0100     		.2byte	0x1
 7607 01de 52       		.byte	0x52
 7608 01df 12000000 		.4byte	.LVL46
 7609 01e3 0C010000 		.4byte	.LFE39
 7610 01e7 0400     		.2byte	0x4
 7611 01e9 F3       		.byte	0xf3
 7612 01ea 01       		.uleb128 0x1
 7613 01eb 52       		.byte	0x52
 7614 01ec 9F       		.byte	0x9f
 7615 01ed 00000000 		.4byte	0
 7616 01f1 00000000 		.4byte	0
 7617              	.LLST14:
 7618 01f5 00000000 		.4byte	.LVL42
 7619 01f9 08000000 		.4byte	.LVL43
 7620 01fd 0100     		.2byte	0x1
 7621 01ff 53       		.byte	0x53
 7622 0200 08000000 		.4byte	.LVL43
 7623 0204 0C010000 		.4byte	.LFE39
 7624 0208 0400     		.2byte	0x4
 7625 020a F3       		.byte	0xf3
 7626 020b 01       		.uleb128 0x1
 7627 020c 53       		.byte	0x53
ARM GAS  C:\Users\leoja\AppData\Local\Temp\ccM6wJLr.s 			page 154


 7628 020d 9F       		.byte	0x9f
 7629 020e 00000000 		.4byte	0
 7630 0212 00000000 		.4byte	0
 7631              	.LLST15:
 7632 0216 00000000 		.4byte	.LVL42
 7633 021a 08000000 		.4byte	.LVL43
 7634 021e 0200     		.2byte	0x2
 7635 0220 91       		.byte	0x91
 7636 0221 00       		.sleb128 0
 7637 0222 08000000 		.4byte	.LVL43
 7638 0226 0A000000 		.4byte	.LVL44
 7639 022a 0200     		.2byte	0x2
 7640 022c 73       		.byte	0x73
 7641 022d 00       		.sleb128 0
 7642 022e 0A000000 		.4byte	.LVL44
 7643 0232 0C010000 		.4byte	.LFE39
 7644 0236 0200     		.2byte	0x2
 7645 0238 91       		.byte	0x91
 7646 0239 00       		.sleb128 0
 7647 023a 00000000 		.4byte	0
 7648 023e 00000000 		.4byte	0
 7649              	.LLST16:
 7650 0242 00000000 		.4byte	.LVL42
 7651 0246 08000000 		.4byte	.LVL43
 7652 024a 0200     		.2byte	0x2
 7653 024c 91       		.byte	0x91
 7654 024d 04       		.sleb128 4
 7655 024e 08000000 		.4byte	.LVL43
 7656 0252 0A000000 		.4byte	.LVL44
 7657 0256 0200     		.2byte	0x2
 7658 0258 73       		.byte	0x73
 7659 0259 04       		.sleb128 4
 7660 025a 0A000000 		.4byte	.LVL44
 7661 025e 10000000 		.4byte	.LVL45
 7662 0262 0200     		.2byte	0x2
 7663 0264 91       		.byte	0x91
 7664 0265 04       		.sleb128 4
 7665 0266 10000000 		.4byte	.LVL45
 7666 026a 14000000 		.4byte	.LVL47
 7667 026e 0200     		.2byte	0x2
 7668 0270 73       		.byte	0x73
 7669 0271 00       		.sleb128 0
 7670 0272 14000000 		.4byte	.LVL47
 7671 0276 0C010000 		.4byte	.LFE39
 7672 027a 0200     		.2byte	0x2
 7673 027c 91       		.byte	0x91
 7674 027d 04       		.sleb128 4
 7675 027e 00000000 		.4byte	0
 7676 0282 00000000 		.4byte	0
 7677              	.LLST17:
 7678 0286 30000000 		.4byte	.LVL52
 7679 028a 32000000 		.4byte	.LVL53
 7680 028e 0100     		.2byte	0x1
 7681 0290 53       		.byte	0x53
 7682 0291 32000000 		.4byte	.LVL53
 7683 0295 0C010000 		.4byte	.LFE39
 7684 0299 0200     		.2byte	0x2
ARM GAS  C:\Users\leoja\AppData\Local\Temp\ccM6wJLr.s 			page 155


 7685 029b 91       		.byte	0x91
 7686 029c 58       		.sleb128 -40
 7687 029d 00000000 		.4byte	0
 7688 02a1 00000000 		.4byte	0
 7689              	.LLST18:
 7690 02a5 42000000 		.4byte	.LVL54
 7691 02a9 4B000000 		.4byte	.LVL55-1
 7692 02ad 0100     		.2byte	0x1
 7693 02af 53       		.byte	0x53
 7694 02b0 4B000000 		.4byte	.LVL55-1
 7695 02b4 0C010000 		.4byte	.LFE39
 7696 02b8 0200     		.2byte	0x2
 7697 02ba 91       		.byte	0x91
 7698 02bb 5C       		.sleb128 -36
 7699 02bc 00000000 		.4byte	0
 7700 02c0 00000000 		.4byte	0
 7701              	.LLST19:
 7702 02c4 12000000 		.4byte	.LVL46
 7703 02c8 1C000000 		.4byte	.LVL49
 7704 02cc 0700     		.2byte	0x7
 7705 02ce 72       		.byte	0x72
 7706 02cf 00       		.sleb128 0
 7707 02d0 44       		.byte	0x44
 7708 02d1 1E       		.byte	0x1e
 7709 02d2 23       		.byte	0x23
 7710 02d3 0C       		.uleb128 0xc
 7711 02d4 9F       		.byte	0x9f
 7712 02d5 1C000000 		.4byte	.LVL49
 7713 02d9 1E000000 		.4byte	.LVL50
 7714 02dd 0100     		.2byte	0x1
 7715 02df 53       		.byte	0x53
 7716 02e0 1E000000 		.4byte	.LVL50
 7717 02e4 4B000000 		.4byte	.LVL55-1
 7718 02e8 0700     		.2byte	0x7
 7719 02ea 72       		.byte	0x72
 7720 02eb 00       		.sleb128 0
 7721 02ec 44       		.byte	0x44
 7722 02ed 1E       		.byte	0x1e
 7723 02ee 23       		.byte	0x23
 7724 02ef 0C       		.uleb128 0xc
 7725 02f0 9F       		.byte	0x9f
 7726 02f1 4B000000 		.4byte	.LVL55-1
 7727 02f5 0C010000 		.4byte	.LFE39
 7728 02f9 0C00     		.2byte	0xc
 7729 02fb 91       		.byte	0x91
 7730 02fc 04       		.sleb128 4
 7731 02fd 94       		.byte	0x94
 7732 02fe 01       		.byte	0x1
 7733 02ff 08       		.byte	0x8
 7734 0300 FF       		.byte	0xff
 7735 0301 1A       		.byte	0x1a
 7736 0302 44       		.byte	0x44
 7737 0303 1E       		.byte	0x1e
 7738 0304 23       		.byte	0x23
 7739 0305 0C       		.uleb128 0xc
 7740 0306 9F       		.byte	0x9f
 7741 0307 00000000 		.4byte	0
ARM GAS  C:\Users\leoja\AppData\Local\Temp\ccM6wJLr.s 			page 156


 7742 030b 00000000 		.4byte	0
 7743              	.LLST20:
 7744 030f 5A000000 		.4byte	.LVL56
 7745 0313 96000000 		.4byte	.LVL59
 7746 0317 0500     		.2byte	0x5
 7747 0319 08       		.byte	0x8
 7748 031a FF       		.byte	0xff
 7749 031b 40       		.byte	0x40
 7750 031c 24       		.byte	0x24
 7751 031d 9F       		.byte	0x9f
 7752 031e A2000000 		.4byte	.LVL60
 7753 0322 F2000000 		.4byte	.LVL65
 7754 0326 0100     		.2byte	0x1
 7755 0328 54       		.byte	0x54
 7756 0329 00000000 		.4byte	0
 7757 032d 00000000 		.4byte	0
 7758              	.LLST21:
 7759 0331 00000000 		.4byte	.LVL66
 7760 0335 24000000 		.4byte	.LVL74
 7761 0339 0100     		.2byte	0x1
 7762 033b 50       		.byte	0x50
 7763 033c 24000000 		.4byte	.LVL74
 7764 0340 A4030000 		.4byte	.LFE40
 7765 0344 0400     		.2byte	0x4
 7766 0346 F3       		.byte	0xf3
 7767 0347 01       		.uleb128 0x1
 7768 0348 50       		.byte	0x50
 7769 0349 9F       		.byte	0x9f
 7770 034a 00000000 		.4byte	0
 7771 034e 00000000 		.4byte	0
 7772              	.LLST22:
 7773 0352 00000000 		.4byte	.LVL66
 7774 0356 16000000 		.4byte	.LVL71
 7775 035a 0100     		.2byte	0x1
 7776 035c 51       		.byte	0x51
 7777 035d 16000000 		.4byte	.LVL71
 7778 0361 A4030000 		.4byte	.LFE40
 7779 0365 0400     		.2byte	0x4
 7780 0367 F3       		.byte	0xf3
 7781 0368 01       		.uleb128 0x1
 7782 0369 51       		.byte	0x51
 7783 036a 9F       		.byte	0x9f
 7784 036b 00000000 		.4byte	0
 7785 036f 00000000 		.4byte	0
 7786              	.LLST23:
 7787 0373 00000000 		.4byte	.LVL66
 7788 0377 10000000 		.4byte	.LVL69
 7789 037b 0100     		.2byte	0x1
 7790 037d 52       		.byte	0x52
 7791 037e 10000000 		.4byte	.LVL69
 7792 0382 A4030000 		.4byte	.LFE40
 7793 0386 0400     		.2byte	0x4
 7794 0388 F3       		.byte	0xf3
 7795 0389 01       		.uleb128 0x1
 7796 038a 52       		.byte	0x52
 7797 038b 9F       		.byte	0x9f
 7798 038c 00000000 		.4byte	0
ARM GAS  C:\Users\leoja\AppData\Local\Temp\ccM6wJLr.s 			page 157


 7799 0390 00000000 		.4byte	0
 7800              	.LLST24:
 7801 0394 00000000 		.4byte	.LVL66
 7802 0398 08000000 		.4byte	.LVL67
 7803 039c 0100     		.2byte	0x1
 7804 039e 53       		.byte	0x53
 7805 039f 08000000 		.4byte	.LVL67
 7806 03a3 A4030000 		.4byte	.LFE40
 7807 03a7 0400     		.2byte	0x4
 7808 03a9 F3       		.byte	0xf3
 7809 03aa 01       		.uleb128 0x1
 7810 03ab 53       		.byte	0x53
 7811 03ac 9F       		.byte	0x9f
 7812 03ad 00000000 		.4byte	0
 7813 03b1 00000000 		.4byte	0
 7814              	.LLST25:
 7815 03b5 00000000 		.4byte	.LVL66
 7816 03b9 08000000 		.4byte	.LVL67
 7817 03bd 0200     		.2byte	0x2
 7818 03bf 91       		.byte	0x91
 7819 03c0 00       		.sleb128 0
 7820 03c1 08000000 		.4byte	.LVL67
 7821 03c5 0C000000 		.4byte	.LVL68
 7822 03c9 0200     		.2byte	0x2
 7823 03cb 73       		.byte	0x73
 7824 03cc 00       		.sleb128 0
 7825 03cd 0C000000 		.4byte	.LVL68
 7826 03d1 A4030000 		.4byte	.LFE40
 7827 03d5 0200     		.2byte	0x2
 7828 03d7 91       		.byte	0x91
 7829 03d8 00       		.sleb128 0
 7830 03d9 00000000 		.4byte	0
 7831 03dd 00000000 		.4byte	0
 7832              	.LLST26:
 7833 03e1 00000000 		.4byte	.LVL66
 7834 03e5 08000000 		.4byte	.LVL67
 7835 03e9 0200     		.2byte	0x2
 7836 03eb 91       		.byte	0x91
 7837 03ec 04       		.sleb128 4
 7838 03ed 08000000 		.4byte	.LVL67
 7839 03f1 0C000000 		.4byte	.LVL68
 7840 03f5 0200     		.2byte	0x2
 7841 03f7 73       		.byte	0x73
 7842 03f8 04       		.sleb128 4
 7843 03f9 0C000000 		.4byte	.LVL68
 7844 03fd 12000000 		.4byte	.LVL70
 7845 0401 0200     		.2byte	0x2
 7846 0403 73       		.byte	0x73
 7847 0404 00       		.sleb128 0
 7848 0405 12000000 		.4byte	.LVL70
 7849 0409 A4030000 		.4byte	.LFE40
 7850 040d 0200     		.2byte	0x2
 7851 040f 91       		.byte	0x91
 7852 0410 04       		.sleb128 4
 7853 0411 00000000 		.4byte	0
 7854 0415 00000000 		.4byte	0
 7855              	.LLST27:
ARM GAS  C:\Users\leoja\AppData\Local\Temp\ccM6wJLr.s 			page 158


 7856 0419 2E000000 		.4byte	.LVL75
 7857 041d 32000000 		.4byte	.LVL76
 7858 0421 0100     		.2byte	0x1
 7859 0423 53       		.byte	0x53
 7860 0424 32000000 		.4byte	.LVL76
 7861 0428 A4030000 		.4byte	.LFE40
 7862 042c 0200     		.2byte	0x2
 7863 042e 91       		.byte	0x91
 7864 042f 60       		.sleb128 -32
 7865 0430 00000000 		.4byte	0
 7866 0434 00000000 		.4byte	0
 7867              	.LLST28:
 7868 0438 3E000000 		.4byte	.LVL77
 7869 043c 47000000 		.4byte	.LVL78-1
 7870 0440 0100     		.2byte	0x1
 7871 0442 53       		.byte	0x53
 7872 0443 47000000 		.4byte	.LVL78-1
 7873 0447 A4030000 		.4byte	.LFE40
 7874 044b 0200     		.2byte	0x2
 7875 044d 91       		.byte	0x91
 7876 044e 64       		.sleb128 -28
 7877 044f 00000000 		.4byte	0
 7878 0453 00000000 		.4byte	0
 7879              	.LLST29:
 7880 0457 10000000 		.4byte	.LVL69
 7881 045b 1C000000 		.4byte	.LVL72
 7882 045f 0700     		.2byte	0x7
 7883 0461 72       		.byte	0x72
 7884 0462 00       		.sleb128 0
 7885 0463 44       		.byte	0x44
 7886 0464 1E       		.byte	0x1e
 7887 0465 23       		.byte	0x23
 7888 0466 0C       		.uleb128 0xc
 7889 0467 9F       		.byte	0x9f
 7890 0468 1C000000 		.4byte	.LVL72
 7891 046c 1E000000 		.4byte	.LVL73
 7892 0470 0100     		.2byte	0x1
 7893 0472 53       		.byte	0x53
 7894 0473 1E000000 		.4byte	.LVL73
 7895 0477 47000000 		.4byte	.LVL78-1
 7896 047b 0700     		.2byte	0x7
 7897 047d 72       		.byte	0x72
 7898 047e 00       		.sleb128 0
 7899 047f 44       		.byte	0x44
 7900 0480 1E       		.byte	0x1e
 7901 0481 23       		.byte	0x23
 7902 0482 0C       		.uleb128 0xc
 7903 0483 9F       		.byte	0x9f
 7904 0484 47000000 		.4byte	.LVL78-1
 7905 0488 A4030000 		.4byte	.LFE40
 7906 048c 0C00     		.2byte	0xc
 7907 048e 91       		.byte	0x91
 7908 048f 04       		.sleb128 4
 7909 0490 94       		.byte	0x94
 7910 0491 01       		.byte	0x1
 7911 0492 08       		.byte	0x8
 7912 0493 FF       		.byte	0xff
ARM GAS  C:\Users\leoja\AppData\Local\Temp\ccM6wJLr.s 			page 159


 7913 0494 1A       		.byte	0x1a
 7914 0495 44       		.byte	0x44
 7915 0496 1E       		.byte	0x1e
 7916 0497 23       		.byte	0x23
 7917 0498 0C       		.uleb128 0xc
 7918 0499 9F       		.byte	0x9f
 7919 049a 00000000 		.4byte	0
 7920 049e 00000000 		.4byte	0
 7921              	.LLST30:
 7922 04a2 86000000 		.4byte	.LVL81
 7923 04a6 B4000000 		.4byte	.LVL83
 7924 04aa 0600     		.2byte	0x6
 7925 04ac 0C       		.byte	0xc
 7926 04ad 00FFFF00 		.4byte	0xffff00
 7927 04b1 9F       		.byte	0x9f
 7928 04b2 B4000000 		.4byte	.LVL83
 7929 04b6 1A010000 		.4byte	.LVL87
 7930 04ba 0500     		.2byte	0x5
 7931 04bc 08       		.byte	0x8
 7932 04bd FF       		.byte	0xff
 7933 04be 40       		.byte	0x40
 7934 04bf 24       		.byte	0x24
 7935 04c0 9F       		.byte	0x9f
 7936 04c1 1E010000 		.4byte	.LVL88
 7937 04c5 BA010000 		.4byte	.LVL94
 7938 04c9 0500     		.2byte	0x5
 7939 04cb 08       		.byte	0x8
 7940 04cc FF       		.byte	0xff
 7941 04cd 40       		.byte	0x40
 7942 04ce 24       		.byte	0x24
 7943 04cf 9F       		.byte	0x9f
 7944 04d0 BA010000 		.4byte	.LVL94
 7945 04d4 E8010000 		.4byte	.LVL96
 7946 04d8 0600     		.2byte	0x6
 7947 04da 0C       		.byte	0xc
 7948 04db 00FFFF00 		.4byte	0xffff00
 7949 04df 9F       		.byte	0x9f
 7950 04e0 E8010000 		.4byte	.LVL96
 7951 04e4 EC020000 		.4byte	.LVL106
 7952 04e8 0500     		.2byte	0x5
 7953 04ea 08       		.byte	0x8
 7954 04eb FF       		.byte	0xff
 7955 04ec 40       		.byte	0x40
 7956 04ed 24       		.byte	0x24
 7957 04ee 9F       		.byte	0x9f
 7958 04ef EC020000 		.4byte	.LVL106
 7959 04f3 42030000 		.4byte	.LVL108
 7960 04f7 0400     		.2byte	0x4
 7961 04f9 0A       		.byte	0xa
 7962 04fa 00FF     		.2byte	0xff00
 7963 04fc 9F       		.byte	0x9f
 7964 04fd 00000000 		.4byte	0
 7965 0501 00000000 		.4byte	0
 7966              	.LLST31:
 7967 0505 52000000 		.4byte	.LVL79
 7968 0509 62000000 		.4byte	.LVL80
 7969 050d 0600     		.2byte	0x6
ARM GAS  C:\Users\leoja\AppData\Local\Temp\ccM6wJLr.s 			page 160


 7970 050f 76       		.byte	0x76
 7971 0510 00       		.sleb128 0
 7972 0511 08       		.byte	0x8
 7973 0512 7F       		.byte	0x7f
 7974 0513 1A       		.byte	0x1a
 7975 0514 9F       		.byte	0x9f
 7976 0515 00000000 		.4byte	0
 7977 0519 00000000 		.4byte	0
 7978              	.LLST32:
 7979 051d 00000000 		.4byte	.LVL111
 7980 0521 24000000 		.4byte	.LVL120
 7981 0525 0100     		.2byte	0x1
 7982 0527 50       		.byte	0x50
 7983 0528 24000000 		.4byte	.LVL120
 7984 052c 52000000 		.4byte	.LVL125
 7985 0530 0100     		.2byte	0x1
 7986 0532 54       		.byte	0x54
 7987 0533 52000000 		.4byte	.LVL125
 7988 0537 55000000 		.4byte	.LVL126-1
 7989 053b 0100     		.2byte	0x1
 7990 053d 50       		.byte	0x50
 7991 053e 55000000 		.4byte	.LVL126-1
 7992 0542 56000000 		.4byte	.LVL126
 7993 0546 0700     		.2byte	0x7
 7994 0548 74       		.byte	0x74
 7995 0549 00       		.sleb128 0
 7996 054a 0A       		.byte	0xa
 7997 054b 5B03     		.2byte	0x35b
 7998 054d 1E       		.byte	0x1e
 7999 054e 9F       		.byte	0x9f
 8000 054f 56000000 		.4byte	.LVL126
 8001 0553 5A000000 		.4byte	.LVL127
 8002 0557 0100     		.2byte	0x1
 8003 0559 50       		.byte	0x50
 8004 055a 5A000000 		.4byte	.LVL127
 8005 055e 5C000000 		.4byte	.LVL128
 8006 0562 0300     		.2byte	0x3
 8007 0564 70       		.byte	0x70
 8008 0565 6E       		.sleb128 -18
 8009 0566 9F       		.byte	0x9f
 8010 0567 5C000000 		.4byte	.LVL128
 8011 056b 98000000 		.4byte	.LVL130
 8012 056f 0100     		.2byte	0x1
 8013 0571 50       		.byte	0x50
 8014 0572 98000000 		.4byte	.LVL130
 8015 0576 F4000000 		.4byte	.LVL136
 8016 057a 0100     		.2byte	0x1
 8017 057c 55       		.byte	0x55
 8018 057d 00000000 		.4byte	0
 8019 0581 00000000 		.4byte	0
 8020              	.LLST33:
 8021 0585 00000000 		.4byte	.LVL111
 8022 0589 18000000 		.4byte	.LVL117
 8023 058d 0100     		.2byte	0x1
 8024 058f 51       		.byte	0x51
 8025 0590 18000000 		.4byte	.LVL117
 8026 0594 24010000 		.4byte	.LFE41
ARM GAS  C:\Users\leoja\AppData\Local\Temp\ccM6wJLr.s 			page 161


 8027 0598 0400     		.2byte	0x4
 8028 059a F3       		.byte	0xf3
 8029 059b 01       		.uleb128 0x1
 8030 059c 51       		.byte	0x51
 8031 059d 9F       		.byte	0x9f
 8032 059e 00000000 		.4byte	0
 8033 05a2 00000000 		.4byte	0
 8034              	.LLST34:
 8035 05a6 00000000 		.4byte	.LVL111
 8036 05aa 12000000 		.4byte	.LVL115
 8037 05ae 0100     		.2byte	0x1
 8038 05b0 52       		.byte	0x52
 8039 05b1 12000000 		.4byte	.LVL115
 8040 05b5 24010000 		.4byte	.LFE41
 8041 05b9 0400     		.2byte	0x4
 8042 05bb F3       		.byte	0xf3
 8043 05bc 01       		.uleb128 0x1
 8044 05bd 52       		.byte	0x52
 8045 05be 9F       		.byte	0x9f
 8046 05bf 00000000 		.4byte	0
 8047 05c3 00000000 		.4byte	0
 8048              	.LLST35:
 8049 05c7 00000000 		.4byte	.LVL111
 8050 05cb 08000000 		.4byte	.LVL112
 8051 05cf 0100     		.2byte	0x1
 8052 05d1 53       		.byte	0x53
 8053 05d2 08000000 		.4byte	.LVL112
 8054 05d6 24010000 		.4byte	.LFE41
 8055 05da 0400     		.2byte	0x4
 8056 05dc F3       		.byte	0xf3
 8057 05dd 01       		.uleb128 0x1
 8058 05de 53       		.byte	0x53
 8059 05df 9F       		.byte	0x9f
 8060 05e0 00000000 		.4byte	0
 8061 05e4 00000000 		.4byte	0
 8062              	.LLST36:
 8063 05e8 00000000 		.4byte	.LVL111
 8064 05ec 08000000 		.4byte	.LVL112
 8065 05f0 0200     		.2byte	0x2
 8066 05f2 91       		.byte	0x91
 8067 05f3 00       		.sleb128 0
 8068 05f4 08000000 		.4byte	.LVL112
 8069 05f8 0A000000 		.4byte	.LVL113
 8070 05fc 0200     		.2byte	0x2
 8071 05fe 73       		.byte	0x73
 8072 05ff 00       		.sleb128 0
 8073 0600 0A000000 		.4byte	.LVL113
 8074 0604 24010000 		.4byte	.LFE41
 8075 0608 0200     		.2byte	0x2
 8076 060a 91       		.byte	0x91
 8077 060b 00       		.sleb128 0
 8078 060c 00000000 		.4byte	0
 8079 0610 00000000 		.4byte	0
 8080              	.LLST37:
 8081 0614 00000000 		.4byte	.LVL111
 8082 0618 08000000 		.4byte	.LVL112
 8083 061c 0200     		.2byte	0x2
ARM GAS  C:\Users\leoja\AppData\Local\Temp\ccM6wJLr.s 			page 162


 8084 061e 91       		.byte	0x91
 8085 061f 04       		.sleb128 4
 8086 0620 08000000 		.4byte	.LVL112
 8087 0624 0A000000 		.4byte	.LVL113
 8088 0628 0200     		.2byte	0x2
 8089 062a 73       		.byte	0x73
 8090 062b 04       		.sleb128 4
 8091 062c 0A000000 		.4byte	.LVL113
 8092 0630 10000000 		.4byte	.LVL114
 8093 0634 0200     		.2byte	0x2
 8094 0636 91       		.byte	0x91
 8095 0637 04       		.sleb128 4
 8096 0638 10000000 		.4byte	.LVL114
 8097 063c 14000000 		.4byte	.LVL116
 8098 0640 0200     		.2byte	0x2
 8099 0642 73       		.byte	0x73
 8100 0643 00       		.sleb128 0
 8101 0644 14000000 		.4byte	.LVL116
 8102 0648 24010000 		.4byte	.LFE41
 8103 064c 0200     		.2byte	0x2
 8104 064e 91       		.byte	0x91
 8105 064f 04       		.sleb128 4
 8106 0650 00000000 		.4byte	0
 8107 0654 00000000 		.4byte	0
 8108              	.LLST38:
 8109 0658 2E000000 		.4byte	.LVL121
 8110 065c 30000000 		.4byte	.LVL122
 8111 0660 0100     		.2byte	0x1
 8112 0662 53       		.byte	0x53
 8113 0663 30000000 		.4byte	.LVL122
 8114 0667 24010000 		.4byte	.LFE41
 8115 066b 0200     		.2byte	0x2
 8116 066d 91       		.byte	0x91
 8117 066e 58       		.sleb128 -40
 8118 066f 00000000 		.4byte	0
 8119 0673 00000000 		.4byte	0
 8120              	.LLST39:
 8121 0677 40000000 		.4byte	.LVL123
 8122 067b 49000000 		.4byte	.LVL124-1
 8123 067f 0100     		.2byte	0x1
 8124 0681 53       		.byte	0x53
 8125 0682 49000000 		.4byte	.LVL124-1
 8126 0686 24010000 		.4byte	.LFE41
 8127 068a 0200     		.2byte	0x2
 8128 068c 91       		.byte	0x91
 8129 068d 5C       		.sleb128 -36
 8130 068e 00000000 		.4byte	0
 8131 0692 00000000 		.4byte	0
 8132              	.LLST40:
 8133 0696 12000000 		.4byte	.LVL115
 8134 069a 1C000000 		.4byte	.LVL118
 8135 069e 0700     		.2byte	0x7
 8136 06a0 72       		.byte	0x72
 8137 06a1 00       		.sleb128 0
 8138 06a2 44       		.byte	0x44
 8139 06a3 1E       		.byte	0x1e
 8140 06a4 23       		.byte	0x23
ARM GAS  C:\Users\leoja\AppData\Local\Temp\ccM6wJLr.s 			page 163


 8141 06a5 0C       		.uleb128 0xc
 8142 06a6 9F       		.byte	0x9f
 8143 06a7 1C000000 		.4byte	.LVL118
 8144 06ab 1E000000 		.4byte	.LVL119
 8145 06af 0100     		.2byte	0x1
 8146 06b1 53       		.byte	0x53
 8147 06b2 1E000000 		.4byte	.LVL119
 8148 06b6 49000000 		.4byte	.LVL124-1
 8149 06ba 0700     		.2byte	0x7
 8150 06bc 72       		.byte	0x72
 8151 06bd 00       		.sleb128 0
 8152 06be 44       		.byte	0x44
 8153 06bf 1E       		.byte	0x1e
 8154 06c0 23       		.byte	0x23
 8155 06c1 0C       		.uleb128 0xc
 8156 06c2 9F       		.byte	0x9f
 8157 06c3 49000000 		.4byte	.LVL124-1
 8158 06c7 24010000 		.4byte	.LFE41
 8159 06cb 0C00     		.2byte	0xc
 8160 06cd 91       		.byte	0x91
 8161 06ce 04       		.sleb128 4
 8162 06cf 94       		.byte	0x94
 8163 06d0 01       		.byte	0x1
 8164 06d1 08       		.byte	0x8
 8165 06d2 FF       		.byte	0xff
 8166 06d3 1A       		.byte	0x1a
 8167 06d4 44       		.byte	0x44
 8168 06d5 1E       		.byte	0x1e
 8169 06d6 23       		.byte	0x23
 8170 06d7 0C       		.uleb128 0xc
 8171 06d8 9F       		.byte	0x9f
 8172 06d9 00000000 		.4byte	0
 8173 06dd 00000000 		.4byte	0
 8174              	.LLST41:
 8175 06e1 7E000000 		.4byte	.LVL129
 8176 06e5 F4000000 		.4byte	.LVL135
 8177 06e9 0100     		.2byte	0x1
 8178 06eb 54       		.byte	0x54
 8179 06ec 00000000 		.4byte	0
 8180 06f0 00000000 		.4byte	0
 8181              	.LLST42:
 8182 06f4 00000000 		.4byte	.LVL137
 8183 06f8 2A000000 		.4byte	.LVL146
 8184 06fc 0100     		.2byte	0x1
 8185 06fe 50       		.byte	0x50
 8186 06ff 2A000000 		.4byte	.LVL146
 8187 0703 C0000000 		.4byte	.LFE44
 8188 0707 0400     		.2byte	0x4
 8189 0709 F3       		.byte	0xf3
 8190 070a 01       		.uleb128 0x1
 8191 070b 50       		.byte	0x50
 8192 070c 9F       		.byte	0x9f
 8193 070d 00000000 		.4byte	0
 8194 0711 00000000 		.4byte	0
 8195              	.LLST43:
 8196 0715 00000000 		.4byte	.LVL137
 8197 0719 14000000 		.4byte	.LVL141
ARM GAS  C:\Users\leoja\AppData\Local\Temp\ccM6wJLr.s 			page 164


 8198 071d 0100     		.2byte	0x1
 8199 071f 51       		.byte	0x51
 8200 0720 14000000 		.4byte	.LVL141
 8201 0724 C0000000 		.4byte	.LFE44
 8202 0728 0400     		.2byte	0x4
 8203 072a F3       		.byte	0xf3
 8204 072b 01       		.uleb128 0x1
 8205 072c 51       		.byte	0x51
 8206 072d 9F       		.byte	0x9f
 8207 072e 00000000 		.4byte	0
 8208 0732 00000000 		.4byte	0
 8209              	.LLST44:
 8210 0736 00000000 		.4byte	.LVL137
 8211 073a 06000000 		.4byte	.LVL138
 8212 073e 0100     		.2byte	0x1
 8213 0740 52       		.byte	0x52
 8214 0741 06000000 		.4byte	.LVL138
 8215 0745 C0000000 		.4byte	.LFE44
 8216 0749 0400     		.2byte	0x4
 8217 074b F3       		.byte	0xf3
 8218 074c 01       		.uleb128 0x1
 8219 074d 52       		.byte	0x52
 8220 074e 9F       		.byte	0x9f
 8221 074f 00000000 		.4byte	0
 8222 0753 00000000 		.4byte	0
 8223              	.LLST45:
 8224 0757 00000000 		.4byte	.LVL137
 8225 075b 0C000000 		.4byte	.LVL139
 8226 075f 0100     		.2byte	0x1
 8227 0761 53       		.byte	0x53
 8228 0762 0C000000 		.4byte	.LVL139
 8229 0766 C0000000 		.4byte	.LFE44
 8230 076a 0400     		.2byte	0x4
 8231 076c F3       		.byte	0xf3
 8232 076d 01       		.uleb128 0x1
 8233 076e 53       		.byte	0x53
 8234 076f 9F       		.byte	0x9f
 8235 0770 00000000 		.4byte	0
 8236 0774 00000000 		.4byte	0
 8237              	.LLST46:
 8238 0778 00000000 		.4byte	.LVL137
 8239 077c 0C000000 		.4byte	.LVL139
 8240 0780 0200     		.2byte	0x2
 8241 0782 91       		.byte	0x91
 8242 0783 00       		.sleb128 0
 8243 0784 0C000000 		.4byte	.LVL139
 8244 0788 10000000 		.4byte	.LVL140
 8245 078c 0200     		.2byte	0x2
 8246 078e 73       		.byte	0x73
 8247 078f 00       		.sleb128 0
 8248 0790 10000000 		.4byte	.LVL140
 8249 0794 C0000000 		.4byte	.LFE44
 8250 0798 0200     		.2byte	0x2
 8251 079a 91       		.byte	0x91
 8252 079b 00       		.sleb128 0
 8253 079c 00000000 		.4byte	0
 8254 07a0 00000000 		.4byte	0
ARM GAS  C:\Users\leoja\AppData\Local\Temp\ccM6wJLr.s 			page 165


 8255              	.LLST47:
 8256 07a4 00000000 		.4byte	.LVL137
 8257 07a8 0C000000 		.4byte	.LVL139
 8258 07ac 0200     		.2byte	0x2
 8259 07ae 91       		.byte	0x91
 8260 07af 04       		.sleb128 4
 8261 07b0 0C000000 		.4byte	.LVL139
 8262 07b4 10000000 		.4byte	.LVL140
 8263 07b8 0200     		.2byte	0x2
 8264 07ba 73       		.byte	0x73
 8265 07bb 04       		.sleb128 4
 8266 07bc 10000000 		.4byte	.LVL140
 8267 07c0 16000000 		.4byte	.LVL142
 8268 07c4 0200     		.2byte	0x2
 8269 07c6 73       		.byte	0x73
 8270 07c7 00       		.sleb128 0
 8271 07c8 16000000 		.4byte	.LVL142
 8272 07cc C0000000 		.4byte	.LFE44
 8273 07d0 0200     		.2byte	0x2
 8274 07d2 91       		.byte	0x91
 8275 07d3 04       		.sleb128 4
 8276 07d4 00000000 		.4byte	0
 8277 07d8 00000000 		.4byte	0
 8278              	.LLST48:
 8279 07dc 36000000 		.4byte	.LVL147
 8280 07e0 38000000 		.4byte	.LVL148
 8281 07e4 0100     		.2byte	0x1
 8282 07e6 53       		.byte	0x53
 8283 07e7 38000000 		.4byte	.LVL148
 8284 07eb C0000000 		.4byte	.LFE44
 8285 07ef 0200     		.2byte	0x2
 8286 07f1 91       		.byte	0x91
 8287 07f2 58       		.sleb128 -40
 8288 07f3 00000000 		.4byte	0
 8289 07f7 00000000 		.4byte	0
 8290              	.LLST49:
 8291 07fb 40000000 		.4byte	.LVL149
 8292 07ff 49000000 		.4byte	.LVL150-1
 8293 0803 0100     		.2byte	0x1
 8294 0805 53       		.byte	0x53
 8295 0806 49000000 		.4byte	.LVL150-1
 8296 080a C0000000 		.4byte	.LFE44
 8297 080e 0200     		.2byte	0x2
 8298 0810 91       		.byte	0x91
 8299 0811 5C       		.sleb128 -36
 8300 0812 00000000 		.4byte	0
 8301 0816 00000000 		.4byte	0
 8302              	.LLST50:
 8303 081a 22000000 		.4byte	.LVL143
 8304 081e 24000000 		.4byte	.LVL144
 8305 0822 0100     		.2byte	0x1
 8306 0824 53       		.byte	0x53
 8307 0825 24000000 		.4byte	.LVL144
 8308 0829 49000000 		.4byte	.LVL150-1
 8309 082d 0700     		.2byte	0x7
 8310 082f 71       		.byte	0x71
 8311 0830 00       		.sleb128 0
ARM GAS  C:\Users\leoja\AppData\Local\Temp\ccM6wJLr.s 			page 166


 8312 0831 44       		.byte	0x44
 8313 0832 1E       		.byte	0x1e
 8314 0833 23       		.byte	0x23
 8315 0834 0C       		.uleb128 0xc
 8316 0835 9F       		.byte	0x9f
 8317 0836 49000000 		.4byte	.LVL150-1
 8318 083a C0000000 		.4byte	.LFE44
 8319 083e 0C00     		.2byte	0xc
 8320 0840 91       		.byte	0x91
 8321 0841 04       		.sleb128 4
 8322 0842 94       		.byte	0x94
 8323 0843 01       		.byte	0x1
 8324 0844 08       		.byte	0x8
 8325 0845 FF       		.byte	0xff
 8326 0846 1A       		.byte	0x1a
 8327 0847 44       		.byte	0x44
 8328 0848 1E       		.byte	0x1e
 8329 0849 23       		.byte	0x23
 8330 084a 0C       		.uleb128 0xc
 8331 084b 9F       		.byte	0x9f
 8332 084c 00000000 		.4byte	0
 8333 0850 00000000 		.4byte	0
 8334              	.LLST51:
 8335 0854 22000000 		.4byte	.LVL143
 8336 0858 26000000 		.4byte	.LVL145
 8337 085c 0100     		.2byte	0x1
 8338 085e 52       		.byte	0x52
 8339 085f 26000000 		.4byte	.LVL145
 8340 0863 2A000000 		.4byte	.LVL146
 8341 0867 1000     		.2byte	0x10
 8342 0869 08       		.byte	0x8
 8343 086a 63       		.byte	0x63
 8344 086b 40       		.byte	0x40
 8345 086c 4B       		.byte	0x4b
 8346 086d 24       		.byte	0x24
 8347 086e 22       		.byte	0x22
 8348 086f 70       		.byte	0x70
 8349 0870 00       		.sleb128 0
 8350 0871 40       		.byte	0x40
 8351 0872 4B       		.byte	0x4b
 8352 0873 24       		.byte	0x24
 8353 0874 22       		.byte	0x22
 8354 0875 2D       		.byte	0x2d
 8355 0876 23       		.byte	0x23
 8356 0877 03       		.uleb128 0x3
 8357 0878 9F       		.byte	0x9f
 8358 0879 2A000000 		.4byte	.LVL146
 8359 087d C0000000 		.4byte	.LFE44
 8360 0881 1100     		.2byte	0x11
 8361 0883 08       		.byte	0x8
 8362 0884 63       		.byte	0x63
 8363 0885 40       		.byte	0x40
 8364 0886 4B       		.byte	0x4b
 8365 0887 24       		.byte	0x24
 8366 0888 22       		.byte	0x22
 8367 0889 91       		.byte	0x91
 8368 088a 54       		.sleb128 -44
ARM GAS  C:\Users\leoja\AppData\Local\Temp\ccM6wJLr.s 			page 167


 8369 088b 06       		.byte	0x6
 8370 088c 40       		.byte	0x40
 8371 088d 4B       		.byte	0x4b
 8372 088e 24       		.byte	0x24
 8373 088f 22       		.byte	0x22
 8374 0890 2D       		.byte	0x2d
 8375 0891 23       		.byte	0x23
 8376 0892 03       		.uleb128 0x3
 8377 0893 9F       		.byte	0x9f
 8378 0894 00000000 		.4byte	0
 8379 0898 00000000 		.4byte	0
 8380              	.LLST52:
 8381 089c 00000000 		.4byte	.LVL157
 8382 08a0 11000000 		.4byte	.LVL162-1
 8383 08a4 0100     		.2byte	0x1
 8384 08a6 50       		.byte	0x50
 8385 08a7 11000000 		.4byte	.LVL162-1
 8386 08ab 14000000 		.4byte	.LFE43
 8387 08af 0400     		.2byte	0x4
 8388 08b1 F3       		.byte	0xf3
 8389 08b2 01       		.uleb128 0x1
 8390 08b3 50       		.byte	0x50
 8391 08b4 9F       		.byte	0x9f
 8392 08b5 00000000 		.4byte	0
 8393 08b9 00000000 		.4byte	0
 8394              	.LLST53:
 8395 08bd 00000000 		.4byte	.LVL157
 8396 08c1 11000000 		.4byte	.LVL162-1
 8397 08c5 0100     		.2byte	0x1
 8398 08c7 51       		.byte	0x51
 8399 08c8 11000000 		.4byte	.LVL162-1
 8400 08cc 14000000 		.4byte	.LFE43
 8401 08d0 0400     		.2byte	0x4
 8402 08d2 F3       		.byte	0xf3
 8403 08d3 01       		.uleb128 0x1
 8404 08d4 51       		.byte	0x51
 8405 08d5 9F       		.byte	0x9f
 8406 08d6 00000000 		.4byte	0
 8407 08da 00000000 		.4byte	0
 8408              	.LLST54:
 8409 08de 00000000 		.4byte	.LVL157
 8410 08e2 11000000 		.4byte	.LVL162-1
 8411 08e6 0100     		.2byte	0x1
 8412 08e8 52       		.byte	0x52
 8413 08e9 11000000 		.4byte	.LVL162-1
 8414 08ed 14000000 		.4byte	.LFE43
 8415 08f1 0400     		.2byte	0x4
 8416 08f3 F3       		.byte	0xf3
 8417 08f4 01       		.uleb128 0x1
 8418 08f5 52       		.byte	0x52
 8419 08f6 9F       		.byte	0x9f
 8420 08f7 00000000 		.4byte	0
 8421 08fb 00000000 		.4byte	0
 8422              	.LLST55:
 8423 08ff 00000000 		.4byte	.LVL157
 8424 0903 11000000 		.4byte	.LVL162-1
 8425 0907 0100     		.2byte	0x1
ARM GAS  C:\Users\leoja\AppData\Local\Temp\ccM6wJLr.s 			page 168


 8426 0909 53       		.byte	0x53
 8427 090a 11000000 		.4byte	.LVL162-1
 8428 090e 14000000 		.4byte	.LFE43
 8429 0912 0400     		.2byte	0x4
 8430 0914 F3       		.byte	0xf3
 8431 0915 01       		.uleb128 0x1
 8432 0916 53       		.byte	0x53
 8433 0917 9F       		.byte	0x9f
 8434 0918 00000000 		.4byte	0
 8435 091c 00000000 		.4byte	0
 8436              	.LLST56:
 8437 0920 00000000 		.4byte	.LVL157
 8438 0924 04000000 		.4byte	.LVL158
 8439 0928 0200     		.2byte	0x2
 8440 092a 91       		.byte	0x91
 8441 092b 00       		.sleb128 0
 8442 092c 04000000 		.4byte	.LVL158
 8443 0930 0A000000 		.4byte	.LVL161
 8444 0934 0200     		.2byte	0x2
 8445 0936 74       		.byte	0x74
 8446 0937 00       		.sleb128 0
 8447 0938 0A000000 		.4byte	.LVL161
 8448 093c 14000000 		.4byte	.LFE43
 8449 0940 0200     		.2byte	0x2
 8450 0942 91       		.byte	0x91
 8451 0943 00       		.sleb128 0
 8452 0944 00000000 		.4byte	0
 8453 0948 00000000 		.4byte	0
 8454              	.LLST57:
 8455 094c 00000000 		.4byte	.LVL157
 8456 0950 04000000 		.4byte	.LVL158
 8457 0954 0200     		.2byte	0x2
 8458 0956 91       		.byte	0x91
 8459 0957 04       		.sleb128 4
 8460 0958 04000000 		.4byte	.LVL158
 8461 095c 06000000 		.4byte	.LVL159
 8462 0960 0200     		.2byte	0x2
 8463 0962 74       		.byte	0x74
 8464 0963 04       		.sleb128 4
 8465 0964 06000000 		.4byte	.LVL159
 8466 0968 08000000 		.4byte	.LVL160
 8467 096c 0200     		.2byte	0x2
 8468 096e 75       		.byte	0x75
 8469 096f 00       		.sleb128 0
 8470 0970 08000000 		.4byte	.LVL160
 8471 0974 0A000000 		.4byte	.LVL161
 8472 0978 0200     		.2byte	0x2
 8473 097a 74       		.byte	0x74
 8474 097b 04       		.sleb128 4
 8475 097c 0A000000 		.4byte	.LVL161
 8476 0980 14000000 		.4byte	.LFE43
 8477 0984 0200     		.2byte	0x2
 8478 0986 91       		.byte	0x91
 8479 0987 04       		.sleb128 4
 8480 0988 00000000 		.4byte	0
 8481 098c 00000000 		.4byte	0
 8482              	.LLST58:
ARM GAS  C:\Users\leoja\AppData\Local\Temp\ccM6wJLr.s 			page 169


 8483 0990 00000000 		.4byte	.LVL163
 8484 0994 22000000 		.4byte	.LVL171
 8485 0998 0100     		.2byte	0x1
 8486 099a 50       		.byte	0x50
 8487 099b 22000000 		.4byte	.LVL171
 8488 099f C4000000 		.4byte	.LFE45
 8489 09a3 0400     		.2byte	0x4
 8490 09a5 F3       		.byte	0xf3
 8491 09a6 01       		.uleb128 0x1
 8492 09a7 50       		.byte	0x50
 8493 09a8 9F       		.byte	0x9f
 8494 09a9 00000000 		.4byte	0
 8495 09ad 00000000 		.4byte	0
 8496              	.LLST59:
 8497 09b1 00000000 		.4byte	.LVL163
 8498 09b5 16000000 		.4byte	.LVL168
 8499 09b9 0100     		.2byte	0x1
 8500 09bb 51       		.byte	0x51
 8501 09bc 16000000 		.4byte	.LVL168
 8502 09c0 C4000000 		.4byte	.LFE45
 8503 09c4 0400     		.2byte	0x4
 8504 09c6 F3       		.byte	0xf3
 8505 09c7 01       		.uleb128 0x1
 8506 09c8 51       		.byte	0x51
 8507 09c9 9F       		.byte	0x9f
 8508 09ca 00000000 		.4byte	0
 8509 09ce 00000000 		.4byte	0
 8510              	.LLST60:
 8511 09d2 00000000 		.4byte	.LVL163
 8512 09d6 10000000 		.4byte	.LVL166
 8513 09da 0100     		.2byte	0x1
 8514 09dc 52       		.byte	0x52
 8515 09dd 10000000 		.4byte	.LVL166
 8516 09e1 C4000000 		.4byte	.LFE45
 8517 09e5 0400     		.2byte	0x4
 8518 09e7 F3       		.byte	0xf3
 8519 09e8 01       		.uleb128 0x1
 8520 09e9 52       		.byte	0x52
 8521 09ea 9F       		.byte	0x9f
 8522 09eb 00000000 		.4byte	0
 8523 09ef 00000000 		.4byte	0
 8524              	.LLST61:
 8525 09f3 00000000 		.4byte	.LVL163
 8526 09f7 08000000 		.4byte	.LVL164
 8527 09fb 0100     		.2byte	0x1
 8528 09fd 53       		.byte	0x53
 8529 09fe 08000000 		.4byte	.LVL164
 8530 0a02 C4000000 		.4byte	.LFE45
 8531 0a06 0400     		.2byte	0x4
 8532 0a08 F3       		.byte	0xf3
 8533 0a09 01       		.uleb128 0x1
 8534 0a0a 53       		.byte	0x53
 8535 0a0b 9F       		.byte	0x9f
 8536 0a0c 00000000 		.4byte	0
 8537 0a10 00000000 		.4byte	0
 8538              	.LLST62:
 8539 0a14 00000000 		.4byte	.LVL163
ARM GAS  C:\Users\leoja\AppData\Local\Temp\ccM6wJLr.s 			page 170


 8540 0a18 08000000 		.4byte	.LVL164
 8541 0a1c 0200     		.2byte	0x2
 8542 0a1e 91       		.byte	0x91
 8543 0a1f 00       		.sleb128 0
 8544 0a20 08000000 		.4byte	.LVL164
 8545 0a24 0C000000 		.4byte	.LVL165
 8546 0a28 0200     		.2byte	0x2
 8547 0a2a 73       		.byte	0x73
 8548 0a2b 00       		.sleb128 0
 8549 0a2c 0C000000 		.4byte	.LVL165
 8550 0a30 C4000000 		.4byte	.LFE45
 8551 0a34 0200     		.2byte	0x2
 8552 0a36 91       		.byte	0x91
 8553 0a37 00       		.sleb128 0
 8554 0a38 00000000 		.4byte	0
 8555 0a3c 00000000 		.4byte	0
 8556              	.LLST63:
 8557 0a40 00000000 		.4byte	.LVL163
 8558 0a44 08000000 		.4byte	.LVL164
 8559 0a48 0200     		.2byte	0x2
 8560 0a4a 91       		.byte	0x91
 8561 0a4b 04       		.sleb128 4
 8562 0a4c 08000000 		.4byte	.LVL164
 8563 0a50 0C000000 		.4byte	.LVL165
 8564 0a54 0200     		.2byte	0x2
 8565 0a56 73       		.byte	0x73
 8566 0a57 04       		.sleb128 4
 8567 0a58 0C000000 		.4byte	.LVL165
 8568 0a5c 12000000 		.4byte	.LVL167
 8569 0a60 0200     		.2byte	0x2
 8570 0a62 73       		.byte	0x73
 8571 0a63 00       		.sleb128 0
 8572 0a64 12000000 		.4byte	.LVL167
 8573 0a68 C4000000 		.4byte	.LFE45
 8574 0a6c 0200     		.2byte	0x2
 8575 0a6e 91       		.byte	0x91
 8576 0a6f 04       		.sleb128 4
 8577 0a70 00000000 		.4byte	0
 8578 0a74 00000000 		.4byte	0
 8579              	.LLST64:
 8580 0a78 30000000 		.4byte	.LVL172
 8581 0a7c 32000000 		.4byte	.LVL173
 8582 0a80 0100     		.2byte	0x1
 8583 0a82 53       		.byte	0x53
 8584 0a83 32000000 		.4byte	.LVL173
 8585 0a87 C4000000 		.4byte	.LFE45
 8586 0a8b 0200     		.2byte	0x2
 8587 0a8d 91       		.byte	0x91
 8588 0a8e 58       		.sleb128 -40
 8589 0a8f 00000000 		.4byte	0
 8590 0a93 00000000 		.4byte	0
 8591              	.LLST65:
 8592 0a97 3A000000 		.4byte	.LVL174
 8593 0a9b 43000000 		.4byte	.LVL175-1
 8594 0a9f 0100     		.2byte	0x1
 8595 0aa1 53       		.byte	0x53
 8596 0aa2 43000000 		.4byte	.LVL175-1
ARM GAS  C:\Users\leoja\AppData\Local\Temp\ccM6wJLr.s 			page 171


 8597 0aa6 C4000000 		.4byte	.LFE45
 8598 0aaa 0200     		.2byte	0x2
 8599 0aac 91       		.byte	0x91
 8600 0aad 5C       		.sleb128 -36
 8601 0aae 00000000 		.4byte	0
 8602 0ab2 00000000 		.4byte	0
 8603              	.LLST66:
 8604 0ab6 10000000 		.4byte	.LVL166
 8605 0aba 1A000000 		.4byte	.LVL169
 8606 0abe 0700     		.2byte	0x7
 8607 0ac0 72       		.byte	0x72
 8608 0ac1 00       		.sleb128 0
 8609 0ac2 44       		.byte	0x44
 8610 0ac3 1E       		.byte	0x1e
 8611 0ac4 23       		.byte	0x23
 8612 0ac5 0C       		.uleb128 0xc
 8613 0ac6 9F       		.byte	0x9f
 8614 0ac7 1A000000 		.4byte	.LVL169
 8615 0acb 1C000000 		.4byte	.LVL170
 8616 0acf 0100     		.2byte	0x1
 8617 0ad1 53       		.byte	0x53
 8618 0ad2 1C000000 		.4byte	.LVL170
 8619 0ad6 43000000 		.4byte	.LVL175-1
 8620 0ada 0700     		.2byte	0x7
 8621 0adc 72       		.byte	0x72
 8622 0add 00       		.sleb128 0
 8623 0ade 44       		.byte	0x44
 8624 0adf 1E       		.byte	0x1e
 8625 0ae0 23       		.byte	0x23
 8626 0ae1 0C       		.uleb128 0xc
 8627 0ae2 9F       		.byte	0x9f
 8628 0ae3 43000000 		.4byte	.LVL175-1
 8629 0ae7 C4000000 		.4byte	.LFE45
 8630 0aeb 0C00     		.2byte	0xc
 8631 0aed 91       		.byte	0x91
 8632 0aee 04       		.sleb128 4
 8633 0aef 94       		.byte	0x94
 8634 0af0 01       		.byte	0x1
 8635 0af1 08       		.byte	0x8
 8636 0af2 FF       		.byte	0xff
 8637 0af3 1A       		.byte	0x1a
 8638 0af4 44       		.byte	0x44
 8639 0af5 1E       		.byte	0x1e
 8640 0af6 23       		.byte	0x23
 8641 0af7 0C       		.uleb128 0xc
 8642 0af8 9F       		.byte	0x9f
 8643 0af9 00000000 		.4byte	0
 8644 0afd 00000000 		.4byte	0
 8645              	.LLST67:
 8646 0b01 00000000 		.4byte	.LVL180
 8647 0b05 20000000 		.4byte	.LVL187
 8648 0b09 0100     		.2byte	0x1
 8649 0b0b 50       		.byte	0x50
 8650 0b0c 20000000 		.4byte	.LVL187
 8651 0b10 30020000 		.4byte	.LFE46
 8652 0b14 0400     		.2byte	0x4
 8653 0b16 F3       		.byte	0xf3
ARM GAS  C:\Users\leoja\AppData\Local\Temp\ccM6wJLr.s 			page 172


 8654 0b17 01       		.uleb128 0x1
 8655 0b18 50       		.byte	0x50
 8656 0b19 9F       		.byte	0x9f
 8657 0b1a 00000000 		.4byte	0
 8658 0b1e 00000000 		.4byte	0
 8659              	.LLST68:
 8660 0b22 00000000 		.4byte	.LVL180
 8661 0b26 0A000000 		.4byte	.LVL181
 8662 0b2a 0100     		.2byte	0x1
 8663 0b2c 51       		.byte	0x51
 8664 0b2d 0A000000 		.4byte	.LVL181
 8665 0b31 30020000 		.4byte	.LFE46
 8666 0b35 0400     		.2byte	0x4
 8667 0b37 F3       		.byte	0xf3
 8668 0b38 01       		.uleb128 0x1
 8669 0b39 51       		.byte	0x51
 8670 0b3a 9F       		.byte	0x9f
 8671 0b3b 00000000 		.4byte	0
 8672 0b3f 00000000 		.4byte	0
 8673              	.LLST69:
 8674 0b43 00000000 		.4byte	.LVL180
 8675 0b47 16000000 		.4byte	.LVL184
 8676 0b4b 0100     		.2byte	0x1
 8677 0b4d 52       		.byte	0x52
 8678 0b4e 16000000 		.4byte	.LVL184
 8679 0b52 30020000 		.4byte	.LFE46
 8680 0b56 0400     		.2byte	0x4
 8681 0b58 F3       		.byte	0xf3
 8682 0b59 01       		.uleb128 0x1
 8683 0b5a 52       		.byte	0x52
 8684 0b5b 9F       		.byte	0x9f
 8685 0b5c 00000000 		.4byte	0
 8686 0b60 00000000 		.4byte	0
 8687              	.LLST70:
 8688 0b64 00000000 		.4byte	.LVL180
 8689 0b68 0E000000 		.4byte	.LVL182
 8690 0b6c 0100     		.2byte	0x1
 8691 0b6e 53       		.byte	0x53
 8692 0b6f 0E000000 		.4byte	.LVL182
 8693 0b73 30020000 		.4byte	.LFE46
 8694 0b77 0400     		.2byte	0x4
 8695 0b79 F3       		.byte	0xf3
 8696 0b7a 01       		.uleb128 0x1
 8697 0b7b 53       		.byte	0x53
 8698 0b7c 9F       		.byte	0x9f
 8699 0b7d 00000000 		.4byte	0
 8700 0b81 00000000 		.4byte	0
 8701              	.LLST71:
 8702 0b85 00000000 		.4byte	.LVL180
 8703 0b89 0E000000 		.4byte	.LVL182
 8704 0b8d 0200     		.2byte	0x2
 8705 0b8f 91       		.byte	0x91
 8706 0b90 00       		.sleb128 0
 8707 0b91 0E000000 		.4byte	.LVL182
 8708 0b95 12000000 		.4byte	.LVL183
 8709 0b99 0200     		.2byte	0x2
 8710 0b9b 73       		.byte	0x73
ARM GAS  C:\Users\leoja\AppData\Local\Temp\ccM6wJLr.s 			page 173


 8711 0b9c 00       		.sleb128 0
 8712 0b9d 12000000 		.4byte	.LVL183
 8713 0ba1 30020000 		.4byte	.LFE46
 8714 0ba5 0200     		.2byte	0x2
 8715 0ba7 91       		.byte	0x91
 8716 0ba8 00       		.sleb128 0
 8717 0ba9 00000000 		.4byte	0
 8718 0bad 00000000 		.4byte	0
 8719              	.LLST72:
 8720 0bb1 00000000 		.4byte	.LVL180
 8721 0bb5 0E000000 		.4byte	.LVL182
 8722 0bb9 0200     		.2byte	0x2
 8723 0bbb 91       		.byte	0x91
 8724 0bbc 04       		.sleb128 4
 8725 0bbd 0E000000 		.4byte	.LVL182
 8726 0bc1 12000000 		.4byte	.LVL183
 8727 0bc5 0200     		.2byte	0x2
 8728 0bc7 73       		.byte	0x73
 8729 0bc8 04       		.sleb128 4
 8730 0bc9 12000000 		.4byte	.LVL183
 8731 0bcd 24000000 		.4byte	.LVL188
 8732 0bd1 0200     		.2byte	0x2
 8733 0bd3 73       		.byte	0x73
 8734 0bd4 00       		.sleb128 0
 8735 0bd5 24000000 		.4byte	.LVL188
 8736 0bd9 30020000 		.4byte	.LFE46
 8737 0bdd 0200     		.2byte	0x2
 8738 0bdf 91       		.byte	0x91
 8739 0be0 04       		.sleb128 4
 8740 0be1 00000000 		.4byte	0
 8741 0be5 00000000 		.4byte	0
 8742              	.LLST73:
 8743 0be9 2A000000 		.4byte	.LVL189
 8744 0bed 4C000000 		.4byte	.LVL193
 8745 0bf1 0100     		.2byte	0x1
 8746 0bf3 56       		.byte	0x56
 8747 0bf4 4C000000 		.4byte	.LVL193
 8748 0bf8 30020000 		.4byte	.LFE46
 8749 0bfc 1A00     		.2byte	0x1a
 8750 0bfe 91       		.byte	0x91
 8751 0bff 58       		.sleb128 -40
 8752 0c00 06       		.byte	0x6
 8753 0c01 91       		.byte	0x91
 8754 0c02 60       		.sleb128 -32
 8755 0c03 06       		.byte	0x6
 8756 0c04 22       		.byte	0x22
 8757 0c05 31       		.byte	0x31
 8758 0c06 26       		.byte	0x26
 8759 0c07 91       		.byte	0x91
 8760 0c08 04       		.sleb128 4
 8761 0c09 94       		.byte	0x94
 8762 0c0a 01       		.byte	0x1
 8763 0c0b 08       		.byte	0x8
 8764 0c0c FF       		.byte	0xff
 8765 0c0d 1A       		.byte	0x1a
 8766 0c0e 44       		.byte	0x44
 8767 0c0f 1E       		.byte	0x1e
ARM GAS  C:\Users\leoja\AppData\Local\Temp\ccM6wJLr.s 			page 174


 8768 0c10 23       		.byte	0x23
 8769 0c11 0C       		.uleb128 0xc
 8770 0c12 3A       		.byte	0x3a
 8771 0c13 1E       		.byte	0x1e
 8772 0c14 31       		.byte	0x31
 8773 0c15 26       		.byte	0x26
 8774 0c16 1C       		.byte	0x1c
 8775 0c17 9F       		.byte	0x9f
 8776 0c18 00000000 		.4byte	0
 8777 0c1c 00000000 		.4byte	0
 8778              	.LLST74:
 8779 0c20 3A000000 		.4byte	.LVL190
 8780 0c24 4A000000 		.4byte	.LVL192
 8781 0c28 0100     		.2byte	0x1
 8782 0c2a 57       		.byte	0x57
 8783 0c2b 4A000000 		.4byte	.LVL192
 8784 0c2f 70000000 		.4byte	.LVL195
 8785 0c33 1600     		.2byte	0x16
 8786 0c35 91       		.byte	0x91
 8787 0c36 04       		.sleb128 4
 8788 0c37 94       		.byte	0x94
 8789 0c38 01       		.byte	0x1
 8790 0c39 08       		.byte	0x8
 8791 0c3a FF       		.byte	0xff
 8792 0c3b 1A       		.byte	0x1a
 8793 0c3c 09       		.byte	0x9
 8794 0c3d EF       		.byte	0xef
 8795 0c3e 1E       		.byte	0x1e
 8796 0c3f 91       		.byte	0x91
 8797 0c40 5C       		.sleb128 -36
 8798 0c41 06       		.byte	0x6
 8799 0c42 74       		.byte	0x74
 8800 0c43 00       		.sleb128 0
 8801 0c44 22       		.byte	0x22
 8802 0c45 31       		.byte	0x31
 8803 0c46 26       		.byte	0x26
 8804 0c47 22       		.byte	0x22
 8805 0c48 35       		.byte	0x35
 8806 0c49 1C       		.byte	0x1c
 8807 0c4a 9F       		.byte	0x9f
 8808 0c4b 70000000 		.4byte	.LVL195
 8809 0c4f 88000000 		.4byte	.LVL197
 8810 0c53 1C00     		.2byte	0x1c
 8811 0c55 91       		.byte	0x91
 8812 0c56 04       		.sleb128 4
 8813 0c57 94       		.byte	0x94
 8814 0c58 01       		.byte	0x1
 8815 0c59 08       		.byte	0x8
 8816 0c5a FF       		.byte	0xff
 8817 0c5b 1A       		.byte	0x1a
 8818 0c5c 09       		.byte	0x9
 8819 0c5d EF       		.byte	0xef
 8820 0c5e 1E       		.byte	0x1e
 8821 0c5f 91       		.byte	0x91
 8822 0c60 00       		.sleb128 0
 8823 0c61 94       		.byte	0x94
 8824 0c62 02       		.byte	0x2
ARM GAS  C:\Users\leoja\AppData\Local\Temp\ccM6wJLr.s 			page 175


 8825 0c63 0A       		.byte	0xa
 8826 0c64 FFFF     		.2byte	0xffff
 8827 0c66 1A       		.byte	0x1a
 8828 0c67 91       		.byte	0x91
 8829 0c68 5C       		.sleb128 -36
 8830 0c69 06       		.byte	0x6
 8831 0c6a 22       		.byte	0x22
 8832 0c6b 31       		.byte	0x31
 8833 0c6c 26       		.byte	0x26
 8834 0c6d 22       		.byte	0x22
 8835 0c6e 35       		.byte	0x35
 8836 0c6f 1C       		.byte	0x1c
 8837 0c70 9F       		.byte	0x9f
 8838 0c71 88000000 		.4byte	.LVL197
 8839 0c75 AE000000 		.4byte	.LVL199
 8840 0c79 1600     		.2byte	0x16
 8841 0c7b 91       		.byte	0x91
 8842 0c7c 04       		.sleb128 4
 8843 0c7d 94       		.byte	0x94
 8844 0c7e 01       		.byte	0x1
 8845 0c7f 08       		.byte	0x8
 8846 0c80 FF       		.byte	0xff
 8847 0c81 1A       		.byte	0x1a
 8848 0c82 09       		.byte	0x9
 8849 0c83 EF       		.byte	0xef
 8850 0c84 1E       		.byte	0x1e
 8851 0c85 91       		.byte	0x91
 8852 0c86 5C       		.sleb128 -36
 8853 0c87 06       		.byte	0x6
 8854 0c88 74       		.byte	0x74
 8855 0c89 00       		.sleb128 0
 8856 0c8a 22       		.byte	0x22
 8857 0c8b 31       		.byte	0x31
 8858 0c8c 26       		.byte	0x26
 8859 0c8d 22       		.byte	0x22
 8860 0c8e 35       		.byte	0x35
 8861 0c8f 1C       		.byte	0x1c
 8862 0c90 9F       		.byte	0x9f
 8863 0c91 AE000000 		.4byte	.LVL199
 8864 0c95 C6000000 		.4byte	.LVL201
 8865 0c99 1C00     		.2byte	0x1c
 8866 0c9b 91       		.byte	0x91
 8867 0c9c 04       		.sleb128 4
 8868 0c9d 94       		.byte	0x94
 8869 0c9e 01       		.byte	0x1
 8870 0c9f 08       		.byte	0x8
 8871 0ca0 FF       		.byte	0xff
 8872 0ca1 1A       		.byte	0x1a
 8873 0ca2 09       		.byte	0x9
 8874 0ca3 EF       		.byte	0xef
 8875 0ca4 1E       		.byte	0x1e
 8876 0ca5 91       		.byte	0x91
 8877 0ca6 00       		.sleb128 0
 8878 0ca7 94       		.byte	0x94
 8879 0ca8 02       		.byte	0x2
 8880 0ca9 0A       		.byte	0xa
 8881 0caa FFFF     		.2byte	0xffff
ARM GAS  C:\Users\leoja\AppData\Local\Temp\ccM6wJLr.s 			page 176


 8882 0cac 1A       		.byte	0x1a
 8883 0cad 91       		.byte	0x91
 8884 0cae 5C       		.sleb128 -36
 8885 0caf 06       		.byte	0x6
 8886 0cb0 22       		.byte	0x22
 8887 0cb1 31       		.byte	0x31
 8888 0cb2 26       		.byte	0x26
 8889 0cb3 22       		.byte	0x22
 8890 0cb4 35       		.byte	0x35
 8891 0cb5 1C       		.byte	0x1c
 8892 0cb6 9F       		.byte	0x9f
 8893 0cb7 C6000000 		.4byte	.LVL201
 8894 0cbb EC000000 		.4byte	.LVL203
 8895 0cbf 1600     		.2byte	0x16
 8896 0cc1 91       		.byte	0x91
 8897 0cc2 04       		.sleb128 4
 8898 0cc3 94       		.byte	0x94
 8899 0cc4 01       		.byte	0x1
 8900 0cc5 08       		.byte	0x8
 8901 0cc6 FF       		.byte	0xff
 8902 0cc7 1A       		.byte	0x1a
 8903 0cc8 09       		.byte	0x9
 8904 0cc9 EF       		.byte	0xef
 8905 0cca 1E       		.byte	0x1e
 8906 0ccb 91       		.byte	0x91
 8907 0ccc 5C       		.sleb128 -36
 8908 0ccd 06       		.byte	0x6
 8909 0cce 74       		.byte	0x74
 8910 0ccf 00       		.sleb128 0
 8911 0cd0 22       		.byte	0x22
 8912 0cd1 31       		.byte	0x31
 8913 0cd2 26       		.byte	0x26
 8914 0cd3 22       		.byte	0x22
 8915 0cd4 35       		.byte	0x35
 8916 0cd5 1C       		.byte	0x1c
 8917 0cd6 9F       		.byte	0x9f
 8918 0cd7 EC000000 		.4byte	.LVL203
 8919 0cdb 04010000 		.4byte	.LVL205
 8920 0cdf 1C00     		.2byte	0x1c
 8921 0ce1 91       		.byte	0x91
 8922 0ce2 04       		.sleb128 4
 8923 0ce3 94       		.byte	0x94
 8924 0ce4 01       		.byte	0x1
 8925 0ce5 08       		.byte	0x8
 8926 0ce6 FF       		.byte	0xff
 8927 0ce7 1A       		.byte	0x1a
 8928 0ce8 09       		.byte	0x9
 8929 0ce9 EF       		.byte	0xef
 8930 0cea 1E       		.byte	0x1e
 8931 0ceb 91       		.byte	0x91
 8932 0cec 00       		.sleb128 0
 8933 0ced 94       		.byte	0x94
 8934 0cee 02       		.byte	0x2
 8935 0cef 0A       		.byte	0xa
 8936 0cf0 FFFF     		.2byte	0xffff
 8937 0cf2 1A       		.byte	0x1a
 8938 0cf3 91       		.byte	0x91
ARM GAS  C:\Users\leoja\AppData\Local\Temp\ccM6wJLr.s 			page 177


 8939 0cf4 5C       		.sleb128 -36
 8940 0cf5 06       		.byte	0x6
 8941 0cf6 22       		.byte	0x22
 8942 0cf7 31       		.byte	0x31
 8943 0cf8 26       		.byte	0x26
 8944 0cf9 22       		.byte	0x22
 8945 0cfa 35       		.byte	0x35
 8946 0cfb 1C       		.byte	0x1c
 8947 0cfc 9F       		.byte	0x9f
 8948 0cfd 04010000 		.4byte	.LVL205
 8949 0d01 2A010000 		.4byte	.LVL207
 8950 0d05 1600     		.2byte	0x16
 8951 0d07 91       		.byte	0x91
 8952 0d08 04       		.sleb128 4
 8953 0d09 94       		.byte	0x94
 8954 0d0a 01       		.byte	0x1
 8955 0d0b 08       		.byte	0x8
 8956 0d0c FF       		.byte	0xff
 8957 0d0d 1A       		.byte	0x1a
 8958 0d0e 09       		.byte	0x9
 8959 0d0f EF       		.byte	0xef
 8960 0d10 1E       		.byte	0x1e
 8961 0d11 91       		.byte	0x91
 8962 0d12 5C       		.sleb128 -36
 8963 0d13 06       		.byte	0x6
 8964 0d14 74       		.byte	0x74
 8965 0d15 00       		.sleb128 0
 8966 0d16 22       		.byte	0x22
 8967 0d17 31       		.byte	0x31
 8968 0d18 26       		.byte	0x26
 8969 0d19 22       		.byte	0x22
 8970 0d1a 35       		.byte	0x35
 8971 0d1b 1C       		.byte	0x1c
 8972 0d1c 9F       		.byte	0x9f
 8973 0d1d 2A010000 		.4byte	.LVL207
 8974 0d21 42010000 		.4byte	.LVL209
 8975 0d25 1C00     		.2byte	0x1c
 8976 0d27 91       		.byte	0x91
 8977 0d28 04       		.sleb128 4
 8978 0d29 94       		.byte	0x94
 8979 0d2a 01       		.byte	0x1
 8980 0d2b 08       		.byte	0x8
 8981 0d2c FF       		.byte	0xff
 8982 0d2d 1A       		.byte	0x1a
 8983 0d2e 09       		.byte	0x9
 8984 0d2f EF       		.byte	0xef
 8985 0d30 1E       		.byte	0x1e
 8986 0d31 91       		.byte	0x91
 8987 0d32 00       		.sleb128 0
 8988 0d33 94       		.byte	0x94
 8989 0d34 02       		.byte	0x2
 8990 0d35 0A       		.byte	0xa
 8991 0d36 FFFF     		.2byte	0xffff
 8992 0d38 1A       		.byte	0x1a
 8993 0d39 91       		.byte	0x91
 8994 0d3a 5C       		.sleb128 -36
 8995 0d3b 06       		.byte	0x6
ARM GAS  C:\Users\leoja\AppData\Local\Temp\ccM6wJLr.s 			page 178


 8996 0d3c 22       		.byte	0x22
 8997 0d3d 31       		.byte	0x31
 8998 0d3e 26       		.byte	0x26
 8999 0d3f 22       		.byte	0x22
 9000 0d40 35       		.byte	0x35
 9001 0d41 1C       		.byte	0x1c
 9002 0d42 9F       		.byte	0x9f
 9003 0d43 42010000 		.4byte	.LVL209
 9004 0d47 68010000 		.4byte	.LVL211
 9005 0d4b 1600     		.2byte	0x16
 9006 0d4d 91       		.byte	0x91
 9007 0d4e 04       		.sleb128 4
 9008 0d4f 94       		.byte	0x94
 9009 0d50 01       		.byte	0x1
 9010 0d51 08       		.byte	0x8
 9011 0d52 FF       		.byte	0xff
 9012 0d53 1A       		.byte	0x1a
 9013 0d54 09       		.byte	0x9
 9014 0d55 EF       		.byte	0xef
 9015 0d56 1E       		.byte	0x1e
 9016 0d57 91       		.byte	0x91
 9017 0d58 5C       		.sleb128 -36
 9018 0d59 06       		.byte	0x6
 9019 0d5a 74       		.byte	0x74
 9020 0d5b 00       		.sleb128 0
 9021 0d5c 22       		.byte	0x22
 9022 0d5d 31       		.byte	0x31
 9023 0d5e 26       		.byte	0x26
 9024 0d5f 22       		.byte	0x22
 9025 0d60 35       		.byte	0x35
 9026 0d61 1C       		.byte	0x1c
 9027 0d62 9F       		.byte	0x9f
 9028 0d63 68010000 		.4byte	.LVL211
 9029 0d67 80010000 		.4byte	.LVL213
 9030 0d6b 1C00     		.2byte	0x1c
 9031 0d6d 91       		.byte	0x91
 9032 0d6e 04       		.sleb128 4
 9033 0d6f 94       		.byte	0x94
 9034 0d70 01       		.byte	0x1
 9035 0d71 08       		.byte	0x8
 9036 0d72 FF       		.byte	0xff
 9037 0d73 1A       		.byte	0x1a
 9038 0d74 09       		.byte	0x9
 9039 0d75 EF       		.byte	0xef
 9040 0d76 1E       		.byte	0x1e
 9041 0d77 91       		.byte	0x91
 9042 0d78 00       		.sleb128 0
 9043 0d79 94       		.byte	0x94
 9044 0d7a 02       		.byte	0x2
 9045 0d7b 0A       		.byte	0xa
 9046 0d7c FFFF     		.2byte	0xffff
 9047 0d7e 1A       		.byte	0x1a
 9048 0d7f 91       		.byte	0x91
 9049 0d80 5C       		.sleb128 -36
 9050 0d81 06       		.byte	0x6
 9051 0d82 22       		.byte	0x22
 9052 0d83 31       		.byte	0x31
ARM GAS  C:\Users\leoja\AppData\Local\Temp\ccM6wJLr.s 			page 179


 9053 0d84 26       		.byte	0x26
 9054 0d85 22       		.byte	0x22
 9055 0d86 35       		.byte	0x35
 9056 0d87 1C       		.byte	0x1c
 9057 0d88 9F       		.byte	0x9f
 9058 0d89 80010000 		.4byte	.LVL213
 9059 0d8d A6010000 		.4byte	.LVL215
 9060 0d91 1600     		.2byte	0x16
 9061 0d93 91       		.byte	0x91
 9062 0d94 04       		.sleb128 4
 9063 0d95 94       		.byte	0x94
 9064 0d96 01       		.byte	0x1
 9065 0d97 08       		.byte	0x8
 9066 0d98 FF       		.byte	0xff
 9067 0d99 1A       		.byte	0x1a
 9068 0d9a 09       		.byte	0x9
 9069 0d9b EF       		.byte	0xef
 9070 0d9c 1E       		.byte	0x1e
 9071 0d9d 91       		.byte	0x91
 9072 0d9e 5C       		.sleb128 -36
 9073 0d9f 06       		.byte	0x6
 9074 0da0 74       		.byte	0x74
 9075 0da1 00       		.sleb128 0
 9076 0da2 22       		.byte	0x22
 9077 0da3 31       		.byte	0x31
 9078 0da4 26       		.byte	0x26
 9079 0da5 22       		.byte	0x22
 9080 0da6 35       		.byte	0x35
 9081 0da7 1C       		.byte	0x1c
 9082 0da8 9F       		.byte	0x9f
 9083 0da9 A6010000 		.4byte	.LVL215
 9084 0dad BE010000 		.4byte	.LVL217
 9085 0db1 1C00     		.2byte	0x1c
 9086 0db3 91       		.byte	0x91
 9087 0db4 04       		.sleb128 4
 9088 0db5 94       		.byte	0x94
 9089 0db6 01       		.byte	0x1
 9090 0db7 08       		.byte	0x8
 9091 0db8 FF       		.byte	0xff
 9092 0db9 1A       		.byte	0x1a
 9093 0dba 09       		.byte	0x9
 9094 0dbb EF       		.byte	0xef
 9095 0dbc 1E       		.byte	0x1e
 9096 0dbd 91       		.byte	0x91
 9097 0dbe 00       		.sleb128 0
 9098 0dbf 94       		.byte	0x94
 9099 0dc0 02       		.byte	0x2
 9100 0dc1 0A       		.byte	0xa
 9101 0dc2 FFFF     		.2byte	0xffff
 9102 0dc4 1A       		.byte	0x1a
 9103 0dc5 91       		.byte	0x91
 9104 0dc6 5C       		.sleb128 -36
 9105 0dc7 06       		.byte	0x6
 9106 0dc8 22       		.byte	0x22
 9107 0dc9 31       		.byte	0x31
 9108 0dca 26       		.byte	0x26
 9109 0dcb 22       		.byte	0x22
ARM GAS  C:\Users\leoja\AppData\Local\Temp\ccM6wJLr.s 			page 180


 9110 0dcc 35       		.byte	0x35
 9111 0dcd 1C       		.byte	0x1c
 9112 0dce 9F       		.byte	0x9f
 9113 0dcf BE010000 		.4byte	.LVL217
 9114 0dd3 DE010000 		.4byte	.LVL218
 9115 0dd7 1600     		.2byte	0x16
 9116 0dd9 91       		.byte	0x91
 9117 0dda 04       		.sleb128 4
 9118 0ddb 94       		.byte	0x94
 9119 0ddc 01       		.byte	0x1
 9120 0ddd 08       		.byte	0x8
 9121 0dde FF       		.byte	0xff
 9122 0ddf 1A       		.byte	0x1a
 9123 0de0 09       		.byte	0x9
 9124 0de1 EF       		.byte	0xef
 9125 0de2 1E       		.byte	0x1e
 9126 0de3 91       		.byte	0x91
 9127 0de4 5C       		.sleb128 -36
 9128 0de5 06       		.byte	0x6
 9129 0de6 74       		.byte	0x74
 9130 0de7 00       		.sleb128 0
 9131 0de8 22       		.byte	0x22
 9132 0de9 31       		.byte	0x31
 9133 0dea 26       		.byte	0x26
 9134 0deb 22       		.byte	0x22
 9135 0dec 35       		.byte	0x35
 9136 0ded 1C       		.byte	0x1c
 9137 0dee 9F       		.byte	0x9f
 9138 0def DE010000 		.4byte	.LVL218
 9139 0df3 30020000 		.4byte	.LFE46
 9140 0df7 1C00     		.2byte	0x1c
 9141 0df9 91       		.byte	0x91
 9142 0dfa 04       		.sleb128 4
 9143 0dfb 94       		.byte	0x94
 9144 0dfc 01       		.byte	0x1
 9145 0dfd 08       		.byte	0x8
 9146 0dfe FF       		.byte	0xff
 9147 0dff 1A       		.byte	0x1a
 9148 0e00 09       		.byte	0x9
 9149 0e01 EF       		.byte	0xef
 9150 0e02 1E       		.byte	0x1e
 9151 0e03 91       		.byte	0x91
 9152 0e04 00       		.sleb128 0
 9153 0e05 94       		.byte	0x94
 9154 0e06 02       		.byte	0x2
 9155 0e07 0A       		.byte	0xa
 9156 0e08 FFFF     		.2byte	0xffff
 9157 0e0a 1A       		.byte	0x1a
 9158 0e0b 91       		.byte	0x91
 9159 0e0c 5C       		.sleb128 -36
 9160 0e0d 06       		.byte	0x6
 9161 0e0e 22       		.byte	0x22
 9162 0e0f 31       		.byte	0x31
 9163 0e10 26       		.byte	0x26
 9164 0e11 22       		.byte	0x22
 9165 0e12 35       		.byte	0x35
 9166 0e13 1C       		.byte	0x1c
ARM GAS  C:\Users\leoja\AppData\Local\Temp\ccM6wJLr.s 			page 181


 9167 0e14 9F       		.byte	0x9f
 9168 0e15 00000000 		.4byte	0
 9169 0e19 00000000 		.4byte	0
 9170              	.LLST75:
 9171 0e1d 16000000 		.4byte	.LVL184
 9172 0e21 1C000000 		.4byte	.LVL185
 9173 0e25 0700     		.2byte	0x7
 9174 0e27 72       		.byte	0x72
 9175 0e28 00       		.sleb128 0
 9176 0e29 44       		.byte	0x44
 9177 0e2a 1E       		.byte	0x1e
 9178 0e2b 23       		.byte	0x23
 9179 0e2c 0C       		.uleb128 0xc
 9180 0e2d 9F       		.byte	0x9f
 9181 0e2e 1C000000 		.4byte	.LVL185
 9182 0e32 1E000000 		.4byte	.LVL186
 9183 0e36 0100     		.2byte	0x1
 9184 0e38 56       		.byte	0x56
 9185 0e39 1E000000 		.4byte	.LVL186
 9186 0e3d 43000000 		.4byte	.LVL191-1
 9187 0e41 0700     		.2byte	0x7
 9188 0e43 72       		.byte	0x72
 9189 0e44 00       		.sleb128 0
 9190 0e45 44       		.byte	0x44
 9191 0e46 1E       		.byte	0x1e
 9192 0e47 23       		.byte	0x23
 9193 0e48 0C       		.uleb128 0xc
 9194 0e49 9F       		.byte	0x9f
 9195 0e4a 43000000 		.4byte	.LVL191-1
 9196 0e4e 30020000 		.4byte	.LFE46
 9197 0e52 0C00     		.2byte	0xc
 9198 0e54 91       		.byte	0x91
 9199 0e55 04       		.sleb128 4
 9200 0e56 94       		.byte	0x94
 9201 0e57 01       		.byte	0x1
 9202 0e58 08       		.byte	0x8
 9203 0e59 FF       		.byte	0xff
 9204 0e5a 1A       		.byte	0x1a
 9205 0e5b 44       		.byte	0x44
 9206 0e5c 1E       		.byte	0x1e
 9207 0e5d 23       		.byte	0x23
 9208 0e5e 0C       		.uleb128 0xc
 9209 0e5f 9F       		.byte	0x9f
 9210 0e60 00000000 		.4byte	0
 9211 0e64 00000000 		.4byte	0
 9212              	.LLST76:
 9213 0e68 50000000 		.4byte	.LVL194
 9214 0e6c 88000000 		.4byte	.LVL197
 9215 0e70 0500     		.2byte	0x5
 9216 0e72 08       		.byte	0x8
 9217 0e73 FF       		.byte	0xff
 9218 0e74 40       		.byte	0x40
 9219 0e75 24       		.byte	0x24
 9220 0e76 9F       		.byte	0x9f
 9221 0e77 8E000000 		.4byte	.LVL198
 9222 0e7b C6000000 		.4byte	.LVL201
 9223 0e7f 0500     		.2byte	0x5
ARM GAS  C:\Users\leoja\AppData\Local\Temp\ccM6wJLr.s 			page 182


 9224 0e81 08       		.byte	0x8
 9225 0e82 FF       		.byte	0xff
 9226 0e83 40       		.byte	0x40
 9227 0e84 24       		.byte	0x24
 9228 0e85 9F       		.byte	0x9f
 9229 0e86 CC000000 		.4byte	.LVL202
 9230 0e8a 04010000 		.4byte	.LVL205
 9231 0e8e 0500     		.2byte	0x5
 9232 0e90 08       		.byte	0x8
 9233 0e91 FF       		.byte	0xff
 9234 0e92 40       		.byte	0x40
 9235 0e93 24       		.byte	0x24
 9236 0e94 9F       		.byte	0x9f
 9237 0e95 0A010000 		.4byte	.LVL206
 9238 0e99 42010000 		.4byte	.LVL209
 9239 0e9d 0500     		.2byte	0x5
 9240 0e9f 08       		.byte	0x8
 9241 0ea0 FF       		.byte	0xff
 9242 0ea1 40       		.byte	0x40
 9243 0ea2 24       		.byte	0x24
 9244 0ea3 9F       		.byte	0x9f
 9245 0ea4 48010000 		.4byte	.LVL210
 9246 0ea8 80010000 		.4byte	.LVL213
 9247 0eac 0500     		.2byte	0x5
 9248 0eae 08       		.byte	0x8
 9249 0eaf FF       		.byte	0xff
 9250 0eb0 40       		.byte	0x40
 9251 0eb1 24       		.byte	0x24
 9252 0eb2 9F       		.byte	0x9f
 9253 0eb3 86010000 		.4byte	.LVL214
 9254 0eb7 BE010000 		.4byte	.LVL217
 9255 0ebb 0500     		.2byte	0x5
 9256 0ebd 08       		.byte	0x8
 9257 0ebe FF       		.byte	0xff
 9258 0ebf 40       		.byte	0x40
 9259 0ec0 24       		.byte	0x24
 9260 0ec1 9F       		.byte	0x9f
 9261 0ec2 BE010000 		.4byte	.LVL217
 9262 0ec6 F4010000 		.4byte	.LVL220
 9263 0eca 0400     		.2byte	0x4
 9264 0ecc 0A       		.byte	0xa
 9265 0ecd 00FF     		.2byte	0xff00
 9266 0ecf 9F       		.byte	0x9f
 9267 0ed0 00000000 		.4byte	0
 9268 0ed4 00000000 		.4byte	0
 9269              	.LLST77:
 9270 0ed8 00000000 		.4byte	.LVL223
 9271 0edc 20000000 		.4byte	.LVL231
 9272 0ee0 0100     		.2byte	0x1
 9273 0ee2 50       		.byte	0x50
 9274 0ee3 20000000 		.4byte	.LVL231
 9275 0ee7 8C000000 		.4byte	.LFE47
 9276 0eeb 0400     		.2byte	0x4
 9277 0eed F3       		.byte	0xf3
 9278 0eee 01       		.uleb128 0x1
 9279 0eef 50       		.byte	0x50
 9280 0ef0 9F       		.byte	0x9f
ARM GAS  C:\Users\leoja\AppData\Local\Temp\ccM6wJLr.s 			page 183


 9281 0ef1 00000000 		.4byte	0
 9282 0ef5 00000000 		.4byte	0
 9283              	.LLST78:
 9284 0ef9 00000000 		.4byte	.LVL223
 9285 0efd 16000000 		.4byte	.LVL228
 9286 0f01 0100     		.2byte	0x1
 9287 0f03 51       		.byte	0x51
 9288 0f04 16000000 		.4byte	.LVL228
 9289 0f08 8C000000 		.4byte	.LFE47
 9290 0f0c 0400     		.2byte	0x4
 9291 0f0e F3       		.byte	0xf3
 9292 0f0f 01       		.uleb128 0x1
 9293 0f10 51       		.byte	0x51
 9294 0f11 9F       		.byte	0x9f
 9295 0f12 00000000 		.4byte	0
 9296 0f16 00000000 		.4byte	0
 9297              	.LLST79:
 9298 0f1a 00000000 		.4byte	.LVL223
 9299 0f1e 10000000 		.4byte	.LVL226
 9300 0f22 0100     		.2byte	0x1
 9301 0f24 52       		.byte	0x52
 9302 0f25 10000000 		.4byte	.LVL226
 9303 0f29 8C000000 		.4byte	.LFE47
 9304 0f2d 0400     		.2byte	0x4
 9305 0f2f F3       		.byte	0xf3
 9306 0f30 01       		.uleb128 0x1
 9307 0f31 52       		.byte	0x52
 9308 0f32 9F       		.byte	0x9f
 9309 0f33 00000000 		.4byte	0
 9310 0f37 00000000 		.4byte	0
 9311              	.LLST80:
 9312 0f3b 00000000 		.4byte	.LVL223
 9313 0f3f 08000000 		.4byte	.LVL224
 9314 0f43 0100     		.2byte	0x1
 9315 0f45 53       		.byte	0x53
 9316 0f46 08000000 		.4byte	.LVL224
 9317 0f4a 8C000000 		.4byte	.LFE47
 9318 0f4e 0400     		.2byte	0x4
 9319 0f50 F3       		.byte	0xf3
 9320 0f51 01       		.uleb128 0x1
 9321 0f52 53       		.byte	0x53
 9322 0f53 9F       		.byte	0x9f
 9323 0f54 00000000 		.4byte	0
 9324 0f58 00000000 		.4byte	0
 9325              	.LLST81:
 9326 0f5c 00000000 		.4byte	.LVL223
 9327 0f60 08000000 		.4byte	.LVL224
 9328 0f64 0200     		.2byte	0x2
 9329 0f66 91       		.byte	0x91
 9330 0f67 00       		.sleb128 0
 9331 0f68 08000000 		.4byte	.LVL224
 9332 0f6c 0C000000 		.4byte	.LVL225
 9333 0f70 0200     		.2byte	0x2
 9334 0f72 73       		.byte	0x73
 9335 0f73 00       		.sleb128 0
 9336 0f74 0C000000 		.4byte	.LVL225
 9337 0f78 8C000000 		.4byte	.LFE47
ARM GAS  C:\Users\leoja\AppData\Local\Temp\ccM6wJLr.s 			page 184


 9338 0f7c 0200     		.2byte	0x2
 9339 0f7e 91       		.byte	0x91
 9340 0f7f 00       		.sleb128 0
 9341 0f80 00000000 		.4byte	0
 9342 0f84 00000000 		.4byte	0
 9343              	.LLST82:
 9344 0f88 00000000 		.4byte	.LVL223
 9345 0f8c 08000000 		.4byte	.LVL224
 9346 0f90 0200     		.2byte	0x2
 9347 0f92 91       		.byte	0x91
 9348 0f93 04       		.sleb128 4
 9349 0f94 08000000 		.4byte	.LVL224
 9350 0f98 0C000000 		.4byte	.LVL225
 9351 0f9c 0200     		.2byte	0x2
 9352 0f9e 73       		.byte	0x73
 9353 0f9f 04       		.sleb128 4
 9354 0fa0 0C000000 		.4byte	.LVL225
 9355 0fa4 12000000 		.4byte	.LVL227
 9356 0fa8 0200     		.2byte	0x2
 9357 0faa 73       		.byte	0x73
 9358 0fab 00       		.sleb128 0
 9359 0fac 12000000 		.4byte	.LVL227
 9360 0fb0 8C000000 		.4byte	.LFE47
 9361 0fb4 0200     		.2byte	0x2
 9362 0fb6 91       		.byte	0x91
 9363 0fb7 04       		.sleb128 4
 9364 0fb8 00000000 		.4byte	0
 9365 0fbc 00000000 		.4byte	0
 9366              	.LLST83:
 9367 0fc0 2C000000 		.4byte	.LVL232
 9368 0fc4 2E000000 		.4byte	.LVL233
 9369 0fc8 0100     		.2byte	0x1
 9370 0fca 53       		.byte	0x53
 9371 0fcb 2E000000 		.4byte	.LVL233
 9372 0fcf 8C000000 		.4byte	.LFE47
 9373 0fd3 0200     		.2byte	0x2
 9374 0fd5 91       		.byte	0x91
 9375 0fd6 4C       		.sleb128 -52
 9376 0fd7 00000000 		.4byte	0
 9377 0fdb 00000000 		.4byte	0
 9378              	.LLST84:
 9379 0fdf 36000000 		.4byte	.LVL234
 9380 0fe3 3F000000 		.4byte	.LVL235-1
 9381 0fe7 0100     		.2byte	0x1
 9382 0fe9 53       		.byte	0x53
 9383 0fea 3F000000 		.4byte	.LVL235-1
 9384 0fee 8C000000 		.4byte	.LFE47
 9385 0ff2 0200     		.2byte	0x2
 9386 0ff4 91       		.byte	0x91
 9387 0ff5 50       		.sleb128 -48
 9388 0ff6 00000000 		.4byte	0
 9389 0ffa 00000000 		.4byte	0
 9390              	.LLST85:
 9391 0ffe 10000000 		.4byte	.LVL226
 9392 1002 1A000000 		.4byte	.LVL229
 9393 1006 0700     		.2byte	0x7
 9394 1008 72       		.byte	0x72
ARM GAS  C:\Users\leoja\AppData\Local\Temp\ccM6wJLr.s 			page 185


 9395 1009 00       		.sleb128 0
 9396 100a 44       		.byte	0x44
 9397 100b 1E       		.byte	0x1e
 9398 100c 23       		.byte	0x23
 9399 100d 0C       		.uleb128 0xc
 9400 100e 9F       		.byte	0x9f
 9401 100f 1A000000 		.4byte	.LVL229
 9402 1013 1C000000 		.4byte	.LVL230
 9403 1017 0100     		.2byte	0x1
 9404 1019 53       		.byte	0x53
 9405 101a 1C000000 		.4byte	.LVL230
 9406 101e 3F000000 		.4byte	.LVL235-1
 9407 1022 0700     		.2byte	0x7
 9408 1024 72       		.byte	0x72
 9409 1025 00       		.sleb128 0
 9410 1026 44       		.byte	0x44
 9411 1027 1E       		.byte	0x1e
 9412 1028 23       		.byte	0x23
 9413 1029 0C       		.uleb128 0xc
 9414 102a 9F       		.byte	0x9f
 9415 102b 3F000000 		.4byte	.LVL235-1
 9416 102f 8C000000 		.4byte	.LFE47
 9417 1033 0C00     		.2byte	0xc
 9418 1035 91       		.byte	0x91
 9419 1036 04       		.sleb128 4
 9420 1037 94       		.byte	0x94
 9421 1038 01       		.byte	0x1
 9422 1039 08       		.byte	0x8
 9423 103a FF       		.byte	0xff
 9424 103b 1A       		.byte	0x1a
 9425 103c 44       		.byte	0x44
 9426 103d 1E       		.byte	0x1e
 9427 103e 23       		.byte	0x23
 9428 103f 0C       		.uleb128 0xc
 9429 1040 9F       		.byte	0x9f
 9430 1041 00000000 		.4byte	0
 9431 1045 00000000 		.4byte	0
 9432              	.LLST86:
 9433 1049 00000000 		.4byte	.LVL240
 9434 104d 20000000 		.4byte	.LVL248
 9435 1051 0100     		.2byte	0x1
 9436 1053 50       		.byte	0x50
 9437 1054 20000000 		.4byte	.LVL248
 9438 1058 9C000000 		.4byte	.LFE48
 9439 105c 0200     		.2byte	0x2
 9440 105e 91       		.byte	0x91
 9441 105f 54       		.sleb128 -44
 9442 1060 00000000 		.4byte	0
 9443 1064 00000000 		.4byte	0
 9444              	.LLST87:
 9445 1068 00000000 		.4byte	.LVL240
 9446 106c 16000000 		.4byte	.LVL245
 9447 1070 0100     		.2byte	0x1
 9448 1072 51       		.byte	0x51
 9449 1073 16000000 		.4byte	.LVL245
 9450 1077 9C000000 		.4byte	.LFE48
 9451 107b 0400     		.2byte	0x4
ARM GAS  C:\Users\leoja\AppData\Local\Temp\ccM6wJLr.s 			page 186


 9452 107d F3       		.byte	0xf3
 9453 107e 01       		.uleb128 0x1
 9454 107f 51       		.byte	0x51
 9455 1080 9F       		.byte	0x9f
 9456 1081 00000000 		.4byte	0
 9457 1085 00000000 		.4byte	0
 9458              	.LLST88:
 9459 1089 00000000 		.4byte	.LVL240
 9460 108d 10000000 		.4byte	.LVL243
 9461 1091 0100     		.2byte	0x1
 9462 1093 52       		.byte	0x52
 9463 1094 10000000 		.4byte	.LVL243
 9464 1098 9C000000 		.4byte	.LFE48
 9465 109c 0400     		.2byte	0x4
 9466 109e F3       		.byte	0xf3
 9467 109f 01       		.uleb128 0x1
 9468 10a0 52       		.byte	0x52
 9469 10a1 9F       		.byte	0x9f
 9470 10a2 00000000 		.4byte	0
 9471 10a6 00000000 		.4byte	0
 9472              	.LLST89:
 9473 10aa 00000000 		.4byte	.LVL240
 9474 10ae 08000000 		.4byte	.LVL241
 9475 10b2 0100     		.2byte	0x1
 9476 10b4 53       		.byte	0x53
 9477 10b5 08000000 		.4byte	.LVL241
 9478 10b9 9C000000 		.4byte	.LFE48
 9479 10bd 0400     		.2byte	0x4
 9480 10bf F3       		.byte	0xf3
 9481 10c0 01       		.uleb128 0x1
 9482 10c1 53       		.byte	0x53
 9483 10c2 9F       		.byte	0x9f
 9484 10c3 00000000 		.4byte	0
 9485 10c7 00000000 		.4byte	0
 9486              	.LLST90:
 9487 10cb 00000000 		.4byte	.LVL240
 9488 10cf 08000000 		.4byte	.LVL241
 9489 10d3 0200     		.2byte	0x2
 9490 10d5 91       		.byte	0x91
 9491 10d6 00       		.sleb128 0
 9492 10d7 08000000 		.4byte	.LVL241
 9493 10db 0C000000 		.4byte	.LVL242
 9494 10df 0200     		.2byte	0x2
 9495 10e1 73       		.byte	0x73
 9496 10e2 00       		.sleb128 0
 9497 10e3 0C000000 		.4byte	.LVL242
 9498 10e7 9C000000 		.4byte	.LFE48
 9499 10eb 0200     		.2byte	0x2
 9500 10ed 91       		.byte	0x91
 9501 10ee 00       		.sleb128 0
 9502 10ef 00000000 		.4byte	0
 9503 10f3 00000000 		.4byte	0
 9504              	.LLST91:
 9505 10f7 00000000 		.4byte	.LVL240
 9506 10fb 08000000 		.4byte	.LVL241
 9507 10ff 0200     		.2byte	0x2
 9508 1101 91       		.byte	0x91
ARM GAS  C:\Users\leoja\AppData\Local\Temp\ccM6wJLr.s 			page 187


 9509 1102 04       		.sleb128 4
 9510 1103 08000000 		.4byte	.LVL241
 9511 1107 0C000000 		.4byte	.LVL242
 9512 110b 0200     		.2byte	0x2
 9513 110d 73       		.byte	0x73
 9514 110e 04       		.sleb128 4
 9515 110f 0C000000 		.4byte	.LVL242
 9516 1113 12000000 		.4byte	.LVL244
 9517 1117 0200     		.2byte	0x2
 9518 1119 73       		.byte	0x73
 9519 111a 00       		.sleb128 0
 9520 111b 12000000 		.4byte	.LVL244
 9521 111f 9C000000 		.4byte	.LFE48
 9522 1123 0200     		.2byte	0x2
 9523 1125 91       		.byte	0x91
 9524 1126 04       		.sleb128 4
 9525 1127 00000000 		.4byte	0
 9526 112b 00000000 		.4byte	0
 9527              	.LLST92:
 9528 112f 2C000000 		.4byte	.LVL249
 9529 1133 2E000000 		.4byte	.LVL250
 9530 1137 0100     		.2byte	0x1
 9531 1139 53       		.byte	0x53
 9532 113a 2E000000 		.4byte	.LVL250
 9533 113e 9C000000 		.4byte	.LFE48
 9534 1142 0200     		.2byte	0x2
 9535 1144 91       		.byte	0x91
 9536 1145 4C       		.sleb128 -52
 9537 1146 00000000 		.4byte	0
 9538 114a 00000000 		.4byte	0
 9539              	.LLST93:
 9540 114e 36000000 		.4byte	.LVL251
 9541 1152 3F000000 		.4byte	.LVL252-1
 9542 1156 0100     		.2byte	0x1
 9543 1158 53       		.byte	0x53
 9544 1159 3F000000 		.4byte	.LVL252-1
 9545 115d 9C000000 		.4byte	.LFE48
 9546 1161 0200     		.2byte	0x2
 9547 1163 91       		.byte	0x91
 9548 1164 50       		.sleb128 -48
 9549 1165 00000000 		.4byte	0
 9550 1169 00000000 		.4byte	0
 9551              	.LLST94:
 9552 116d 10000000 		.4byte	.LVL243
 9553 1171 1A000000 		.4byte	.LVL246
 9554 1175 0700     		.2byte	0x7
 9555 1177 72       		.byte	0x72
 9556 1178 00       		.sleb128 0
 9557 1179 44       		.byte	0x44
 9558 117a 1E       		.byte	0x1e
 9559 117b 23       		.byte	0x23
 9560 117c 0C       		.uleb128 0xc
 9561 117d 9F       		.byte	0x9f
 9562 117e 1A000000 		.4byte	.LVL246
 9563 1182 1C000000 		.4byte	.LVL247
 9564 1186 0100     		.2byte	0x1
 9565 1188 53       		.byte	0x53
ARM GAS  C:\Users\leoja\AppData\Local\Temp\ccM6wJLr.s 			page 188


 9566 1189 1C000000 		.4byte	.LVL247
 9567 118d 3F000000 		.4byte	.LVL252-1
 9568 1191 0700     		.2byte	0x7
 9569 1193 72       		.byte	0x72
 9570 1194 00       		.sleb128 0
 9571 1195 44       		.byte	0x44
 9572 1196 1E       		.byte	0x1e
 9573 1197 23       		.byte	0x23
 9574 1198 0C       		.uleb128 0xc
 9575 1199 9F       		.byte	0x9f
 9576 119a 3F000000 		.4byte	.LVL252-1
 9577 119e 9C000000 		.4byte	.LFE48
 9578 11a2 0C00     		.2byte	0xc
 9579 11a4 91       		.byte	0x91
 9580 11a5 04       		.sleb128 4
 9581 11a6 94       		.byte	0x94
 9582 11a7 01       		.byte	0x1
 9583 11a8 08       		.byte	0x8
 9584 11a9 FF       		.byte	0xff
 9585 11aa 1A       		.byte	0x1a
 9586 11ab 44       		.byte	0x44
 9587 11ac 1E       		.byte	0x1e
 9588 11ad 23       		.byte	0x23
 9589 11ae 0C       		.uleb128 0xc
 9590 11af 9F       		.byte	0x9f
 9591 11b0 00000000 		.4byte	0
 9592 11b4 00000000 		.4byte	0
 9593              	.LLST95:
 9594 11b8 40000000 		.4byte	.LVL252
 9595 11bc 54000000 		.4byte	.LVL257
 9596 11c0 0200     		.2byte	0x2
 9597 11c2 30       		.byte	0x30
 9598 11c3 9F       		.byte	0x9f
 9599 11c4 54000000 		.4byte	.LVL257
 9600 11c8 5B000000 		.4byte	.LVL258-1
 9601 11cc 0100     		.2byte	0x1
 9602 11ce 53       		.byte	0x53
 9603 11cf 00000000 		.4byte	0
 9604 11d3 00000000 		.4byte	0
 9605              	.LLST96:
 9606 11d7 40000000 		.4byte	.LVL252
 9607 11db 42000000 		.4byte	.LVL253
 9608 11df 0200     		.2byte	0x2
 9609 11e1 30       		.byte	0x30
 9610 11e2 9F       		.byte	0x9f
 9611 11e3 46000000 		.4byte	.LVL254
 9612 11e7 4C000000 		.4byte	.LVL255
 9613 11eb 0100     		.2byte	0x1
 9614 11ed 52       		.byte	0x52
 9615 11ee 4C000000 		.4byte	.LVL255
 9616 11f2 4E000000 		.4byte	.LVL256
 9617 11f6 0300     		.2byte	0x3
 9618 11f8 71       		.byte	0x71
 9619 11f9 01       		.sleb128 1
 9620 11fa 9F       		.byte	0x9f
 9621 11fb 4E000000 		.4byte	.LVL256
 9622 11ff 54000000 		.4byte	.LVL257
ARM GAS  C:\Users\leoja\AppData\Local\Temp\ccM6wJLr.s 			page 189


 9623 1203 0300     		.2byte	0x3
 9624 1205 72       		.byte	0x72
 9625 1206 01       		.sleb128 1
 9626 1207 9F       		.byte	0x9f
 9627 1208 00000000 		.4byte	0
 9628 120c 00000000 		.4byte	0
 9629              		.section	.debug_aranges,"",%progbits
 9630 0000 84000000 		.4byte	0x84
 9631 0004 0200     		.2byte	0x2
 9632 0006 00000000 		.4byte	.Ldebug_info0
 9633 000a 04       		.byte	0x4
 9634 000b 00       		.byte	0
 9635 000c 0000     		.2byte	0
 9636 000e 0000     		.2byte	0
 9637 0010 00000000 		.4byte	.LFB35
 9638 0014 70000000 		.4byte	.LFE35-.LFB35
 9639 0018 00000000 		.4byte	.LFB36
 9640 001c 7C000000 		.4byte	.LFE36-.LFB36
 9641 0020 00000000 		.4byte	.LFB37
 9642 0024 48000000 		.4byte	.LFE37-.LFB37
 9643 0028 00000000 		.4byte	.LFB38
 9644 002c E0000000 		.4byte	.LFE38-.LFB38
 9645 0030 00000000 		.4byte	.LFB39
 9646 0034 0C010000 		.4byte	.LFE39-.LFB39
 9647 0038 00000000 		.4byte	.LFB40
 9648 003c A4030000 		.4byte	.LFE40-.LFB40
 9649 0040 00000000 		.4byte	.LFB41
 9650 0044 24010000 		.4byte	.LFE41-.LFB41
 9651 0048 00000000 		.4byte	.LFB44
 9652 004c C0000000 		.4byte	.LFE44-.LFB44
 9653 0050 00000000 		.4byte	.LFB43
 9654 0054 14000000 		.4byte	.LFE43-.LFB43
 9655 0058 00000000 		.4byte	.LFB45
 9656 005c C4000000 		.4byte	.LFE45-.LFB45
 9657 0060 00000000 		.4byte	.LFB46
 9658 0064 30020000 		.4byte	.LFE46-.LFB46
 9659 0068 00000000 		.4byte	.LFB47
 9660 006c 8C000000 		.4byte	.LFE47-.LFB47
 9661 0070 00000000 		.4byte	.LFB48
 9662 0074 9C000000 		.4byte	.LFE48-.LFB48
 9663 0078 00000000 		.4byte	.LFB49
 9664 007c 3C000000 		.4byte	.LFE49-.LFB49
 9665 0080 00000000 		.4byte	0
 9666 0084 00000000 		.4byte	0
 9667              		.section	.debug_ranges,"",%progbits
 9668              	.Ldebug_ranges0:
 9669 0000 64000000 		.4byte	.LBB3
 9670 0004 66000000 		.4byte	.LBE3
 9671 0008 6A000000 		.4byte	.LBB4
 9672 000c 84000000 		.4byte	.LBE4
 9673 0010 00000000 		.4byte	0
 9674 0014 00000000 		.4byte	0
 9675 0018 00000000 		.4byte	.LFB35
 9676 001c 70000000 		.4byte	.LFE35
 9677 0020 00000000 		.4byte	.LFB36
 9678 0024 7C000000 		.4byte	.LFE36
 9679 0028 00000000 		.4byte	.LFB37
ARM GAS  C:\Users\leoja\AppData\Local\Temp\ccM6wJLr.s 			page 190


 9680 002c 48000000 		.4byte	.LFE37
 9681 0030 00000000 		.4byte	.LFB38
 9682 0034 E0000000 		.4byte	.LFE38
 9683 0038 00000000 		.4byte	.LFB39
 9684 003c 0C010000 		.4byte	.LFE39
 9685 0040 00000000 		.4byte	.LFB40
 9686 0044 A4030000 		.4byte	.LFE40
 9687 0048 00000000 		.4byte	.LFB41
 9688 004c 24010000 		.4byte	.LFE41
 9689 0050 00000000 		.4byte	.LFB44
 9690 0054 C0000000 		.4byte	.LFE44
 9691 0058 00000000 		.4byte	.LFB43
 9692 005c 14000000 		.4byte	.LFE43
 9693 0060 00000000 		.4byte	.LFB45
 9694 0064 C4000000 		.4byte	.LFE45
 9695 0068 00000000 		.4byte	.LFB46
 9696 006c 30020000 		.4byte	.LFE46
 9697 0070 00000000 		.4byte	.LFB47
 9698 0074 8C000000 		.4byte	.LFE47
 9699 0078 00000000 		.4byte	.LFB48
 9700 007c 9C000000 		.4byte	.LFE48
 9701 0080 00000000 		.4byte	.LFB49
 9702 0084 3C000000 		.4byte	.LFE49
 9703 0088 00000000 		.4byte	0
 9704 008c 00000000 		.4byte	0
 9705              		.section	.debug_line,"",%progbits
 9706              	.Ldebug_line0:
 9707 0000 9B040000 		.section	.debug_str,"MS",%progbits,1
 9707      02000F02 
 9707      00000201 
 9707      FB0E0D00 
 9707      01010101 
 9708              	.LASF138:
 9709 0000 43794465 		.ascii	"CyDelay\000"
 9709      6C617900 
 9710              	.LASF113:
 9711 0008 64617461 		.ascii	"data_s\000"
 9711      5F7300
 9712              	.LASF46:
 9713 000f 464F4E54 		.ascii	"FONT_TYPE_8BPP\000"
 9713      5F545950 
 9713      455F3842 
 9713      505000
 9714              	.LASF102:
 9715 001e 6465736B 		.ascii	"desktop_color\000"
 9715      746F705F 
 9715      636F6C6F 
 9715      7200
 9716              	.LASF57:
 9717 002c 746F7563 		.ascii	"touch_state\000"
 9717      685F7374 
 9717      61746500 
 9718              	.LASF71:
 9719 0038 55475F43 		.ascii	"UG_COLOR\000"
 9719      4F4C4F52 
 9719      00
 9720              	.LASF42:
ARM GAS  C:\Users\leoja\AppData\Local\Temp\ccM6wJLr.s 			page 191


 9721 0041 55475F55 		.ascii	"UG_U16\000"
 9721      313600
 9722              	.LASF13:
 9723 0048 756E7369 		.ascii	"unsigned int\000"
 9723      676E6564 
 9723      20696E74 
 9723      00
 9724              	.LASF101:
 9725 0055 63686172 		.ascii	"char_v_space\000"
 9725      5F765F73 
 9725      70616365 
 9725      00
 9726              	.LASF29:
 9727 0062 4E4F4E45 		.ascii	"NONE\000"
 9727      00
 9728              	.LASF89:
 9729 0067 795F656E 		.ascii	"y_end\000"
 9729      6400
 9730              	.LASF99:
 9731 006d 636F6E73 		.ascii	"console\000"
 9731      6F6C6500 
 9732              	.LASF66:
 9733 0075 535F5749 		.ascii	"S_WINDOW\000"
 9733      4E444F57 
 9733      00
 9734              	.LASF34:
 9735 007e 53454E53 		.ascii	"SENSOR_DISCREPANCY\000"
 9735      4F525F44 
 9735      49534352 
 9735      4550414E 
 9735      435900
 9736              	.LASF58:
 9737 0091 75706461 		.ascii	"update\000"
 9737      746500
 9738              	.LASF94:
 9739 0098 795F6469 		.ascii	"y_dim\000"
 9739      6D00
 9740              	.LASF37:
 9741 009e 554E4341 		.ascii	"UNCALIBRATED\000"
 9741      4C494252 
 9741      41544544 
 9741      00
 9742              	.LASF35:
 9743 00ab 4252414B 		.ascii	"BRAKE_IMPLAUSIBLE\000"
 9743      455F494D 
 9743      504C4155 
 9743      5349424C 
 9743      4500
 9744              	.LASF39:
 9745 00bd 4D435F46 		.ascii	"MC_FAULT\000"
 9745      41554C54 
 9745      00
 9746              	.LASF137:
 9747 00c6 55475F46 		.ascii	"UG_FillFrame\000"
 9747      696C6C46 
 9747      72616D65 
 9747      00
ARM GAS  C:\Users\leoja\AppData\Local\Temp\ccM6wJLr.s 			page 192


 9748              	.LASF145:
 9749 00d3 433A5C55 		.ascii	"C:\\Users\\leoja\\Documents\\GitHub\\Dashboard-Firm"
 9749      73657273 
 9749      5C6C656F 
 9749      6A615C44 
 9749      6F63756D 
 9750 0101 77617265 		.ascii	"ware-FE10\\Dashboard-Firmware-FE9\\Dashboard.cydsn\000"
 9750      2D464531 
 9750      305C4461 
 9750      7368626F 
 9750      6172642D 
 9751              	.LASF68:
 9752 0132 6F626A6C 		.ascii	"objlst\000"
 9752      737400
 9753              	.LASF96:
 9754 0139 6E657874 		.ascii	"next_window\000"
 9754      5F77696E 
 9754      646F7700 
 9755              	.LASF70:
 9756 0145 7469746C 		.ascii	"title\000"
 9756      6500
 9757              	.LASF18:
 9758 014b 75696E74 		.ascii	"uint32_t\000"
 9758      33325F74 
 9758      00
 9759              	.LASF14:
 9760 0154 696E7438 		.ascii	"int8_t\000"
 9760      5F7400
 9761              	.LASF44:
 9762 015b 55475F55 		.ascii	"UG_U32\000"
 9762      333200
 9763              	.LASF88:
 9764 0162 785F656E 		.ascii	"x_end\000"
 9764      6400
 9765              	.LASF20:
 9766 0168 666C6F61 		.ascii	"float\000"
 9766      7400
 9767              	.LASF62:
 9768 016e 6576656E 		.ascii	"event\000"
 9768      7400
 9769              	.LASF98:
 9770 0174 6C617374 		.ascii	"last_window\000"
 9770      5F77696E 
 9770      646F7700 
 9771              	.LASF91:
 9772 0180 6261636B 		.ascii	"back_color\000"
 9772      5F636F6C 
 9772      6F7200
 9773              	.LASF27:
 9774 018b 44524956 		.ascii	"DRIVE\000"
 9774      4500
 9775              	.LASF16:
 9776 0191 696E7431 		.ascii	"int16_t\000"
 9776      365F7400 
 9777              	.LASF126:
 9778 0199 464F4E54 		.ascii	"FONT_12X16\000"
 9778      5F313258 
ARM GAS  C:\Users\leoja\AppData\Local\Temp\ccM6wJLr.s 			page 193


 9778      313600
 9779              	.LASF12:
 9780 01a4 6C6F6E67 		.ascii	"long long unsigned int\000"
 9780      206C6F6E 
 9780      6720756E 
 9780      7369676E 
 9780      65642069 
 9781              	.LASF104:
 9782 01bb 63616C69 		.ascii	"calibrateScreen\000"
 9782      62726174 
 9782      65536372 
 9782      65656E00 
 9783              	.LASF6:
 9784 01cb 5F5F7569 		.ascii	"__uint16_t\000"
 9784      6E743136 
 9784      5F7400
 9785              	.LASF97:
 9786 01d6 61637469 		.ascii	"active_window\000"
 9786      76655F77 
 9786      696E646F 
 9786      7700
 9787              	.LASF67:
 9788 01e4 6F626A63 		.ascii	"objcnt\000"
 9788      6E7400
 9789              	.LASF43:
 9790 01eb 55475F53 		.ascii	"UG_S16\000"
 9790      313600
 9791              	.LASF90:
 9792 01f2 666F7265 		.ascii	"fore_color\000"
 9792      5F636F6C 
 9792      6F7200
 9793              	.LASF85:
 9794 01fd 795F706F 		.ascii	"y_pos\000"
 9794      7300
 9795              	.LASF112:
 9796 0203 636F6C6F 		.ascii	"color\000"
 9796      7200
 9797              	.LASF135:
 9798 0209 6C617374 		.ascii	"last_shutdown_color\000"
 9798      5F736875 
 9798      74646F77 
 9798      6E5F636F 
 9798      6C6F7200 
 9799              	.LASF142:
 9800 021d 55475F50 		.ascii	"UG_PutColorString\000"
 9800      7574436F 
 9800      6C6F7253 
 9800      7472696E 
 9800      6700
 9801              	.LASF32:
 9802 022f 4252414B 		.ascii	"BRAKE_NOT_PRESSED\000"
 9802      455F4E4F 
 9802      545F5052 
 9802      45535345 
 9802      4400
 9803              	.LASF136:
 9804 0241 55475F46 		.ascii	"UG_FillScreen\000"
ARM GAS  C:\Users\leoja\AppData\Local\Temp\ccM6wJLr.s 			page 194


 9804      696C6C53 
 9804      63726565 
 9804      6E00
 9805              	.LASF129:
 9806 024f 6C617374 		.ascii	"last_SOC_color\000"
 9806      5F534F43 
 9806      5F636F6C 
 9806      6F7200
 9807              	.LASF121:
 9808 025e 64697370 		.ascii	"disp_shutdown_circuit\000"
 9808      5F736875 
 9808      74646F77 
 9808      6E5F6369 
 9808      72637569 
 9809              	.LASF49:
 9810 0274 63686172 		.ascii	"char_width\000"
 9810      5F776964 
 9810      746800
 9811              	.LASF33:
 9812 027f 48565F44 		.ascii	"HV_DISABLED_WHILE_DRIVING\000"
 9812      49534142 
 9812      4C45445F 
 9812      5748494C 
 9812      455F4452 
 9813              	.LASF118:
 9814 0299 64697370 		.ascii	"disp_glv_v\000"
 9814      5F676C76 
 9814      5F7600
 9815              	.LASF122:
 9816 02a4 73687574 		.ascii	"shutdown_flags\000"
 9816      646F776E 
 9816      5F666C61 
 9816      677300
 9817              	.LASF38:
 9818 02b3 48415244 		.ascii	"HARD_BSPD\000"
 9818      5F425350 
 9818      4400
 9819              	.LASF116:
 9820 02bd 64697370 		.ascii	"disp_state\000"
 9820      5F737461 
 9820      746500
 9821              	.LASF134:
 9822 02c8 6C617374 		.ascii	"last_motor_temp_color\000"
 9822      5F6D6F74 
 9822      6F725F74 
 9822      656D705F 
 9822      636F6C6F 
 9823              	.LASF36:
 9824 02de 53485554 		.ascii	"SHUTDOWN_CIRCUIT_OPEN\000"
 9824      444F574E 
 9824      5F434952 
 9824      43554954 
 9824      5F4F5045 
 9825              	.LASF26:
 9826 02f4 48565F45 		.ascii	"HV_ENABLED\000"
 9826      4E41424C 
 9826      454400
ARM GAS  C:\Users\leoja\AppData\Local\Temp\ccM6wJLr.s 			page 195


 9827              	.LASF87:
 9828 02ff 795F7374 		.ascii	"y_start\000"
 9828      61727400 
 9829              	.LASF78:
 9830 0307 765F7370 		.ascii	"v_space\000"
 9830      61636500 
 9831              	.LASF22:
 9832 030f 63686172 		.ascii	"char\000"
 9832      00
 9833              	.LASF31:
 9834 0314 434F4E53 		.ascii	"CONSERVATIVE_TIMER_MAXED\000"
 9834      45525641 
 9834      54495645 
 9834      5F54494D 
 9834      45525F4D 
 9835              	.LASF110:
 9836 032d 79466F6E 		.ascii	"yFont\000"
 9836      7400
 9837              	.LASF48:
 9838 0333 666F6E74 		.ascii	"font_type\000"
 9838      5F747970 
 9838      6500
 9839              	.LASF47:
 9840 033d 464F4E54 		.ascii	"FONT_TYPE\000"
 9840      5F545950 
 9840      4500
 9841              	.LASF72:
 9842 0347 55475F41 		.ascii	"UG_AREA\000"
 9842      52454100 
 9843              	.LASF74:
 9844 034f 55475F4D 		.ascii	"UG_MESSAGE\000"
 9844      45535341 
 9844      474500
 9845              	.LASF63:
 9846 035a 64617461 		.ascii	"data\000"
 9846      00
 9847              	.LASF15:
 9848 035f 75696E74 		.ascii	"uint8_t\000"
 9848      385F7400 
 9849              	.LASF95:
 9850 0367 746F7563 		.ascii	"touch\000"
 9850      6800
 9851              	.LASF82:
 9852 036d 64726976 		.ascii	"driver\000"
 9852      657200
 9853              	.LASF41:
 9854 0374 55475F53 		.ascii	"UG_S8\000"
 9854      3800
 9855              	.LASF93:
 9856 037a 785F6469 		.ascii	"x_dim\000"
 9856      6D00
 9857              	.LASF11:
 9858 0380 6C6F6E67 		.ascii	"long long int\000"
 9858      206C6F6E 
 9858      6720696E 
 9858      7400
 9859              	.LASF130:
ARM GAS  C:\Users\leoja\AppData\Local\Temp\ccM6wJLr.s 			page 196


 9860 038e 6C617374 		.ascii	"last_max_pack_temp_color\000"
 9860      5F6D6178 
 9860      5F706163 
 9860      6B5F7465 
 9860      6D705F63 
 9861              	.LASF4:
 9862 03a7 5F5F696E 		.ascii	"__int16_t\000"
 9862      7431365F 
 9862      7400
 9863              	.LASF55:
 9864 03b1 55475F4F 		.ascii	"UG_OBJECT\000"
 9864      424A4543 
 9864      5400
 9865              	.LASF92:
 9866 03bb 70736574 		.ascii	"pset\000"
 9866      00
 9867              	.LASF73:
 9868 03c0 7375625F 		.ascii	"sub_id\000"
 9868      696400
 9869              	.LASF107:
 9870 03c7 73697A65 		.ascii	"size\000"
 9870      00
 9871              	.LASF147:
 9872 03cc 636C6561 		.ascii	"clear_colors\000"
 9872      725F636F 
 9872      6C6F7273 
 9872      00
 9873              	.LASF120:
 9874 03d9 64697370 		.ascii	"disp_gen_voltage\000"
 9874      5F67656E 
 9874      5F766F6C 
 9874      74616765 
 9874      00
 9875              	.LASF80:
 9876 03ea 68656967 		.ascii	"height\000"
 9876      687400
 9877              	.LASF51:
 9878 03f1 73746172 		.ascii	"start_char\000"
 9878      745F6368 
 9878      617200
 9879              	.LASF25:
 9880 03fc 50524543 		.ascii	"PRECHARGING\000"
 9880      48415247 
 9880      494E4700 
 9881              	.LASF40:
 9882 0408 55475F55 		.ascii	"UG_U8\000"
 9882      3800
 9883              	.LASF0:
 9884 040e 5F5F696E 		.ascii	"__int8_t\000"
 9884      74385F74 
 9884      00
 9885              	.LASF53:
 9886 0417 77696474 		.ascii	"widths\000"
 9886      687300
 9887              	.LASF139:
 9888 041e 55475F50 		.ascii	"UG_PutString\000"
 9888      75745374 
ARM GAS  C:\Users\leoja\AppData\Local\Temp\ccM6wJLr.s 			page 197


 9888      72696E67 
 9888      00
 9889              	.LASF23:
 9890 042b 6C6F6E67 		.ascii	"long double\000"
 9890      20646F75 
 9890      626C6500 
 9891              	.LASF141:
 9892 0437 73707269 		.ascii	"sprintf\000"
 9892      6E746600 
 9893              	.LASF17:
 9894 043f 75696E74 		.ascii	"uint16_t\000"
 9894      31365F74 
 9894      00
 9895              	.LASF128:
 9896 0448 67756931 		.ascii	"gui1963\000"
 9896      39363300 
 9897              	.LASF81:
 9898 0450 55475F54 		.ascii	"UG_TITLE\000"
 9898      49544C45 
 9898      00
 9899              	.LASF83:
 9900 0459 55475F44 		.ascii	"UG_DRIVER\000"
 9900      52495645 
 9900      5200
 9901              	.LASF84:
 9902 0463 785F706F 		.ascii	"x_pos\000"
 9902      7300
 9903              	.LASF50:
 9904 0469 63686172 		.ascii	"char_height\000"
 9904      5F686569 
 9904      67687400 
 9905              	.LASF5:
 9906 0475 73686F72 		.ascii	"short int\000"
 9906      7420696E 
 9906      7400
 9907              	.LASF131:
 9908 047f 6C617374 		.ascii	"last_state_color\000"
 9908      5F737461 
 9908      74655F63 
 9908      6F6C6F72 
 9908      00
 9909              	.LASF8:
 9910 0490 6C6F6E67 		.ascii	"long int\000"
 9910      20696E74 
 9910      00
 9911              	.LASF64:
 9912 0499 55475F57 		.ascii	"UG_WINDOW\000"
 9912      494E444F 
 9912      5700
 9913              	.LASF146:
 9914 04a3 64697370 		.ascii	"disp_motor_temp\000"
 9914      5F6D6F74 
 9914      6F725F74 
 9914      656D7000 
 9915              	.LASF52:
 9916 04b3 656E645F 		.ascii	"end_char\000"
 9916      63686172 
ARM GAS  C:\Users\leoja\AppData\Local\Temp\ccM6wJLr.s 			page 198


 9916      00
 9917              	.LASF54:
 9918 04bc 55475F46 		.ascii	"UG_FONT\000"
 9918      4F4E5400 
 9919              	.LASF1:
 9920 04c4 5F5F7569 		.ascii	"__uint8_t\000"
 9920      6E74385F 
 9920      7400
 9921              	.LASF109:
 9922 04ce 78466F6E 		.ascii	"xFont\000"
 9922      7400
 9923              	.LASF76:
 9924 04d4 666F6E74 		.ascii	"font\000"
 9924      00
 9925              	.LASF24:
 9926 04d9 73697A65 		.ascii	"sizetype\000"
 9926      74797065 
 9926      00
 9927              	.LASF10:
 9928 04e2 6C6F6E67 		.ascii	"long unsigned int\000"
 9928      20756E73 
 9928      69676E65 
 9928      6420696E 
 9928      7400
 9929              	.LASF105:
 9930 04f4 64656275 		.ascii	"debugTemplate\000"
 9930      6754656D 
 9930      706C6174 
 9930      6500
 9931              	.LASF127:
 9932 0502 464F4E54 		.ascii	"FONT_32X53\000"
 9932      5F333258 
 9932      353300
 9933              	.LASF115:
 9934 050d 64697370 		.ascii	"disp_max_pack_temp\000"
 9934      5F6D6178 
 9934      5F706163 
 9934      6B5F7465 
 9934      6D7000
 9935              	.LASF111:
 9936 0520 686F7269 		.ascii	"horizFontSize\000"
 9936      7A466F6E 
 9936      7453697A 
 9936      6500
 9937              	.LASF132:
 9938 052e 6C617374 		.ascii	"last_glv_v_color\000"
 9938      5F676C76 
 9938      5F765F63 
 9938      6F6C6F72 
 9938      00
 9939              	.LASF61:
 9940 053f 74797065 		.ascii	"type\000"
 9940      00
 9941              	.LASF3:
 9942 0544 756E7369 		.ascii	"unsigned char\000"
 9942      676E6564 
 9942      20636861 
ARM GAS  C:\Users\leoja\AppData\Local\Temp\ccM6wJLr.s 			page 199


 9942      7200
 9943              	.LASF9:
 9944 0552 5F5F7569 		.ascii	"__uint32_t\000"
 9944      6E743332 
 9944      5F7400
 9945              	.LASF124:
 9946 055d 64697370 		.ascii	"disp_mc_fault\000"
 9946      5F6D635F 
 9946      6661756C 
 9946      7400
 9947              	.LASF77:
 9948 056b 685F7370 		.ascii	"h_space\000"
 9948      61636500 
 9949              	.LASF106:
 9950 0573 64726976 		.ascii	"driveTemplate\000"
 9950      6554656D 
 9950      706C6174 
 9950      6500
 9951              	.LASF86:
 9952 0581 785F7374 		.ascii	"x_start\000"
 9952      61727400 
 9953              	.LASF28:
 9954 0589 4641554C 		.ascii	"FAULT\000"
 9954      5400
 9955              	.LASF143:
 9956 058f 474E5520 		.ascii	"GNU C11 5.4.1 20160609 (release) [ARM/embedded-5-br"
 9956      43313120 
 9956      352E342E 
 9956      31203230 
 9956      31363036 
 9957 05c2 616E6368 		.ascii	"anch revision 237715] -mcpu=cortex-m0 -mthumb -g -O"
 9957      20726576 
 9957      6973696F 
 9957      6E203233 
 9957      37373135 
 9958 05f5 73202D66 		.ascii	"s -ffunction-sections -ffat-lto-objects\000"
 9958      66756E63 
 9958      74696F6E 
 9958      2D736563 
 9958      74696F6E 
 9959              	.LASF133:
 9960 061d 6C617374 		.ascii	"last_mc_temp_color\000"
 9960      5F6D635F 
 9960      74656D70 
 9960      5F636F6C 
 9960      6F7200
 9961              	.LASF69:
 9962 0630 7374796C 		.ascii	"style\000"
 9962      6500
 9963              	.LASF56:
 9964 0636 73746174 		.ascii	"state\000"
 9964      6500
 9965              	.LASF123:
 9966 063c 64697370 		.ascii	"disp_debug\000"
 9966      5F646562 
 9966      756700
 9967              	.LASF114:
ARM GAS  C:\Users\leoja\AppData\Local\Temp\ccM6wJLr.s 			page 200


 9968 0647 64697370 		.ascii	"disp_SOC\000"
 9968      5F534F43 
 9968      00
 9969              	.LASF108:
 9970 0650 73747269 		.ascii	"stringSize\000"
 9970      6E675369 
 9970      7A6500
 9971              	.LASF103:
 9972 065b 55475F47 		.ascii	"UG_GUI\000"
 9972      554900
 9973              	.LASF60:
 9974 0662 615F7265 		.ascii	"a_rel\000"
 9974      6C00
 9975              	.LASF75:
 9976 0668 55475F54 		.ascii	"UG_TOUCH\000"
 9976      4F554348 
 9976      00
 9977              	.LASF2:
 9978 0671 7369676E 		.ascii	"signed char\000"
 9978      65642063 
 9978      68617200 
 9979              	.LASF7:
 9980 067d 73686F72 		.ascii	"short unsigned int\000"
 9980      7420756E 
 9980      7369676E 
 9980      65642069 
 9980      6E7400
 9981              	.LASF144:
 9982 0690 66727563 		.ascii	"frucd_display.c\000"
 9982      645F6469 
 9982      73706C61 
 9982      792E6300 
 9983              	.LASF125:
 9984 06a0 7072696E 		.ascii	"printed_data\000"
 9984      7465645F 
 9984      64617461 
 9984      00
 9985              	.LASF19:
 9986 06ad 75696E74 		.ascii	"uint8\000"
 9986      3800
 9987              	.LASF21:
 9988 06b3 646F7562 		.ascii	"double\000"
 9988      6C6500
 9989              	.LASF140:
 9990 06ba 55475F46 		.ascii	"UG_FontSelect\000"
 9990      6F6E7453 
 9990      656C6563 
 9990      7400
 9991              	.LASF30:
 9992 06c8 44524956 		.ascii	"DRIVE_REQUEST_FROM_LV\000"
 9992      455F5245 
 9992      51554553 
 9992      545F4652 
 9992      4F4D5F4C 
 9993              	.LASF65:
 9994 06de 535F4F42 		.ascii	"S_OBJECT\000"
 9994      4A454354 
ARM GAS  C:\Users\leoja\AppData\Local\Temp\ccM6wJLr.s 			page 201


 9994      00
 9995              	.LASF79:
 9996 06e7 616C6967 		.ascii	"align\000"
 9996      6E00
 9997              	.LASF59:
 9998 06ed 615F6162 		.ascii	"a_abs\000"
 9998      7300
 9999              	.LASF117:
 10000 06f3 6661756C 		.ascii	"fault\000"
 10000      7400
 10001              	.LASF45:
 10002 06f9 464F4E54 		.ascii	"FONT_TYPE_1BPP\000"
 10002      5F545950 
 10002      455F3142 
 10002      505000
 10003              	.LASF119:
 10004 0708 64697370 		.ascii	"disp_gen_temp\000"
 10004      5F67656E 
 10004      5F74656D 
 10004      7000
 10005              	.LASF100:
 10006 0716 63686172 		.ascii	"char_h_space\000"
 10006      5F685F73 
 10006      70616365 
 10006      00
 10007              		.ident	"GCC: (GNU Tools for ARM Embedded Processors) 5.4.1 20160609 (release) [ARM/embedded-5-bran
