ARM GAS  C:\Users\leoja\AppData\Local\Temp\ccW7CYUf.s 			page 1


   1              		.syntax unified
   2              		.cpu cortex-m0
   3              		.fpu softvfp
   4              		.eabi_attribute 20, 1
   5              		.eabi_attribute 21, 1
   6              		.eabi_attribute 23, 3
   7              		.eabi_attribute 24, 1
   8              		.eabi_attribute 25, 1
   9              		.eabi_attribute 26, 1
  10              		.eabi_attribute 30, 4
  11              		.eabi_attribute 34, 0
  12              		.eabi_attribute 18, 4
  13              		.thumb
  14              		.syntax unified
  15              		.file	"ReadyToDrive_ISR.c"
  16              		.text
  17              	.Ltext0:
  18              		.cfi_sections	.debug_frame
  19              		.section	.text.ReadyToDrive_ISR_Interrupt,"ax",%progbits
  20              		.align	1
  21              		.global	ReadyToDrive_ISR_Interrupt
  22              		.code	16
  23              		.thumb_func
  24              		.type	ReadyToDrive_ISR_Interrupt, %function
  25              	ReadyToDrive_ISR_Interrupt:
  26              	.LFB4:
  27              		.file 1 "Generated_Source\\PSoC4\\ReadyToDrive_ISR.c"
   1:Generated_Source\PSoC4/ReadyToDrive_ISR.c **** /*******************************************************************************
   2:Generated_Source\PSoC4/ReadyToDrive_ISR.c **** * File Name: ReadyToDrive_ISR.c  
   3:Generated_Source\PSoC4/ReadyToDrive_ISR.c **** * Version 1.71
   4:Generated_Source\PSoC4/ReadyToDrive_ISR.c **** *
   5:Generated_Source\PSoC4/ReadyToDrive_ISR.c **** *  Description:
   6:Generated_Source\PSoC4/ReadyToDrive_ISR.c **** *   API for controlling the state of an interrupt.
   7:Generated_Source\PSoC4/ReadyToDrive_ISR.c **** *
   8:Generated_Source\PSoC4/ReadyToDrive_ISR.c **** *
   9:Generated_Source\PSoC4/ReadyToDrive_ISR.c **** *  Note:
  10:Generated_Source\PSoC4/ReadyToDrive_ISR.c **** *
  11:Generated_Source\PSoC4/ReadyToDrive_ISR.c **** ********************************************************************************
  12:Generated_Source\PSoC4/ReadyToDrive_ISR.c **** * Copyright 2008-2015, Cypress Semiconductor Corporation.  All rights reserved.
  13:Generated_Source\PSoC4/ReadyToDrive_ISR.c **** * You may use this file only in accordance with the license, terms, conditions, 
  14:Generated_Source\PSoC4/ReadyToDrive_ISR.c **** * disclaimers, and limitations in the end user license agreement accompanying 
  15:Generated_Source\PSoC4/ReadyToDrive_ISR.c **** * the software package with which this file was provided.
  16:Generated_Source\PSoC4/ReadyToDrive_ISR.c **** *******************************************************************************/
  17:Generated_Source\PSoC4/ReadyToDrive_ISR.c **** 
  18:Generated_Source\PSoC4/ReadyToDrive_ISR.c **** 
  19:Generated_Source\PSoC4/ReadyToDrive_ISR.c **** #include <cydevice_trm.h>
  20:Generated_Source\PSoC4/ReadyToDrive_ISR.c **** #include <CyLib.h>
  21:Generated_Source\PSoC4/ReadyToDrive_ISR.c **** #include <ReadyToDrive_ISR.h>
  22:Generated_Source\PSoC4/ReadyToDrive_ISR.c **** #include "cyapicallbacks.h"
  23:Generated_Source\PSoC4/ReadyToDrive_ISR.c **** 
  24:Generated_Source\PSoC4/ReadyToDrive_ISR.c **** #if !defined(ReadyToDrive_ISR__REMOVED) /* Check for removal by optimization */
  25:Generated_Source\PSoC4/ReadyToDrive_ISR.c **** 
  26:Generated_Source\PSoC4/ReadyToDrive_ISR.c **** /*******************************************************************************
  27:Generated_Source\PSoC4/ReadyToDrive_ISR.c **** *  Place your includes, defines and code here 
  28:Generated_Source\PSoC4/ReadyToDrive_ISR.c **** ********************************************************************************/
  29:Generated_Source\PSoC4/ReadyToDrive_ISR.c **** /* `#START ReadyToDrive_ISR_intc` */
  30:Generated_Source\PSoC4/ReadyToDrive_ISR.c **** #include <Buzzer.h>
ARM GAS  C:\Users\leoja\AppData\Local\Temp\ccW7CYUf.s 			page 2


  31:Generated_Source\PSoC4/ReadyToDrive_ISR.c **** #include <ReadyToDrive_Timer.h>
  32:Generated_Source\PSoC4/ReadyToDrive_ISR.c **** /* `#END` */
  33:Generated_Source\PSoC4/ReadyToDrive_ISR.c **** 
  34:Generated_Source\PSoC4/ReadyToDrive_ISR.c **** extern cyisraddress CyRamVectors[CYINT_IRQ_BASE + CY_NUM_INTERRUPTS];
  35:Generated_Source\PSoC4/ReadyToDrive_ISR.c **** 
  36:Generated_Source\PSoC4/ReadyToDrive_ISR.c **** /* Declared in startup, used to set unused interrupts to. */
  37:Generated_Source\PSoC4/ReadyToDrive_ISR.c **** CY_ISR_PROTO(IntDefaultHandler);
  38:Generated_Source\PSoC4/ReadyToDrive_ISR.c **** 
  39:Generated_Source\PSoC4/ReadyToDrive_ISR.c **** 
  40:Generated_Source\PSoC4/ReadyToDrive_ISR.c **** /*******************************************************************************
  41:Generated_Source\PSoC4/ReadyToDrive_ISR.c **** * Function Name: ReadyToDrive_ISR_Start
  42:Generated_Source\PSoC4/ReadyToDrive_ISR.c **** ********************************************************************************
  43:Generated_Source\PSoC4/ReadyToDrive_ISR.c **** *
  44:Generated_Source\PSoC4/ReadyToDrive_ISR.c **** * Summary:
  45:Generated_Source\PSoC4/ReadyToDrive_ISR.c **** *  Set up the interrupt and enable it. This function disables the interrupt, 
  46:Generated_Source\PSoC4/ReadyToDrive_ISR.c **** *  sets the default interrupt vector, sets the priority from the value in the
  47:Generated_Source\PSoC4/ReadyToDrive_ISR.c **** *  Design Wide Resources Interrupt Editor, then enables the interrupt to the 
  48:Generated_Source\PSoC4/ReadyToDrive_ISR.c **** *  interrupt controller.
  49:Generated_Source\PSoC4/ReadyToDrive_ISR.c **** *
  50:Generated_Source\PSoC4/ReadyToDrive_ISR.c **** * Parameters:  
  51:Generated_Source\PSoC4/ReadyToDrive_ISR.c **** *   None
  52:Generated_Source\PSoC4/ReadyToDrive_ISR.c **** *
  53:Generated_Source\PSoC4/ReadyToDrive_ISR.c **** * Return:
  54:Generated_Source\PSoC4/ReadyToDrive_ISR.c **** *   None
  55:Generated_Source\PSoC4/ReadyToDrive_ISR.c **** *
  56:Generated_Source\PSoC4/ReadyToDrive_ISR.c **** *******************************************************************************/
  57:Generated_Source\PSoC4/ReadyToDrive_ISR.c **** void ReadyToDrive_ISR_Start(void)
  58:Generated_Source\PSoC4/ReadyToDrive_ISR.c **** {
  59:Generated_Source\PSoC4/ReadyToDrive_ISR.c ****     /* For all we know the interrupt is active. */
  60:Generated_Source\PSoC4/ReadyToDrive_ISR.c ****     ReadyToDrive_ISR_Disable();
  61:Generated_Source\PSoC4/ReadyToDrive_ISR.c **** 
  62:Generated_Source\PSoC4/ReadyToDrive_ISR.c ****     /* Set the ISR to point to the ReadyToDrive_ISR Interrupt. */
  63:Generated_Source\PSoC4/ReadyToDrive_ISR.c ****     ReadyToDrive_ISR_SetVector(&ReadyToDrive_ISR_Interrupt);
  64:Generated_Source\PSoC4/ReadyToDrive_ISR.c **** 
  65:Generated_Source\PSoC4/ReadyToDrive_ISR.c ****     /* Set the priority. */
  66:Generated_Source\PSoC4/ReadyToDrive_ISR.c ****     ReadyToDrive_ISR_SetPriority((uint8)ReadyToDrive_ISR_INTC_PRIOR_NUMBER);
  67:Generated_Source\PSoC4/ReadyToDrive_ISR.c **** 
  68:Generated_Source\PSoC4/ReadyToDrive_ISR.c ****     /* Enable it. */
  69:Generated_Source\PSoC4/ReadyToDrive_ISR.c ****     ReadyToDrive_ISR_Enable();
  70:Generated_Source\PSoC4/ReadyToDrive_ISR.c **** }
  71:Generated_Source\PSoC4/ReadyToDrive_ISR.c **** 
  72:Generated_Source\PSoC4/ReadyToDrive_ISR.c **** 
  73:Generated_Source\PSoC4/ReadyToDrive_ISR.c **** /*******************************************************************************
  74:Generated_Source\PSoC4/ReadyToDrive_ISR.c **** * Function Name: ReadyToDrive_ISR_StartEx
  75:Generated_Source\PSoC4/ReadyToDrive_ISR.c **** ********************************************************************************
  76:Generated_Source\PSoC4/ReadyToDrive_ISR.c **** *
  77:Generated_Source\PSoC4/ReadyToDrive_ISR.c **** * Summary:
  78:Generated_Source\PSoC4/ReadyToDrive_ISR.c **** *  Sets up the interrupt and enables it. This function disables the interrupt,
  79:Generated_Source\PSoC4/ReadyToDrive_ISR.c **** *  sets the interrupt vector based on the address passed in, sets the priority 
  80:Generated_Source\PSoC4/ReadyToDrive_ISR.c **** *  from the value in the Design Wide Resources Interrupt Editor, then enables 
  81:Generated_Source\PSoC4/ReadyToDrive_ISR.c **** *  the interrupt to the interrupt controller.
  82:Generated_Source\PSoC4/ReadyToDrive_ISR.c **** *  
  83:Generated_Source\PSoC4/ReadyToDrive_ISR.c **** *  When defining ISR functions, the CY_ISR and CY_ISR_PROTO macros should be 
  84:Generated_Source\PSoC4/ReadyToDrive_ISR.c **** *  used to provide consistent definition across compilers:
  85:Generated_Source\PSoC4/ReadyToDrive_ISR.c **** *  
  86:Generated_Source\PSoC4/ReadyToDrive_ISR.c **** *  Function definition example:
  87:Generated_Source\PSoC4/ReadyToDrive_ISR.c **** *   CY_ISR(MyISR)
ARM GAS  C:\Users\leoja\AppData\Local\Temp\ccW7CYUf.s 			page 3


  88:Generated_Source\PSoC4/ReadyToDrive_ISR.c **** *   {
  89:Generated_Source\PSoC4/ReadyToDrive_ISR.c **** *   }
  90:Generated_Source\PSoC4/ReadyToDrive_ISR.c **** *   Function prototype example:
  91:Generated_Source\PSoC4/ReadyToDrive_ISR.c **** *   CY_ISR_PROTO(MyISR);
  92:Generated_Source\PSoC4/ReadyToDrive_ISR.c **** *
  93:Generated_Source\PSoC4/ReadyToDrive_ISR.c **** * Parameters:  
  94:Generated_Source\PSoC4/ReadyToDrive_ISR.c **** *   address: Address of the ISR to set in the interrupt vector table.
  95:Generated_Source\PSoC4/ReadyToDrive_ISR.c **** *
  96:Generated_Source\PSoC4/ReadyToDrive_ISR.c **** * Return:
  97:Generated_Source\PSoC4/ReadyToDrive_ISR.c **** *   None
  98:Generated_Source\PSoC4/ReadyToDrive_ISR.c **** *
  99:Generated_Source\PSoC4/ReadyToDrive_ISR.c **** *******************************************************************************/
 100:Generated_Source\PSoC4/ReadyToDrive_ISR.c **** void ReadyToDrive_ISR_StartEx(cyisraddress address)
 101:Generated_Source\PSoC4/ReadyToDrive_ISR.c **** {
 102:Generated_Source\PSoC4/ReadyToDrive_ISR.c ****     /* For all we know the interrupt is active. */
 103:Generated_Source\PSoC4/ReadyToDrive_ISR.c ****     ReadyToDrive_ISR_Disable();
 104:Generated_Source\PSoC4/ReadyToDrive_ISR.c **** 
 105:Generated_Source\PSoC4/ReadyToDrive_ISR.c ****     /* Set the ISR to point to the ReadyToDrive_ISR Interrupt. */
 106:Generated_Source\PSoC4/ReadyToDrive_ISR.c ****     ReadyToDrive_ISR_SetVector(address);
 107:Generated_Source\PSoC4/ReadyToDrive_ISR.c **** 
 108:Generated_Source\PSoC4/ReadyToDrive_ISR.c ****     /* Set the priority. */
 109:Generated_Source\PSoC4/ReadyToDrive_ISR.c ****     ReadyToDrive_ISR_SetPriority((uint8)ReadyToDrive_ISR_INTC_PRIOR_NUMBER);
 110:Generated_Source\PSoC4/ReadyToDrive_ISR.c **** 
 111:Generated_Source\PSoC4/ReadyToDrive_ISR.c ****     /* Enable it. */
 112:Generated_Source\PSoC4/ReadyToDrive_ISR.c ****     ReadyToDrive_ISR_Enable();
 113:Generated_Source\PSoC4/ReadyToDrive_ISR.c **** }
 114:Generated_Source\PSoC4/ReadyToDrive_ISR.c **** 
 115:Generated_Source\PSoC4/ReadyToDrive_ISR.c **** 
 116:Generated_Source\PSoC4/ReadyToDrive_ISR.c **** /*******************************************************************************
 117:Generated_Source\PSoC4/ReadyToDrive_ISR.c **** * Function Name: ReadyToDrive_ISR_Stop
 118:Generated_Source\PSoC4/ReadyToDrive_ISR.c **** ********************************************************************************
 119:Generated_Source\PSoC4/ReadyToDrive_ISR.c **** *
 120:Generated_Source\PSoC4/ReadyToDrive_ISR.c **** * Summary:
 121:Generated_Source\PSoC4/ReadyToDrive_ISR.c **** *   Disables and removes the interrupt.
 122:Generated_Source\PSoC4/ReadyToDrive_ISR.c **** *
 123:Generated_Source\PSoC4/ReadyToDrive_ISR.c **** * Parameters:  
 124:Generated_Source\PSoC4/ReadyToDrive_ISR.c **** *   None
 125:Generated_Source\PSoC4/ReadyToDrive_ISR.c **** *
 126:Generated_Source\PSoC4/ReadyToDrive_ISR.c **** * Return:
 127:Generated_Source\PSoC4/ReadyToDrive_ISR.c **** *   None
 128:Generated_Source\PSoC4/ReadyToDrive_ISR.c **** *
 129:Generated_Source\PSoC4/ReadyToDrive_ISR.c **** *******************************************************************************/
 130:Generated_Source\PSoC4/ReadyToDrive_ISR.c **** void ReadyToDrive_ISR_Stop(void)
 131:Generated_Source\PSoC4/ReadyToDrive_ISR.c **** {
 132:Generated_Source\PSoC4/ReadyToDrive_ISR.c ****     /* Disable this interrupt. */
 133:Generated_Source\PSoC4/ReadyToDrive_ISR.c ****     ReadyToDrive_ISR_Disable();
 134:Generated_Source\PSoC4/ReadyToDrive_ISR.c **** 
 135:Generated_Source\PSoC4/ReadyToDrive_ISR.c ****     /* Set the ISR to point to the passive one. */
 136:Generated_Source\PSoC4/ReadyToDrive_ISR.c ****     ReadyToDrive_ISR_SetVector(&IntDefaultHandler);
 137:Generated_Source\PSoC4/ReadyToDrive_ISR.c **** }
 138:Generated_Source\PSoC4/ReadyToDrive_ISR.c **** 
 139:Generated_Source\PSoC4/ReadyToDrive_ISR.c **** 
 140:Generated_Source\PSoC4/ReadyToDrive_ISR.c **** /*******************************************************************************
 141:Generated_Source\PSoC4/ReadyToDrive_ISR.c **** * Function Name: ReadyToDrive_ISR_Interrupt
 142:Generated_Source\PSoC4/ReadyToDrive_ISR.c **** ********************************************************************************
 143:Generated_Source\PSoC4/ReadyToDrive_ISR.c **** *
 144:Generated_Source\PSoC4/ReadyToDrive_ISR.c **** * Summary:
ARM GAS  C:\Users\leoja\AppData\Local\Temp\ccW7CYUf.s 			page 4


 145:Generated_Source\PSoC4/ReadyToDrive_ISR.c **** *   The default Interrupt Service Routine for ReadyToDrive_ISR.
 146:Generated_Source\PSoC4/ReadyToDrive_ISR.c **** *
 147:Generated_Source\PSoC4/ReadyToDrive_ISR.c **** *   Add custom code between the START and END comments to keep the next version
 148:Generated_Source\PSoC4/ReadyToDrive_ISR.c **** *   of this file from over-writing your code.
 149:Generated_Source\PSoC4/ReadyToDrive_ISR.c **** *
 150:Generated_Source\PSoC4/ReadyToDrive_ISR.c **** *   Note You may use either the default ISR by using this API, or you may define
 151:Generated_Source\PSoC4/ReadyToDrive_ISR.c **** *   your own separate ISR through ISR_StartEx().
 152:Generated_Source\PSoC4/ReadyToDrive_ISR.c **** *
 153:Generated_Source\PSoC4/ReadyToDrive_ISR.c **** * Parameters:  
 154:Generated_Source\PSoC4/ReadyToDrive_ISR.c **** *   None
 155:Generated_Source\PSoC4/ReadyToDrive_ISR.c **** *
 156:Generated_Source\PSoC4/ReadyToDrive_ISR.c **** * Return:
 157:Generated_Source\PSoC4/ReadyToDrive_ISR.c **** *   None
 158:Generated_Source\PSoC4/ReadyToDrive_ISR.c **** *
 159:Generated_Source\PSoC4/ReadyToDrive_ISR.c **** *******************************************************************************/
 160:Generated_Source\PSoC4/ReadyToDrive_ISR.c **** CY_ISR(ReadyToDrive_ISR_Interrupt)
 161:Generated_Source\PSoC4/ReadyToDrive_ISR.c **** {
  28              		.loc 1 161 0
  29              		.cfi_startproc
  30              		@ args = 0, pretend = 0, frame = 0
  31              		@ frame_needed = 0, uses_anonymous_args = 0
  32 0000 10B5     		push	{r4, lr}
  33              		.cfi_def_cfa_offset 8
  34              		.cfi_offset 4, -8
  35              		.cfi_offset 14, -4
 162:Generated_Source\PSoC4/ReadyToDrive_ISR.c ****     #ifdef ReadyToDrive_ISR_INTERRUPT_INTERRUPT_CALLBACK
 163:Generated_Source\PSoC4/ReadyToDrive_ISR.c ****         ReadyToDrive_ISR_Interrupt_InterruptCallback();
 164:Generated_Source\PSoC4/ReadyToDrive_ISR.c ****     #endif /* ReadyToDrive_ISR_INTERRUPT_INTERRUPT_CALLBACK */ 
 165:Generated_Source\PSoC4/ReadyToDrive_ISR.c **** 
 166:Generated_Source\PSoC4/ReadyToDrive_ISR.c ****     /*  Place your Interrupt code here. */
 167:Generated_Source\PSoC4/ReadyToDrive_ISR.c ****     /* `#START ReadyToDrive_ISR_Interrupt` */
 168:Generated_Source\PSoC4/ReadyToDrive_ISR.c ****     Buzzer_Write(0);
  36              		.loc 1 168 0
  37 0002 0020     		movs	r0, #0
  38 0004 FFF7FEFF 		bl	Buzzer_Write
  39              	.LVL0:
 169:Generated_Source\PSoC4/ReadyToDrive_ISR.c ****     ReadyToDrive_Timer_Stop();
 170:Generated_Source\PSoC4/ReadyToDrive_ISR.c ****     /* `#END` */
 171:Generated_Source\PSoC4/ReadyToDrive_ISR.c **** }
  40              		.loc 1 171 0
  41              		@ sp needed
 169:Generated_Source\PSoC4/ReadyToDrive_ISR.c ****     ReadyToDrive_Timer_Stop();
  42              		.loc 1 169 0
  43 0008 FFF7FEFF 		bl	ReadyToDrive_Timer_Stop
  44              	.LVL1:
  45              		.loc 1 171 0
  46 000c 10BD     		pop	{r4, pc}
  47              		.cfi_endproc
  48              	.LFE4:
  49              		.size	ReadyToDrive_ISR_Interrupt, .-ReadyToDrive_ISR_Interrupt
  50              		.section	.text.ReadyToDrive_ISR_Stop,"ax",%progbits
  51              		.align	1
  52              		.global	ReadyToDrive_ISR_Stop
  53              		.code	16
  54              		.thumb_func
  55              		.type	ReadyToDrive_ISR_Stop, %function
  56              	ReadyToDrive_ISR_Stop:
ARM GAS  C:\Users\leoja\AppData\Local\Temp\ccW7CYUf.s 			page 5


  57              	.LFB3:
 131:Generated_Source\PSoC4/ReadyToDrive_ISR.c ****     /* Disable this interrupt. */
  58              		.loc 1 131 0
  59              		.cfi_startproc
  60              		@ args = 0, pretend = 0, frame = 0
  61              		@ frame_needed = 0, uses_anonymous_args = 0
  62              		@ link register save eliminated.
  63              	.LBB18:
  64              	.LBB19:
 172:Generated_Source\PSoC4/ReadyToDrive_ISR.c **** 
 173:Generated_Source\PSoC4/ReadyToDrive_ISR.c **** 
 174:Generated_Source\PSoC4/ReadyToDrive_ISR.c **** /*******************************************************************************
 175:Generated_Source\PSoC4/ReadyToDrive_ISR.c **** * Function Name: ReadyToDrive_ISR_SetVector
 176:Generated_Source\PSoC4/ReadyToDrive_ISR.c **** ********************************************************************************
 177:Generated_Source\PSoC4/ReadyToDrive_ISR.c **** *
 178:Generated_Source\PSoC4/ReadyToDrive_ISR.c **** * Summary:
 179:Generated_Source\PSoC4/ReadyToDrive_ISR.c **** *   Change the ISR vector for the Interrupt. Note calling ReadyToDrive_ISR_Start
 180:Generated_Source\PSoC4/ReadyToDrive_ISR.c **** *   will override any effect this method would have had. To set the vector 
 181:Generated_Source\PSoC4/ReadyToDrive_ISR.c **** *   before the component has been started use ReadyToDrive_ISR_StartEx instead.
 182:Generated_Source\PSoC4/ReadyToDrive_ISR.c **** * 
 183:Generated_Source\PSoC4/ReadyToDrive_ISR.c **** *   When defining ISR functions, the CY_ISR and CY_ISR_PROTO macros should be 
 184:Generated_Source\PSoC4/ReadyToDrive_ISR.c **** *   used to provide consistent definition across compilers:
 185:Generated_Source\PSoC4/ReadyToDrive_ISR.c **** *
 186:Generated_Source\PSoC4/ReadyToDrive_ISR.c **** *   Function definition example:
 187:Generated_Source\PSoC4/ReadyToDrive_ISR.c **** *   CY_ISR(MyISR)
 188:Generated_Source\PSoC4/ReadyToDrive_ISR.c **** *   {
 189:Generated_Source\PSoC4/ReadyToDrive_ISR.c **** *   }
 190:Generated_Source\PSoC4/ReadyToDrive_ISR.c **** *
 191:Generated_Source\PSoC4/ReadyToDrive_ISR.c **** *   Function prototype example:
 192:Generated_Source\PSoC4/ReadyToDrive_ISR.c **** *     CY_ISR_PROTO(MyISR);
 193:Generated_Source\PSoC4/ReadyToDrive_ISR.c **** *
 194:Generated_Source\PSoC4/ReadyToDrive_ISR.c **** * Parameters:
 195:Generated_Source\PSoC4/ReadyToDrive_ISR.c **** *   address: Address of the ISR to set in the interrupt vector table.
 196:Generated_Source\PSoC4/ReadyToDrive_ISR.c **** *
 197:Generated_Source\PSoC4/ReadyToDrive_ISR.c **** * Return:
 198:Generated_Source\PSoC4/ReadyToDrive_ISR.c **** *   None
 199:Generated_Source\PSoC4/ReadyToDrive_ISR.c **** *
 200:Generated_Source\PSoC4/ReadyToDrive_ISR.c **** *******************************************************************************/
 201:Generated_Source\PSoC4/ReadyToDrive_ISR.c **** void ReadyToDrive_ISR_SetVector(cyisraddress address)
 202:Generated_Source\PSoC4/ReadyToDrive_ISR.c **** {
 203:Generated_Source\PSoC4/ReadyToDrive_ISR.c ****     CyRamVectors[CYINT_IRQ_BASE + ReadyToDrive_ISR__INTC_NUMBER] = address;
 204:Generated_Source\PSoC4/ReadyToDrive_ISR.c **** }
 205:Generated_Source\PSoC4/ReadyToDrive_ISR.c **** 
 206:Generated_Source\PSoC4/ReadyToDrive_ISR.c **** 
 207:Generated_Source\PSoC4/ReadyToDrive_ISR.c **** /*******************************************************************************
 208:Generated_Source\PSoC4/ReadyToDrive_ISR.c **** * Function Name: ReadyToDrive_ISR_GetVector
 209:Generated_Source\PSoC4/ReadyToDrive_ISR.c **** ********************************************************************************
 210:Generated_Source\PSoC4/ReadyToDrive_ISR.c **** *
 211:Generated_Source\PSoC4/ReadyToDrive_ISR.c **** * Summary:
 212:Generated_Source\PSoC4/ReadyToDrive_ISR.c **** *   Gets the "address" of the current ISR vector for the Interrupt.
 213:Generated_Source\PSoC4/ReadyToDrive_ISR.c **** *
 214:Generated_Source\PSoC4/ReadyToDrive_ISR.c **** * Parameters:
 215:Generated_Source\PSoC4/ReadyToDrive_ISR.c **** *   None
 216:Generated_Source\PSoC4/ReadyToDrive_ISR.c **** *
 217:Generated_Source\PSoC4/ReadyToDrive_ISR.c **** * Return:
 218:Generated_Source\PSoC4/ReadyToDrive_ISR.c **** *   Address of the ISR in the interrupt vector table.
 219:Generated_Source\PSoC4/ReadyToDrive_ISR.c **** *
ARM GAS  C:\Users\leoja\AppData\Local\Temp\ccW7CYUf.s 			page 6


 220:Generated_Source\PSoC4/ReadyToDrive_ISR.c **** *******************************************************************************/
 221:Generated_Source\PSoC4/ReadyToDrive_ISR.c **** cyisraddress ReadyToDrive_ISR_GetVector(void)
 222:Generated_Source\PSoC4/ReadyToDrive_ISR.c **** {
 223:Generated_Source\PSoC4/ReadyToDrive_ISR.c ****     return CyRamVectors[CYINT_IRQ_BASE + ReadyToDrive_ISR__INTC_NUMBER];
 224:Generated_Source\PSoC4/ReadyToDrive_ISR.c **** }
 225:Generated_Source\PSoC4/ReadyToDrive_ISR.c **** 
 226:Generated_Source\PSoC4/ReadyToDrive_ISR.c **** 
 227:Generated_Source\PSoC4/ReadyToDrive_ISR.c **** /*******************************************************************************
 228:Generated_Source\PSoC4/ReadyToDrive_ISR.c **** * Function Name: ReadyToDrive_ISR_SetPriority
 229:Generated_Source\PSoC4/ReadyToDrive_ISR.c **** ********************************************************************************
 230:Generated_Source\PSoC4/ReadyToDrive_ISR.c **** *
 231:Generated_Source\PSoC4/ReadyToDrive_ISR.c **** * Summary:
 232:Generated_Source\PSoC4/ReadyToDrive_ISR.c **** *   Sets the Priority of the Interrupt. 
 233:Generated_Source\PSoC4/ReadyToDrive_ISR.c **** *
 234:Generated_Source\PSoC4/ReadyToDrive_ISR.c **** *   Note calling ReadyToDrive_ISR_Start or ReadyToDrive_ISR_StartEx will 
 235:Generated_Source\PSoC4/ReadyToDrive_ISR.c **** *   override any effect this API would have had. This API should only be called
 236:Generated_Source\PSoC4/ReadyToDrive_ISR.c **** *   after ReadyToDrive_ISR_Start or ReadyToDrive_ISR_StartEx has been called. 
 237:Generated_Source\PSoC4/ReadyToDrive_ISR.c **** *   To set the initial priority for the component, use the Design-Wide Resources
 238:Generated_Source\PSoC4/ReadyToDrive_ISR.c **** *   Interrupt Editor.
 239:Generated_Source\PSoC4/ReadyToDrive_ISR.c **** *
 240:Generated_Source\PSoC4/ReadyToDrive_ISR.c **** *   Note This API has no effect on Non-maskable interrupt NMI).
 241:Generated_Source\PSoC4/ReadyToDrive_ISR.c **** *
 242:Generated_Source\PSoC4/ReadyToDrive_ISR.c **** * Parameters:
 243:Generated_Source\PSoC4/ReadyToDrive_ISR.c **** *   priority: Priority of the interrupt, 0 being the highest priority
 244:Generated_Source\PSoC4/ReadyToDrive_ISR.c **** *             PSoC 3 and PSoC 5LP: Priority is from 0 to 7.
 245:Generated_Source\PSoC4/ReadyToDrive_ISR.c **** *             PSoC 4: Priority is from 0 to 3.
 246:Generated_Source\PSoC4/ReadyToDrive_ISR.c **** *
 247:Generated_Source\PSoC4/ReadyToDrive_ISR.c **** * Return:
 248:Generated_Source\PSoC4/ReadyToDrive_ISR.c **** *   None
 249:Generated_Source\PSoC4/ReadyToDrive_ISR.c **** *
 250:Generated_Source\PSoC4/ReadyToDrive_ISR.c **** *******************************************************************************/
 251:Generated_Source\PSoC4/ReadyToDrive_ISR.c **** void ReadyToDrive_ISR_SetPriority(uint8 priority)
 252:Generated_Source\PSoC4/ReadyToDrive_ISR.c **** {
 253:Generated_Source\PSoC4/ReadyToDrive_ISR.c **** 	uint8 interruptState;
 254:Generated_Source\PSoC4/ReadyToDrive_ISR.c ****     uint32 priorityOffset = ((ReadyToDrive_ISR__INTC_NUMBER % 4u) * 8u) + 6u;
 255:Generated_Source\PSoC4/ReadyToDrive_ISR.c ****     
 256:Generated_Source\PSoC4/ReadyToDrive_ISR.c **** 	interruptState = CyEnterCriticalSection();
 257:Generated_Source\PSoC4/ReadyToDrive_ISR.c ****     *ReadyToDrive_ISR_INTC_PRIOR = (*ReadyToDrive_ISR_INTC_PRIOR & (uint32)(~(uint32)ReadyToDrive_I
 258:Generated_Source\PSoC4/ReadyToDrive_ISR.c ****                                     ((uint32)priority << priorityOffset);
 259:Generated_Source\PSoC4/ReadyToDrive_ISR.c **** 	CyExitCriticalSection(interruptState);
 260:Generated_Source\PSoC4/ReadyToDrive_ISR.c **** }
 261:Generated_Source\PSoC4/ReadyToDrive_ISR.c **** 
 262:Generated_Source\PSoC4/ReadyToDrive_ISR.c **** 
 263:Generated_Source\PSoC4/ReadyToDrive_ISR.c **** /*******************************************************************************
 264:Generated_Source\PSoC4/ReadyToDrive_ISR.c **** * Function Name: ReadyToDrive_ISR_GetPriority
 265:Generated_Source\PSoC4/ReadyToDrive_ISR.c **** ********************************************************************************
 266:Generated_Source\PSoC4/ReadyToDrive_ISR.c **** *
 267:Generated_Source\PSoC4/ReadyToDrive_ISR.c **** * Summary:
 268:Generated_Source\PSoC4/ReadyToDrive_ISR.c **** *   Gets the Priority of the Interrupt.
 269:Generated_Source\PSoC4/ReadyToDrive_ISR.c **** *
 270:Generated_Source\PSoC4/ReadyToDrive_ISR.c **** * Parameters:
 271:Generated_Source\PSoC4/ReadyToDrive_ISR.c **** *   None
 272:Generated_Source\PSoC4/ReadyToDrive_ISR.c **** *
 273:Generated_Source\PSoC4/ReadyToDrive_ISR.c **** * Return:
 274:Generated_Source\PSoC4/ReadyToDrive_ISR.c **** *   Priority of the interrupt, 0 being the highest priority
 275:Generated_Source\PSoC4/ReadyToDrive_ISR.c **** *    PSoC 3 and PSoC 5LP: Priority is from 0 to 7.
 276:Generated_Source\PSoC4/ReadyToDrive_ISR.c **** *    PSoC 4: Priority is from 0 to 3.
ARM GAS  C:\Users\leoja\AppData\Local\Temp\ccW7CYUf.s 			page 7


 277:Generated_Source\PSoC4/ReadyToDrive_ISR.c **** *
 278:Generated_Source\PSoC4/ReadyToDrive_ISR.c **** *******************************************************************************/
 279:Generated_Source\PSoC4/ReadyToDrive_ISR.c **** uint8 ReadyToDrive_ISR_GetPriority(void)
 280:Generated_Source\PSoC4/ReadyToDrive_ISR.c **** {
 281:Generated_Source\PSoC4/ReadyToDrive_ISR.c ****     uint32 priority;
 282:Generated_Source\PSoC4/ReadyToDrive_ISR.c **** 	uint32 priorityOffset = ((ReadyToDrive_ISR__INTC_NUMBER % 4u) * 8u) + 6u;
 283:Generated_Source\PSoC4/ReadyToDrive_ISR.c **** 
 284:Generated_Source\PSoC4/ReadyToDrive_ISR.c ****     priority = (*ReadyToDrive_ISR_INTC_PRIOR & ReadyToDrive_ISR__INTC_PRIOR_MASK) >> priorityOffset
 285:Generated_Source\PSoC4/ReadyToDrive_ISR.c **** 
 286:Generated_Source\PSoC4/ReadyToDrive_ISR.c ****     return (uint8)priority;
 287:Generated_Source\PSoC4/ReadyToDrive_ISR.c **** }
 288:Generated_Source\PSoC4/ReadyToDrive_ISR.c **** 
 289:Generated_Source\PSoC4/ReadyToDrive_ISR.c **** 
 290:Generated_Source\PSoC4/ReadyToDrive_ISR.c **** /*******************************************************************************
 291:Generated_Source\PSoC4/ReadyToDrive_ISR.c **** * Function Name: ReadyToDrive_ISR_Enable
 292:Generated_Source\PSoC4/ReadyToDrive_ISR.c **** ********************************************************************************
 293:Generated_Source\PSoC4/ReadyToDrive_ISR.c **** *
 294:Generated_Source\PSoC4/ReadyToDrive_ISR.c **** * Summary:
 295:Generated_Source\PSoC4/ReadyToDrive_ISR.c **** *   Enables the interrupt to the interrupt controller. Do not call this function
 296:Generated_Source\PSoC4/ReadyToDrive_ISR.c **** *   unless ISR_Start() has been called or the functionality of the ISR_Start() 
 297:Generated_Source\PSoC4/ReadyToDrive_ISR.c **** *   function, which sets the vector and the priority, has been called.
 298:Generated_Source\PSoC4/ReadyToDrive_ISR.c **** *
 299:Generated_Source\PSoC4/ReadyToDrive_ISR.c **** * Parameters:
 300:Generated_Source\PSoC4/ReadyToDrive_ISR.c **** *   None
 301:Generated_Source\PSoC4/ReadyToDrive_ISR.c **** *
 302:Generated_Source\PSoC4/ReadyToDrive_ISR.c **** * Return:
 303:Generated_Source\PSoC4/ReadyToDrive_ISR.c **** *   None
 304:Generated_Source\PSoC4/ReadyToDrive_ISR.c **** *
 305:Generated_Source\PSoC4/ReadyToDrive_ISR.c **** *******************************************************************************/
 306:Generated_Source\PSoC4/ReadyToDrive_ISR.c **** void ReadyToDrive_ISR_Enable(void)
 307:Generated_Source\PSoC4/ReadyToDrive_ISR.c **** {
 308:Generated_Source\PSoC4/ReadyToDrive_ISR.c ****     /* Enable the general interrupt. */
 309:Generated_Source\PSoC4/ReadyToDrive_ISR.c ****     *ReadyToDrive_ISR_INTC_SET_EN = ReadyToDrive_ISR__INTC_MASK;
 310:Generated_Source\PSoC4/ReadyToDrive_ISR.c **** }
 311:Generated_Source\PSoC4/ReadyToDrive_ISR.c **** 
 312:Generated_Source\PSoC4/ReadyToDrive_ISR.c **** 
 313:Generated_Source\PSoC4/ReadyToDrive_ISR.c **** /*******************************************************************************
 314:Generated_Source\PSoC4/ReadyToDrive_ISR.c **** * Function Name: ReadyToDrive_ISR_GetState
 315:Generated_Source\PSoC4/ReadyToDrive_ISR.c **** ********************************************************************************
 316:Generated_Source\PSoC4/ReadyToDrive_ISR.c **** *
 317:Generated_Source\PSoC4/ReadyToDrive_ISR.c **** * Summary:
 318:Generated_Source\PSoC4/ReadyToDrive_ISR.c **** *   Gets the state (enabled, disabled) of the Interrupt.
 319:Generated_Source\PSoC4/ReadyToDrive_ISR.c **** *
 320:Generated_Source\PSoC4/ReadyToDrive_ISR.c **** * Parameters:
 321:Generated_Source\PSoC4/ReadyToDrive_ISR.c **** *   None
 322:Generated_Source\PSoC4/ReadyToDrive_ISR.c **** *
 323:Generated_Source\PSoC4/ReadyToDrive_ISR.c **** * Return:
 324:Generated_Source\PSoC4/ReadyToDrive_ISR.c **** *   1 if enabled, 0 if disabled.
 325:Generated_Source\PSoC4/ReadyToDrive_ISR.c **** *
 326:Generated_Source\PSoC4/ReadyToDrive_ISR.c **** *******************************************************************************/
 327:Generated_Source\PSoC4/ReadyToDrive_ISR.c **** uint8 ReadyToDrive_ISR_GetState(void)
 328:Generated_Source\PSoC4/ReadyToDrive_ISR.c **** {
 329:Generated_Source\PSoC4/ReadyToDrive_ISR.c ****     /* Get the state of the general interrupt. */
 330:Generated_Source\PSoC4/ReadyToDrive_ISR.c ****     return ((*ReadyToDrive_ISR_INTC_SET_EN & (uint32)ReadyToDrive_ISR__INTC_MASK) != 0u) ? 1u:0u;
 331:Generated_Source\PSoC4/ReadyToDrive_ISR.c **** }
 332:Generated_Source\PSoC4/ReadyToDrive_ISR.c **** 
 333:Generated_Source\PSoC4/ReadyToDrive_ISR.c **** 
ARM GAS  C:\Users\leoja\AppData\Local\Temp\ccW7CYUf.s 			page 8


 334:Generated_Source\PSoC4/ReadyToDrive_ISR.c **** /*******************************************************************************
 335:Generated_Source\PSoC4/ReadyToDrive_ISR.c **** * Function Name: ReadyToDrive_ISR_Disable
 336:Generated_Source\PSoC4/ReadyToDrive_ISR.c **** ********************************************************************************
 337:Generated_Source\PSoC4/ReadyToDrive_ISR.c **** *
 338:Generated_Source\PSoC4/ReadyToDrive_ISR.c **** * Summary:
 339:Generated_Source\PSoC4/ReadyToDrive_ISR.c **** *   Disables the Interrupt in the interrupt controller.
 340:Generated_Source\PSoC4/ReadyToDrive_ISR.c **** *
 341:Generated_Source\PSoC4/ReadyToDrive_ISR.c **** * Parameters:
 342:Generated_Source\PSoC4/ReadyToDrive_ISR.c **** *   None
 343:Generated_Source\PSoC4/ReadyToDrive_ISR.c **** *
 344:Generated_Source\PSoC4/ReadyToDrive_ISR.c **** * Return:
 345:Generated_Source\PSoC4/ReadyToDrive_ISR.c **** *   None
 346:Generated_Source\PSoC4/ReadyToDrive_ISR.c **** *
 347:Generated_Source\PSoC4/ReadyToDrive_ISR.c **** *******************************************************************************/
 348:Generated_Source\PSoC4/ReadyToDrive_ISR.c **** void ReadyToDrive_ISR_Disable(void)
 349:Generated_Source\PSoC4/ReadyToDrive_ISR.c **** {
 350:Generated_Source\PSoC4/ReadyToDrive_ISR.c ****     /* Disable the general interrupt. */
 351:Generated_Source\PSoC4/ReadyToDrive_ISR.c ****     *ReadyToDrive_ISR_INTC_CLR_EN = ReadyToDrive_ISR__INTC_MASK;
  65              		.loc 1 351 0
  66 0000 0122     		movs	r2, #1
  67 0002 034B     		ldr	r3, .L3
  68              	.LBE19:
  69              	.LBE18:
 137:Generated_Source\PSoC4/ReadyToDrive_ISR.c **** 
  70              		.loc 1 137 0
  71              		@ sp needed
  72              	.LBB21:
  73              	.LBB20:
  74              		.loc 1 351 0
  75 0004 1A60     		str	r2, [r3]
  76              	.LVL2:
  77              	.LBE20:
  78              	.LBE21:
  79              	.LBB22:
  80              	.LBB23:
 203:Generated_Source\PSoC4/ReadyToDrive_ISR.c **** }
  81              		.loc 1 203 0
  82 0006 034A     		ldr	r2, .L3+4
  83 0008 034B     		ldr	r3, .L3+8
  84 000a 1A64     		str	r2, [r3, #64]
  85              	.LVL3:
  86              	.LBE23:
  87              	.LBE22:
 137:Generated_Source\PSoC4/ReadyToDrive_ISR.c **** 
  88              		.loc 1 137 0
  89 000c 7047     		bx	lr
  90              	.L4:
  91 000e C046     		.align	2
  92              	.L3:
  93 0010 80E100E0 		.word	-536813184
  94 0014 00000000 		.word	IntDefaultHandler
  95 0018 00000000 		.word	CyRamVectors
  96              		.cfi_endproc
  97              	.LFE3:
  98              		.size	ReadyToDrive_ISR_Stop, .-ReadyToDrive_ISR_Stop
  99              		.section	.text.ReadyToDrive_ISR_SetVector,"ax",%progbits
 100              		.align	1
ARM GAS  C:\Users\leoja\AppData\Local\Temp\ccW7CYUf.s 			page 9


 101              		.global	ReadyToDrive_ISR_SetVector
 102              		.code	16
 103              		.thumb_func
 104              		.type	ReadyToDrive_ISR_SetVector, %function
 105              	ReadyToDrive_ISR_SetVector:
 106              	.LFB5:
 202:Generated_Source\PSoC4/ReadyToDrive_ISR.c ****     CyRamVectors[CYINT_IRQ_BASE + ReadyToDrive_ISR__INTC_NUMBER] = address;
 107              		.loc 1 202 0
 108              		.cfi_startproc
 109              		@ args = 0, pretend = 0, frame = 0
 110              		@ frame_needed = 0, uses_anonymous_args = 0
 111              		@ link register save eliminated.
 112              	.LVL4:
 203:Generated_Source\PSoC4/ReadyToDrive_ISR.c **** }
 113              		.loc 1 203 0
 114 0000 014B     		ldr	r3, .L6
 204:Generated_Source\PSoC4/ReadyToDrive_ISR.c **** 
 115              		.loc 1 204 0
 116              		@ sp needed
 203:Generated_Source\PSoC4/ReadyToDrive_ISR.c **** }
 117              		.loc 1 203 0
 118 0002 1864     		str	r0, [r3, #64]
 204:Generated_Source\PSoC4/ReadyToDrive_ISR.c **** 
 119              		.loc 1 204 0
 120 0004 7047     		bx	lr
 121              	.L7:
 122 0006 C046     		.align	2
 123              	.L6:
 124 0008 00000000 		.word	CyRamVectors
 125              		.cfi_endproc
 126              	.LFE5:
 127              		.size	ReadyToDrive_ISR_SetVector, .-ReadyToDrive_ISR_SetVector
 128              		.section	.text.ReadyToDrive_ISR_GetVector,"ax",%progbits
 129              		.align	1
 130              		.global	ReadyToDrive_ISR_GetVector
 131              		.code	16
 132              		.thumb_func
 133              		.type	ReadyToDrive_ISR_GetVector, %function
 134              	ReadyToDrive_ISR_GetVector:
 135              	.LFB6:
 222:Generated_Source\PSoC4/ReadyToDrive_ISR.c ****     return CyRamVectors[CYINT_IRQ_BASE + ReadyToDrive_ISR__INTC_NUMBER];
 136              		.loc 1 222 0
 137              		.cfi_startproc
 138              		@ args = 0, pretend = 0, frame = 0
 139              		@ frame_needed = 0, uses_anonymous_args = 0
 140              		@ link register save eliminated.
 223:Generated_Source\PSoC4/ReadyToDrive_ISR.c **** }
 141              		.loc 1 223 0
 142 0000 014B     		ldr	r3, .L9
 224:Generated_Source\PSoC4/ReadyToDrive_ISR.c **** 
 143              		.loc 1 224 0
 144              		@ sp needed
 223:Generated_Source\PSoC4/ReadyToDrive_ISR.c **** }
 145              		.loc 1 223 0
 146 0002 186C     		ldr	r0, [r3, #64]
 224:Generated_Source\PSoC4/ReadyToDrive_ISR.c **** 
 147              		.loc 1 224 0
ARM GAS  C:\Users\leoja\AppData\Local\Temp\ccW7CYUf.s 			page 10


 148 0004 7047     		bx	lr
 149              	.L10:
 150 0006 C046     		.align	2
 151              	.L9:
 152 0008 00000000 		.word	CyRamVectors
 153              		.cfi_endproc
 154              	.LFE6:
 155              		.size	ReadyToDrive_ISR_GetVector, .-ReadyToDrive_ISR_GetVector
 156              		.section	.text.ReadyToDrive_ISR_SetPriority,"ax",%progbits
 157              		.align	1
 158              		.global	ReadyToDrive_ISR_SetPriority
 159              		.code	16
 160              		.thumb_func
 161              		.type	ReadyToDrive_ISR_SetPriority, %function
 162              	ReadyToDrive_ISR_SetPriority:
 163              	.LFB7:
 252:Generated_Source\PSoC4/ReadyToDrive_ISR.c **** 	uint8 interruptState;
 164              		.loc 1 252 0
 165              		.cfi_startproc
 166              		@ args = 0, pretend = 0, frame = 0
 167              		@ frame_needed = 0, uses_anonymous_args = 0
 168              	.LVL5:
 169 0000 10B5     		push	{r4, lr}
 170              		.cfi_def_cfa_offset 8
 171              		.cfi_offset 4, -8
 172              		.cfi_offset 14, -4
 252:Generated_Source\PSoC4/ReadyToDrive_ISR.c **** 	uint8 interruptState;
 173              		.loc 1 252 0
 174 0002 0400     		movs	r4, r0
 256:Generated_Source\PSoC4/ReadyToDrive_ISR.c ****     *ReadyToDrive_ISR_INTC_PRIOR = (*ReadyToDrive_ISR_INTC_PRIOR & (uint32)(~(uint32)ReadyToDrive_I
 175              		.loc 1 256 0
 176 0004 FFF7FEFF 		bl	CyEnterCriticalSection
 177              	.LVL6:
 257:Generated_Source\PSoC4/ReadyToDrive_ISR.c ****                                     ((uint32)priority << priorityOffset);
 178              		.loc 1 257 0
 179 0008 C021     		movs	r1, #192
 180 000a 044A     		ldr	r2, .L12
 181 000c A401     		lsls	r4, r4, #6
 182 000e 1368     		ldr	r3, [r2]
 260:Generated_Source\PSoC4/ReadyToDrive_ISR.c **** 
 183              		.loc 1 260 0
 184              		@ sp needed
 257:Generated_Source\PSoC4/ReadyToDrive_ISR.c ****                                     ((uint32)priority << priorityOffset);
 185              		.loc 1 257 0
 186 0010 8B43     		bics	r3, r1
 187 0012 1C43     		orrs	r4, r3
 188 0014 1460     		str	r4, [r2]
 259:Generated_Source\PSoC4/ReadyToDrive_ISR.c **** }
 189              		.loc 1 259 0
 190 0016 FFF7FEFF 		bl	CyExitCriticalSection
 191              	.LVL7:
 260:Generated_Source\PSoC4/ReadyToDrive_ISR.c **** 
 192              		.loc 1 260 0
 193 001a 10BD     		pop	{r4, pc}
 194              	.L13:
 195              		.align	2
 196              	.L12:
ARM GAS  C:\Users\leoja\AppData\Local\Temp\ccW7CYUf.s 			page 11


 197 001c 00E400E0 		.word	-536812544
 198              		.cfi_endproc
 199              	.LFE7:
 200              		.size	ReadyToDrive_ISR_SetPriority, .-ReadyToDrive_ISR_SetPriority
 201              		.section	.text.ReadyToDrive_ISR_Start,"ax",%progbits
 202              		.align	1
 203              		.global	ReadyToDrive_ISR_Start
 204              		.code	16
 205              		.thumb_func
 206              		.type	ReadyToDrive_ISR_Start, %function
 207              	ReadyToDrive_ISR_Start:
 208              	.LFB1:
  58:Generated_Source\PSoC4/ReadyToDrive_ISR.c ****     /* For all we know the interrupt is active. */
 209              		.loc 1 58 0
 210              		.cfi_startproc
 211              		@ args = 0, pretend = 0, frame = 0
 212              		@ frame_needed = 0, uses_anonymous_args = 0
 213 0000 10B5     		push	{r4, lr}
 214              		.cfi_def_cfa_offset 8
 215              		.cfi_offset 4, -8
 216              		.cfi_offset 14, -4
 217              	.LBB24:
 218              	.LBB25:
 219              		.loc 1 351 0
 220 0002 0124     		movs	r4, #1
 221 0004 054B     		ldr	r3, .L15
 222              	.LBE25:
 223              	.LBE24:
 224              	.LBB27:
 225              	.LBB28:
 203:Generated_Source\PSoC4/ReadyToDrive_ISR.c **** }
 226              		.loc 1 203 0
 227 0006 064A     		ldr	r2, .L15+4
 228              	.LBE28:
 229              	.LBE27:
 230              	.LBB31:
 231              	.LBB26:
 232              		.loc 1 351 0
 233 0008 1C60     		str	r4, [r3]
 234              	.LVL8:
 235              	.LBE26:
 236              	.LBE31:
 237              	.LBB32:
 238              	.LBB29:
 203:Generated_Source\PSoC4/ReadyToDrive_ISR.c **** }
 239              		.loc 1 203 0
 240 000a 064B     		ldr	r3, .L15+8
 241              	.LBE29:
 242              	.LBE32:
  66:Generated_Source\PSoC4/ReadyToDrive_ISR.c **** 
 243              		.loc 1 66 0
 244 000c 0220     		movs	r0, #2
 245              	.LBB33:
 246              	.LBB30:
 203:Generated_Source\PSoC4/ReadyToDrive_ISR.c **** }
 247              		.loc 1 203 0
 248 000e 1A64     		str	r2, [r3, #64]
ARM GAS  C:\Users\leoja\AppData\Local\Temp\ccW7CYUf.s 			page 12


 249              	.LVL9:
 250              	.LBE30:
 251              	.LBE33:
  66:Generated_Source\PSoC4/ReadyToDrive_ISR.c **** 
 252              		.loc 1 66 0
 253 0010 FFF7FEFF 		bl	ReadyToDrive_ISR_SetPriority
 254              	.LVL10:
 255              	.LBB34:
 256              	.LBB35:
 309:Generated_Source\PSoC4/ReadyToDrive_ISR.c **** }
 257              		.loc 1 309 0
 258 0014 044B     		ldr	r3, .L15+12
 259              	.LBE35:
 260              	.LBE34:
  70:Generated_Source\PSoC4/ReadyToDrive_ISR.c **** 
 261              		.loc 1 70 0
 262              		@ sp needed
 263              	.LBB37:
 264              	.LBB36:
 309:Generated_Source\PSoC4/ReadyToDrive_ISR.c **** }
 265              		.loc 1 309 0
 266 0016 1C60     		str	r4, [r3]
 267              	.LBE36:
 268              	.LBE37:
  70:Generated_Source\PSoC4/ReadyToDrive_ISR.c **** 
 269              		.loc 1 70 0
 270 0018 10BD     		pop	{r4, pc}
 271              	.L16:
 272 001a C046     		.align	2
 273              	.L15:
 274 001c 80E100E0 		.word	-536813184
 275 0020 00000000 		.word	ReadyToDrive_ISR_Interrupt
 276 0024 00000000 		.word	CyRamVectors
 277 0028 00E100E0 		.word	-536813312
 278              		.cfi_endproc
 279              	.LFE1:
 280              		.size	ReadyToDrive_ISR_Start, .-ReadyToDrive_ISR_Start
 281              		.section	.text.ReadyToDrive_ISR_StartEx,"ax",%progbits
 282              		.align	1
 283              		.global	ReadyToDrive_ISR_StartEx
 284              		.code	16
 285              		.thumb_func
 286              		.type	ReadyToDrive_ISR_StartEx, %function
 287              	ReadyToDrive_ISR_StartEx:
 288              	.LFB2:
 101:Generated_Source\PSoC4/ReadyToDrive_ISR.c ****     /* For all we know the interrupt is active. */
 289              		.loc 1 101 0
 290              		.cfi_startproc
 291              		@ args = 0, pretend = 0, frame = 0
 292              		@ frame_needed = 0, uses_anonymous_args = 0
 293              	.LVL11:
 294 0000 10B5     		push	{r4, lr}
 295              		.cfi_def_cfa_offset 8
 296              		.cfi_offset 4, -8
 297              		.cfi_offset 14, -4
 298              	.LBB38:
 299              	.LBB39:
ARM GAS  C:\Users\leoja\AppData\Local\Temp\ccW7CYUf.s 			page 13


 300              		.loc 1 351 0
 301 0002 0124     		movs	r4, #1
 302 0004 044B     		ldr	r3, .L18
 303              	.LBE39:
 304              	.LBE38:
 113:Generated_Source\PSoC4/ReadyToDrive_ISR.c **** 
 305              		.loc 1 113 0
 306              		@ sp needed
 307              	.LBB41:
 308              	.LBB40:
 309              		.loc 1 351 0
 310 0006 1C60     		str	r4, [r3]
 311              	.LVL12:
 312              	.LBE40:
 313              	.LBE41:
 314              	.LBB42:
 315              	.LBB43:
 203:Generated_Source\PSoC4/ReadyToDrive_ISR.c **** }
 316              		.loc 1 203 0
 317 0008 044B     		ldr	r3, .L18+4
 318 000a 1864     		str	r0, [r3, #64]
 319              	.LVL13:
 320              	.LBE43:
 321              	.LBE42:
 109:Generated_Source\PSoC4/ReadyToDrive_ISR.c **** 
 322              		.loc 1 109 0
 323 000c 0220     		movs	r0, #2
 324              	.LVL14:
 325 000e FFF7FEFF 		bl	ReadyToDrive_ISR_SetPriority
 326              	.LVL15:
 327              	.LBB44:
 328              	.LBB45:
 309:Generated_Source\PSoC4/ReadyToDrive_ISR.c **** }
 329              		.loc 1 309 0
 330 0012 034B     		ldr	r3, .L18+8
 331 0014 1C60     		str	r4, [r3]
 332              	.LBE45:
 333              	.LBE44:
 113:Generated_Source\PSoC4/ReadyToDrive_ISR.c **** 
 334              		.loc 1 113 0
 335 0016 10BD     		pop	{r4, pc}
 336              	.L19:
 337              		.align	2
 338              	.L18:
 339 0018 80E100E0 		.word	-536813184
 340 001c 00000000 		.word	CyRamVectors
 341 0020 00E100E0 		.word	-536813312
 342              		.cfi_endproc
 343              	.LFE2:
 344              		.size	ReadyToDrive_ISR_StartEx, .-ReadyToDrive_ISR_StartEx
 345              		.section	.text.ReadyToDrive_ISR_GetPriority,"ax",%progbits
 346              		.align	1
 347              		.global	ReadyToDrive_ISR_GetPriority
 348              		.code	16
 349              		.thumb_func
 350              		.type	ReadyToDrive_ISR_GetPriority, %function
 351              	ReadyToDrive_ISR_GetPriority:
ARM GAS  C:\Users\leoja\AppData\Local\Temp\ccW7CYUf.s 			page 14


 352              	.LFB8:
 280:Generated_Source\PSoC4/ReadyToDrive_ISR.c ****     uint32 priority;
 353              		.loc 1 280 0
 354              		.cfi_startproc
 355              		@ args = 0, pretend = 0, frame = 0
 356              		@ frame_needed = 0, uses_anonymous_args = 0
 357              		@ link register save eliminated.
 358              	.LVL16:
 284:Generated_Source\PSoC4/ReadyToDrive_ISR.c **** 
 359              		.loc 1 284 0
 360 0000 024B     		ldr	r3, .L21
 287:Generated_Source\PSoC4/ReadyToDrive_ISR.c **** 
 361              		.loc 1 287 0
 362              		@ sp needed
 284:Generated_Source\PSoC4/ReadyToDrive_ISR.c **** 
 363              		.loc 1 284 0
 364 0002 1868     		ldr	r0, [r3]
 365              	.LVL17:
 286:Generated_Source\PSoC4/ReadyToDrive_ISR.c **** }
 366              		.loc 1 286 0
 367 0004 0006     		lsls	r0, r0, #24
 368              	.LVL18:
 369 0006 800F     		lsrs	r0, r0, #30
 287:Generated_Source\PSoC4/ReadyToDrive_ISR.c **** 
 370              		.loc 1 287 0
 371 0008 7047     		bx	lr
 372              	.L22:
 373 000a C046     		.align	2
 374              	.L21:
 375 000c 00E400E0 		.word	-536812544
 376              		.cfi_endproc
 377              	.LFE8:
 378              		.size	ReadyToDrive_ISR_GetPriority, .-ReadyToDrive_ISR_GetPriority
 379              		.section	.text.ReadyToDrive_ISR_Enable,"ax",%progbits
 380              		.align	1
 381              		.global	ReadyToDrive_ISR_Enable
 382              		.code	16
 383              		.thumb_func
 384              		.type	ReadyToDrive_ISR_Enable, %function
 385              	ReadyToDrive_ISR_Enable:
 386              	.LFB9:
 307:Generated_Source\PSoC4/ReadyToDrive_ISR.c ****     /* Enable the general interrupt. */
 387              		.loc 1 307 0
 388              		.cfi_startproc
 389              		@ args = 0, pretend = 0, frame = 0
 390              		@ frame_needed = 0, uses_anonymous_args = 0
 391              		@ link register save eliminated.
 309:Generated_Source\PSoC4/ReadyToDrive_ISR.c **** }
 392              		.loc 1 309 0
 393 0000 0122     		movs	r2, #1
 394 0002 014B     		ldr	r3, .L24
 310:Generated_Source\PSoC4/ReadyToDrive_ISR.c **** 
 395              		.loc 1 310 0
 396              		@ sp needed
 309:Generated_Source\PSoC4/ReadyToDrive_ISR.c **** }
 397              		.loc 1 309 0
 398 0004 1A60     		str	r2, [r3]
ARM GAS  C:\Users\leoja\AppData\Local\Temp\ccW7CYUf.s 			page 15


 310:Generated_Source\PSoC4/ReadyToDrive_ISR.c **** 
 399              		.loc 1 310 0
 400 0006 7047     		bx	lr
 401              	.L25:
 402              		.align	2
 403              	.L24:
 404 0008 00E100E0 		.word	-536813312
 405              		.cfi_endproc
 406              	.LFE9:
 407              		.size	ReadyToDrive_ISR_Enable, .-ReadyToDrive_ISR_Enable
 408              		.section	.text.ReadyToDrive_ISR_GetState,"ax",%progbits
 409              		.align	1
 410              		.global	ReadyToDrive_ISR_GetState
 411              		.code	16
 412              		.thumb_func
 413              		.type	ReadyToDrive_ISR_GetState, %function
 414              	ReadyToDrive_ISR_GetState:
 415              	.LFB10:
 328:Generated_Source\PSoC4/ReadyToDrive_ISR.c ****     /* Get the state of the general interrupt. */
 416              		.loc 1 328 0
 417              		.cfi_startproc
 418              		@ args = 0, pretend = 0, frame = 0
 419              		@ frame_needed = 0, uses_anonymous_args = 0
 420              		@ link register save eliminated.
 330:Generated_Source\PSoC4/ReadyToDrive_ISR.c **** }
 421              		.loc 1 330 0
 422 0000 024B     		ldr	r3, .L27
 331:Generated_Source\PSoC4/ReadyToDrive_ISR.c **** 
 423              		.loc 1 331 0
 424              		@ sp needed
 330:Generated_Source\PSoC4/ReadyToDrive_ISR.c **** }
 425              		.loc 1 330 0
 426 0002 1868     		ldr	r0, [r3]
 427 0004 0123     		movs	r3, #1
 428 0006 1840     		ands	r0, r3
 331:Generated_Source\PSoC4/ReadyToDrive_ISR.c **** 
 429              		.loc 1 331 0
 430 0008 7047     		bx	lr
 431              	.L28:
 432 000a C046     		.align	2
 433              	.L27:
 434 000c 00E100E0 		.word	-536813312
 435              		.cfi_endproc
 436              	.LFE10:
 437              		.size	ReadyToDrive_ISR_GetState, .-ReadyToDrive_ISR_GetState
 438              		.section	.text.ReadyToDrive_ISR_Disable,"ax",%progbits
 439              		.align	1
 440              		.global	ReadyToDrive_ISR_Disable
 441              		.code	16
 442              		.thumb_func
 443              		.type	ReadyToDrive_ISR_Disable, %function
 444              	ReadyToDrive_ISR_Disable:
 445              	.LFB11:
 349:Generated_Source\PSoC4/ReadyToDrive_ISR.c ****     /* Disable the general interrupt. */
 446              		.loc 1 349 0
 447              		.cfi_startproc
 448              		@ args = 0, pretend = 0, frame = 0
ARM GAS  C:\Users\leoja\AppData\Local\Temp\ccW7CYUf.s 			page 16


 449              		@ frame_needed = 0, uses_anonymous_args = 0
 450              		@ link register save eliminated.
 451              		.loc 1 351 0
 452 0000 0122     		movs	r2, #1
 453 0002 014B     		ldr	r3, .L30
 352:Generated_Source\PSoC4/ReadyToDrive_ISR.c **** }
 454              		.loc 1 352 0
 455              		@ sp needed
 351:Generated_Source\PSoC4/ReadyToDrive_ISR.c **** }
 456              		.loc 1 351 0
 457 0004 1A60     		str	r2, [r3]
 458              		.loc 1 352 0
 459 0006 7047     		bx	lr
 460              	.L31:
 461              		.align	2
 462              	.L30:
 463 0008 80E100E0 		.word	-536813184
 464              		.cfi_endproc
 465              	.LFE11:
 466              		.size	ReadyToDrive_ISR_Disable, .-ReadyToDrive_ISR_Disable
 467              		.section	.text.ReadyToDrive_ISR_SetPending,"ax",%progbits
 468              		.align	1
 469              		.global	ReadyToDrive_ISR_SetPending
 470              		.code	16
 471              		.thumb_func
 472              		.type	ReadyToDrive_ISR_SetPending, %function
 473              	ReadyToDrive_ISR_SetPending:
 474              	.LFB12:
 353:Generated_Source\PSoC4/ReadyToDrive_ISR.c **** 
 354:Generated_Source\PSoC4/ReadyToDrive_ISR.c **** 
 355:Generated_Source\PSoC4/ReadyToDrive_ISR.c **** /*******************************************************************************
 356:Generated_Source\PSoC4/ReadyToDrive_ISR.c **** * Function Name: ReadyToDrive_ISR_SetPending
 357:Generated_Source\PSoC4/ReadyToDrive_ISR.c **** ********************************************************************************
 358:Generated_Source\PSoC4/ReadyToDrive_ISR.c **** *
 359:Generated_Source\PSoC4/ReadyToDrive_ISR.c **** * Summary:
 360:Generated_Source\PSoC4/ReadyToDrive_ISR.c **** *   Causes the Interrupt to enter the pending state, a software method of
 361:Generated_Source\PSoC4/ReadyToDrive_ISR.c **** *   generating the interrupt.
 362:Generated_Source\PSoC4/ReadyToDrive_ISR.c **** *
 363:Generated_Source\PSoC4/ReadyToDrive_ISR.c **** * Parameters:
 364:Generated_Source\PSoC4/ReadyToDrive_ISR.c **** *   None
 365:Generated_Source\PSoC4/ReadyToDrive_ISR.c **** *
 366:Generated_Source\PSoC4/ReadyToDrive_ISR.c **** * Return:
 367:Generated_Source\PSoC4/ReadyToDrive_ISR.c **** *   None
 368:Generated_Source\PSoC4/ReadyToDrive_ISR.c **** *
 369:Generated_Source\PSoC4/ReadyToDrive_ISR.c **** * Side Effects:
 370:Generated_Source\PSoC4/ReadyToDrive_ISR.c **** *   If interrupts are enabled and the interrupt is set up properly, the ISR is
 371:Generated_Source\PSoC4/ReadyToDrive_ISR.c **** *   entered (depending on the priority of this interrupt and other pending 
 372:Generated_Source\PSoC4/ReadyToDrive_ISR.c **** *   interrupts).
 373:Generated_Source\PSoC4/ReadyToDrive_ISR.c **** *
 374:Generated_Source\PSoC4/ReadyToDrive_ISR.c **** *******************************************************************************/
 375:Generated_Source\PSoC4/ReadyToDrive_ISR.c **** void ReadyToDrive_ISR_SetPending(void)
 376:Generated_Source\PSoC4/ReadyToDrive_ISR.c **** {
 475              		.loc 1 376 0
 476              		.cfi_startproc
 477              		@ args = 0, pretend = 0, frame = 0
 478              		@ frame_needed = 0, uses_anonymous_args = 0
 479              		@ link register save eliminated.
ARM GAS  C:\Users\leoja\AppData\Local\Temp\ccW7CYUf.s 			page 17


 377:Generated_Source\PSoC4/ReadyToDrive_ISR.c ****     *ReadyToDrive_ISR_INTC_SET_PD = ReadyToDrive_ISR__INTC_MASK;
 480              		.loc 1 377 0
 481 0000 0122     		movs	r2, #1
 482 0002 014B     		ldr	r3, .L33
 378:Generated_Source\PSoC4/ReadyToDrive_ISR.c **** }
 483              		.loc 1 378 0
 484              		@ sp needed
 377:Generated_Source\PSoC4/ReadyToDrive_ISR.c ****     *ReadyToDrive_ISR_INTC_SET_PD = ReadyToDrive_ISR__INTC_MASK;
 485              		.loc 1 377 0
 486 0004 1A60     		str	r2, [r3]
 487              		.loc 1 378 0
 488 0006 7047     		bx	lr
 489              	.L34:
 490              		.align	2
 491              	.L33:
 492 0008 00E200E0 		.word	-536813056
 493              		.cfi_endproc
 494              	.LFE12:
 495              		.size	ReadyToDrive_ISR_SetPending, .-ReadyToDrive_ISR_SetPending
 496              		.section	.text.ReadyToDrive_ISR_ClearPending,"ax",%progbits
 497              		.align	1
 498              		.global	ReadyToDrive_ISR_ClearPending
 499              		.code	16
 500              		.thumb_func
 501              		.type	ReadyToDrive_ISR_ClearPending, %function
 502              	ReadyToDrive_ISR_ClearPending:
 503              	.LFB13:
 379:Generated_Source\PSoC4/ReadyToDrive_ISR.c **** 
 380:Generated_Source\PSoC4/ReadyToDrive_ISR.c **** 
 381:Generated_Source\PSoC4/ReadyToDrive_ISR.c **** /*******************************************************************************
 382:Generated_Source\PSoC4/ReadyToDrive_ISR.c **** * Function Name: ReadyToDrive_ISR_ClearPending
 383:Generated_Source\PSoC4/ReadyToDrive_ISR.c **** ********************************************************************************
 384:Generated_Source\PSoC4/ReadyToDrive_ISR.c **** *
 385:Generated_Source\PSoC4/ReadyToDrive_ISR.c **** * Summary:
 386:Generated_Source\PSoC4/ReadyToDrive_ISR.c **** *   Clears a pending interrupt in the interrupt controller.
 387:Generated_Source\PSoC4/ReadyToDrive_ISR.c **** *
 388:Generated_Source\PSoC4/ReadyToDrive_ISR.c **** *   Note Some interrupt sources are clear-on-read and require the block 
 389:Generated_Source\PSoC4/ReadyToDrive_ISR.c **** *   interrupt/status register to be read/cleared with the appropriate block API 
 390:Generated_Source\PSoC4/ReadyToDrive_ISR.c **** *   (GPIO, UART, and so on). Otherwise the ISR will continue to remain in 
 391:Generated_Source\PSoC4/ReadyToDrive_ISR.c **** *   pending state even though the interrupt itself is cleared using this API.
 392:Generated_Source\PSoC4/ReadyToDrive_ISR.c **** *
 393:Generated_Source\PSoC4/ReadyToDrive_ISR.c **** * Parameters:
 394:Generated_Source\PSoC4/ReadyToDrive_ISR.c **** *   None
 395:Generated_Source\PSoC4/ReadyToDrive_ISR.c **** *
 396:Generated_Source\PSoC4/ReadyToDrive_ISR.c **** * Return:
 397:Generated_Source\PSoC4/ReadyToDrive_ISR.c **** *   None
 398:Generated_Source\PSoC4/ReadyToDrive_ISR.c **** *
 399:Generated_Source\PSoC4/ReadyToDrive_ISR.c **** *******************************************************************************/
 400:Generated_Source\PSoC4/ReadyToDrive_ISR.c **** void ReadyToDrive_ISR_ClearPending(void)
 401:Generated_Source\PSoC4/ReadyToDrive_ISR.c **** {
 504              		.loc 1 401 0
 505              		.cfi_startproc
 506              		@ args = 0, pretend = 0, frame = 0
 507              		@ frame_needed = 0, uses_anonymous_args = 0
 508              		@ link register save eliminated.
 402:Generated_Source\PSoC4/ReadyToDrive_ISR.c ****     *ReadyToDrive_ISR_INTC_CLR_PD = ReadyToDrive_ISR__INTC_MASK;
 509              		.loc 1 402 0
ARM GAS  C:\Users\leoja\AppData\Local\Temp\ccW7CYUf.s 			page 18


 510 0000 0122     		movs	r2, #1
 511 0002 014B     		ldr	r3, .L36
 403:Generated_Source\PSoC4/ReadyToDrive_ISR.c **** }
 512              		.loc 1 403 0
 513              		@ sp needed
 402:Generated_Source\PSoC4/ReadyToDrive_ISR.c ****     *ReadyToDrive_ISR_INTC_CLR_PD = ReadyToDrive_ISR__INTC_MASK;
 514              		.loc 1 402 0
 515 0004 1A60     		str	r2, [r3]
 516              		.loc 1 403 0
 517 0006 7047     		bx	lr
 518              	.L37:
 519              		.align	2
 520              	.L36:
 521 0008 80E200E0 		.word	-536812928
 522              		.cfi_endproc
 523              	.LFE13:
 524              		.size	ReadyToDrive_ISR_ClearPending, .-ReadyToDrive_ISR_ClearPending
 525              		.text
 526              	.Letext0:
 527              		.file 2 "Generated_Source\\PSoC4/cytypes.h"
 528              		.file 3 "Generated_Source\\PSoC4/Buzzer.h"
 529              		.file 4 "Generated_Source\\PSoC4/ReadyToDrive_Timer.h"
 530              		.file 5 "Generated_Source\\PSoC4/CyLib.h"